
camCoreWithRTOS.elf:     file format elf32-littleriscv
camCoreWithRTOS.elf
architecture: riscv:rv32, flags 0x00000112:
EXEC_P, HAS_SYMS, D_PAGED
start address 0x00000000

Program Header:
    LOAD off    0x00001000 vaddr 0x00000000 paddr 0x00000000 align 2**12
         filesz 0x00007548 memsz 0x00007548 flags r-x
    LOAD off    0x00009000 vaddr 0x20000000 paddr 0x00007548 align 2**12
         filesz 0x000000e0 memsz 0x00001fd0 flags rw-
    LOAD off    0x00009f00 vaddr 0x20004f00 paddr 0x20004f00 align 2**12
         filesz 0x00000000 memsz 0x00000100 flags rw-

Sections:
Idx Name           Size      VMA       LMA       File off  Algn  Flags
  0 .init          00000038  00000000  00000000  00001000  2**1  CONTENTS, ALLOC, LOAD, READONLY, CODE
  1 .vector        00000108  00000038  00000038  00001038  2**1  CONTENTS, ALLOC, LOAD, READONLY, CODE
  2 .text          00007370  00000140  00000140  00001140  2**2  CONTENTS, ALLOC, LOAD, READONLY, CODE
  3 .rodata        00000098  000074b0  000074b0  000084b0  2**2  CONTENTS, ALLOC, LOAD, READONLY, DATA
  4 .fini          00000000  00007548  00007548  000090e0  2**0  CONTENTS, ALLOC, LOAD, CODE
  5 .dalign        00000000  20000000  20000000  000090e0  2**0  CONTENTS
  6 .dlalign       00000000  00007548  00007548  000090e0  2**0  CONTENTS
  7 .data          000000e0  20000000  00007548  00009000  2**2  CONTENTS, ALLOC, LOAD, DATA
  8 .bss           00001ef0  200000e0  00007628  000090e0  2**2  ALLOC
  9 .stack         00000100  20004f00  20004f00  00009f00  2**0  ALLOC
 10 .debug_info    00025a2e  00000000  00000000  000090e0  2**0  CONTENTS, READONLY, DEBUGGING
 11 .debug_abbrev  00006951  00000000  00000000  0002eb0e  2**0  CONTENTS, READONLY, DEBUGGING
 12 .debug_aranges 00001230  00000000  00000000  00035460  2**3  CONTENTS, READONLY, DEBUGGING
 13 .debug_ranges  00001430  00000000  00000000  00036690  2**3  CONTENTS, READONLY, DEBUGGING
 14 .debug_line    0001957d  00000000  00000000  00037ac0  2**0  CONTENTS, READONLY, DEBUGGING
 15 .debug_str     000053c8  00000000  00000000  0005103d  2**0  CONTENTS, READONLY, DEBUGGING
 16 .comment       00000033  00000000  00000000  00056405  2**0  CONTENTS, READONLY
 17 .debug_frame   000043c8  00000000  00000000  00056438  2**2  CONTENTS, READONLY, DEBUGGING
 18 .debug_loc     0000b105  00000000  00000000  0005a800  2**0  CONTENTS, READONLY, DEBUGGING
 19 .stab          000000b4  00000000  00000000  00065908  2**2  CONTENTS, READONLY, DEBUGGING
 20 .stabstr       00000183  00000000  00000000  000659bc  2**0  CONTENTS, READONLY, DEBUGGING
SYMBOL TABLE:
00000000 l    d  .init	00000000 .init
00000038 l    d  .vector	00000000 .vector
00000140 l    d  .text	00000000 .text
000074b0 l    d  .rodata	00000000 .rodata
00007548 l    d  .fini	00000000 .fini
20000000 l    d  .dalign	00000000 .dalign
00007548 l    d  .dlalign	00000000 .dlalign
20000000 l    d  .data	00000000 .data
200000e0 l    d  .bss	00000000 .bss
20004f00 l    d  .stack	00000000 .stack
00000000 l    d  .debug_info	00000000 .debug_info
00000000 l    d  .debug_abbrev	00000000 .debug_abbrev
00000000 l    d  .debug_aranges	00000000 .debug_aranges
00000000 l    d  .debug_ranges	00000000 .debug_ranges
00000000 l    d  .debug_line	00000000 .debug_line
00000000 l    d  .debug_str	00000000 .debug_str
00000000 l    d  .comment	00000000 .comment
00000000 l    d  .debug_frame	00000000 .debug_frame
00000000 l    d  .debug_loc	00000000 .debug_loc
00000000 l    d  .stab	00000000 .stab
00000000 l    d  .stabstr	00000000 .stabstr
00000000 l    df *ABS*	00000000 ./Libraries/wch_libraries/Startup/startup_ch32v10x.o
00000038 l       .vector	00000000 _vector_base
00000000 l    df *ABS*	00000000 isr.c
00000000 l    df *ABS*	00000000 main.c
00000000 l    df *ABS*	00000000 ch32v10x_dma.c
00000000 l    df *ABS*	00000000 ch32v10x_exti.c
00000000 l    df *ABS*	00000000 ch32v10x_gpio.c
00000000 l    df *ABS*	00000000 ch32v10x_misc.c
00000000 l    df *ABS*	00000000 ch32v10x_rcc.c
20000000 l     O .data	00000010 APBAHBPrescTable
200000b0 l     O .data	00000004 ADCPrescTable
00000000 l    df *ABS*	00000000 ch32v10x_tim.c
00000000 l    df *ABS*	00000000 ch32v10x_usart.c
00000000 l    df *ABS*	00000000 SEEKFREE_MT9V03X.c
00000000 l    df *ABS*	00000000 SEEKFREE_OLED.c
00006af4 l     O .text	0000000d __func__.3175
00000000 l    df *ABS*	00000000 SEEKFREE_UART_7725.c
00000000 l    df *ABS*	00000000 zf_gpio.c
00000000 l    df *ABS*	00000000 zf_nvic.c
00000000 l    df *ABS*	00000000 zf_qtimer.c
00000000 l    df *ABS*	00000000 zf_systick.c
00000000 l    df *ABS*	00000000 zf_uart.c
00000000 l    df *ABS*	00000000 clock.c
200000fc l     O .bss	00000004 rt_tick
00000000 l    df *ABS*	00000000 components.c
000020bc l     F .text	00000004 rti_start
000020c0 l     F .text	00000004 rti_board_start
000020c4 l     F .text	00000004 rti_board_end
000020c8 l     F .text	00000004 rti_end
00000000 l    df *ABS*	00000000 idle.c
00002276 l     F .text	00000008 rt_thread_idle_entry
20000184 l     O .bss	00000078 idle
200001fc l     O .bss	00000300 rt_thread_stack
00000000 l    df *ABS*	00000000 ipc.c
00000000 l    df *ABS*	00000000 irq.c
00000000 l    df *ABS*	00000000 kservice.c
00002826 l     F .text	000001b6 print_number
200004fc l     O .bss	00000080 rt_log_buf.2341
00006de4 l     O .text	00000011 large_digits.2240
00006e88 l     O .text	00000011 small_digits.2239
00000000 l    df *ABS*	00000000 mem.c
00002fa0 l     F .text	00000060 plug_holes
2000057c l     O .bss	00000020 heap_sem
20000104 l     O .bss	00000004 heap_end
20000108 l     O .bss	00000004 heap_ptr
2000010c l     O .bss	00000004 lfree
20000110 l     O .bss	00000004 max_mem
20000114 l     O .bss	00000004 mem_size_aligned
20000118 l     O .bss	00000004 used_mem
00000000 l    df *ABS*	00000000 object.c
20000010 l     O .data	00000040 rt_object_container
00000000 l    df *ABS*	00000000 scheduler.c
20000124 l     O .bss	00000002 rt_scheduler_lock_nest
00000000 l    df *ABS*	00000000 thread.c
00000000 l    df *ABS*	00000000 timer.c
20000134 l     O .bss	00000004 random_nr.2125
20000138 l     O .bss	00000008 rt_timer_list
00000000 l    df *ABS*	00000000 cpuport.c
00000000 l    df *ABS*	00000000 cmd.c
00003cbc l     F .text	0000004c show_wait_queue
00003d18 l     F .text	00000088 list_get_next
00000000 l    df *ABS*	00000000 msh.c
00000000 l    df *ABS*	00000000 shell.c
200005dc l     O .bss	00000081 finsh_prompt.3980
2000015c l     O .bss	00000004 finsh_prompt_custom
00000000 l    df *ABS*	00000000 board.c
20000660 l     O .bss	00001960 rt_heap
00000000 l    df *ABS*	00000000 clock_config.c
00000000 l    df *ABS*	00000000 communication.c
00000000 l    df *ABS*	00000000 display.c
00000000 l    df *ABS*	00000000 timer_pit.c
00000000 l    df *ABS*	00000000 assert.c
00000000 l    df *ABS*	00000000 fprintf.c
00000000 l    df *ABS*	00000000 memcpy.c
00000000 l    df *ABS*	00000000 nano-vfprintf.c
000051ae l     F .text	00000028 __sfputc_r
00000000 l    df *ABS*	00000000 nano-vfprintf_i.c
00000000 l    df *ABS*	00000000 sprintf.c
00000000 l    df *ABS*	00000000 strlen.c
00000000 l    df *ABS*	00000000 strncmp.c
00000000 l    df *ABS*	00000000 strncpy.c
00000000 l    df *ABS*	00000000 wbuf.c
00000000 l    df *ABS*	00000000 wsetup.c
00000000 l    df *ABS*	00000000 abort.c
00000000 l    df *ABS*	00000000 fflush.c
00000000 l    df *ABS*	00000000 findfp.c
00005c92 l     F .text	0000006a std
00000000 l    df *ABS*	00000000 fwalk.c
00000000 l    df *ABS*	00000000 makebuf.c
00000000 l    df *ABS*	00000000 memchr.c
00000000 l    df *ABS*	00000000 memmove.c
00000000 l    df *ABS*	00000000 nano-mallocr.c
00000000 l    df *ABS*	00000000 nano-mallocr.c
00000000 l    df *ABS*	00000000 nano-mallocr.c
00000000 l    df *ABS*	00000000 nano-vfprintf.c
00000000 l    df *ABS*	00000000 sbrkr.c
00000000 l    df *ABS*	00000000 signal.c
00000000 l    df *ABS*	00000000 signalr.c
00000000 l    df *ABS*	00000000 stdio.c
00000000 l    df *ABS*	00000000 writer.c
00000000 l    df *ABS*	00000000 closer.c
00000000 l    df *ABS*	00000000 fstatr.c
00000000 l    df *ABS*	00000000 isattyr.c
00000000 l    df *ABS*	00000000 lseekr.c
00000000 l    df *ABS*	00000000 mlock.c
00000000 l    df *ABS*	00000000 nano-mallocr.c
00000000 l    df *ABS*	00000000 readr.c
00000000 l    df *ABS*	00000000 close.c
00000000 l    df *ABS*	00000000 fstat.c
00000000 l    df *ABS*	00000000 getpid.c
00000000 l    df *ABS*	00000000 isatty.c
00000000 l    df *ABS*	00000000 kill.c
00000000 l    df *ABS*	00000000 lseek.c
00000000 l    df *ABS*	00000000 read.c
00000000 l    df *ABS*	00000000 sbrk.c
20000174 l     O .bss	00000004 heap_end.1518
00000000 l    df *ABS*	00000000 _exit.c
00000000 l    df *ABS*	00000000 SEEKFREE_FONT.c
00000000 l    df *ABS*	00000000 impure.c
20000050 l     O .data	00000060 impure_data
00000000 l    df *ABS*	00000000 common.c
00000000 l    df *ABS*	00000000 reent.c
0000138c g     F .text	00000018 TIM_TimeBaseStructInit
000067ec g     F .text	00000014 _malloc_usable_size_r
0000039e g     F .text	00000064 EXTI2_IRQHandler
000031f4 g     F .text	0000002a rt_calloc
20000164 g     O .bss	00000004 uart_mb
0000750c g     O .rodata	00000008 __fsym_list_thread
000021c0 g     F .text	0000000e entry
00006784 g     F .text	00000030 _isatty_r
00003da0 g     F .text	000001b0 list_thread
000047ee g     F .text	00000330 finsh_thread_entry
00006854 g     F .text	00000010 _getpid
00003454 g     F .text	00000008 rt_object_is_systemobject
00002aaa g     F .text	00000030 rt_strncpy
00003c36 g     F .text	00000034 rt_hw_stack_init
000067b4 g     F .text	00000034 _lseek_r
00003922 g     F .text	00000012 rt_thread_mdelay
000043a8 g     F .text	00000220 msh_exec
00006fdc g     O .text	0000000d __fsym_list_mailbox_name
000033bc g     F .text	00000064 rt_object_allocate
00004f9e g     F .text	00000052 show_speed
00006ce4 g     O .text	00000100 __lowest_bit_bitmap
000065fe g     F .text	00000032 _kill_r
200008b0 g       .data	00000000 __global_pointer$
0000348a g     F .text	0000002e rt_system_scheduler_start
0000082e g     F .text	000000d0 TIM1_CC_IRQHandler
20000144 g     O .bss	00000004 rt_interrupt_to_thread
000066b0 g     F .text	00000036 __sseek
00005d4c g     F .text	0000006c __sinit
00005914 g     F .text	000000c0 __swbuf_r
00000ba8 g     F .text	00000028 HardFault_Handler
00001df2 g     F .text	0000000e systick_delay2
00005d06 g     F .text	00000046 __sfmoreglue
000067ea g     F .text	00000002 __malloc_unlock
00006fec g     O .text	00000009 __fsym_list_sem_name
00004b32 g     F .text	00000078 SysTick_Handler
0000321e g     F .text	000000ac rt_free
20000140 g     O .bss	00000004 rt_interrupt_from_thread
000010fa g     F .text	000000ae NVIC_Init
00003038 g     F .text	0000008c rt_system_heap_init
00002158 g     F .text	00000010 main_thread_entry
200000f8 g     O .bss	00000004 sys_clk
00005fd8 g     F .text	0000004a memmove
00003b9a g     F .text	00000090 rt_timer_check
00003528 g     F .text	00000050 rt_schedule_insert_thread
000041ee g     F .text	00000120 list_sem
00000b58 g     F .text	00000050 NMI_Handler
000017e4 g     F .text	0000011a oled_init
0000506e g     F .text	0000002a timer_pit_init
00000402 g     F .text	00000064 EXTI3_IRQHandler
00003f50 g     F .text	00000068 list
200000b4 g     O .data	00000004 camera_type
00006e9c g     O .text	00000009 __fsym_list_mem_name
20000154 g     O .bss	00000004 _sysvar_table_begin
00000160 g       .text	00000000 SW_handler
00001594 g     F .text	0000000c USART_GetFlagStatus
00006752 g     F .text	00000032 _fstat_r
000021ce g     F .text	000000a8 rt_thread_idle_excute
00006b64 g     O .text	00000010 TIMERN
00003884 g     F .text	0000004c rt_thread_suspend
00002ec2 g     F .text	00000036 rt_kprintf
20001fcc g     O .bss	00000004 errno
200000e0 g       .bss	00000000 _sbss
00000100 g       *ABS*	00000000 __stack_size
20001fc0 g     O .bss	0000000b temp_buff
00003d08 g     F .text	00000010 version
0000368a g     F .text	00000028 rt_thread_timeout
00004394 g     F .text	00000010 cmd_free
000074b0 g       .rodata	00000000 __rt_init_start
000040c6 g     F .text	00000128 list_mailbox
00007544 g       .rodata	00000000 __fsymtab_end
200000ed g     O .bss	00000001 ov7725_uart_finish_flag
00005040 g     F .text	0000002e timer1_pit_entry
00003ca4 g     F .text	00000018 hello
20000160 g     O .bss	00000004 shell
000050f8 g     F .text	000000b6 memcpy
00005cfc g     F .text	0000000a _cleanup_r
00001060 g     F .text	0000009a GPIO_PinRemapConfig
000062de g     F .text	00000282 _svfprintf_r
000046b8 g     F .text	000000aa finsh_system_init
00002112 g     F .text	00000046 rt_components_init
000002b6 g     F .text	00000064 EXTI0_IRQHandler
000013a4 g     F .text	00000024 TIM_Cmd
000039b4 g     F .text	0000004e rt_timer_init
000074c4 g       .rodata	00000000 __rt_init_end
0000227e g     F .text	0000003e rt_thread_idle_init
200000e0 g     O .bss	00000004 camera_sem
00001b2e g     F .text	00000024 gpio_toggle
20000150 g     O .bss	00000004 _syscall_table_end
00001fae g     F .text	00000030 uart_putbuff
0000345c g     F .text	0000002e rt_system_scheduler_init
00006590 g     F .text	00000062 _raise_r
0000014c g       .text	00000000 rt_hw_context_switch_to
00006844 g     F .text	00000010 _fstat
00002424 g     F .text	00000066 rt_mb_create
00005098 g     F .text	0000003a __assert_func
00000038 g       .init	00000000 _einit
20000148 g     O .bss	00000004 rt_thread_switch_interrupt_flag
0000142a g     F .text	0000000e TIM_ClearITPendingBit
0000129a g     F .text	0000001e RCC_APB2PeriphClockCmd
00001644 g     F .text	00000016 mt9v03x_vsync
000074c0 g     O .rodata	00000004 __rt_init_rti_end
00000662 g     F .text	00000050 ADC1_2_IRQHandler
00006630 g     F .text	00000002 _getpid_r
00000f8c g     F .text	000000ca GPIO_Init
00006f94 g     O .text	0000000f __fsym___cmd_list_sem_name
00001b62 g     F .text	00000050 nvic_init
00007524 g     O .rodata	00000008 __fsym_hello
0000152e g     F .text	00000020 USART_Cmd
200000c8 g     O .data	00000005 __fsym_list_name
00003c84 g     F .text	00000020 rt_hw_context_switch_interrupt
00006560 g     F .text	00000030 _sbrk_r
00000c20 g     F .text	00000012 TAMPER_IRQHandler
00006800 g     F .text	00000034 _read_r
00003768 g     F .text	000000c0 rt_thread_create
00007004 g     O .text	0000000b __fsym_list_timer_name
00003828 g     F .text	0000005c rt_thread_yield
00002168 g     F .text	0000002c rt_application_init
000012b8 g     F .text	0000001e RCC_APB1PeriphClockCmd
000030c4 g     F .text	00000130 rt_malloc
00006864 g     F .text	00000010 _isatty
000023dc g     F .text	00000048 rt_sem_release
00001bb2 g     F .text	00000114 timer_gpio_quad_init
000074fc g     O .rodata	00000008 __fsym_list_sem
200000d8 g     O .data	00000004 _global_impure_ptr
00006198 g     F .text	00000058 _realloc_r
00004b1e  w    F .text	0000000a rt_heap_begin_get
000074cc g     O .rodata	00000008 __fsym_list
00000ada g     F .text	0000007e DMA1_Channel4_IRQHandler
200000b8 g     O .data	00000002 slave_position
00005ae0 g     F .text	00000010 abort
000068a4 g     F .text	00000024 _sbrk
00006fa4 g     O .text	00000012 __fsym___cmd_list_thread_name
00003a02 g     F .text	00000032 rt_timer_detach
00003a34 g     F .text	00000048 rt_timer_create
00000f2c g     F .text	00000020 DMA_GetFlagStatus
000043a4 g     F .text	00000004 msh_is_used
00000a8a g     F .text	00000050 USART3_IRQHandler
00000f82 g     F .text	0000000a EXTI_ClearITPendingBit
000020cc g     F .text	00000046 rt_components_board_init
00000c32 g     F .text	00000012 RTC_IRQHandler
00002ef8 g     F .text	00000040 rt_show_version
20001fd0 g       .bss	00000000 _ebss
000015a0 g     F .text	0000004c USART_GetITStatus
000074b0 g     O .rodata	00000004 __rt_init_rti_start
00000df8 g     F .text	00000050 DMA1_Channel7_IRQHandler
00004bf0 g     F .text	000000cc rt_hw_board_init
00003934 g     F .text	00000050 rt_thread_resume
00002194 g     F .text	0000002c rtthread_startup
0000201a g     F .text	00000020 uart_getchar
00003b5a g     F .text	00000040 rt_timer_control
0000199a g     F .text	00000056 ov7725_cof_uart_interrupt
00004ff0 g     F .text	0000001c display_entry
2000016a g     O .bss	00000002 encoder_left_rear
000032ca g     F .text	00000054 rt_object_get_information
00006b74 g     O .text	00000010 UARTN
2000059c g     O .bss	00000040 rt_thread_priority_table
000050d2 g     F .text	00000026 fprintf
00000998 g     F .text	00000070 TIM4_IRQHandler
00001056 g     F .text	0000000a GPIO_WriteBit
200000f4 g     O .bss	00000001 ov7725_uart_receive_num
00003624 g     F .text	00000066 rt_thread_exit
00002a6a g     F .text	00000040 rt_memmove
00007450 g     O .text	00000020 __sf_fake_stderr
20001fd0 g       .bss	00000000 end
00001cc6 g     F .text	00000104 timer_quad_init
000074e4 g     O .rodata	00000008 __fsym___cmd_list_mailbox
000061f0 g     F .text	000000ee __ssputs_r
0000140e g     F .text	0000001c TIM_GetITStatus
000011a8 g     F .text	000000f2 RCC_GetClocksFreq
00000da8 g     F .text	00000050 DMA1_Channel6_IRQHandler
000051d6 g     F .text	00000044 __sfputs_r
00001ec6 g     F .text	000000c8 uart_init
00005fbe g     F .text	0000001a memchr
00004f14 g     F .text	0000002a get_sensor_data
00001438 g     F .text	000000f6 USART_Init
0000179e g     F .text	00000046 oled_fill
00006022 g     F .text	000000a8 _free_r
00000928 g     F .text	00000070 TIM3_IRQHandler
00000c56 g     F .text	00000012 RCC_IRQHandler
00002ada g     F .text	0000001a rt_strlen
00001e00 g     F .text	000000c6 uart_gpio_init
00000796 g     F .text	00000098 TIM1_TRG_COM_IRQHandler
0000753c g     O .rodata	00000008 __fsym___cmd_help
00000c68 g     F .text	00000050 DMA1_Channel1_IRQHandler
2000011c g     O .bss	00000001 rt_current_priority
00001a06 g     F .text	00000016 ov7725_uart_dma
000074d4 g     O .rodata	00000008 __fsym___cmd_list_timer
00000000 g       .init	00000000 _start
00006884 g     F .text	00000010 _lseek
200000f3 g     O .bss	00000001 ov7725_uart_receive_flag
00001b52 g     F .text	00000010 close_all_irq
00000590 g     F .text	000000d2 EXTI15_10_IRQHandler
00006b54 g     O .text	00000010 GPION
0000203a g     F .text	00000026 uart_query
000058c4 g     F .text	0000002c strncmp
00004ef6 g     F .text	0000001e encoder_init
0000154e g     F .text	0000003c USART_ITConfig
000058f0 g     F .text	00000024 strncpy
000018fe g     F .text	0000009c oled_p6x8str
000072cc g     O .text	0000000b __fsym___cmd_help_name
00002066 g     F .text	0000002e rt_tick_increase
00003000 g     F .text	00000038 list_mem
00003b18 g     F .text	00000042 rt_timer_stop
00006722 g     F .text	00000030 _close_r
20000000 g       .dalign	00000000 _data_vma
00002af4 g     F .text	000003ce rt_vsnprintf
00007504 g     O .rodata	00000008 __fsym___cmd_list_thread
00007514 g     O .rodata	00000008 __fsym___cmd_version
000059d4 g     F .text	0000010c __swsetup_r
000004ca g     F .text	000000c6 EXTI9_5_IRQHandler
00005db8 g     F .text	000000a0 __sfp
00002094 g     F .text	00000028 rt_tick_from_millisecond
2000014c g     O .bss	00000004 _syscall_table_begin
00004b28  w    F .text	0000000a rt_heap_end_get
00004baa g     F .text	00000046 board_init
00006632 g     F .text	00000030 __sread
00004762 g     F .text	0000008c finsh_get_prompt
000067e8 g     F .text	00000002 __malloc_lock
00005c2c g     F .text	00000066 _fflush_r
00002f38 g     F .text	00000068 __rt_ffs
00006fcc g     O .text	0000000e __fsym___cmd_version_name
00000f66 g     F .text	0000001c EXTI_GetITStatus
00007470 g     O .text	00000020 __sf_fake_stdin
000045c8 g     F .text	000000f0 msh_auto_complete
20000158 g     O .bss	00000004 _sysvar_table_end
0000165a g     F .text	00000026 mt9v03x_dma
000035c8 g     F .text	00000020 rt_enter_critical
000038d0 g     F .text	00000052 rt_thread_sleep
0000020e g     F .text	000000a8 memset
00000e48 g     F .text	0000005e main
0000248a g     F .text	000001a4 rt_mb_send_wait
00002802 g     F .text	00000024 rt_interrupt_leave
00006fb8 g     O .text	00000011 __fsym___cmd_list_timer_name
000066e6 g     F .text	00000006 __sclose
00003c34 g     F .text	00000002 rt_system_timer_thread_init
000036b2 g     F .text	000000b0 rt_thread_init
000060ca g     F .text	000000ce _malloc_r
00004d4a g     F .text	0000001a rt_hw_console_getchar
00007544 g       .rodata	00000000 __vsymtab_start
0000262e g     F .text	0000000e rt_mb_send
00000d58 g     F .text	00000050 DMA1_Channel5_IRQHandler
00000466 g     F .text	00000064 EXTI4_IRQHandler
20000100 g     O .bss	00000001 rt_interrupt_nest
00004d0a g     F .text	00000040 rt_hw_console_output
0000751c g     O .rodata	00000008 __fsym_version
00003fb8 g     F .text	0000010e list_timer
00004dde g     F .text	00000118 SystemInit
000072c0 g     O .text	0000000b __fsym___cmd_free_name
00000140 g       .text	00000000 rt_hw_interrupt_disable
00003984 g     F .text	00000030 rt_thread_startup
20000120 g     O .bss	00000004 rt_current_thread
0000586c g     F .text	00000046 sprintf
00000000 g       .init	00000000 _sinit
00003c6a g     F .text	00000006 rt_hw_taskswitch
000066ec g     F .text	00000036 _write_r
00000d08 g     F .text	00000050 DMA1_Channel3_IRQHandler
20000130 g     O .bss	00000004 rt_thread_ready_priority_group
00001680 g     F .text	00000054 oled_wrdat
200000eb g     O .bss	00000001 receive_num
20000178 g     O .bss	0000000c irq_status
000054ba g     F .text	0000010c _printf_common
0000752c g     O .rodata	00000008 __fsym___cmd_free
200000bc g     O .data	00000004 _impure_ptr
00000726 g     F .text	00000070 TIM1_UP_IRQHandler
00006f80 g     O .text	00000013 __fsym___cmd_list_mailbox_name
200000e8 g     O .bss	00000003 receive
00005af0 g     F .text	0000013c __sflush_r
000019f0 g     F .text	00000016 ov7725_uart_vsync
20000128 g     O .bss	00000008 rt_thread_defunct
0000263c g     F .text	000001a2 rt_mb_recv
000074b8 g     O .rodata	00000004 __rt_init_rti_board_end
000062de g     F .text	00000282 _svfiprintf_r
00000bd0 g     F .text	00000050 WWDG_IRQHandler
000022bc g     F .text	00000036 rt_sem_init
000001c0 g       .text	00000000 rt_hw_context_switch_exit
000029dc g     F .text	0000008e rt_memset
000074ec g     O .rodata	00000008 __fsym_list_mailbox
0000500c g     F .text	00000034 display_init
000068cc g     O .text	00000228 oled_6x8
00007544 g       .rodata	00000000 __vsymtab_end
000072d8 g     O .text	00000009 __fsym___cmd_ps_name
000074dc g     O .rodata	00000008 __fsym_list_timer
000008fe g     F .text	0000002a TIM2_IRQHandler
20005000 g       .stack	00000000 _eusrstack
0000338e g     F .text	0000002e rt_object_detach
200000ec g     O .bss	00000001 uart_receive_flag
200000c0 g     O .data	00000006 __fsym_hello_name
000015ec g     F .text	00000058 mt9v03x_uart_callback
20000168 g     O .bss	00000002 encoder_left_front
00003c2a g     F .text	0000000a rt_system_timer_init
200000e4 g     O .bss	00000001 mt9v03x_finish_flag
00003578 g     F .text	00000050 rt_schedule_remove_thread
000006b2 g     F .text	00000074 TIM1_BRK_IRQHandler
00005ec4 g     F .text	0000005a __swhatbuf_r
0000158a g     F .text	0000000a USART_SendData
000027de g     F .text	00000024 rt_interrupt_enter
0000031a g     F .text	00000084 EXTI1_IRQHandler
00000146 g       .text	00000000 rt_hw_interrupt_enable
000074c4 g     O .rodata	00000008 __fsym_list_mem
00004cbc g     F .text	0000004e _write
200000e0 g       .data	00000000 _edata
000035e8 g     F .text	0000003c rt_exit_critical
000012d6 g     F .text	000000b6 TIM_TimeBaseInit
00004384 g     F .text	00000010 cmd_ps
00007548 g       .dlalign	00000000 _data_lma
00000a08 g     F .text	00000082 USART2_IRQHandler
00006662 g     F .text	0000004e __swrite
000050d2 g     F .text	00000026 fiprintf
00003762 g     F .text	00000006 rt_thread_self
0000521a g     F .text	000002a0 _vfiprintf_r
000074bc g     O .rodata	00000004 __rt_init_finsh_system_init
00005e58 g     F .text	0000006c _fwalk_reent
00006874 g     F .text	00000010 _kill
00001728 g     F .text	00000076 oled_set_pos
00000cb8 g     F .text	00000050 DMA1_Channel2_IRQHandler
00003420 g     F .text	00000034 rt_object_delete
00002060 g     F .text	00000006 rt_tick_get
00007490 g     O .text	00000020 __sf_fake_stdout
0000586c g     F .text	00000046 siprintf
00000f4c g     F .text	0000001a DMA_ClearFlag
00006894 g     F .text	00000010 _read
00000ea6  w      .text	00000000 handle_reset
00000c44 g     F .text	00000012 FLASH_IRQHandler
000068c8 g     F .text	00000002 _exit
00004f3e g     F .text	00000060 process_data
00001dca g     F .text	00000016 timer_quad_get
000022f2 g     F .text	000000ea rt_sem_take
00004d64 g     F .text	0000007a USART1_IRQHandler
000074f4 g     O .rodata	00000008 __fsym___cmd_list_sem
00005f1e g     F .text	000000a0 __smakebuf_r
000058b2 g     F .text	00000012 strlen
000055c6 g     F .text	000002a6 _printf_i
200000d0 g     O .data	00000008 __fsym_version_name
20000170 g     O .bss	00000004 __malloc_sbrk_start
00001fde g     F .text	0000003c uart_rx_irq
00001de0 g     F .text	00000012 timer_quad_clear
000074b4 g     O .rodata	00000004 __rt_init_rti_board_start
00001a1c g     F .text	00000112 gpio_init
2000016c g     O .bss	00000004 __malloc_free_list
00006ff8 g     O .text	0000000c __fsym_list_thread_name
000074c4 g       .rodata	00000000 __fsymtab_start
000013c8 g     F .text	00000046 TIM_EncoderInterfaceConfig
0000521a g     F .text	000002a0 _vfprintf_r
000034b8 g     F .text	00000070 rt_schedule
0000331e g     F .text	00000070 rt_object_init
00007534 g     O .rodata	00000008 __fsym___cmd_ps
00001f8e g     F .text	00000020 uart_putchar
00003a7c g     F .text	0000009c rt_timer_start
0000430e g     F .text	00000076 msh_help
200000f0 g     O .bss	00000003 ov7725_uart_receive
00003c70 g     F .text	00000014 rt_hw_context_switch
000016d4 g     F .text	00000054 oled_wrcmd
00006834 g     F .text	00000010 _close
000065f2 g     F .text	0000000c raise



Disassembly of section .init:

00000000 <_sinit>:
_start():
F:\SCHOOL\文件\智能车\全向组\RTTThreadCH32V103\camCoreWithRTOS\obj/../Libraries/wch_libraries/Startup/startup_ch32v10x.S:13

	.section	.init,"ax",@progbits
	.global	_start
	.align	1
_start:
	j	handle_reset
   0:	6a70006f          	j	ea6 <handle_reset>
   4:	00000013          	nop
   8:	00000013          	nop
   c:	00000013          	nop
  10:	00000013          	nop
  14:	00000013          	nop
  18:	00000013          	nop
  1c:	00000013          	nop
  20:	00000013          	nop
  24:	00000013          	nop
  28:	00000013          	nop
  2c:	00000013          	nop
  30:	00000013          	nop
  34:	00100073          	ebreak

Disassembly of section .vector:

00000038 <_vector_base>:
_vector_base():
F:\SCHOOL\文件\智能车\全向组\RTTThreadCH32V103\camCoreWithRTOS\obj/../Libraries/wch_libraries/Startup/startup_ch32v10x.S:31
	.word 0x00100073
    .section    .vector,"ax",@progbits
    .align  1
_vector_base:
    .option norvc;
        j   _start
  38:	fc9ff06f          	j	0 <_sinit>
  3c:	0000                	unimp
  3e:	0000                	unimp
F:\SCHOOL\文件\智能车\全向组\RTTThreadCH32V103\camCoreWithRTOS\obj/../Libraries/wch_libraries/Startup/startup_ch32v10x.S:33
    .word   0
        j   NMI_Handler                 /* NMI Handler */
  40:	3190006f          	j	b58 <NMI_Handler>
F:\SCHOOL\文件\智能车\全向组\RTTThreadCH32V103\camCoreWithRTOS\obj/../Libraries/wch_libraries/Startup/startup_ch32v10x.S:34
        j   HardFault_Handler           /* Hard Fault Handler */
  44:	3650006f          	j	ba8 <HardFault_Handler>
	...
F:\SCHOOL\文件\智能车\全向组\RTTThreadCH32V103\camCoreWithRTOS\obj/../Libraries/wch_libraries/Startup/startup_ch32v10x.S:43
    .word   0
    .word   0
    .word   0
    .word   0
    .word   0
        j   SysTick_Handler            /* SysTick Handler */
  68:	2cb0406f          	j	4b32 <SysTick_Handler>
  6c:	0000                	unimp
  6e:	0000                	unimp
F:\SCHOOL\文件\智能车\全向组\RTTThreadCH32V103\camCoreWithRTOS\obj/../Libraries/wch_libraries/Startup/startup_ch32v10x.S:45
    .word   0
        j   SW_handler                 /* SW Handler */
  70:	0f00006f          	j	160 <SW_handler>
  74:	0000                	unimp
  76:	0000                	unimp
F:\SCHOOL\文件\智能车\全向组\RTTThreadCH32V103\camCoreWithRTOS\obj/../Libraries/wch_libraries/Startup/startup_ch32v10x.S:48
    .word   0
    /* External Interrupts */
        j   WWDG_IRQHandler            /* Window Watchdog */
  78:	3590006f          	j	bd0 <WWDG_IRQHandler>
F:\SCHOOL\文件\智能车\全向组\RTTThreadCH32V103\camCoreWithRTOS\obj/../Libraries/wch_libraries/Startup/startup_ch32v10x.S:49
        j   PVD_IRQHandler             /* PVD through EXTI Line detect */
  7c:	f85ff06f          	j	0 <_sinit>
F:\SCHOOL\文件\智能车\全向组\RTTThreadCH32V103\camCoreWithRTOS\obj/../Libraries/wch_libraries/Startup/startup_ch32v10x.S:50
        j   TAMPER_IRQHandler          /* TAMPER */
  80:	3a10006f          	j	c20 <TAMPER_IRQHandler>
F:\SCHOOL\文件\智能车\全向组\RTTThreadCH32V103\camCoreWithRTOS\obj/../Libraries/wch_libraries/Startup/startup_ch32v10x.S:51
        j   RTC_IRQHandler             /* RTC */
  84:	3af0006f          	j	c32 <RTC_IRQHandler>
F:\SCHOOL\文件\智能车\全向组\RTTThreadCH32V103\camCoreWithRTOS\obj/../Libraries/wch_libraries/Startup/startup_ch32v10x.S:52
        j   FLASH_IRQHandler           /* Flash */
  88:	3bd0006f          	j	c44 <FLASH_IRQHandler>
F:\SCHOOL\文件\智能车\全向组\RTTThreadCH32V103\camCoreWithRTOS\obj/../Libraries/wch_libraries/Startup/startup_ch32v10x.S:53
        j   RCC_IRQHandler             /* RCC */
  8c:	3cb0006f          	j	c56 <RCC_IRQHandler>
F:\SCHOOL\文件\智能车\全向组\RTTThreadCH32V103\camCoreWithRTOS\obj/../Libraries/wch_libraries/Startup/startup_ch32v10x.S:54
        j   EXTI0_IRQHandler           /* EXTI Line 0 */
  90:	2260006f          	j	2b6 <EXTI0_IRQHandler>
F:\SCHOOL\文件\智能车\全向组\RTTThreadCH32V103\camCoreWithRTOS\obj/../Libraries/wch_libraries/Startup/startup_ch32v10x.S:55
        j   EXTI1_IRQHandler           /* EXTI Line 1 */
  94:	2860006f          	j	31a <EXTI1_IRQHandler>
F:\SCHOOL\文件\智能车\全向组\RTTThreadCH32V103\camCoreWithRTOS\obj/../Libraries/wch_libraries/Startup/startup_ch32v10x.S:56
        j   EXTI2_IRQHandler           /* EXTI Line 2 */
  98:	3060006f          	j	39e <EXTI2_IRQHandler>
F:\SCHOOL\文件\智能车\全向组\RTTThreadCH32V103\camCoreWithRTOS\obj/../Libraries/wch_libraries/Startup/startup_ch32v10x.S:57
        j   EXTI3_IRQHandler           /* EXTI Line 3 */
  9c:	3660006f          	j	402 <EXTI3_IRQHandler>
F:\SCHOOL\文件\智能车\全向组\RTTThreadCH32V103\camCoreWithRTOS\obj/../Libraries/wch_libraries/Startup/startup_ch32v10x.S:58
        j   EXTI4_IRQHandler           /* EXTI Line 4 */
  a0:	3c60006f          	j	466 <EXTI4_IRQHandler>
F:\SCHOOL\文件\智能车\全向组\RTTThreadCH32V103\camCoreWithRTOS\obj/../Libraries/wch_libraries/Startup/startup_ch32v10x.S:59
        j   DMA1_Channel1_IRQHandler   /* DMA1 Channel 1 */
  a4:	3c50006f          	j	c68 <DMA1_Channel1_IRQHandler>
F:\SCHOOL\文件\智能车\全向组\RTTThreadCH32V103\camCoreWithRTOS\obj/../Libraries/wch_libraries/Startup/startup_ch32v10x.S:60
        j   DMA1_Channel2_IRQHandler   /* DMA1 Channel 2 */
  a8:	4110006f          	j	cb8 <DMA1_Channel2_IRQHandler>
F:\SCHOOL\文件\智能车\全向组\RTTThreadCH32V103\camCoreWithRTOS\obj/../Libraries/wch_libraries/Startup/startup_ch32v10x.S:61
        j   DMA1_Channel3_IRQHandler   /* DMA1 Channel 3 */
  ac:	45d0006f          	j	d08 <DMA1_Channel3_IRQHandler>
F:\SCHOOL\文件\智能车\全向组\RTTThreadCH32V103\camCoreWithRTOS\obj/../Libraries/wch_libraries/Startup/startup_ch32v10x.S:62
        j   DMA1_Channel4_IRQHandler   /* DMA1 Channel 4 */
  b0:	22b0006f          	j	ada <DMA1_Channel4_IRQHandler>
F:\SCHOOL\文件\智能车\全向组\RTTThreadCH32V103\camCoreWithRTOS\obj/../Libraries/wch_libraries/Startup/startup_ch32v10x.S:63
        j   DMA1_Channel5_IRQHandler   /* DMA1 Channel 5 */
  b4:	4a50006f          	j	d58 <DMA1_Channel5_IRQHandler>
F:\SCHOOL\文件\智能车\全向组\RTTThreadCH32V103\camCoreWithRTOS\obj/../Libraries/wch_libraries/Startup/startup_ch32v10x.S:64
        j   DMA1_Channel6_IRQHandler   /* DMA1 Channel 6 */
  b8:	4f10006f          	j	da8 <DMA1_Channel6_IRQHandler>
F:\SCHOOL\文件\智能车\全向组\RTTThreadCH32V103\camCoreWithRTOS\obj/../Libraries/wch_libraries/Startup/startup_ch32v10x.S:65
        j   DMA1_Channel7_IRQHandler   /* DMA1 Channel 7 */
  bc:	53d0006f          	j	df8 <DMA1_Channel7_IRQHandler>
F:\SCHOOL\文件\智能车\全向组\RTTThreadCH32V103\camCoreWithRTOS\obj/../Libraries/wch_libraries/Startup/startup_ch32v10x.S:66
        j   ADC1_2_IRQHandler          /* ADC1_2 */
  c0:	5a20006f          	j	662 <ADC1_2_IRQHandler>
	...
F:\SCHOOL\文件\智能车\全向组\RTTThreadCH32V103\camCoreWithRTOS\obj/../Libraries/wch_libraries/Startup/startup_ch32v10x.S:71
        .word   0
        .word   0
        .word   0
        .word   0
        j   EXTI9_5_IRQHandler         /* EXTI Line 9..5 */
  d4:	3f60006f          	j	4ca <EXTI9_5_IRQHandler>
F:\SCHOOL\文件\智能车\全向组\RTTThreadCH32V103\camCoreWithRTOS\obj/../Libraries/wch_libraries/Startup/startup_ch32v10x.S:72
        j   TIM1_BRK_IRQHandler        /* TIM1 Break */
  d8:	5da0006f          	j	6b2 <TIM1_BRK_IRQHandler>
F:\SCHOOL\文件\智能车\全向组\RTTThreadCH32V103\camCoreWithRTOS\obj/../Libraries/wch_libraries/Startup/startup_ch32v10x.S:73
        j   TIM1_UP_IRQHandler         /* TIM1 Update */
  dc:	64a0006f          	j	726 <TIM1_UP_IRQHandler>
F:\SCHOOL\文件\智能车\全向组\RTTThreadCH32V103\camCoreWithRTOS\obj/../Libraries/wch_libraries/Startup/startup_ch32v10x.S:74
        j   TIM1_TRG_COM_IRQHandler    /* TIM1 Trigger and Commutation */
  e0:	6b60006f          	j	796 <TIM1_TRG_COM_IRQHandler>
F:\SCHOOL\文件\智能车\全向组\RTTThreadCH32V103\camCoreWithRTOS\obj/../Libraries/wch_libraries/Startup/startup_ch32v10x.S:75
        j   TIM1_CC_IRQHandler         /* TIM1 Capture Compare */
  e4:	74a0006f          	j	82e <TIM1_CC_IRQHandler>
F:\SCHOOL\文件\智能车\全向组\RTTThreadCH32V103\camCoreWithRTOS\obj/../Libraries/wch_libraries/Startup/startup_ch32v10x.S:76
        j   TIM2_IRQHandler            /* TIM2 */
  e8:	0170006f          	j	8fe <TIM2_IRQHandler>
F:\SCHOOL\文件\智能车\全向组\RTTThreadCH32V103\camCoreWithRTOS\obj/../Libraries/wch_libraries/Startup/startup_ch32v10x.S:77
        j   TIM3_IRQHandler            /* TIM3 */
  ec:	03d0006f          	j	928 <TIM3_IRQHandler>
F:\SCHOOL\文件\智能车\全向组\RTTThreadCH32V103\camCoreWithRTOS\obj/../Libraries/wch_libraries/Startup/startup_ch32v10x.S:78
        j   TIM4_IRQHandler            /* TIM4 */
  f0:	0a90006f          	j	998 <TIM4_IRQHandler>
F:\SCHOOL\文件\智能车\全向组\RTTThreadCH32V103\camCoreWithRTOS\obj/../Libraries/wch_libraries/Startup/startup_ch32v10x.S:79
        j   I2C1_EV_IRQHandler         /* I2C1 Event */
  f4:	f0dff06f          	j	0 <_sinit>
F:\SCHOOL\文件\智能车\全向组\RTTThreadCH32V103\camCoreWithRTOS\obj/../Libraries/wch_libraries/Startup/startup_ch32v10x.S:80
        j   I2C1_ER_IRQHandler         /* I2C1 Error */
  f8:	f09ff06f          	j	0 <_sinit>
F:\SCHOOL\文件\智能车\全向组\RTTThreadCH32V103\camCoreWithRTOS\obj/../Libraries/wch_libraries/Startup/startup_ch32v10x.S:81
        j   I2C2_EV_IRQHandler         /* I2C2 Event */
  fc:	f05ff06f          	j	0 <_sinit>
F:\SCHOOL\文件\智能车\全向组\RTTThreadCH32V103\camCoreWithRTOS\obj/../Libraries/wch_libraries/Startup/startup_ch32v10x.S:82
        j   I2C2_ER_IRQHandler         /* I2C2 Error */
 100:	f01ff06f          	j	0 <_sinit>
F:\SCHOOL\文件\智能车\全向组\RTTThreadCH32V103\camCoreWithRTOS\obj/../Libraries/wch_libraries/Startup/startup_ch32v10x.S:83
        j   SPI1_IRQHandler            /* SPI1 */
 104:	efdff06f          	j	0 <_sinit>
F:\SCHOOL\文件\智能车\全向组\RTTThreadCH32V103\camCoreWithRTOS\obj/../Libraries/wch_libraries/Startup/startup_ch32v10x.S:84
        j   SPI2_IRQHandler            /* SPI2 */
 108:	ef9ff06f          	j	0 <_sinit>
F:\SCHOOL\文件\智能车\全向组\RTTThreadCH32V103\camCoreWithRTOS\obj/../Libraries/wch_libraries/Startup/startup_ch32v10x.S:85
        j   USART1_IRQHandler          /* USART1 */
 10c:	4590406f          	j	4d64 <USART1_IRQHandler>
F:\SCHOOL\文件\智能车\全向组\RTTThreadCH32V103\camCoreWithRTOS\obj/../Libraries/wch_libraries/Startup/startup_ch32v10x.S:86
        j   USART2_IRQHandler          /* USART2 */
 110:	0f90006f          	j	a08 <USART2_IRQHandler>
F:\SCHOOL\文件\智能车\全向组\RTTThreadCH32V103\camCoreWithRTOS\obj/../Libraries/wch_libraries/Startup/startup_ch32v10x.S:87
        j   USART3_IRQHandler          /* USART3 */
 114:	1770006f          	j	a8a <USART3_IRQHandler>
F:\SCHOOL\文件\智能车\全向组\RTTThreadCH32V103\camCoreWithRTOS\obj/../Libraries/wch_libraries/Startup/startup_ch32v10x.S:88
        j   EXTI15_10_IRQHandler       /* EXTI Line 15..10 */
 118:	4780006f          	j	590 <EXTI15_10_IRQHandler>
F:\SCHOOL\文件\智能车\全向组\RTTThreadCH32V103\camCoreWithRTOS\obj/../Libraries/wch_libraries/Startup/startup_ch32v10x.S:89
        j   RTCAlarm_IRQHandler        /* RTC Alarm through EXTI Line */
 11c:	ee5ff06f          	j	0 <_sinit>
F:\SCHOOL\文件\智能车\全向组\RTTThreadCH32V103\camCoreWithRTOS\obj/../Libraries/wch_libraries/Startup/startup_ch32v10x.S:90
        j   USBWakeUp_IRQHandler       /* USB Wakeup from suspend */
 120:	ee1ff06f          	j	0 <_sinit>
F:\SCHOOL\文件\智能车\全向组\RTTThreadCH32V103\camCoreWithRTOS\obj/../Libraries/wch_libraries/Startup/startup_ch32v10x.S:91
        j   USBHD_IRQHandler           /* USBHD */
 124:	eddff06f          	j	0 <_sinit>
	...

Disassembly of section .text:

00000140 <rt_hw_interrupt_disable>:
rt_hw_interrupt_disable():
F:\SCHOOL\文件\智能车\全向组\RTTThreadCH32V103\camCoreWithRTOS\obj/../Libraries/rtthread_libraries/libcpu/context_gcc.S:33
/*
 * rt_base_t rt_hw_interrupt_disable(void);
 */
    .globl rt_hw_interrupt_disable
rt_hw_interrupt_disable:
    csrrci a0, mstatus, 8
     140:	30047573          	csrrci	a0,mstatus,8
F:\SCHOOL\文件\智能车\全向组\RTTThreadCH32V103\camCoreWithRTOS\obj/../Libraries/rtthread_libraries/libcpu/context_gcc.S:34
    ret
     144:	8082                	ret

00000146 <rt_hw_interrupt_enable>:
rt_hw_interrupt_enable():
F:\SCHOOL\文件\智能车\全向组\RTTThreadCH32V103\camCoreWithRTOS\obj/../Libraries/rtthread_libraries/libcpu/context_gcc.S:41
/*
 * void rt_hw_interrupt_enable(rt_base_t level);
 */
    .globl rt_hw_interrupt_enable
rt_hw_interrupt_enable:
    csrw mstatus, a0
     146:	30051073          	csrw	mstatus,a0
F:\SCHOOL\文件\智能车\全向组\RTTThreadCH32V103\camCoreWithRTOS\obj/../Libraries/rtthread_libraries/libcpu/context_gcc.S:42
    ret
     14a:	8082                	ret

0000014c <rt_hw_context_switch_to>:
rt_hw_context_switch_to():
F:\SCHOOL\文件\智能车\全向组\RTTThreadCH32V103\camCoreWithRTOS\obj/../Libraries/rtthread_libraries/libcpu/context_gcc.S:58
    /* Setup Interrupt Stack using
       The stack that was used by main()
       before the scheduler is started is
       no longer required after the scheduler is started.
       Interrupt stack pointer is stored in CSR_MSCRATCH */
    la t0, _eusrstack
     14c:	20005297          	auipc	t0,0x20005
     150:	eb428293          	addi	t0,t0,-332 # 20005000 <_eusrstack>
F:\SCHOOL\文件\智能车\全向组\RTTThreadCH32V103\camCoreWithRTOS\obj/../Libraries/rtthread_libraries/libcpu/context_gcc.S:59
    csrw CSR_MSCRATCH, t0
     154:	34029073          	csrw	mscratch,t0
F:\SCHOOL\文件\智能车\全向组\RTTThreadCH32V103\camCoreWithRTOS\obj/../Libraries/rtthread_libraries/libcpu/context_gcc.S:60
    LOAD sp, 0x0(a0)                /* Read sp from first TCB member(a0) */
     158:	00052103          	lw	sp,0(a0)
F:\SCHOOL\文件\智能车\全向组\RTTThreadCH32V103\camCoreWithRTOS\obj/../Libraries/rtthread_libraries/libcpu/context_gcc.S:62

    j rt_hw_context_switch_exit
     15c:	a095                	j	1c0 <rt_hw_context_switch_exit>
     15e:	0001                	nop

00000160 <SW_handler>:
SW_handler():
F:\SCHOOL\文件\智能车\全向组\RTTThreadCH32V103\camCoreWithRTOS\obj/../Libraries/rtthread_libraries/libcpu/context_gcc.S:68


    .align 2
.global SW_handler
SW_handler:
    addi sp, sp, -RT_CONTEXT_SIZE
     160:	7119                	addi	sp,sp,-128
F:\SCHOOL\文件\智能车\全向组\RTTThreadCH32V103\camCoreWithRTOS\obj/../Libraries/rtthread_libraries/libcpu/context_gcc.S:69
    STORE x1,  1  * REGBYTES(sp)    /* RA */
     162:	c206                	sw	ra,4(sp)
F:\SCHOOL\文件\智能车\全向组\RTTThreadCH32V103\camCoreWithRTOS\obj/../Libraries/rtthread_libraries/libcpu/context_gcc.S:71

    STORE x4,  4  * REGBYTES(sp)
     164:	c812                	sw	tp,16(sp)
F:\SCHOOL\文件\智能车\全向组\RTTThreadCH32V103\camCoreWithRTOS\obj/../Libraries/rtthread_libraries/libcpu/context_gcc.S:72
    STORE x5,  5  * REGBYTES(sp)
     166:	ca16                	sw	t0,20(sp)
F:\SCHOOL\文件\智能车\全向组\RTTThreadCH32V103\camCoreWithRTOS\obj/../Libraries/rtthread_libraries/libcpu/context_gcc.S:73
    STORE x6,  6  * REGBYTES(sp)
     168:	cc1a                	sw	t1,24(sp)
F:\SCHOOL\文件\智能车\全向组\RTTThreadCH32V103\camCoreWithRTOS\obj/../Libraries/rtthread_libraries/libcpu/context_gcc.S:74
    STORE x7,  7  * REGBYTES(sp)
     16a:	ce1e                	sw	t2,28(sp)
F:\SCHOOL\文件\智能车\全向组\RTTThreadCH32V103\camCoreWithRTOS\obj/../Libraries/rtthread_libraries/libcpu/context_gcc.S:75
    STORE x8,  8  * REGBYTES(sp)
     16c:	d022                	sw	s0,32(sp)
F:\SCHOOL\文件\智能车\全向组\RTTThreadCH32V103\camCoreWithRTOS\obj/../Libraries/rtthread_libraries/libcpu/context_gcc.S:76
    STORE x9,  9  * REGBYTES(sp)
     16e:	d226                	sw	s1,36(sp)
F:\SCHOOL\文件\智能车\全向组\RTTThreadCH32V103\camCoreWithRTOS\obj/../Libraries/rtthread_libraries/libcpu/context_gcc.S:77
    STORE x10, 10 * REGBYTES(sp)
     170:	d42a                	sw	a0,40(sp)
F:\SCHOOL\文件\智能车\全向组\RTTThreadCH32V103\camCoreWithRTOS\obj/../Libraries/rtthread_libraries/libcpu/context_gcc.S:78
    STORE x11, 11 * REGBYTES(sp)
     172:	d62e                	sw	a1,44(sp)
F:\SCHOOL\文件\智能车\全向组\RTTThreadCH32V103\camCoreWithRTOS\obj/../Libraries/rtthread_libraries/libcpu/context_gcc.S:79
    STORE x12, 12 * REGBYTES(sp)
     174:	d832                	sw	a2,48(sp)
F:\SCHOOL\文件\智能车\全向组\RTTThreadCH32V103\camCoreWithRTOS\obj/../Libraries/rtthread_libraries/libcpu/context_gcc.S:80
    STORE x13, 13 * REGBYTES(sp)
     176:	da36                	sw	a3,52(sp)
F:\SCHOOL\文件\智能车\全向组\RTTThreadCH32V103\camCoreWithRTOS\obj/../Libraries/rtthread_libraries/libcpu/context_gcc.S:81
    STORE x14, 14 * REGBYTES(sp)
     178:	dc3a                	sw	a4,56(sp)
F:\SCHOOL\文件\智能车\全向组\RTTThreadCH32V103\camCoreWithRTOS\obj/../Libraries/rtthread_libraries/libcpu/context_gcc.S:82
    STORE x15, 15 * REGBYTES(sp)
     17a:	de3e                	sw	a5,60(sp)
F:\SCHOOL\文件\智能车\全向组\RTTThreadCH32V103\camCoreWithRTOS\obj/../Libraries/rtthread_libraries/libcpu/context_gcc.S:83
    STORE x16, 16 * REGBYTES(sp)
     17c:	c0c2                	sw	a6,64(sp)
F:\SCHOOL\文件\智能车\全向组\RTTThreadCH32V103\camCoreWithRTOS\obj/../Libraries/rtthread_libraries/libcpu/context_gcc.S:84
    STORE x17, 17 * REGBYTES(sp)
     17e:	c2c6                	sw	a7,68(sp)
F:\SCHOOL\文件\智能车\全向组\RTTThreadCH32V103\camCoreWithRTOS\obj/../Libraries/rtthread_libraries/libcpu/context_gcc.S:85
    STORE x18, 18 * REGBYTES(sp)
     180:	c4ca                	sw	s2,72(sp)
F:\SCHOOL\文件\智能车\全向组\RTTThreadCH32V103\camCoreWithRTOS\obj/../Libraries/rtthread_libraries/libcpu/context_gcc.S:86
    STORE x19, 19 * REGBYTES(sp)
     182:	c6ce                	sw	s3,76(sp)
F:\SCHOOL\文件\智能车\全向组\RTTThreadCH32V103\camCoreWithRTOS\obj/../Libraries/rtthread_libraries/libcpu/context_gcc.S:87
    STORE x20, 20 * REGBYTES(sp)
     184:	c8d2                	sw	s4,80(sp)
F:\SCHOOL\文件\智能车\全向组\RTTThreadCH32V103\camCoreWithRTOS\obj/../Libraries/rtthread_libraries/libcpu/context_gcc.S:88
    STORE x21, 21 * REGBYTES(sp)
     186:	cad6                	sw	s5,84(sp)
F:\SCHOOL\文件\智能车\全向组\RTTThreadCH32V103\camCoreWithRTOS\obj/../Libraries/rtthread_libraries/libcpu/context_gcc.S:89
    STORE x22, 22 * REGBYTES(sp)
     188:	ccda                	sw	s6,88(sp)
F:\SCHOOL\文件\智能车\全向组\RTTThreadCH32V103\camCoreWithRTOS\obj/../Libraries/rtthread_libraries/libcpu/context_gcc.S:90
    STORE x23, 23 * REGBYTES(sp)
     18a:	cede                	sw	s7,92(sp)
F:\SCHOOL\文件\智能车\全向组\RTTThreadCH32V103\camCoreWithRTOS\obj/../Libraries/rtthread_libraries/libcpu/context_gcc.S:91
    STORE x24, 24 * REGBYTES(sp)
     18c:	d0e2                	sw	s8,96(sp)
F:\SCHOOL\文件\智能车\全向组\RTTThreadCH32V103\camCoreWithRTOS\obj/../Libraries/rtthread_libraries/libcpu/context_gcc.S:92
    STORE x25, 25 * REGBYTES(sp)
     18e:	d2e6                	sw	s9,100(sp)
F:\SCHOOL\文件\智能车\全向组\RTTThreadCH32V103\camCoreWithRTOS\obj/../Libraries/rtthread_libraries/libcpu/context_gcc.S:93
    STORE x26, 26 * REGBYTES(sp)
     190:	d4ea                	sw	s10,104(sp)
F:\SCHOOL\文件\智能车\全向组\RTTThreadCH32V103\camCoreWithRTOS\obj/../Libraries/rtthread_libraries/libcpu/context_gcc.S:94
    STORE x27, 27 * REGBYTES(sp)
     192:	d6ee                	sw	s11,108(sp)
F:\SCHOOL\文件\智能车\全向组\RTTThreadCH32V103\camCoreWithRTOS\obj/../Libraries/rtthread_libraries/libcpu/context_gcc.S:95
    STORE x28, 28 * REGBYTES(sp)
     194:	d8f2                	sw	t3,112(sp)
F:\SCHOOL\文件\智能车\全向组\RTTThreadCH32V103\camCoreWithRTOS\obj/../Libraries/rtthread_libraries/libcpu/context_gcc.S:96
    STORE x29, 29 * REGBYTES(sp)
     196:	daf6                	sw	t4,116(sp)
F:\SCHOOL\文件\智能车\全向组\RTTThreadCH32V103\camCoreWithRTOS\obj/../Libraries/rtthread_libraries/libcpu/context_gcc.S:97
    STORE x30, 30 * REGBYTES(sp)
     198:	dcfa                	sw	t5,120(sp)
F:\SCHOOL\文件\智能车\全向组\RTTThreadCH32V103\camCoreWithRTOS\obj/../Libraries/rtthread_libraries/libcpu/context_gcc.S:98
    STORE x31, 31 * REGBYTES(sp)
     19a:	defe                	sw	t6,124(sp)
F:\SCHOOL\文件\智能车\全向组\RTTThreadCH32V103\camCoreWithRTOS\obj/../Libraries/rtthread_libraries/libcpu/context_gcc.S:101

    /* Push mstatus to stack */
    csrr t0, CSR_MSTATUS
     19c:	300022f3          	csrr	t0,mstatus
F:\SCHOOL\文件\智能车\全向组\RTTThreadCH32V103\camCoreWithRTOS\obj/../Libraries/rtthread_libraries/libcpu/context_gcc.S:102
    STORE t0,  2  * REGBYTES(sp)
     1a0:	c416                	sw	t0,8(sp)
F:\SCHOOL\文件\智能车\全向组\RTTThreadCH32V103\camCoreWithRTOS\obj/../Libraries/rtthread_libraries/libcpu/context_gcc.S:107

    /* Push additional registers */

    /* Store sp to task stack */
    LOAD t0, rt_interrupt_from_thread
     1a2:	8901a283          	lw	t0,-1904(gp) # 20000140 <rt_interrupt_from_thread>
F:\SCHOOL\文件\智能车\全向组\RTTThreadCH32V103\camCoreWithRTOS\obj/../Libraries/rtthread_libraries/libcpu/context_gcc.S:108
    STORE sp, 0(t0)
     1a6:	0022a023          	sw	sp,0(t0)
F:\SCHOOL\文件\智能车\全向组\RTTThreadCH32V103\camCoreWithRTOS\obj/../Libraries/rtthread_libraries/libcpu/context_gcc.S:110

    csrr t0, CSR_MEPC
     1aa:	341022f3          	csrr	t0,mepc
F:\SCHOOL\文件\智能车\全向组\RTTThreadCH32V103\camCoreWithRTOS\obj/../Libraries/rtthread_libraries/libcpu/context_gcc.S:111
    STORE t0, 0(sp)
     1ae:	c016                	sw	t0,0(sp)
F:\SCHOOL\文件\智能车\全向组\RTTThreadCH32V103\camCoreWithRTOS\obj/../Libraries/rtthread_libraries/libcpu/context_gcc.S:113

    jal rt_hw_taskswitch
     1b0:	2bb030ef          	jal	ra,3c6a <rt_hw_taskswitch>
F:\SCHOOL\文件\智能车\全向组\RTTThreadCH32V103\camCoreWithRTOS\obj/../Libraries/rtthread_libraries/libcpu/context_gcc.S:116

    /* Switch task context */
    LOAD t0, rt_interrupt_to_thread
     1b4:	8941a283          	lw	t0,-1900(gp) # 20000144 <rt_interrupt_to_thread>
F:\SCHOOL\文件\智能车\全向组\RTTThreadCH32V103\camCoreWithRTOS\obj/../Libraries/rtthread_libraries/libcpu/context_gcc.S:117
    LOAD sp, 0x0(t0)
     1b8:	0002a103          	lw	sp,0(t0)
F:\SCHOOL\文件\智能车\全向组\RTTThreadCH32V103\camCoreWithRTOS\obj/../Libraries/rtthread_libraries/libcpu/context_gcc.S:119

	j rt_hw_context_switch_exit
     1bc:	a011                	j	1c0 <rt_hw_context_switch_exit>
     1be:	0001                	nop

000001c0 <rt_hw_context_switch_exit>:
rt_hw_context_switch_exit():
F:\SCHOOL\文件\智能车\全向组\RTTThreadCH32V103\camCoreWithRTOS\obj/../Libraries/rtthread_libraries/libcpu/context_gcc.S:127

.align 2
    .global rt_hw_context_switch_exit
rt_hw_context_switch_exit:

	LOAD t0,  0  * REGBYTES(sp)
     1c0:	4282                	lw	t0,0(sp)
F:\SCHOOL\文件\智能车\全向组\RTTThreadCH32V103\camCoreWithRTOS\obj/../Libraries/rtthread_libraries/libcpu/context_gcc.S:128
    csrw CSR_MEPC, t0
     1c2:	34129073          	csrw	mepc,t0
F:\SCHOOL\文件\智能车\全向组\RTTThreadCH32V103\camCoreWithRTOS\obj/../Libraries/rtthread_libraries/libcpu/context_gcc.S:130
    /* Pop mstatus from stack and set it */
    LOAD t0,  2  * REGBYTES(sp)
     1c6:	42a2                	lw	t0,8(sp)
F:\SCHOOL\文件\智能车\全向组\RTTThreadCH32V103\camCoreWithRTOS\obj/../Libraries/rtthread_libraries/libcpu/context_gcc.S:131
    csrw CSR_MSTATUS, t0
     1c8:	30029073          	csrw	mstatus,t0
F:\SCHOOL\文件\智能车\全向组\RTTThreadCH32V103\camCoreWithRTOS\obj/../Libraries/rtthread_libraries/libcpu/context_gcc.S:134
    /* Interrupt still disable here */
    /* Restore Registers from Stack */
    LOAD x1,  1  * REGBYTES(sp)    /* RA */
     1cc:	4092                	lw	ra,4(sp)
F:\SCHOOL\文件\智能车\全向组\RTTThreadCH32V103\camCoreWithRTOS\obj/../Libraries/rtthread_libraries/libcpu/context_gcc.S:136

    LOAD x4,  4  * REGBYTES(sp)
     1ce:	4242                	lw	tp,16(sp)
F:\SCHOOL\文件\智能车\全向组\RTTThreadCH32V103\camCoreWithRTOS\obj/../Libraries/rtthread_libraries/libcpu/context_gcc.S:137
    LOAD x5,  5  * REGBYTES(sp)
     1d0:	42d2                	lw	t0,20(sp)
F:\SCHOOL\文件\智能车\全向组\RTTThreadCH32V103\camCoreWithRTOS\obj/../Libraries/rtthread_libraries/libcpu/context_gcc.S:138
    LOAD x6,  6  * REGBYTES(sp)
     1d2:	4362                	lw	t1,24(sp)
F:\SCHOOL\文件\智能车\全向组\RTTThreadCH32V103\camCoreWithRTOS\obj/../Libraries/rtthread_libraries/libcpu/context_gcc.S:139
    LOAD x7,  7  * REGBYTES(sp)
     1d4:	43f2                	lw	t2,28(sp)
F:\SCHOOL\文件\智能车\全向组\RTTThreadCH32V103\camCoreWithRTOS\obj/../Libraries/rtthread_libraries/libcpu/context_gcc.S:140
    LOAD x8,  8  * REGBYTES(sp)
     1d6:	5402                	lw	s0,32(sp)
F:\SCHOOL\文件\智能车\全向组\RTTThreadCH32V103\camCoreWithRTOS\obj/../Libraries/rtthread_libraries/libcpu/context_gcc.S:141
    LOAD x9,  9  * REGBYTES(sp)
     1d8:	5492                	lw	s1,36(sp)
F:\SCHOOL\文件\智能车\全向组\RTTThreadCH32V103\camCoreWithRTOS\obj/../Libraries/rtthread_libraries/libcpu/context_gcc.S:142
    LOAD x10, 10 * REGBYTES(sp)
     1da:	5522                	lw	a0,40(sp)
F:\SCHOOL\文件\智能车\全向组\RTTThreadCH32V103\camCoreWithRTOS\obj/../Libraries/rtthread_libraries/libcpu/context_gcc.S:143
    LOAD x11, 11 * REGBYTES(sp)
     1dc:	55b2                	lw	a1,44(sp)
F:\SCHOOL\文件\智能车\全向组\RTTThreadCH32V103\camCoreWithRTOS\obj/../Libraries/rtthread_libraries/libcpu/context_gcc.S:144
    LOAD x12, 12 * REGBYTES(sp)
     1de:	5642                	lw	a2,48(sp)
F:\SCHOOL\文件\智能车\全向组\RTTThreadCH32V103\camCoreWithRTOS\obj/../Libraries/rtthread_libraries/libcpu/context_gcc.S:145
    LOAD x13, 13 * REGBYTES(sp)
     1e0:	56d2                	lw	a3,52(sp)
F:\SCHOOL\文件\智能车\全向组\RTTThreadCH32V103\camCoreWithRTOS\obj/../Libraries/rtthread_libraries/libcpu/context_gcc.S:146
    LOAD x14, 14 * REGBYTES(sp)
     1e2:	5762                	lw	a4,56(sp)
F:\SCHOOL\文件\智能车\全向组\RTTThreadCH32V103\camCoreWithRTOS\obj/../Libraries/rtthread_libraries/libcpu/context_gcc.S:147
    LOAD x15, 15 * REGBYTES(sp)
     1e4:	57f2                	lw	a5,60(sp)
F:\SCHOOL\文件\智能车\全向组\RTTThreadCH32V103\camCoreWithRTOS\obj/../Libraries/rtthread_libraries/libcpu/context_gcc.S:148
    LOAD x16, 16 * REGBYTES(sp)
     1e6:	4806                	lw	a6,64(sp)
F:\SCHOOL\文件\智能车\全向组\RTTThreadCH32V103\camCoreWithRTOS\obj/../Libraries/rtthread_libraries/libcpu/context_gcc.S:149
    LOAD x17, 17 * REGBYTES(sp)
     1e8:	4896                	lw	a7,68(sp)
F:\SCHOOL\文件\智能车\全向组\RTTThreadCH32V103\camCoreWithRTOS\obj/../Libraries/rtthread_libraries/libcpu/context_gcc.S:150
    LOAD x18, 18 * REGBYTES(sp)
     1ea:	4926                	lw	s2,72(sp)
F:\SCHOOL\文件\智能车\全向组\RTTThreadCH32V103\camCoreWithRTOS\obj/../Libraries/rtthread_libraries/libcpu/context_gcc.S:151
    LOAD x19, 19 * REGBYTES(sp)
     1ec:	49b6                	lw	s3,76(sp)
F:\SCHOOL\文件\智能车\全向组\RTTThreadCH32V103\camCoreWithRTOS\obj/../Libraries/rtthread_libraries/libcpu/context_gcc.S:152
    LOAD x20, 20 * REGBYTES(sp)
     1ee:	4a46                	lw	s4,80(sp)
F:\SCHOOL\文件\智能车\全向组\RTTThreadCH32V103\camCoreWithRTOS\obj/../Libraries/rtthread_libraries/libcpu/context_gcc.S:153
    LOAD x21, 21 * REGBYTES(sp)
     1f0:	4ad6                	lw	s5,84(sp)
F:\SCHOOL\文件\智能车\全向组\RTTThreadCH32V103\camCoreWithRTOS\obj/../Libraries/rtthread_libraries/libcpu/context_gcc.S:154
    LOAD x22, 22 * REGBYTES(sp)
     1f2:	4b66                	lw	s6,88(sp)
F:\SCHOOL\文件\智能车\全向组\RTTThreadCH32V103\camCoreWithRTOS\obj/../Libraries/rtthread_libraries/libcpu/context_gcc.S:155
    LOAD x23, 23 * REGBYTES(sp)
     1f4:	4bf6                	lw	s7,92(sp)
F:\SCHOOL\文件\智能车\全向组\RTTThreadCH32V103\camCoreWithRTOS\obj/../Libraries/rtthread_libraries/libcpu/context_gcc.S:156
    LOAD x24, 24 * REGBYTES(sp)
     1f6:	5c06                	lw	s8,96(sp)
F:\SCHOOL\文件\智能车\全向组\RTTThreadCH32V103\camCoreWithRTOS\obj/../Libraries/rtthread_libraries/libcpu/context_gcc.S:157
    LOAD x25, 25 * REGBYTES(sp)
     1f8:	5c96                	lw	s9,100(sp)
F:\SCHOOL\文件\智能车\全向组\RTTThreadCH32V103\camCoreWithRTOS\obj/../Libraries/rtthread_libraries/libcpu/context_gcc.S:158
    LOAD x26, 26 * REGBYTES(sp)
     1fa:	5d26                	lw	s10,104(sp)
F:\SCHOOL\文件\智能车\全向组\RTTThreadCH32V103\camCoreWithRTOS\obj/../Libraries/rtthread_libraries/libcpu/context_gcc.S:159
    LOAD x27, 27 * REGBYTES(sp)
     1fc:	5db6                	lw	s11,108(sp)
F:\SCHOOL\文件\智能车\全向组\RTTThreadCH32V103\camCoreWithRTOS\obj/../Libraries/rtthread_libraries/libcpu/context_gcc.S:160
    LOAD x28, 28 * REGBYTES(sp)
     1fe:	5e46                	lw	t3,112(sp)
F:\SCHOOL\文件\智能车\全向组\RTTThreadCH32V103\camCoreWithRTOS\obj/../Libraries/rtthread_libraries/libcpu/context_gcc.S:161
    LOAD x29, 29 * REGBYTES(sp)
     200:	5ed6                	lw	t4,116(sp)
F:\SCHOOL\文件\智能车\全向组\RTTThreadCH32V103\camCoreWithRTOS\obj/../Libraries/rtthread_libraries/libcpu/context_gcc.S:162
    LOAD x30, 30 * REGBYTES(sp)
     202:	5f66                	lw	t5,120(sp)
F:\SCHOOL\文件\智能车\全向组\RTTThreadCH32V103\camCoreWithRTOS\obj/../Libraries/rtthread_libraries/libcpu/context_gcc.S:163
    LOAD x31, 31 * REGBYTES(sp)
     204:	5ff6                	lw	t6,124(sp)
F:\SCHOOL\文件\智能车\全向组\RTTThreadCH32V103\camCoreWithRTOS\obj/../Libraries/rtthread_libraries/libcpu/context_gcc.S:165

    addi sp, sp, RT_CONTEXT_SIZE
     206:	6109                	addi	sp,sp,128
F:\SCHOOL\文件\智能车\全向组\RTTThreadCH32V103\camCoreWithRTOS\obj/../Libraries/rtthread_libraries/libcpu/context_gcc.S:167

    mret
     208:	30200073          	mret
	...

0000020e <memset>:
memset():
     20e:	433d                	li	t1,15
     210:	872a                	mv	a4,a0
     212:	02c37363          	bgeu	t1,a2,238 <memset+0x2a>
     216:	00f77793          	andi	a5,a4,15
     21a:	efbd                	bnez	a5,298 <memset+0x8a>
     21c:	e5ad                	bnez	a1,286 <memset+0x78>
     21e:	ff067693          	andi	a3,a2,-16
     222:	8a3d                	andi	a2,a2,15
     224:	96ba                	add	a3,a3,a4
     226:	c30c                	sw	a1,0(a4)
     228:	c34c                	sw	a1,4(a4)
     22a:	c70c                	sw	a1,8(a4)
     22c:	c74c                	sw	a1,12(a4)
     22e:	0741                	addi	a4,a4,16
     230:	fed76be3          	bltu	a4,a3,226 <memset+0x18>
     234:	e211                	bnez	a2,238 <memset+0x2a>
     236:	8082                	ret
     238:	40c306b3          	sub	a3,t1,a2
     23c:	068a                	slli	a3,a3,0x2
     23e:	00000297          	auipc	t0,0x0
     242:	9696                	add	a3,a3,t0
     244:	00a68067          	jr	10(a3)
     248:	00b70723          	sb	a1,14(a4)
     24c:	00b706a3          	sb	a1,13(a4)
     250:	00b70623          	sb	a1,12(a4)
     254:	00b705a3          	sb	a1,11(a4)
     258:	00b70523          	sb	a1,10(a4)
     25c:	00b704a3          	sb	a1,9(a4)
     260:	00b70423          	sb	a1,8(a4)
     264:	00b703a3          	sb	a1,7(a4)
     268:	00b70323          	sb	a1,6(a4)
     26c:	00b702a3          	sb	a1,5(a4)
     270:	00b70223          	sb	a1,4(a4)
     274:	00b701a3          	sb	a1,3(a4)
     278:	00b70123          	sb	a1,2(a4)
     27c:	00b700a3          	sb	a1,1(a4)
     280:	00b70023          	sb	a1,0(a4)
     284:	8082                	ret
     286:	0ff5f593          	andi	a1,a1,255
     28a:	00859693          	slli	a3,a1,0x8
     28e:	8dd5                	or	a1,a1,a3
     290:	01059693          	slli	a3,a1,0x10
     294:	8dd5                	or	a1,a1,a3
     296:	b761                	j	21e <memset+0x10>
     298:	00279693          	slli	a3,a5,0x2
     29c:	00000297          	auipc	t0,0x0
     2a0:	9696                	add	a3,a3,t0
     2a2:	8286                	mv	t0,ra
     2a4:	fa8680e7          	jalr	-88(a3)
     2a8:	8096                	mv	ra,t0
     2aa:	17c1                	addi	a5,a5,-16
     2ac:	8f1d                	sub	a4,a4,a5
     2ae:	963e                	add	a2,a2,a5
     2b0:	f8c374e3          	bgeu	t1,a2,238 <memset+0x2a>
     2b4:	b7a5                	j	21c <memset+0xe>

000002b6 <EXTI0_IRQHandler>:
EXTI0_IRQHandler():
F:\SCHOOL\文件\智能车\全向组\RTTThreadCH32V103\camCoreWithRTOS\obj/../USER/isr.c:65
//void RTCAlarm_IRQHandler(void) __attribute__((interrupt()));
//void USBWakeUp_IRQHandler(void) __attribute__((interrupt()));
//void USBHD_IRQHandler(void) __attribute__((interrupt()));

void EXTI0_IRQHandler(void)
{
     2b6:	7139                	addi	sp,sp,-64
     2b8:	de06                	sw	ra,60(sp)
     2ba:	dc16                	sw	t0,56(sp)
     2bc:	da1a                	sw	t1,52(sp)
     2be:	d81e                	sw	t2,48(sp)
     2c0:	d62a                	sw	a0,44(sp)
     2c2:	d42e                	sw	a1,40(sp)
     2c4:	d232                	sw	a2,36(sp)
     2c6:	d036                	sw	a3,32(sp)
     2c8:	ce3a                	sw	a4,28(sp)
     2ca:	cc3e                	sw	a5,24(sp)
     2cc:	ca42                	sw	a6,20(sp)
     2ce:	c846                	sw	a7,16(sp)
     2d0:	c672                	sw	t3,12(sp)
     2d2:	c476                	sw	t4,8(sp)
     2d4:	c27a                	sw	t5,4(sp)
     2d6:	c07e                	sw	t6,0(sp)
F:\SCHOOL\文件\智能车\全向组\RTTThreadCH32V103\camCoreWithRTOS\obj/../USER/isr.c:66
    rt_interrupt_enter();   //进入中断
     2d8:	506020ef          	jal	ra,27de <rt_interrupt_enter>
F:\SCHOOL\文件\智能车\全向组\RTTThreadCH32V103\camCoreWithRTOS\obj/../USER/isr.c:68

    if(SET == EXTI_GetITStatus(EXTI_Line0))
     2dc:	4505                	li	a0,1
     2de:	489000ef          	jal	ra,f66 <EXTI_GetITStatus>
     2e2:	4785                	li	a5,1
     2e4:	02f50763          	beq	a0,a5,312 <EXTI0_IRQHandler+0x5c>
F:\SCHOOL\文件\智能车\全向组\RTTThreadCH32V103\camCoreWithRTOS\obj/../USER/isr.c:74
    {

        EXTI_ClearITPendingBit(EXTI_Line0);
    }

    rt_interrupt_leave();   //退出中断
     2e8:	51a020ef          	jal	ra,2802 <rt_interrupt_leave>
F:\SCHOOL\文件\智能车\全向组\RTTThreadCH32V103\camCoreWithRTOS\obj/../USER/isr.c:75
}
     2ec:	50f2                	lw	ra,60(sp)
     2ee:	52e2                	lw	t0,56(sp)
     2f0:	5352                	lw	t1,52(sp)
     2f2:	53c2                	lw	t2,48(sp)
     2f4:	5532                	lw	a0,44(sp)
     2f6:	55a2                	lw	a1,40(sp)
     2f8:	5612                	lw	a2,36(sp)
     2fa:	5682                	lw	a3,32(sp)
     2fc:	4772                	lw	a4,28(sp)
     2fe:	47e2                	lw	a5,24(sp)
     300:	4852                	lw	a6,20(sp)
     302:	48c2                	lw	a7,16(sp)
     304:	4e32                	lw	t3,12(sp)
     306:	4ea2                	lw	t4,8(sp)
     308:	4f12                	lw	t5,4(sp)
     30a:	4f82                	lw	t6,0(sp)
     30c:	6121                	addi	sp,sp,64
     30e:	30200073          	mret
F:\SCHOOL\文件\智能车\全向组\RTTThreadCH32V103\camCoreWithRTOS\obj/../USER/isr.c:71
        EXTI_ClearITPendingBit(EXTI_Line0);
     312:	4505                	li	a0,1
     314:	46f000ef          	jal	ra,f82 <EXTI_ClearITPendingBit>
     318:	bfc1                	j	2e8 <EXTI0_IRQHandler+0x32>

0000031a <EXTI1_IRQHandler>:
EXTI1_IRQHandler():
F:\SCHOOL\文件\智能车\全向组\RTTThreadCH32V103\camCoreWithRTOS\obj/../USER/isr.c:78

void EXTI1_IRQHandler(void)
{
     31a:	7139                	addi	sp,sp,-64
     31c:	de06                	sw	ra,60(sp)
     31e:	dc16                	sw	t0,56(sp)
     320:	da1a                	sw	t1,52(sp)
     322:	d81e                	sw	t2,48(sp)
     324:	d62a                	sw	a0,44(sp)
     326:	d42e                	sw	a1,40(sp)
     328:	d232                	sw	a2,36(sp)
     32a:	d036                	sw	a3,32(sp)
     32c:	ce3a                	sw	a4,28(sp)
     32e:	cc3e                	sw	a5,24(sp)
     330:	ca42                	sw	a6,20(sp)
     332:	c846                	sw	a7,16(sp)
     334:	c672                	sw	t3,12(sp)
     336:	c476                	sw	t4,8(sp)
     338:	c27a                	sw	t5,4(sp)
     33a:	c07e                	sw	t6,0(sp)
F:\SCHOOL\文件\智能车\全向组\RTTThreadCH32V103\camCoreWithRTOS\obj/../USER/isr.c:79
    rt_interrupt_enter();   //进入中断
     33c:	4a2020ef          	jal	ra,27de <rt_interrupt_enter>
F:\SCHOOL\文件\智能车\全向组\RTTThreadCH32V103\camCoreWithRTOS\obj/../USER/isr.c:81

    if(SET == EXTI_GetITStatus(EXTI_Line1))
     340:	4509                	li	a0,2
     342:	425000ef          	jal	ra,f66 <EXTI_GetITStatus>
     346:	4785                	li	a5,1
     348:	02f50763          	beq	a0,a5,376 <EXTI1_IRQHandler+0x5c>
F:\SCHOOL\文件\智能车\全向组\RTTThreadCH32V103\camCoreWithRTOS\obj/../USER/isr.c:90
        else if(camera_type == CAMERA_GRAYSCALE)
            mt9v03x_vsync();
        EXTI_ClearITPendingBit(EXTI_Line1);
    }

    rt_interrupt_leave();   //退出中断
     34c:	4b6020ef          	jal	ra,2802 <rt_interrupt_leave>
F:\SCHOOL\文件\智能车\全向组\RTTThreadCH32V103\camCoreWithRTOS\obj/../USER/isr.c:91
}
     350:	50f2                	lw	ra,60(sp)
     352:	52e2                	lw	t0,56(sp)
     354:	5352                	lw	t1,52(sp)
     356:	53c2                	lw	t2,48(sp)
     358:	5532                	lw	a0,44(sp)
     35a:	55a2                	lw	a1,40(sp)
     35c:	5612                	lw	a2,36(sp)
     35e:	5682                	lw	a3,32(sp)
     360:	4772                	lw	a4,28(sp)
     362:	47e2                	lw	a5,24(sp)
     364:	4852                	lw	a6,20(sp)
     366:	48c2                	lw	a7,16(sp)
     368:	4e32                	lw	t3,12(sp)
     36a:	4ea2                	lw	t4,8(sp)
     36c:	4f12                	lw	t5,4(sp)
     36e:	4f82                	lw	t6,0(sp)
     370:	6121                	addi	sp,sp,64
     372:	30200073          	mret
F:\SCHOOL\文件\智能车\全向组\RTTThreadCH32V103\camCoreWithRTOS\obj/../USER/isr.c:83
        if(camera_type == CAMERA_BIN_UART)
     376:	200007b7          	lui	a5,0x20000
     37a:	0b47a783          	lw	a5,180(a5) # 200000b4 <camera_type>
     37e:	4709                	li	a4,2
     380:	00e78963          	beq	a5,a4,392 <EXTI1_IRQHandler+0x78>
F:\SCHOOL\文件\智能车\全向组\RTTThreadCH32V103\camCoreWithRTOS\obj/../USER/isr.c:85
        else if(camera_type == CAMERA_GRAYSCALE)
     384:	4705                	li	a4,1
     386:	00e78963          	beq	a5,a4,398 <EXTI1_IRQHandler+0x7e>
F:\SCHOOL\文件\智能车\全向组\RTTThreadCH32V103\camCoreWithRTOS\obj/../USER/isr.c:87
        EXTI_ClearITPendingBit(EXTI_Line1);
     38a:	4509                	li	a0,2
     38c:	3f7000ef          	jal	ra,f82 <EXTI_ClearITPendingBit>
     390:	bf75                	j	34c <EXTI1_IRQHandler+0x32>
F:\SCHOOL\文件\智能车\全向组\RTTThreadCH32V103\camCoreWithRTOS\obj/../USER/isr.c:84
            ov7725_uart_vsync();
     392:	65e010ef          	jal	ra,19f0 <ov7725_uart_vsync>
     396:	bfd5                	j	38a <EXTI1_IRQHandler+0x70>
F:\SCHOOL\文件\智能车\全向组\RTTThreadCH32V103\camCoreWithRTOS\obj/../USER/isr.c:86
            mt9v03x_vsync();
     398:	2ac010ef          	jal	ra,1644 <mt9v03x_vsync>
     39c:	b7fd                	j	38a <EXTI1_IRQHandler+0x70>

0000039e <EXTI2_IRQHandler>:
EXTI2_IRQHandler():
F:\SCHOOL\文件\智能车\全向组\RTTThreadCH32V103\camCoreWithRTOS\obj/../USER/isr.c:94

void EXTI2_IRQHandler(void)
{
     39e:	7139                	addi	sp,sp,-64
     3a0:	de06                	sw	ra,60(sp)
     3a2:	dc16                	sw	t0,56(sp)
     3a4:	da1a                	sw	t1,52(sp)
     3a6:	d81e                	sw	t2,48(sp)
     3a8:	d62a                	sw	a0,44(sp)
     3aa:	d42e                	sw	a1,40(sp)
     3ac:	d232                	sw	a2,36(sp)
     3ae:	d036                	sw	a3,32(sp)
     3b0:	ce3a                	sw	a4,28(sp)
     3b2:	cc3e                	sw	a5,24(sp)
     3b4:	ca42                	sw	a6,20(sp)
     3b6:	c846                	sw	a7,16(sp)
     3b8:	c672                	sw	t3,12(sp)
     3ba:	c476                	sw	t4,8(sp)
     3bc:	c27a                	sw	t5,4(sp)
     3be:	c07e                	sw	t6,0(sp)
F:\SCHOOL\文件\智能车\全向组\RTTThreadCH32V103\camCoreWithRTOS\obj/../USER/isr.c:95
    rt_interrupt_enter();    //进入中断
     3c0:	41e020ef          	jal	ra,27de <rt_interrupt_enter>
F:\SCHOOL\文件\智能车\全向组\RTTThreadCH32V103\camCoreWithRTOS\obj/../USER/isr.c:97

    if(SET == EXTI_GetITStatus(EXTI_Line2))
     3c4:	4511                	li	a0,4
     3c6:	3a1000ef          	jal	ra,f66 <EXTI_GetITStatus>
     3ca:	4785                	li	a5,1
     3cc:	02f50763          	beq	a0,a5,3fa <EXTI2_IRQHandler+0x5c>
F:\SCHOOL\文件\智能车\全向组\RTTThreadCH32V103\camCoreWithRTOS\obj/../USER/isr.c:103
    {

        EXTI_ClearITPendingBit(EXTI_Line2);
    }

    rt_interrupt_leave();    //退出中断
     3d0:	432020ef          	jal	ra,2802 <rt_interrupt_leave>
F:\SCHOOL\文件\智能车\全向组\RTTThreadCH32V103\camCoreWithRTOS\obj/../USER/isr.c:104
}
     3d4:	50f2                	lw	ra,60(sp)
     3d6:	52e2                	lw	t0,56(sp)
     3d8:	5352                	lw	t1,52(sp)
     3da:	53c2                	lw	t2,48(sp)
     3dc:	5532                	lw	a0,44(sp)
     3de:	55a2                	lw	a1,40(sp)
     3e0:	5612                	lw	a2,36(sp)
     3e2:	5682                	lw	a3,32(sp)
     3e4:	4772                	lw	a4,28(sp)
     3e6:	47e2                	lw	a5,24(sp)
     3e8:	4852                	lw	a6,20(sp)
     3ea:	48c2                	lw	a7,16(sp)
     3ec:	4e32                	lw	t3,12(sp)
     3ee:	4ea2                	lw	t4,8(sp)
     3f0:	4f12                	lw	t5,4(sp)
     3f2:	4f82                	lw	t6,0(sp)
     3f4:	6121                	addi	sp,sp,64
     3f6:	30200073          	mret
F:\SCHOOL\文件\智能车\全向组\RTTThreadCH32V103\camCoreWithRTOS\obj/../USER/isr.c:100
        EXTI_ClearITPendingBit(EXTI_Line2);
     3fa:	4511                	li	a0,4
     3fc:	387000ef          	jal	ra,f82 <EXTI_ClearITPendingBit>
     400:	bfc1                	j	3d0 <EXTI2_IRQHandler+0x32>

00000402 <EXTI3_IRQHandler>:
EXTI3_IRQHandler():
F:\SCHOOL\文件\智能车\全向组\RTTThreadCH32V103\camCoreWithRTOS\obj/../USER/isr.c:107

void EXTI3_IRQHandler(void)
{
     402:	7139                	addi	sp,sp,-64
     404:	de06                	sw	ra,60(sp)
     406:	dc16                	sw	t0,56(sp)
     408:	da1a                	sw	t1,52(sp)
     40a:	d81e                	sw	t2,48(sp)
     40c:	d62a                	sw	a0,44(sp)
     40e:	d42e                	sw	a1,40(sp)
     410:	d232                	sw	a2,36(sp)
     412:	d036                	sw	a3,32(sp)
     414:	ce3a                	sw	a4,28(sp)
     416:	cc3e                	sw	a5,24(sp)
     418:	ca42                	sw	a6,20(sp)
     41a:	c846                	sw	a7,16(sp)
     41c:	c672                	sw	t3,12(sp)
     41e:	c476                	sw	t4,8(sp)
     420:	c27a                	sw	t5,4(sp)
     422:	c07e                	sw	t6,0(sp)
F:\SCHOOL\文件\智能车\全向组\RTTThreadCH32V103\camCoreWithRTOS\obj/../USER/isr.c:108
    rt_interrupt_enter();   //进入中断
     424:	3ba020ef          	jal	ra,27de <rt_interrupt_enter>
F:\SCHOOL\文件\智能车\全向组\RTTThreadCH32V103\camCoreWithRTOS\obj/../USER/isr.c:110

    if(SET == EXTI_GetITStatus(EXTI_Line3))
     428:	4521                	li	a0,8
     42a:	33d000ef          	jal	ra,f66 <EXTI_GetITStatus>
     42e:	4785                	li	a5,1
     430:	02f50763          	beq	a0,a5,45e <EXTI3_IRQHandler+0x5c>
F:\SCHOOL\文件\智能车\全向组\RTTThreadCH32V103\camCoreWithRTOS\obj/../USER/isr.c:116
    {

        EXTI_ClearITPendingBit(EXTI_Line3);
    }

    rt_interrupt_leave();   //退出中断
     434:	3ce020ef          	jal	ra,2802 <rt_interrupt_leave>
F:\SCHOOL\文件\智能车\全向组\RTTThreadCH32V103\camCoreWithRTOS\obj/../USER/isr.c:117
}
     438:	50f2                	lw	ra,60(sp)
     43a:	52e2                	lw	t0,56(sp)
     43c:	5352                	lw	t1,52(sp)
     43e:	53c2                	lw	t2,48(sp)
     440:	5532                	lw	a0,44(sp)
     442:	55a2                	lw	a1,40(sp)
     444:	5612                	lw	a2,36(sp)
     446:	5682                	lw	a3,32(sp)
     448:	4772                	lw	a4,28(sp)
     44a:	47e2                	lw	a5,24(sp)
     44c:	4852                	lw	a6,20(sp)
     44e:	48c2                	lw	a7,16(sp)
     450:	4e32                	lw	t3,12(sp)
     452:	4ea2                	lw	t4,8(sp)
     454:	4f12                	lw	t5,4(sp)
     456:	4f82                	lw	t6,0(sp)
     458:	6121                	addi	sp,sp,64
     45a:	30200073          	mret
F:\SCHOOL\文件\智能车\全向组\RTTThreadCH32V103\camCoreWithRTOS\obj/../USER/isr.c:113
        EXTI_ClearITPendingBit(EXTI_Line3);
     45e:	4521                	li	a0,8
     460:	323000ef          	jal	ra,f82 <EXTI_ClearITPendingBit>
     464:	bfc1                	j	434 <EXTI3_IRQHandler+0x32>

00000466 <EXTI4_IRQHandler>:
EXTI4_IRQHandler():
F:\SCHOOL\文件\智能车\全向组\RTTThreadCH32V103\camCoreWithRTOS\obj/../USER/isr.c:120

void EXTI4_IRQHandler(void)
{
     466:	7139                	addi	sp,sp,-64
     468:	de06                	sw	ra,60(sp)
     46a:	dc16                	sw	t0,56(sp)
     46c:	da1a                	sw	t1,52(sp)
     46e:	d81e                	sw	t2,48(sp)
     470:	d62a                	sw	a0,44(sp)
     472:	d42e                	sw	a1,40(sp)
     474:	d232                	sw	a2,36(sp)
     476:	d036                	sw	a3,32(sp)
     478:	ce3a                	sw	a4,28(sp)
     47a:	cc3e                	sw	a5,24(sp)
     47c:	ca42                	sw	a6,20(sp)
     47e:	c846                	sw	a7,16(sp)
     480:	c672                	sw	t3,12(sp)
     482:	c476                	sw	t4,8(sp)
     484:	c27a                	sw	t5,4(sp)
     486:	c07e                	sw	t6,0(sp)
F:\SCHOOL\文件\智能车\全向组\RTTThreadCH32V103\camCoreWithRTOS\obj/../USER/isr.c:121
    rt_interrupt_enter();    //进入中断
     488:	356020ef          	jal	ra,27de <rt_interrupt_enter>
F:\SCHOOL\文件\智能车\全向组\RTTThreadCH32V103\camCoreWithRTOS\obj/../USER/isr.c:123

    if(SET == EXTI_GetITStatus(EXTI_Line4))
     48c:	4541                	li	a0,16
     48e:	2d9000ef          	jal	ra,f66 <EXTI_GetITStatus>
     492:	4785                	li	a5,1
     494:	02f50763          	beq	a0,a5,4c2 <EXTI4_IRQHandler+0x5c>
F:\SCHOOL\文件\智能车\全向组\RTTThreadCH32V103\camCoreWithRTOS\obj/../USER/isr.c:129
    {

        EXTI_ClearITPendingBit(EXTI_Line4);
    }

    rt_interrupt_leave();    //退出中断
     498:	36a020ef          	jal	ra,2802 <rt_interrupt_leave>
F:\SCHOOL\文件\智能车\全向组\RTTThreadCH32V103\camCoreWithRTOS\obj/../USER/isr.c:130
}
     49c:	50f2                	lw	ra,60(sp)
     49e:	52e2                	lw	t0,56(sp)
     4a0:	5352                	lw	t1,52(sp)
     4a2:	53c2                	lw	t2,48(sp)
     4a4:	5532                	lw	a0,44(sp)
     4a6:	55a2                	lw	a1,40(sp)
     4a8:	5612                	lw	a2,36(sp)
     4aa:	5682                	lw	a3,32(sp)
     4ac:	4772                	lw	a4,28(sp)
     4ae:	47e2                	lw	a5,24(sp)
     4b0:	4852                	lw	a6,20(sp)
     4b2:	48c2                	lw	a7,16(sp)
     4b4:	4e32                	lw	t3,12(sp)
     4b6:	4ea2                	lw	t4,8(sp)
     4b8:	4f12                	lw	t5,4(sp)
     4ba:	4f82                	lw	t6,0(sp)
     4bc:	6121                	addi	sp,sp,64
     4be:	30200073          	mret
F:\SCHOOL\文件\智能车\全向组\RTTThreadCH32V103\camCoreWithRTOS\obj/../USER/isr.c:126
        EXTI_ClearITPendingBit(EXTI_Line4);
     4c2:	4541                	li	a0,16
     4c4:	2bf000ef          	jal	ra,f82 <EXTI_ClearITPendingBit>
     4c8:	bfc1                	j	498 <EXTI4_IRQHandler+0x32>

000004ca <EXTI9_5_IRQHandler>:
EXTI9_5_IRQHandler():
F:\SCHOOL\文件\智能车\全向组\RTTThreadCH32V103\camCoreWithRTOS\obj/../USER/isr.c:133

void EXTI9_5_IRQHandler(void)
{
     4ca:	7139                	addi	sp,sp,-64
     4cc:	de06                	sw	ra,60(sp)
     4ce:	dc16                	sw	t0,56(sp)
     4d0:	da1a                	sw	t1,52(sp)
     4d2:	d81e                	sw	t2,48(sp)
     4d4:	d62a                	sw	a0,44(sp)
     4d6:	d42e                	sw	a1,40(sp)
     4d8:	d232                	sw	a2,36(sp)
     4da:	d036                	sw	a3,32(sp)
     4dc:	ce3a                	sw	a4,28(sp)
     4de:	cc3e                	sw	a5,24(sp)
     4e0:	ca42                	sw	a6,20(sp)
     4e2:	c846                	sw	a7,16(sp)
     4e4:	c672                	sw	t3,12(sp)
     4e6:	c476                	sw	t4,8(sp)
     4e8:	c27a                	sw	t5,4(sp)
     4ea:	c07e                	sw	t6,0(sp)
F:\SCHOOL\文件\智能车\全向组\RTTThreadCH32V103\camCoreWithRTOS\obj/../USER/isr.c:134
    rt_interrupt_enter();   //进入中断
     4ec:	2f2020ef          	jal	ra,27de <rt_interrupt_enter>
F:\SCHOOL\文件\智能车\全向组\RTTThreadCH32V103\camCoreWithRTOS\obj/../USER/isr.c:136

    if(SET == EXTI_GetITStatus(EXTI_Line9))
     4f0:	20000513          	li	a0,512
     4f4:	273000ef          	jal	ra,f66 <EXTI_GetITStatus>
     4f8:	4785                	li	a5,1
     4fa:	04f50363          	beq	a0,a5,540 <EXTI9_5_IRQHandler+0x76>
F:\SCHOOL\文件\智能车\全向组\RTTThreadCH32V103\camCoreWithRTOS\obj/../USER/isr.c:141
    {

        EXTI_ClearITPendingBit(EXTI_Line9);
    }
    else if(SET == EXTI_GetITStatus(EXTI_Line8))
     4fe:	10000513          	li	a0,256
     502:	265000ef          	jal	ra,f66 <EXTI_GetITStatus>
     506:	4785                	li	a5,1
     508:	06f50563          	beq	a0,a5,572 <EXTI9_5_IRQHandler+0xa8>
F:\SCHOOL\文件\智能车\全向组\RTTThreadCH32V103\camCoreWithRTOS\obj/../USER/isr.c:146
    {

        EXTI_ClearITPendingBit(EXTI_Line8);
    }
    else if(SET == EXTI_GetITStatus(EXTI_Line7))
     50c:	08000513          	li	a0,128
     510:	257000ef          	jal	ra,f66 <EXTI_GetITStatus>
     514:	4785                	li	a5,1
     516:	06f50363          	beq	a0,a5,57c <EXTI9_5_IRQHandler+0xb2>
F:\SCHOOL\文件\智能车\全向组\RTTThreadCH32V103\camCoreWithRTOS\obj/../USER/isr.c:151
    {

        EXTI_ClearITPendingBit(EXTI_Line7);
    }
    else if(SET == EXTI_GetITStatus(EXTI_Line6))
     51a:	04000513          	li	a0,64
     51e:	249000ef          	jal	ra,f66 <EXTI_GetITStatus>
     522:	4785                	li	a5,1
     524:	06f50163          	beq	a0,a5,586 <EXTI9_5_IRQHandler+0xbc>
F:\SCHOOL\文件\智能车\全向组\RTTThreadCH32V103\camCoreWithRTOS\obj/../USER/isr.c:156
    {

        EXTI_ClearITPendingBit(EXTI_Line6);
    }
    else if(SET == EXTI_GetITStatus(EXTI_Line5))
     528:	02000513          	li	a0,32
     52c:	23b000ef          	jal	ra,f66 <EXTI_GetITStatus>
     530:	4785                	li	a5,1
     532:	00f51b63          	bne	a0,a5,548 <EXTI9_5_IRQHandler+0x7e>
F:\SCHOOL\文件\智能车\全向组\RTTThreadCH32V103\camCoreWithRTOS\obj/../USER/isr.c:159
    {

        EXTI_ClearITPendingBit(EXTI_Line5);
     536:	02000513          	li	a0,32
     53a:	249000ef          	jal	ra,f82 <EXTI_ClearITPendingBit>
     53e:	a029                	j	548 <EXTI9_5_IRQHandler+0x7e>
F:\SCHOOL\文件\智能车\全向组\RTTThreadCH32V103\camCoreWithRTOS\obj/../USER/isr.c:139
        EXTI_ClearITPendingBit(EXTI_Line9);
     540:	20000513          	li	a0,512
     544:	23f000ef          	jal	ra,f82 <EXTI_ClearITPendingBit>
F:\SCHOOL\文件\智能车\全向组\RTTThreadCH32V103\camCoreWithRTOS\obj/../USER/isr.c:162
    }

    rt_interrupt_leave();       //退出中断
     548:	2ba020ef          	jal	ra,2802 <rt_interrupt_leave>
F:\SCHOOL\文件\智能车\全向组\RTTThreadCH32V103\camCoreWithRTOS\obj/../USER/isr.c:163
}
     54c:	50f2                	lw	ra,60(sp)
     54e:	52e2                	lw	t0,56(sp)
     550:	5352                	lw	t1,52(sp)
     552:	53c2                	lw	t2,48(sp)
     554:	5532                	lw	a0,44(sp)
     556:	55a2                	lw	a1,40(sp)
     558:	5612                	lw	a2,36(sp)
     55a:	5682                	lw	a3,32(sp)
     55c:	4772                	lw	a4,28(sp)
     55e:	47e2                	lw	a5,24(sp)
     560:	4852                	lw	a6,20(sp)
     562:	48c2                	lw	a7,16(sp)
     564:	4e32                	lw	t3,12(sp)
     566:	4ea2                	lw	t4,8(sp)
     568:	4f12                	lw	t5,4(sp)
     56a:	4f82                	lw	t6,0(sp)
     56c:	6121                	addi	sp,sp,64
     56e:	30200073          	mret
F:\SCHOOL\文件\智能车\全向组\RTTThreadCH32V103\camCoreWithRTOS\obj/../USER/isr.c:144
        EXTI_ClearITPendingBit(EXTI_Line8);
     572:	10000513          	li	a0,256
     576:	20d000ef          	jal	ra,f82 <EXTI_ClearITPendingBit>
     57a:	b7f9                	j	548 <EXTI9_5_IRQHandler+0x7e>
F:\SCHOOL\文件\智能车\全向组\RTTThreadCH32V103\camCoreWithRTOS\obj/../USER/isr.c:149
        EXTI_ClearITPendingBit(EXTI_Line7);
     57c:	08000513          	li	a0,128
     580:	203000ef          	jal	ra,f82 <EXTI_ClearITPendingBit>
     584:	b7d1                	j	548 <EXTI9_5_IRQHandler+0x7e>
F:\SCHOOL\文件\智能车\全向组\RTTThreadCH32V103\camCoreWithRTOS\obj/../USER/isr.c:154
        EXTI_ClearITPendingBit(EXTI_Line6);
     586:	04000513          	li	a0,64
     58a:	1f9000ef          	jal	ra,f82 <EXTI_ClearITPendingBit>
     58e:	bf6d                	j	548 <EXTI9_5_IRQHandler+0x7e>

00000590 <EXTI15_10_IRQHandler>:
EXTI15_10_IRQHandler():
F:\SCHOOL\文件\智能车\全向组\RTTThreadCH32V103\camCoreWithRTOS\obj/../USER/isr.c:166

void EXTI15_10_IRQHandler(void)
{
     590:	7139                	addi	sp,sp,-64
     592:	de06                	sw	ra,60(sp)
     594:	dc16                	sw	t0,56(sp)
     596:	da1a                	sw	t1,52(sp)
     598:	d81e                	sw	t2,48(sp)
     59a:	d62a                	sw	a0,44(sp)
     59c:	d42e                	sw	a1,40(sp)
     59e:	d232                	sw	a2,36(sp)
     5a0:	d036                	sw	a3,32(sp)
     5a2:	ce3a                	sw	a4,28(sp)
     5a4:	cc3e                	sw	a5,24(sp)
     5a6:	ca42                	sw	a6,20(sp)
     5a8:	c846                	sw	a7,16(sp)
     5aa:	c672                	sw	t3,12(sp)
     5ac:	c476                	sw	t4,8(sp)
     5ae:	c27a                	sw	t5,4(sp)
     5b0:	c07e                	sw	t6,0(sp)
F:\SCHOOL\文件\智能车\全向组\RTTThreadCH32V103\camCoreWithRTOS\obj/../USER/isr.c:167
    rt_interrupt_enter();   //进入中断
     5b2:	22c020ef          	jal	ra,27de <rt_interrupt_enter>
F:\SCHOOL\文件\智能车\全向组\RTTThreadCH32V103\camCoreWithRTOS\obj/../USER/isr.c:169

    if(SET == EXTI_GetITStatus(EXTI_Line15))
     5b6:	6521                	lui	a0,0x8
     5b8:	1af000ef          	jal	ra,f66 <EXTI_GetITStatus>
     5bc:	4785                	li	a5,1
     5be:	04f50863          	beq	a0,a5,60e <EXTI15_10_IRQHandler+0x7e>
F:\SCHOOL\文件\智能车\全向组\RTTThreadCH32V103\camCoreWithRTOS\obj/../USER/isr.c:174
    {

        EXTI_ClearITPendingBit(EXTI_Line15);
    }
    else if(SET == EXTI_GetITStatus(EXTI_Line14))
     5c2:	6511                	lui	a0,0x4
     5c4:	1a3000ef          	jal	ra,f66 <EXTI_GetITStatus>
     5c8:	4785                	li	a5,1
     5ca:	06f50a63          	beq	a0,a5,63e <EXTI15_10_IRQHandler+0xae>
F:\SCHOOL\文件\智能车\全向组\RTTThreadCH32V103\camCoreWithRTOS\obj/../USER/isr.c:179
    {

        EXTI_ClearITPendingBit(EXTI_Line14);
    }
    else if(SET == EXTI_GetITStatus(EXTI_Line13))
     5ce:	6509                	lui	a0,0x2
     5d0:	197000ef          	jal	ra,f66 <EXTI_GetITStatus>
     5d4:	4785                	li	a5,1
     5d6:	06f50863          	beq	a0,a5,646 <EXTI15_10_IRQHandler+0xb6>
F:\SCHOOL\文件\智能车\全向组\RTTThreadCH32V103\camCoreWithRTOS\obj/../USER/isr.c:184
    {

        EXTI_ClearITPendingBit(EXTI_Line13);
    }
    else if(SET == EXTI_GetITStatus(EXTI_Line12))
     5da:	6505                	lui	a0,0x1
     5dc:	18b000ef          	jal	ra,f66 <EXTI_GetITStatus>
     5e0:	4785                	li	a5,1
     5e2:	06f50663          	beq	a0,a5,64e <EXTI15_10_IRQHandler+0xbe>
F:\SCHOOL\文件\智能车\全向组\RTTThreadCH32V103\camCoreWithRTOS\obj/../USER/isr.c:189
    {

        EXTI_ClearITPendingBit(EXTI_Line12);
    }
    else if(SET == EXTI_GetITStatus(EXTI_Line11))
     5e6:	6505                	lui	a0,0x1
     5e8:	80050513          	addi	a0,a0,-2048 # 800 <TIM1_TRG_COM_IRQHandler+0x6a>
     5ec:	17b000ef          	jal	ra,f66 <EXTI_GetITStatus>
     5f0:	4785                	li	a5,1
     5f2:	06f50263          	beq	a0,a5,656 <EXTI15_10_IRQHandler+0xc6>
F:\SCHOOL\文件\智能车\全向组\RTTThreadCH32V103\camCoreWithRTOS\obj/../USER/isr.c:194
    {

        EXTI_ClearITPendingBit(EXTI_Line11);
    }
    else if(SET == EXTI_GetITStatus(EXTI_Line10))
     5f6:	40000513          	li	a0,1024
     5fa:	16d000ef          	jal	ra,f66 <EXTI_GetITStatus>
     5fe:	4785                	li	a5,1
     600:	00f51a63          	bne	a0,a5,614 <EXTI15_10_IRQHandler+0x84>
F:\SCHOOL\文件\智能车\全向组\RTTThreadCH32V103\camCoreWithRTOS\obj/../USER/isr.c:197
    {

        EXTI_ClearITPendingBit(EXTI_Line10);
     604:	40000513          	li	a0,1024
     608:	17b000ef          	jal	ra,f82 <EXTI_ClearITPendingBit>
     60c:	a021                	j	614 <EXTI15_10_IRQHandler+0x84>
F:\SCHOOL\文件\智能车\全向组\RTTThreadCH32V103\camCoreWithRTOS\obj/../USER/isr.c:172
        EXTI_ClearITPendingBit(EXTI_Line15);
     60e:	6521                	lui	a0,0x8
     610:	173000ef          	jal	ra,f82 <EXTI_ClearITPendingBit>
F:\SCHOOL\文件\智能车\全向组\RTTThreadCH32V103\camCoreWithRTOS\obj/../USER/isr.c:200
    }

    rt_interrupt_leave();       //退出中断
     614:	1ee020ef          	jal	ra,2802 <rt_interrupt_leave>
F:\SCHOOL\文件\智能车\全向组\RTTThreadCH32V103\camCoreWithRTOS\obj/../USER/isr.c:201
}
     618:	50f2                	lw	ra,60(sp)
     61a:	52e2                	lw	t0,56(sp)
     61c:	5352                	lw	t1,52(sp)
     61e:	53c2                	lw	t2,48(sp)
     620:	5532                	lw	a0,44(sp)
     622:	55a2                	lw	a1,40(sp)
     624:	5612                	lw	a2,36(sp)
     626:	5682                	lw	a3,32(sp)
     628:	4772                	lw	a4,28(sp)
     62a:	47e2                	lw	a5,24(sp)
     62c:	4852                	lw	a6,20(sp)
     62e:	48c2                	lw	a7,16(sp)
     630:	4e32                	lw	t3,12(sp)
     632:	4ea2                	lw	t4,8(sp)
     634:	4f12                	lw	t5,4(sp)
     636:	4f82                	lw	t6,0(sp)
     638:	6121                	addi	sp,sp,64
     63a:	30200073          	mret
F:\SCHOOL\文件\智能车\全向组\RTTThreadCH32V103\camCoreWithRTOS\obj/../USER/isr.c:177
        EXTI_ClearITPendingBit(EXTI_Line14);
     63e:	6511                	lui	a0,0x4
     640:	143000ef          	jal	ra,f82 <EXTI_ClearITPendingBit>
     644:	bfc1                	j	614 <EXTI15_10_IRQHandler+0x84>
F:\SCHOOL\文件\智能车\全向组\RTTThreadCH32V103\camCoreWithRTOS\obj/../USER/isr.c:182
        EXTI_ClearITPendingBit(EXTI_Line13);
     646:	6509                	lui	a0,0x2
     648:	13b000ef          	jal	ra,f82 <EXTI_ClearITPendingBit>
     64c:	b7e1                	j	614 <EXTI15_10_IRQHandler+0x84>
F:\SCHOOL\文件\智能车\全向组\RTTThreadCH32V103\camCoreWithRTOS\obj/../USER/isr.c:187
        EXTI_ClearITPendingBit(EXTI_Line12);
     64e:	6505                	lui	a0,0x1
     650:	133000ef          	jal	ra,f82 <EXTI_ClearITPendingBit>
     654:	b7c1                	j	614 <EXTI15_10_IRQHandler+0x84>
F:\SCHOOL\文件\智能车\全向组\RTTThreadCH32V103\camCoreWithRTOS\obj/../USER/isr.c:192
        EXTI_ClearITPendingBit(EXTI_Line11);
     656:	6505                	lui	a0,0x1
     658:	80050513          	addi	a0,a0,-2048 # 800 <TIM1_TRG_COM_IRQHandler+0x6a>
     65c:	127000ef          	jal	ra,f82 <EXTI_ClearITPendingBit>
     660:	bf55                	j	614 <EXTI15_10_IRQHandler+0x84>

00000662 <ADC1_2_IRQHandler>:
ADC1_2_IRQHandler():
F:\SCHOOL\文件\智能车\全向组\RTTThreadCH32V103\camCoreWithRTOS\obj/../USER/isr.c:204

void ADC1_2_IRQHandler(void)
{
     662:	7139                	addi	sp,sp,-64
     664:	de06                	sw	ra,60(sp)
     666:	dc16                	sw	t0,56(sp)
     668:	da1a                	sw	t1,52(sp)
     66a:	d81e                	sw	t2,48(sp)
     66c:	d62a                	sw	a0,44(sp)
     66e:	d42e                	sw	a1,40(sp)
     670:	d232                	sw	a2,36(sp)
     672:	d036                	sw	a3,32(sp)
     674:	ce3a                	sw	a4,28(sp)
     676:	cc3e                	sw	a5,24(sp)
     678:	ca42                	sw	a6,20(sp)
     67a:	c846                	sw	a7,16(sp)
     67c:	c672                	sw	t3,12(sp)
     67e:	c476                	sw	t4,8(sp)
     680:	c27a                	sw	t5,4(sp)
     682:	c07e                	sw	t6,0(sp)
F:\SCHOOL\文件\智能车\全向组\RTTThreadCH32V103\camCoreWithRTOS\obj/../USER/isr.c:205
    rt_interrupt_enter();       //进入中断
     684:	15a020ef          	jal	ra,27de <rt_interrupt_enter>
F:\SCHOOL\文件\智能车\全向组\RTTThreadCH32V103\camCoreWithRTOS\obj/../USER/isr.c:210

    //获取中断标志位
    //清除中断标志位

    rt_interrupt_leave();       //退出中断
     688:	17a020ef          	jal	ra,2802 <rt_interrupt_leave>
F:\SCHOOL\文件\智能车\全向组\RTTThreadCH32V103\camCoreWithRTOS\obj/../USER/isr.c:211
}
     68c:	50f2                	lw	ra,60(sp)
     68e:	52e2                	lw	t0,56(sp)
     690:	5352                	lw	t1,52(sp)
     692:	53c2                	lw	t2,48(sp)
     694:	5532                	lw	a0,44(sp)
     696:	55a2                	lw	a1,40(sp)
     698:	5612                	lw	a2,36(sp)
     69a:	5682                	lw	a3,32(sp)
     69c:	4772                	lw	a4,28(sp)
     69e:	47e2                	lw	a5,24(sp)
     6a0:	4852                	lw	a6,20(sp)
     6a2:	48c2                	lw	a7,16(sp)
     6a4:	4e32                	lw	t3,12(sp)
     6a6:	4ea2                	lw	t4,8(sp)
     6a8:	4f12                	lw	t5,4(sp)
     6aa:	4f82                	lw	t6,0(sp)
     6ac:	6121                	addi	sp,sp,64
     6ae:	30200073          	mret

000006b2 <TIM1_BRK_IRQHandler>:
TIM1_BRK_IRQHandler():
F:\SCHOOL\文件\智能车\全向组\RTTThreadCH32V103\camCoreWithRTOS\obj/../USER/isr.c:214

void TIM1_BRK_IRQHandler(void)
{
     6b2:	7139                	addi	sp,sp,-64
     6b4:	de06                	sw	ra,60(sp)
     6b6:	dc16                	sw	t0,56(sp)
     6b8:	da1a                	sw	t1,52(sp)
     6ba:	d81e                	sw	t2,48(sp)
     6bc:	d62a                	sw	a0,44(sp)
     6be:	d42e                	sw	a1,40(sp)
     6c0:	d232                	sw	a2,36(sp)
     6c2:	d036                	sw	a3,32(sp)
     6c4:	ce3a                	sw	a4,28(sp)
     6c6:	cc3e                	sw	a5,24(sp)
     6c8:	ca42                	sw	a6,20(sp)
     6ca:	c846                	sw	a7,16(sp)
     6cc:	c672                	sw	t3,12(sp)
     6ce:	c476                	sw	t4,8(sp)
     6d0:	c27a                	sw	t5,4(sp)
     6d2:	c07e                	sw	t6,0(sp)
F:\SCHOOL\文件\智能车\全向组\RTTThreadCH32V103\camCoreWithRTOS\obj/../USER/isr.c:215
    rt_interrupt_enter();       //进入中断
     6d4:	10a020ef          	jal	ra,27de <rt_interrupt_enter>
F:\SCHOOL\文件\智能车\全向组\RTTThreadCH32V103\camCoreWithRTOS\obj/../USER/isr.c:217

    if(TIM_GetITStatus(TIM1, TIM_IT_Break) != RESET)
     6d8:	08000593          	li	a1,128
     6dc:	40013537          	lui	a0,0x40013
     6e0:	c0050513          	addi	a0,a0,-1024 # 40012c00 <_eusrstack+0x2000dc00>
     6e4:	52b000ef          	jal	ra,140e <TIM_GetITStatus>
     6e8:	e515                	bnez	a0,714 <TIM1_BRK_IRQHandler+0x62>
F:\SCHOOL\文件\智能车\全向组\RTTThreadCH32V103\camCoreWithRTOS\obj/../USER/isr.c:223
    {
        TIM_ClearITPendingBit(TIM1, TIM_IT_Break);

    }

    rt_interrupt_leave();       //退出中断
     6ea:	118020ef          	jal	ra,2802 <rt_interrupt_leave>
F:\SCHOOL\文件\智能车\全向组\RTTThreadCH32V103\camCoreWithRTOS\obj/../USER/isr.c:224
}
     6ee:	50f2                	lw	ra,60(sp)
     6f0:	52e2                	lw	t0,56(sp)
     6f2:	5352                	lw	t1,52(sp)
     6f4:	53c2                	lw	t2,48(sp)
     6f6:	5532                	lw	a0,44(sp)
     6f8:	55a2                	lw	a1,40(sp)
     6fa:	5612                	lw	a2,36(sp)
     6fc:	5682                	lw	a3,32(sp)
     6fe:	4772                	lw	a4,28(sp)
     700:	47e2                	lw	a5,24(sp)
     702:	4852                	lw	a6,20(sp)
     704:	48c2                	lw	a7,16(sp)
     706:	4e32                	lw	t3,12(sp)
     708:	4ea2                	lw	t4,8(sp)
     70a:	4f12                	lw	t5,4(sp)
     70c:	4f82                	lw	t6,0(sp)
     70e:	6121                	addi	sp,sp,64
     710:	30200073          	mret
F:\SCHOOL\文件\智能车\全向组\RTTThreadCH32V103\camCoreWithRTOS\obj/../USER/isr.c:219
        TIM_ClearITPendingBit(TIM1, TIM_IT_Break);
     714:	08000593          	li	a1,128
     718:	40013537          	lui	a0,0x40013
     71c:	c0050513          	addi	a0,a0,-1024 # 40012c00 <_eusrstack+0x2000dc00>
     720:	50b000ef          	jal	ra,142a <TIM_ClearITPendingBit>
     724:	b7d9                	j	6ea <TIM1_BRK_IRQHandler+0x38>

00000726 <TIM1_UP_IRQHandler>:
TIM1_UP_IRQHandler():
F:\SCHOOL\文件\智能车\全向组\RTTThreadCH32V103\camCoreWithRTOS\obj/../USER/isr.c:227

void TIM1_UP_IRQHandler(void)
{
     726:	7139                	addi	sp,sp,-64
     728:	de06                	sw	ra,60(sp)
     72a:	dc16                	sw	t0,56(sp)
     72c:	da1a                	sw	t1,52(sp)
     72e:	d81e                	sw	t2,48(sp)
     730:	d62a                	sw	a0,44(sp)
     732:	d42e                	sw	a1,40(sp)
     734:	d232                	sw	a2,36(sp)
     736:	d036                	sw	a3,32(sp)
     738:	ce3a                	sw	a4,28(sp)
     73a:	cc3e                	sw	a5,24(sp)
     73c:	ca42                	sw	a6,20(sp)
     73e:	c846                	sw	a7,16(sp)
     740:	c672                	sw	t3,12(sp)
     742:	c476                	sw	t4,8(sp)
     744:	c27a                	sw	t5,4(sp)
     746:	c07e                	sw	t6,0(sp)
F:\SCHOOL\文件\智能车\全向组\RTTThreadCH32V103\camCoreWithRTOS\obj/../USER/isr.c:228
    rt_interrupt_enter();       //进入中断
     748:	096020ef          	jal	ra,27de <rt_interrupt_enter>
F:\SCHOOL\文件\智能车\全向组\RTTThreadCH32V103\camCoreWithRTOS\obj/../USER/isr.c:231


    if(TIM_GetITStatus(TIM1, TIM_IT_Update) != RESET)
     74c:	4585                	li	a1,1
     74e:	40013537          	lui	a0,0x40013
     752:	c0050513          	addi	a0,a0,-1024 # 40012c00 <_eusrstack+0x2000dc00>
     756:	4b9000ef          	jal	ra,140e <TIM_GetITStatus>
     75a:	e515                	bnez	a0,786 <TIM1_UP_IRQHandler+0x60>
F:\SCHOOL\文件\智能车\全向组\RTTThreadCH32V103\camCoreWithRTOS\obj/../USER/isr.c:237
    {
        TIM_ClearITPendingBit(TIM1, TIM_IT_Update);

    }

    rt_interrupt_leave();       //退出中断
     75c:	0a6020ef          	jal	ra,2802 <rt_interrupt_leave>
F:\SCHOOL\文件\智能车\全向组\RTTThreadCH32V103\camCoreWithRTOS\obj/../USER/isr.c:238
}
     760:	50f2                	lw	ra,60(sp)
     762:	52e2                	lw	t0,56(sp)
     764:	5352                	lw	t1,52(sp)
     766:	53c2                	lw	t2,48(sp)
     768:	5532                	lw	a0,44(sp)
     76a:	55a2                	lw	a1,40(sp)
     76c:	5612                	lw	a2,36(sp)
     76e:	5682                	lw	a3,32(sp)
     770:	4772                	lw	a4,28(sp)
     772:	47e2                	lw	a5,24(sp)
     774:	4852                	lw	a6,20(sp)
     776:	48c2                	lw	a7,16(sp)
     778:	4e32                	lw	t3,12(sp)
     77a:	4ea2                	lw	t4,8(sp)
     77c:	4f12                	lw	t5,4(sp)
     77e:	4f82                	lw	t6,0(sp)
     780:	6121                	addi	sp,sp,64
     782:	30200073          	mret
F:\SCHOOL\文件\智能车\全向组\RTTThreadCH32V103\camCoreWithRTOS\obj/../USER/isr.c:233
        TIM_ClearITPendingBit(TIM1, TIM_IT_Update);
     786:	4585                	li	a1,1
     788:	40013537          	lui	a0,0x40013
     78c:	c0050513          	addi	a0,a0,-1024 # 40012c00 <_eusrstack+0x2000dc00>
     790:	49b000ef          	jal	ra,142a <TIM_ClearITPendingBit>
     794:	b7e1                	j	75c <TIM1_UP_IRQHandler+0x36>

00000796 <TIM1_TRG_COM_IRQHandler>:
TIM1_TRG_COM_IRQHandler():
F:\SCHOOL\文件\智能车\全向组\RTTThreadCH32V103\camCoreWithRTOS\obj/../USER/isr.c:241

void TIM1_TRG_COM_IRQHandler(void)
{
     796:	7139                	addi	sp,sp,-64
     798:	de06                	sw	ra,60(sp)
     79a:	dc16                	sw	t0,56(sp)
     79c:	da1a                	sw	t1,52(sp)
     79e:	d81e                	sw	t2,48(sp)
     7a0:	d62a                	sw	a0,44(sp)
     7a2:	d42e                	sw	a1,40(sp)
     7a4:	d232                	sw	a2,36(sp)
     7a6:	d036                	sw	a3,32(sp)
     7a8:	ce3a                	sw	a4,28(sp)
     7aa:	cc3e                	sw	a5,24(sp)
     7ac:	ca42                	sw	a6,20(sp)
     7ae:	c846                	sw	a7,16(sp)
     7b0:	c672                	sw	t3,12(sp)
     7b2:	c476                	sw	t4,8(sp)
     7b4:	c27a                	sw	t5,4(sp)
     7b6:	c07e                	sw	t6,0(sp)
F:\SCHOOL\文件\智能车\全向组\RTTThreadCH32V103\camCoreWithRTOS\obj/../USER/isr.c:242
    rt_interrupt_enter();       //进入中断
     7b8:	026020ef          	jal	ra,27de <rt_interrupt_enter>
F:\SCHOOL\文件\智能车\全向组\RTTThreadCH32V103\camCoreWithRTOS\obj/../USER/isr.c:244

    if(TIM_GetITStatus(TIM1, TIM_IT_Trigger) != RESET)
     7bc:	04000593          	li	a1,64
     7c0:	40013537          	lui	a0,0x40013
     7c4:	c0050513          	addi	a0,a0,-1024 # 40012c00 <_eusrstack+0x2000dc00>
     7c8:	447000ef          	jal	ra,140e <TIM_GetITStatus>
     7cc:	ed1d                	bnez	a0,80a <TIM1_TRG_COM_IRQHandler+0x74>
F:\SCHOOL\文件\智能车\全向组\RTTThreadCH32V103\camCoreWithRTOS\obj/../USER/isr.c:249
    {
        TIM_ClearITPendingBit(TIM1, TIM_IT_Trigger);

    }
    if(TIM_GetITStatus(TIM1, TIM_IT_COM) != RESET)
     7ce:	02000593          	li	a1,32
     7d2:	40013537          	lui	a0,0x40013
     7d6:	c0050513          	addi	a0,a0,-1024 # 40012c00 <_eusrstack+0x2000dc00>
     7da:	435000ef          	jal	ra,140e <TIM_GetITStatus>
     7de:	ed1d                	bnez	a0,81c <TIM1_TRG_COM_IRQHandler+0x86>
F:\SCHOOL\文件\智能车\全向组\RTTThreadCH32V103\camCoreWithRTOS\obj/../USER/isr.c:255
    {
        TIM_ClearITPendingBit(TIM1, TIM_IT_COM);

    }

    rt_interrupt_leave();       //退出中断
     7e0:	022020ef          	jal	ra,2802 <rt_interrupt_leave>
F:\SCHOOL\文件\智能车\全向组\RTTThreadCH32V103\camCoreWithRTOS\obj/../USER/isr.c:256
}
     7e4:	50f2                	lw	ra,60(sp)
     7e6:	52e2                	lw	t0,56(sp)
     7e8:	5352                	lw	t1,52(sp)
     7ea:	53c2                	lw	t2,48(sp)
     7ec:	5532                	lw	a0,44(sp)
     7ee:	55a2                	lw	a1,40(sp)
     7f0:	5612                	lw	a2,36(sp)
     7f2:	5682                	lw	a3,32(sp)
     7f4:	4772                	lw	a4,28(sp)
     7f6:	47e2                	lw	a5,24(sp)
     7f8:	4852                	lw	a6,20(sp)
     7fa:	48c2                	lw	a7,16(sp)
     7fc:	4e32                	lw	t3,12(sp)
     7fe:	4ea2                	lw	t4,8(sp)
     800:	4f12                	lw	t5,4(sp)
     802:	4f82                	lw	t6,0(sp)
     804:	6121                	addi	sp,sp,64
     806:	30200073          	mret
F:\SCHOOL\文件\智能车\全向组\RTTThreadCH32V103\camCoreWithRTOS\obj/../USER/isr.c:246
        TIM_ClearITPendingBit(TIM1, TIM_IT_Trigger);
     80a:	04000593          	li	a1,64
     80e:	40013537          	lui	a0,0x40013
     812:	c0050513          	addi	a0,a0,-1024 # 40012c00 <_eusrstack+0x2000dc00>
     816:	415000ef          	jal	ra,142a <TIM_ClearITPendingBit>
     81a:	bf55                	j	7ce <TIM1_TRG_COM_IRQHandler+0x38>
F:\SCHOOL\文件\智能车\全向组\RTTThreadCH32V103\camCoreWithRTOS\obj/../USER/isr.c:251
        TIM_ClearITPendingBit(TIM1, TIM_IT_COM);
     81c:	02000593          	li	a1,32
     820:	40013537          	lui	a0,0x40013
     824:	c0050513          	addi	a0,a0,-1024 # 40012c00 <_eusrstack+0x2000dc00>
     828:	403000ef          	jal	ra,142a <TIM_ClearITPendingBit>
     82c:	bf55                	j	7e0 <TIM1_TRG_COM_IRQHandler+0x4a>

0000082e <TIM1_CC_IRQHandler>:
TIM1_CC_IRQHandler():
F:\SCHOOL\文件\智能车\全向组\RTTThreadCH32V103\camCoreWithRTOS\obj/../USER/isr.c:259

void TIM1_CC_IRQHandler(void)
{
     82e:	7139                	addi	sp,sp,-64
     830:	de06                	sw	ra,60(sp)
     832:	dc16                	sw	t0,56(sp)
     834:	da1a                	sw	t1,52(sp)
     836:	d81e                	sw	t2,48(sp)
     838:	d62a                	sw	a0,44(sp)
     83a:	d42e                	sw	a1,40(sp)
     83c:	d232                	sw	a2,36(sp)
     83e:	d036                	sw	a3,32(sp)
     840:	ce3a                	sw	a4,28(sp)
     842:	cc3e                	sw	a5,24(sp)
     844:	ca42                	sw	a6,20(sp)
     846:	c846                	sw	a7,16(sp)
     848:	c672                	sw	t3,12(sp)
     84a:	c476                	sw	t4,8(sp)
     84c:	c27a                	sw	t5,4(sp)
     84e:	c07e                	sw	t6,0(sp)
F:\SCHOOL\文件\智能车\全向组\RTTThreadCH32V103\camCoreWithRTOS\obj/../USER/isr.c:260
    rt_interrupt_enter();       //进入中断
     850:	78f010ef          	jal	ra,27de <rt_interrupt_enter>
F:\SCHOOL\文件\智能车\全向组\RTTThreadCH32V103\camCoreWithRTOS\obj/../USER/isr.c:262

    if(TIM_GetITStatus(TIM1, TIM_IT_CC1) != RESET)
     854:	4589                	li	a1,2
     856:	40013537          	lui	a0,0x40013
     85a:	c0050513          	addi	a0,a0,-1024 # 40012c00 <_eusrstack+0x2000dc00>
     85e:	3b1000ef          	jal	ra,140e <TIM_GetITStatus>
     862:	ed31                	bnez	a0,8be <TIM1_CC_IRQHandler+0x90>
F:\SCHOOL\文件\智能车\全向组\RTTThreadCH32V103\camCoreWithRTOS\obj/../USER/isr.c:267
    {
        TIM_ClearITPendingBit(TIM1, TIM_IT_CC1);

    }
    if(TIM_GetITStatus(TIM1, TIM_IT_CC2) != RESET)
     864:	4591                	li	a1,4
     866:	40013537          	lui	a0,0x40013
     86a:	c0050513          	addi	a0,a0,-1024 # 40012c00 <_eusrstack+0x2000dc00>
     86e:	3a1000ef          	jal	ra,140e <TIM_GetITStatus>
     872:	ed31                	bnez	a0,8ce <TIM1_CC_IRQHandler+0xa0>
F:\SCHOOL\文件\智能车\全向组\RTTThreadCH32V103\camCoreWithRTOS\obj/../USER/isr.c:272
    {
        TIM_ClearITPendingBit(TIM1, TIM_IT_CC2);

    }
    if(TIM_GetITStatus(TIM1, TIM_IT_CC3) != RESET)
     874:	45a1                	li	a1,8
     876:	40013537          	lui	a0,0x40013
     87a:	c0050513          	addi	a0,a0,-1024 # 40012c00 <_eusrstack+0x2000dc00>
     87e:	391000ef          	jal	ra,140e <TIM_GetITStatus>
     882:	ed31                	bnez	a0,8de <TIM1_CC_IRQHandler+0xb0>
F:\SCHOOL\文件\智能车\全向组\RTTThreadCH32V103\camCoreWithRTOS\obj/../USER/isr.c:277
    {
        TIM_ClearITPendingBit(TIM1, TIM_IT_CC3);

    }
    if(TIM_GetITStatus(TIM1, TIM_IT_CC4) != RESET)
     884:	45c1                	li	a1,16
     886:	40013537          	lui	a0,0x40013
     88a:	c0050513          	addi	a0,a0,-1024 # 40012c00 <_eusrstack+0x2000dc00>
     88e:	381000ef          	jal	ra,140e <TIM_GetITStatus>
     892:	ed31                	bnez	a0,8ee <TIM1_CC_IRQHandler+0xc0>
F:\SCHOOL\文件\智能车\全向组\RTTThreadCH32V103\camCoreWithRTOS\obj/../USER/isr.c:283
    {
        TIM_ClearITPendingBit(TIM1, TIM_IT_CC4);

    }

    rt_interrupt_leave();       //退出中断
     894:	76f010ef          	jal	ra,2802 <rt_interrupt_leave>
F:\SCHOOL\文件\智能车\全向组\RTTThreadCH32V103\camCoreWithRTOS\obj/../USER/isr.c:284
}
     898:	50f2                	lw	ra,60(sp)
     89a:	52e2                	lw	t0,56(sp)
     89c:	5352                	lw	t1,52(sp)
     89e:	53c2                	lw	t2,48(sp)
     8a0:	5532                	lw	a0,44(sp)
     8a2:	55a2                	lw	a1,40(sp)
     8a4:	5612                	lw	a2,36(sp)
     8a6:	5682                	lw	a3,32(sp)
     8a8:	4772                	lw	a4,28(sp)
     8aa:	47e2                	lw	a5,24(sp)
     8ac:	4852                	lw	a6,20(sp)
     8ae:	48c2                	lw	a7,16(sp)
     8b0:	4e32                	lw	t3,12(sp)
     8b2:	4ea2                	lw	t4,8(sp)
     8b4:	4f12                	lw	t5,4(sp)
     8b6:	4f82                	lw	t6,0(sp)
     8b8:	6121                	addi	sp,sp,64
     8ba:	30200073          	mret
F:\SCHOOL\文件\智能车\全向组\RTTThreadCH32V103\camCoreWithRTOS\obj/../USER/isr.c:264
        TIM_ClearITPendingBit(TIM1, TIM_IT_CC1);
     8be:	4589                	li	a1,2
     8c0:	40013537          	lui	a0,0x40013
     8c4:	c0050513          	addi	a0,a0,-1024 # 40012c00 <_eusrstack+0x2000dc00>
     8c8:	363000ef          	jal	ra,142a <TIM_ClearITPendingBit>
     8cc:	bf61                	j	864 <TIM1_CC_IRQHandler+0x36>
F:\SCHOOL\文件\智能车\全向组\RTTThreadCH32V103\camCoreWithRTOS\obj/../USER/isr.c:269
        TIM_ClearITPendingBit(TIM1, TIM_IT_CC2);
     8ce:	4591                	li	a1,4
     8d0:	40013537          	lui	a0,0x40013
     8d4:	c0050513          	addi	a0,a0,-1024 # 40012c00 <_eusrstack+0x2000dc00>
     8d8:	353000ef          	jal	ra,142a <TIM_ClearITPendingBit>
     8dc:	bf61                	j	874 <TIM1_CC_IRQHandler+0x46>
F:\SCHOOL\文件\智能车\全向组\RTTThreadCH32V103\camCoreWithRTOS\obj/../USER/isr.c:274
        TIM_ClearITPendingBit(TIM1, TIM_IT_CC3);
     8de:	45a1                	li	a1,8
     8e0:	40013537          	lui	a0,0x40013
     8e4:	c0050513          	addi	a0,a0,-1024 # 40012c00 <_eusrstack+0x2000dc00>
     8e8:	343000ef          	jal	ra,142a <TIM_ClearITPendingBit>
     8ec:	bf61                	j	884 <TIM1_CC_IRQHandler+0x56>
F:\SCHOOL\文件\智能车\全向组\RTTThreadCH32V103\camCoreWithRTOS\obj/../USER/isr.c:279
        TIM_ClearITPendingBit(TIM1, TIM_IT_CC4);
     8ee:	45c1                	li	a1,16
     8f0:	40013537          	lui	a0,0x40013
     8f4:	c0050513          	addi	a0,a0,-1024 # 40012c00 <_eusrstack+0x2000dc00>
     8f8:	333000ef          	jal	ra,142a <TIM_ClearITPendingBit>
     8fc:	bf61                	j	894 <TIM1_CC_IRQHandler+0x66>

000008fe <TIM2_IRQHandler>:
TIM2_IRQHandler():
F:\SCHOOL\文件\智能车\全向组\RTTThreadCH32V103\camCoreWithRTOS\obj/../USER/isr.c:287

void TIM2_IRQHandler(void)
{
     8fe:	1141                	addi	sp,sp,-16
     900:	c606                	sw	ra,12(sp)
F:\SCHOOL\文件\智能车\全向组\RTTThreadCH32V103\camCoreWithRTOS\obj/../USER/isr.c:288
    rt_interrupt_enter();       //进入中断
     902:	6dd010ef          	jal	ra,27de <rt_interrupt_enter>
F:\SCHOOL\文件\智能车\全向组\RTTThreadCH32V103\camCoreWithRTOS\obj/../USER/isr.c:290

    if(TIM_GetITStatus(TIM2, TIM_IT_Update) != RESET)
     906:	4585                	li	a1,1
     908:	40000537          	lui	a0,0x40000
     90c:	303000ef          	jal	ra,140e <TIM_GetITStatus>
     910:	e511                	bnez	a0,91c <TIM2_IRQHandler+0x1e>
F:\SCHOOL\文件\智能车\全向组\RTTThreadCH32V103\camCoreWithRTOS\obj/../USER/isr.c:296
    {
        TIM_ClearITPendingBit(TIM2, TIM_IT_Update );
//        ccd_collect();//CCD数据采集
    }

    rt_interrupt_leave();       //退出中断
     912:	6f1010ef          	jal	ra,2802 <rt_interrupt_leave>
F:\SCHOOL\文件\智能车\全向组\RTTThreadCH32V103\camCoreWithRTOS\obj/../USER/isr.c:297
}
     916:	40b2                	lw	ra,12(sp)
     918:	0141                	addi	sp,sp,16
     91a:	8082                	ret
F:\SCHOOL\文件\智能车\全向组\RTTThreadCH32V103\camCoreWithRTOS\obj/../USER/isr.c:292
        TIM_ClearITPendingBit(TIM2, TIM_IT_Update );
     91c:	4585                	li	a1,1
     91e:	40000537          	lui	a0,0x40000
     922:	309000ef          	jal	ra,142a <TIM_ClearITPendingBit>
     926:	b7f5                	j	912 <TIM2_IRQHandler+0x14>

00000928 <TIM3_IRQHandler>:
TIM3_IRQHandler():
F:\SCHOOL\文件\智能车\全向组\RTTThreadCH32V103\camCoreWithRTOS\obj/../USER/isr.c:300

void TIM3_IRQHandler(void)
{
     928:	7139                	addi	sp,sp,-64
     92a:	de06                	sw	ra,60(sp)
     92c:	dc16                	sw	t0,56(sp)
     92e:	da1a                	sw	t1,52(sp)
     930:	d81e                	sw	t2,48(sp)
     932:	d62a                	sw	a0,44(sp)
     934:	d42e                	sw	a1,40(sp)
     936:	d232                	sw	a2,36(sp)
     938:	d036                	sw	a3,32(sp)
     93a:	ce3a                	sw	a4,28(sp)
     93c:	cc3e                	sw	a5,24(sp)
     93e:	ca42                	sw	a6,20(sp)
     940:	c846                	sw	a7,16(sp)
     942:	c672                	sw	t3,12(sp)
     944:	c476                	sw	t4,8(sp)
     946:	c27a                	sw	t5,4(sp)
     948:	c07e                	sw	t6,0(sp)
F:\SCHOOL\文件\智能车\全向组\RTTThreadCH32V103\camCoreWithRTOS\obj/../USER/isr.c:301
    rt_interrupt_enter();       //进入中断
     94a:	695010ef          	jal	ra,27de <rt_interrupt_enter>
F:\SCHOOL\文件\智能车\全向组\RTTThreadCH32V103\camCoreWithRTOS\obj/../USER/isr.c:303

    if(TIM_GetITStatus(TIM3, TIM_IT_Update) != RESET)
     94e:	4585                	li	a1,1
     950:	40000537          	lui	a0,0x40000
     954:	40050513          	addi	a0,a0,1024 # 40000400 <_eusrstack+0x1fffb400>
     958:	2b7000ef          	jal	ra,140e <TIM_GetITStatus>
     95c:	e515                	bnez	a0,988 <TIM3_IRQHandler+0x60>
F:\SCHOOL\文件\智能车\全向组\RTTThreadCH32V103\camCoreWithRTOS\obj/../USER/isr.c:309
    {
        TIM_ClearITPendingBit(TIM3, TIM_IT_Update );

    }

    rt_interrupt_leave();       //退出中断
     95e:	6a5010ef          	jal	ra,2802 <rt_interrupt_leave>
F:\SCHOOL\文件\智能车\全向组\RTTThreadCH32V103\camCoreWithRTOS\obj/../USER/isr.c:310
}
     962:	50f2                	lw	ra,60(sp)
     964:	52e2                	lw	t0,56(sp)
     966:	5352                	lw	t1,52(sp)
     968:	53c2                	lw	t2,48(sp)
     96a:	5532                	lw	a0,44(sp)
     96c:	55a2                	lw	a1,40(sp)
     96e:	5612                	lw	a2,36(sp)
     970:	5682                	lw	a3,32(sp)
     972:	4772                	lw	a4,28(sp)
     974:	47e2                	lw	a5,24(sp)
     976:	4852                	lw	a6,20(sp)
     978:	48c2                	lw	a7,16(sp)
     97a:	4e32                	lw	t3,12(sp)
     97c:	4ea2                	lw	t4,8(sp)
     97e:	4f12                	lw	t5,4(sp)
     980:	4f82                	lw	t6,0(sp)
     982:	6121                	addi	sp,sp,64
     984:	30200073          	mret
F:\SCHOOL\文件\智能车\全向组\RTTThreadCH32V103\camCoreWithRTOS\obj/../USER/isr.c:305
        TIM_ClearITPendingBit(TIM3, TIM_IT_Update );
     988:	4585                	li	a1,1
     98a:	40000537          	lui	a0,0x40000
     98e:	40050513          	addi	a0,a0,1024 # 40000400 <_eusrstack+0x1fffb400>
     992:	299000ef          	jal	ra,142a <TIM_ClearITPendingBit>
     996:	b7e1                	j	95e <TIM3_IRQHandler+0x36>

00000998 <TIM4_IRQHandler>:
TIM4_IRQHandler():
F:\SCHOOL\文件\智能车\全向组\RTTThreadCH32V103\camCoreWithRTOS\obj/../USER/isr.c:313

void TIM4_IRQHandler(void)
{
     998:	7139                	addi	sp,sp,-64
     99a:	de06                	sw	ra,60(sp)
     99c:	dc16                	sw	t0,56(sp)
     99e:	da1a                	sw	t1,52(sp)
     9a0:	d81e                	sw	t2,48(sp)
     9a2:	d62a                	sw	a0,44(sp)
     9a4:	d42e                	sw	a1,40(sp)
     9a6:	d232                	sw	a2,36(sp)
     9a8:	d036                	sw	a3,32(sp)
     9aa:	ce3a                	sw	a4,28(sp)
     9ac:	cc3e                	sw	a5,24(sp)
     9ae:	ca42                	sw	a6,20(sp)
     9b0:	c846                	sw	a7,16(sp)
     9b2:	c672                	sw	t3,12(sp)
     9b4:	c476                	sw	t4,8(sp)
     9b6:	c27a                	sw	t5,4(sp)
     9b8:	c07e                	sw	t6,0(sp)
F:\SCHOOL\文件\智能车\全向组\RTTThreadCH32V103\camCoreWithRTOS\obj/../USER/isr.c:314
    rt_interrupt_enter();       //进入中断
     9ba:	625010ef          	jal	ra,27de <rt_interrupt_enter>
F:\SCHOOL\文件\智能车\全向组\RTTThreadCH32V103\camCoreWithRTOS\obj/../USER/isr.c:316

    if(TIM_GetITStatus(TIM4, TIM_IT_Update) != RESET)
     9be:	4585                	li	a1,1
     9c0:	40001537          	lui	a0,0x40001
     9c4:	80050513          	addi	a0,a0,-2048 # 40000800 <_eusrstack+0x1fffb800>
     9c8:	247000ef          	jal	ra,140e <TIM_GetITStatus>
     9cc:	e515                	bnez	a0,9f8 <TIM4_IRQHandler+0x60>
F:\SCHOOL\文件\智能车\全向组\RTTThreadCH32V103\camCoreWithRTOS\obj/../USER/isr.c:322
    {
        TIM_ClearITPendingBit(TIM4, TIM_IT_Update );

    }

    rt_interrupt_leave();       //退出中断
     9ce:	635010ef          	jal	ra,2802 <rt_interrupt_leave>
F:\SCHOOL\文件\智能车\全向组\RTTThreadCH32V103\camCoreWithRTOS\obj/../USER/isr.c:323
}
     9d2:	50f2                	lw	ra,60(sp)
     9d4:	52e2                	lw	t0,56(sp)
     9d6:	5352                	lw	t1,52(sp)
     9d8:	53c2                	lw	t2,48(sp)
     9da:	5532                	lw	a0,44(sp)
     9dc:	55a2                	lw	a1,40(sp)
     9de:	5612                	lw	a2,36(sp)
     9e0:	5682                	lw	a3,32(sp)
     9e2:	4772                	lw	a4,28(sp)
     9e4:	47e2                	lw	a5,24(sp)
     9e6:	4852                	lw	a6,20(sp)
     9e8:	48c2                	lw	a7,16(sp)
     9ea:	4e32                	lw	t3,12(sp)
     9ec:	4ea2                	lw	t4,8(sp)
     9ee:	4f12                	lw	t5,4(sp)
     9f0:	4f82                	lw	t6,0(sp)
     9f2:	6121                	addi	sp,sp,64
     9f4:	30200073          	mret
F:\SCHOOL\文件\智能车\全向组\RTTThreadCH32V103\camCoreWithRTOS\obj/../USER/isr.c:318
        TIM_ClearITPendingBit(TIM4, TIM_IT_Update );
     9f8:	4585                	li	a1,1
     9fa:	40001537          	lui	a0,0x40001
     9fe:	80050513          	addi	a0,a0,-2048 # 40000800 <_eusrstack+0x1fffb800>
     a02:	229000ef          	jal	ra,142a <TIM_ClearITPendingBit>
     a06:	b7e1                	j	9ce <TIM4_IRQHandler+0x36>

00000a08 <USART2_IRQHandler>:
USART2_IRQHandler():
F:\SCHOOL\文件\智能车\全向组\RTTThreadCH32V103\camCoreWithRTOS\obj/../USER/isr.c:337
//
//    rt_interrupt_leave();       //退出中断
//}

void USART2_IRQHandler(void)
{
     a08:	7139                	addi	sp,sp,-64
     a0a:	de06                	sw	ra,60(sp)
     a0c:	dc16                	sw	t0,56(sp)
     a0e:	da1a                	sw	t1,52(sp)
     a10:	d81e                	sw	t2,48(sp)
     a12:	d62a                	sw	a0,44(sp)
     a14:	d42e                	sw	a1,40(sp)
     a16:	d232                	sw	a2,36(sp)
     a18:	d036                	sw	a3,32(sp)
     a1a:	ce3a                	sw	a4,28(sp)
     a1c:	cc3e                	sw	a5,24(sp)
     a1e:	ca42                	sw	a6,20(sp)
     a20:	c846                	sw	a7,16(sp)
     a22:	c672                	sw	t3,12(sp)
     a24:	c476                	sw	t4,8(sp)
     a26:	c27a                	sw	t5,4(sp)
     a28:	c07e                	sw	t6,0(sp)
F:\SCHOOL\文件\智能车\全向组\RTTThreadCH32V103\camCoreWithRTOS\obj/../USER/isr.c:338
    rt_interrupt_enter();       //进入中断
     a2a:	5b5010ef          	jal	ra,27de <rt_interrupt_enter>
F:\SCHOOL\文件\智能车\全向组\RTTThreadCH32V103\camCoreWithRTOS\obj/../USER/isr.c:340

    if(USART_GetITStatus(USART2, USART_IT_RXNE) != RESET)
     a2e:	52500593          	li	a1,1317
     a32:	40004537          	lui	a0,0x40004
     a36:	40050513          	addi	a0,a0,1024 # 40004400 <_eusrstack+0x1ffff400>
     a3a:	367000ef          	jal	ra,15a0 <USART_GetITStatus>
     a3e:	c919                	beqz	a0,a54 <USART2_IRQHandler+0x4c>
F:\SCHOOL\文件\智能车\全向组\RTTThreadCH32V103\camCoreWithRTOS\obj/../USER/isr.c:343
    {
        //USART_ClearITPendingBit(USART2, USART_IT_RXNE);
        if(camera_type == CAMERA_BIN_UART)
     a40:	200007b7          	lui	a5,0x20000
     a44:	0b47a783          	lw	a5,180(a5) # 200000b4 <camera_type>
     a48:	4709                	li	a4,2
     a4a:	02e78a63          	beq	a5,a4,a7e <USART2_IRQHandler+0x76>
F:\SCHOOL\文件\智能车\全向组\RTTThreadCH32V103\camCoreWithRTOS\obj/../USER/isr.c:345
            ov7725_cof_uart_interrupt();
        else if(camera_type == CAMERA_GRAYSCALE)
     a4e:	4705                	li	a4,1
     a50:	02e78a63          	beq	a5,a4,a84 <USART2_IRQHandler+0x7c>
F:\SCHOOL\文件\智能车\全向组\RTTThreadCH32V103\camCoreWithRTOS\obj/../USER/isr.c:349
            mt9v03x_uart_callback();
    }

    rt_interrupt_leave();       //退出中断
     a54:	5af010ef          	jal	ra,2802 <rt_interrupt_leave>
F:\SCHOOL\文件\智能车\全向组\RTTThreadCH32V103\camCoreWithRTOS\obj/../USER/isr.c:350
}
     a58:	50f2                	lw	ra,60(sp)
     a5a:	52e2                	lw	t0,56(sp)
     a5c:	5352                	lw	t1,52(sp)
     a5e:	53c2                	lw	t2,48(sp)
     a60:	5532                	lw	a0,44(sp)
     a62:	55a2                	lw	a1,40(sp)
     a64:	5612                	lw	a2,36(sp)
     a66:	5682                	lw	a3,32(sp)
     a68:	4772                	lw	a4,28(sp)
     a6a:	47e2                	lw	a5,24(sp)
     a6c:	4852                	lw	a6,20(sp)
     a6e:	48c2                	lw	a7,16(sp)
     a70:	4e32                	lw	t3,12(sp)
     a72:	4ea2                	lw	t4,8(sp)
     a74:	4f12                	lw	t5,4(sp)
     a76:	4f82                	lw	t6,0(sp)
     a78:	6121                	addi	sp,sp,64
     a7a:	30200073          	mret
F:\SCHOOL\文件\智能车\全向组\RTTThreadCH32V103\camCoreWithRTOS\obj/../USER/isr.c:344
            ov7725_cof_uart_interrupt();
     a7e:	71d000ef          	jal	ra,199a <ov7725_cof_uart_interrupt>
     a82:	bfc9                	j	a54 <USART2_IRQHandler+0x4c>
F:\SCHOOL\文件\智能车\全向组\RTTThreadCH32V103\camCoreWithRTOS\obj/../USER/isr.c:346
            mt9v03x_uart_callback();
     a84:	369000ef          	jal	ra,15ec <mt9v03x_uart_callback>
     a88:	b7f1                	j	a54 <USART2_IRQHandler+0x4c>

00000a8a <USART3_IRQHandler>:
USART3_IRQHandler():
F:\SCHOOL\文件\智能车\全向组\RTTThreadCH32V103\camCoreWithRTOS\obj/../USER/isr.c:353

void USART3_IRQHandler(void)
{
     a8a:	7139                	addi	sp,sp,-64
     a8c:	de06                	sw	ra,60(sp)
     a8e:	dc16                	sw	t0,56(sp)
     a90:	da1a                	sw	t1,52(sp)
     a92:	d81e                	sw	t2,48(sp)
     a94:	d62a                	sw	a0,44(sp)
     a96:	d42e                	sw	a1,40(sp)
     a98:	d232                	sw	a2,36(sp)
     a9a:	d036                	sw	a3,32(sp)
     a9c:	ce3a                	sw	a4,28(sp)
     a9e:	cc3e                	sw	a5,24(sp)
     aa0:	ca42                	sw	a6,20(sp)
     aa2:	c846                	sw	a7,16(sp)
     aa4:	c672                	sw	t3,12(sp)
     aa6:	c476                	sw	t4,8(sp)
     aa8:	c27a                	sw	t5,4(sp)
     aaa:	c07e                	sw	t6,0(sp)
F:\SCHOOL\文件\智能车\全向组\RTTThreadCH32V103\camCoreWithRTOS\obj/../USER/isr.c:354
    rt_interrupt_enter();       //进入中断
     aac:	533010ef          	jal	ra,27de <rt_interrupt_enter>
F:\SCHOOL\文件\智能车\全向组\RTTThreadCH32V103\camCoreWithRTOS\obj/../USER/isr.c:359

    //获取中断标志位
    //清除中断标志位

    rt_interrupt_leave();       //退出中断
     ab0:	553010ef          	jal	ra,2802 <rt_interrupt_leave>
F:\SCHOOL\文件\智能车\全向组\RTTThreadCH32V103\camCoreWithRTOS\obj/../USER/isr.c:360
}
     ab4:	50f2                	lw	ra,60(sp)
     ab6:	52e2                	lw	t0,56(sp)
     ab8:	5352                	lw	t1,52(sp)
     aba:	53c2                	lw	t2,48(sp)
     abc:	5532                	lw	a0,44(sp)
     abe:	55a2                	lw	a1,40(sp)
     ac0:	5612                	lw	a2,36(sp)
     ac2:	5682                	lw	a3,32(sp)
     ac4:	4772                	lw	a4,28(sp)
     ac6:	47e2                	lw	a5,24(sp)
     ac8:	4852                	lw	a6,20(sp)
     aca:	48c2                	lw	a7,16(sp)
     acc:	4e32                	lw	t3,12(sp)
     ace:	4ea2                	lw	t4,8(sp)
     ad0:	4f12                	lw	t5,4(sp)
     ad2:	4f82                	lw	t6,0(sp)
     ad4:	6121                	addi	sp,sp,64
     ad6:	30200073          	mret

00000ada <DMA1_Channel4_IRQHandler>:
DMA1_Channel4_IRQHandler():
F:\SCHOOL\文件\智能车\全向组\RTTThreadCH32V103\camCoreWithRTOS\obj/../USER/isr.c:363

void DMA1_Channel4_IRQHandler(void)
{
     ada:	7139                	addi	sp,sp,-64
     adc:	de06                	sw	ra,60(sp)
     ade:	dc16                	sw	t0,56(sp)
     ae0:	da1a                	sw	t1,52(sp)
     ae2:	d81e                	sw	t2,48(sp)
     ae4:	d62a                	sw	a0,44(sp)
     ae6:	d42e                	sw	a1,40(sp)
     ae8:	d232                	sw	a2,36(sp)
     aea:	d036                	sw	a3,32(sp)
     aec:	ce3a                	sw	a4,28(sp)
     aee:	cc3e                	sw	a5,24(sp)
     af0:	ca42                	sw	a6,20(sp)
     af2:	c846                	sw	a7,16(sp)
     af4:	c672                	sw	t3,12(sp)
     af6:	c476                	sw	t4,8(sp)
     af8:	c27a                	sw	t5,4(sp)
     afa:	c07e                	sw	t6,0(sp)
F:\SCHOOL\文件\智能车\全向组\RTTThreadCH32V103\camCoreWithRTOS\obj/../USER/isr.c:364
    rt_interrupt_enter();       //进入中断
     afc:	4e3010ef          	jal	ra,27de <rt_interrupt_enter>
F:\SCHOOL\文件\智能车\全向组\RTTThreadCH32V103\camCoreWithRTOS\obj/../USER/isr.c:366

    if(SET == DMA_GetFlagStatus(DMA1_FLAG_TC4))
     b00:	6509                	lui	a0,0x2
     b02:	212d                	jal	f2c <DMA_GetFlagStatus>
     b04:	4785                	li	a5,1
     b06:	02f50763          	beq	a0,a5,b34 <DMA1_Channel4_IRQHandler+0x5a>
F:\SCHOOL\文件\智能车\全向组\RTTThreadCH32V103\camCoreWithRTOS\obj/../USER/isr.c:375
            ov7725_uart_dma();
        else if(camera_type == CAMERA_GRAYSCALE)
            mt9v03x_dma();
    }

    rt_interrupt_leave();       //退出中断
     b0a:	4f9010ef          	jal	ra,2802 <rt_interrupt_leave>
F:\SCHOOL\文件\智能车\全向组\RTTThreadCH32V103\camCoreWithRTOS\obj/../USER/isr.c:376
}
     b0e:	50f2                	lw	ra,60(sp)
     b10:	52e2                	lw	t0,56(sp)
     b12:	5352                	lw	t1,52(sp)
     b14:	53c2                	lw	t2,48(sp)
     b16:	5532                	lw	a0,44(sp)
     b18:	55a2                	lw	a1,40(sp)
     b1a:	5612                	lw	a2,36(sp)
     b1c:	5682                	lw	a3,32(sp)
     b1e:	4772                	lw	a4,28(sp)
     b20:	47e2                	lw	a5,24(sp)
     b22:	4852                	lw	a6,20(sp)
     b24:	48c2                	lw	a7,16(sp)
     b26:	4e32                	lw	t3,12(sp)
     b28:	4ea2                	lw	t4,8(sp)
     b2a:	4f12                	lw	t5,4(sp)
     b2c:	4f82                	lw	t6,0(sp)
     b2e:	6121                	addi	sp,sp,64
     b30:	30200073          	mret
F:\SCHOOL\文件\智能车\全向组\RTTThreadCH32V103\camCoreWithRTOS\obj/../USER/isr.c:368
        DMA_ClearFlag(DMA1_FLAG_TC4);
     b34:	6509                	lui	a0,0x2
     b36:	2919                	jal	f4c <DMA_ClearFlag>
F:\SCHOOL\文件\智能车\全向组\RTTThreadCH32V103\camCoreWithRTOS\obj/../USER/isr.c:369
        if(camera_type == CAMERA_BIN_UART)
     b38:	200007b7          	lui	a5,0x20000
     b3c:	0b47a783          	lw	a5,180(a5) # 200000b4 <camera_type>
     b40:	4709                	li	a4,2
     b42:	00e78863          	beq	a5,a4,b52 <DMA1_Channel4_IRQHandler+0x78>
F:\SCHOOL\文件\智能车\全向组\RTTThreadCH32V103\camCoreWithRTOS\obj/../USER/isr.c:371
        else if(camera_type == CAMERA_GRAYSCALE)
     b46:	4705                	li	a4,1
     b48:	fce791e3          	bne	a5,a4,b0a <DMA1_Channel4_IRQHandler+0x30>
F:\SCHOOL\文件\智能车\全向组\RTTThreadCH32V103\camCoreWithRTOS\obj/../USER/isr.c:372
            mt9v03x_dma();
     b4c:	30f000ef          	jal	ra,165a <mt9v03x_dma>
     b50:	bf6d                	j	b0a <DMA1_Channel4_IRQHandler+0x30>
F:\SCHOOL\文件\智能车\全向组\RTTThreadCH32V103\camCoreWithRTOS\obj/../USER/isr.c:370
            ov7725_uart_dma();
     b52:	6b5000ef          	jal	ra,1a06 <ov7725_uart_dma>
     b56:	bf55                	j	b0a <DMA1_Channel4_IRQHandler+0x30>

00000b58 <NMI_Handler>:
NMI_Handler():
F:\SCHOOL\文件\智能车\全向组\RTTThreadCH32V103\camCoreWithRTOS\obj/../USER/isr.c:385
* Description    : This function handles NMI exception.
* Input          : None
* Return         : None
*******************************************************************************/
void NMI_Handler(void)
{
     b58:	7139                	addi	sp,sp,-64
     b5a:	de06                	sw	ra,60(sp)
     b5c:	dc16                	sw	t0,56(sp)
     b5e:	da1a                	sw	t1,52(sp)
     b60:	d81e                	sw	t2,48(sp)
     b62:	d62a                	sw	a0,44(sp)
     b64:	d42e                	sw	a1,40(sp)
     b66:	d232                	sw	a2,36(sp)
     b68:	d036                	sw	a3,32(sp)
     b6a:	ce3a                	sw	a4,28(sp)
     b6c:	cc3e                	sw	a5,24(sp)
     b6e:	ca42                	sw	a6,20(sp)
     b70:	c846                	sw	a7,16(sp)
     b72:	c672                	sw	t3,12(sp)
     b74:	c476                	sw	t4,8(sp)
     b76:	c27a                	sw	t5,4(sp)
     b78:	c07e                	sw	t6,0(sp)
F:\SCHOOL\文件\智能车\全向组\RTTThreadCH32V103\camCoreWithRTOS\obj/../USER/isr.c:386
    rt_interrupt_enter();       //进入中断
     b7a:	465010ef          	jal	ra,27de <rt_interrupt_enter>
F:\SCHOOL\文件\智能车\全向组\RTTThreadCH32V103\camCoreWithRTOS\obj/../USER/isr.c:391

    //获取中断标志位
    //清除中断标志位

    rt_interrupt_leave();       //退出中断
     b7e:	485010ef          	jal	ra,2802 <rt_interrupt_leave>
F:\SCHOOL\文件\智能车\全向组\RTTThreadCH32V103\camCoreWithRTOS\obj/../USER/isr.c:392
}
     b82:	50f2                	lw	ra,60(sp)
     b84:	52e2                	lw	t0,56(sp)
     b86:	5352                	lw	t1,52(sp)
     b88:	53c2                	lw	t2,48(sp)
     b8a:	5532                	lw	a0,44(sp)
     b8c:	55a2                	lw	a1,40(sp)
     b8e:	5612                	lw	a2,36(sp)
     b90:	5682                	lw	a3,32(sp)
     b92:	4772                	lw	a4,28(sp)
     b94:	47e2                	lw	a5,24(sp)
     b96:	4852                	lw	a6,20(sp)
     b98:	48c2                	lw	a7,16(sp)
     b9a:	4e32                	lw	t3,12(sp)
     b9c:	4ea2                	lw	t4,8(sp)
     b9e:	4f12                	lw	t5,4(sp)
     ba0:	4f82                	lw	t6,0(sp)
     ba2:	6121                	addi	sp,sp,64
     ba4:	30200073          	mret

00000ba8 <HardFault_Handler>:
HardFault_Handler():
F:\SCHOOL\文件\智能车\全向组\RTTThreadCH32V103\camCoreWithRTOS\obj/../USER/isr.c:395

void HardFault_Handler(void)
{
     ba8:	7139                	addi	sp,sp,-64
     baa:	de06                	sw	ra,60(sp)
     bac:	dc16                	sw	t0,56(sp)
     bae:	da1a                	sw	t1,52(sp)
     bb0:	d81e                	sw	t2,48(sp)
     bb2:	d62a                	sw	a0,44(sp)
     bb4:	d42e                	sw	a1,40(sp)
     bb6:	d232                	sw	a2,36(sp)
     bb8:	d036                	sw	a3,32(sp)
     bba:	ce3a                	sw	a4,28(sp)
     bbc:	cc3e                	sw	a5,24(sp)
     bbe:	ca42                	sw	a6,20(sp)
     bc0:	c846                	sw	a7,16(sp)
     bc2:	c672                	sw	t3,12(sp)
     bc4:	c476                	sw	t4,8(sp)
     bc6:	c27a                	sw	t5,4(sp)
     bc8:	c07e                	sw	t6,0(sp)
F:\SCHOOL\文件\智能车\全向组\RTTThreadCH32V103\camCoreWithRTOS\obj/../USER/isr.c:396
    rt_interrupt_enter();       //进入中断
     bca:	415010ef          	jal	ra,27de <rt_interrupt_enter>
F:\SCHOOL\文件\智能车\全向组\RTTThreadCH32V103\camCoreWithRTOS\obj/../USER/isr.c:398 (discriminator 1)

    while(1);
     bce:	a001                	j	bce <HardFault_Handler+0x26>

00000bd0 <WWDG_IRQHandler>:
WWDG_IRQHandler():
F:\SCHOOL\文件\智能车\全向组\RTTThreadCH32V103\camCoreWithRTOS\obj/../USER/isr.c:406
}



void WWDG_IRQHandler(void)
{
     bd0:	7139                	addi	sp,sp,-64
     bd2:	de06                	sw	ra,60(sp)
     bd4:	dc16                	sw	t0,56(sp)
     bd6:	da1a                	sw	t1,52(sp)
     bd8:	d81e                	sw	t2,48(sp)
     bda:	d62a                	sw	a0,44(sp)
     bdc:	d42e                	sw	a1,40(sp)
     bde:	d232                	sw	a2,36(sp)
     be0:	d036                	sw	a3,32(sp)
     be2:	ce3a                	sw	a4,28(sp)
     be4:	cc3e                	sw	a5,24(sp)
     be6:	ca42                	sw	a6,20(sp)
     be8:	c846                	sw	a7,16(sp)
     bea:	c672                	sw	t3,12(sp)
     bec:	c476                	sw	t4,8(sp)
     bee:	c27a                	sw	t5,4(sp)
     bf0:	c07e                	sw	t6,0(sp)
F:\SCHOOL\文件\智能车\全向组\RTTThreadCH32V103\camCoreWithRTOS\obj/../USER/isr.c:407
    rt_interrupt_enter();       //进入中断
     bf2:	3ed010ef          	jal	ra,27de <rt_interrupt_enter>
F:\SCHOOL\文件\智能车\全向组\RTTThreadCH32V103\camCoreWithRTOS\obj/../USER/isr.c:412

    //获取中断标志位
    //清除中断标志位

    rt_interrupt_leave();       //退出中断
     bf6:	40d010ef          	jal	ra,2802 <rt_interrupt_leave>
F:\SCHOOL\文件\智能车\全向组\RTTThreadCH32V103\camCoreWithRTOS\obj/../USER/isr.c:413
}
     bfa:	50f2                	lw	ra,60(sp)
     bfc:	52e2                	lw	t0,56(sp)
     bfe:	5352                	lw	t1,52(sp)
     c00:	53c2                	lw	t2,48(sp)
     c02:	5532                	lw	a0,44(sp)
     c04:	55a2                	lw	a1,40(sp)
     c06:	5612                	lw	a2,36(sp)
     c08:	5682                	lw	a3,32(sp)
     c0a:	4772                	lw	a4,28(sp)
     c0c:	47e2                	lw	a5,24(sp)
     c0e:	4852                	lw	a6,20(sp)
     c10:	48c2                	lw	a7,16(sp)
     c12:	4e32                	lw	t3,12(sp)
     c14:	4ea2                	lw	t4,8(sp)
     c16:	4f12                	lw	t5,4(sp)
     c18:	4f82                	lw	t6,0(sp)
     c1a:	6121                	addi	sp,sp,64
     c1c:	30200073          	mret

00000c20 <TAMPER_IRQHandler>:
TAMPER_IRQHandler():
F:\SCHOOL\文件\智能车\全向组\RTTThreadCH32V103\camCoreWithRTOS\obj/../USER/isr.c:416

void TAMPER_IRQHandler(void)
{
     c20:	1141                	addi	sp,sp,-16
     c22:	c606                	sw	ra,12(sp)
F:\SCHOOL\文件\智能车\全向组\RTTThreadCH32V103\camCoreWithRTOS\obj/../USER/isr.c:417
    rt_interrupt_enter();       //进入中断
     c24:	3bb010ef          	jal	ra,27de <rt_interrupt_enter>
F:\SCHOOL\文件\智能车\全向组\RTTThreadCH32V103\camCoreWithRTOS\obj/../USER/isr.c:422

    //获取中断标志位
    //清除中断标志位

    rt_interrupt_leave();       //退出中断
     c28:	3db010ef          	jal	ra,2802 <rt_interrupt_leave>
F:\SCHOOL\文件\智能车\全向组\RTTThreadCH32V103\camCoreWithRTOS\obj/../USER/isr.c:423
}
     c2c:	40b2                	lw	ra,12(sp)
     c2e:	0141                	addi	sp,sp,16
     c30:	8082                	ret

00000c32 <RTC_IRQHandler>:
RTC_IRQHandler():
F:\SCHOOL\文件\智能车\全向组\RTTThreadCH32V103\camCoreWithRTOS\obj/../USER/isr.c:425
void RTC_IRQHandler(void)
{
     c32:	1141                	addi	sp,sp,-16
     c34:	c606                	sw	ra,12(sp)
F:\SCHOOL\文件\智能车\全向组\RTTThreadCH32V103\camCoreWithRTOS\obj/../USER/isr.c:426
    rt_interrupt_enter();       //进入中断
     c36:	3a9010ef          	jal	ra,27de <rt_interrupt_enter>
F:\SCHOOL\文件\智能车\全向组\RTTThreadCH32V103\camCoreWithRTOS\obj/../USER/isr.c:431

    //获取中断标志位
    //清除中断标志位

    rt_interrupt_leave();       //退出中断
     c3a:	3c9010ef          	jal	ra,2802 <rt_interrupt_leave>
F:\SCHOOL\文件\智能车\全向组\RTTThreadCH32V103\camCoreWithRTOS\obj/../USER/isr.c:432
}
     c3e:	40b2                	lw	ra,12(sp)
     c40:	0141                	addi	sp,sp,16
     c42:	8082                	ret

00000c44 <FLASH_IRQHandler>:
FLASH_IRQHandler():
F:\SCHOOL\文件\智能车\全向组\RTTThreadCH32V103\camCoreWithRTOS\obj/../USER/isr.c:434
void FLASH_IRQHandler(void)
{
     c44:	1141                	addi	sp,sp,-16
     c46:	c606                	sw	ra,12(sp)
F:\SCHOOL\文件\智能车\全向组\RTTThreadCH32V103\camCoreWithRTOS\obj/../USER/isr.c:435
    rt_interrupt_enter();       //进入中断
     c48:	397010ef          	jal	ra,27de <rt_interrupt_enter>
F:\SCHOOL\文件\智能车\全向组\RTTThreadCH32V103\camCoreWithRTOS\obj/../USER/isr.c:440

    //获取中断标志位
    //清除中断标志位

    rt_interrupt_leave();       //退出中断
     c4c:	3b7010ef          	jal	ra,2802 <rt_interrupt_leave>
F:\SCHOOL\文件\智能车\全向组\RTTThreadCH32V103\camCoreWithRTOS\obj/../USER/isr.c:441
}
     c50:	40b2                	lw	ra,12(sp)
     c52:	0141                	addi	sp,sp,16
     c54:	8082                	ret

00000c56 <RCC_IRQHandler>:
RCC_IRQHandler():
F:\SCHOOL\文件\智能车\全向组\RTTThreadCH32V103\camCoreWithRTOS\obj/../USER/isr.c:443
void RCC_IRQHandler(void)
{
     c56:	1141                	addi	sp,sp,-16
     c58:	c606                	sw	ra,12(sp)
F:\SCHOOL\文件\智能车\全向组\RTTThreadCH32V103\camCoreWithRTOS\obj/../USER/isr.c:444
    rt_interrupt_enter();       //进入中断
     c5a:	385010ef          	jal	ra,27de <rt_interrupt_enter>
F:\SCHOOL\文件\智能车\全向组\RTTThreadCH32V103\camCoreWithRTOS\obj/../USER/isr.c:449

    //获取中断标志位
    //清除中断标志位

    rt_interrupt_leave();       //退出中断
     c5e:	3a5010ef          	jal	ra,2802 <rt_interrupt_leave>
F:\SCHOOL\文件\智能车\全向组\RTTThreadCH32V103\camCoreWithRTOS\obj/../USER/isr.c:450
}
     c62:	40b2                	lw	ra,12(sp)
     c64:	0141                	addi	sp,sp,16
     c66:	8082                	ret

00000c68 <DMA1_Channel1_IRQHandler>:
DMA1_Channel1_IRQHandler():
F:\SCHOOL\文件\智能车\全向组\RTTThreadCH32V103\camCoreWithRTOS\obj/../USER/isr.c:452
void DMA1_Channel1_IRQHandler(void)
{
     c68:	7139                	addi	sp,sp,-64
     c6a:	de06                	sw	ra,60(sp)
     c6c:	dc16                	sw	t0,56(sp)
     c6e:	da1a                	sw	t1,52(sp)
     c70:	d81e                	sw	t2,48(sp)
     c72:	d62a                	sw	a0,44(sp)
     c74:	d42e                	sw	a1,40(sp)
     c76:	d232                	sw	a2,36(sp)
     c78:	d036                	sw	a3,32(sp)
     c7a:	ce3a                	sw	a4,28(sp)
     c7c:	cc3e                	sw	a5,24(sp)
     c7e:	ca42                	sw	a6,20(sp)
     c80:	c846                	sw	a7,16(sp)
     c82:	c672                	sw	t3,12(sp)
     c84:	c476                	sw	t4,8(sp)
     c86:	c27a                	sw	t5,4(sp)
     c88:	c07e                	sw	t6,0(sp)
F:\SCHOOL\文件\智能车\全向组\RTTThreadCH32V103\camCoreWithRTOS\obj/../USER/isr.c:453
    rt_interrupt_enter();       //进入中断
     c8a:	355010ef          	jal	ra,27de <rt_interrupt_enter>
F:\SCHOOL\文件\智能车\全向组\RTTThreadCH32V103\camCoreWithRTOS\obj/../USER/isr.c:458

    //获取中断标志位
    //清除中断标志位

    rt_interrupt_leave();       //退出中断
     c8e:	375010ef          	jal	ra,2802 <rt_interrupt_leave>
F:\SCHOOL\文件\智能车\全向组\RTTThreadCH32V103\camCoreWithRTOS\obj/../USER/isr.c:459
}
     c92:	50f2                	lw	ra,60(sp)
     c94:	52e2                	lw	t0,56(sp)
     c96:	5352                	lw	t1,52(sp)
     c98:	53c2                	lw	t2,48(sp)
     c9a:	5532                	lw	a0,44(sp)
     c9c:	55a2                	lw	a1,40(sp)
     c9e:	5612                	lw	a2,36(sp)
     ca0:	5682                	lw	a3,32(sp)
     ca2:	4772                	lw	a4,28(sp)
     ca4:	47e2                	lw	a5,24(sp)
     ca6:	4852                	lw	a6,20(sp)
     ca8:	48c2                	lw	a7,16(sp)
     caa:	4e32                	lw	t3,12(sp)
     cac:	4ea2                	lw	t4,8(sp)
     cae:	4f12                	lw	t5,4(sp)
     cb0:	4f82                	lw	t6,0(sp)
     cb2:	6121                	addi	sp,sp,64
     cb4:	30200073          	mret

00000cb8 <DMA1_Channel2_IRQHandler>:
DMA1_Channel2_IRQHandler():
F:\SCHOOL\文件\智能车\全向组\RTTThreadCH32V103\camCoreWithRTOS\obj/../USER/isr.c:461
void DMA1_Channel2_IRQHandler(void)
{
     cb8:	7139                	addi	sp,sp,-64
     cba:	de06                	sw	ra,60(sp)
     cbc:	dc16                	sw	t0,56(sp)
     cbe:	da1a                	sw	t1,52(sp)
     cc0:	d81e                	sw	t2,48(sp)
     cc2:	d62a                	sw	a0,44(sp)
     cc4:	d42e                	sw	a1,40(sp)
     cc6:	d232                	sw	a2,36(sp)
     cc8:	d036                	sw	a3,32(sp)
     cca:	ce3a                	sw	a4,28(sp)
     ccc:	cc3e                	sw	a5,24(sp)
     cce:	ca42                	sw	a6,20(sp)
     cd0:	c846                	sw	a7,16(sp)
     cd2:	c672                	sw	t3,12(sp)
     cd4:	c476                	sw	t4,8(sp)
     cd6:	c27a                	sw	t5,4(sp)
     cd8:	c07e                	sw	t6,0(sp)
F:\SCHOOL\文件\智能车\全向组\RTTThreadCH32V103\camCoreWithRTOS\obj/../USER/isr.c:462
    rt_interrupt_enter();       //进入中断
     cda:	305010ef          	jal	ra,27de <rt_interrupt_enter>
F:\SCHOOL\文件\智能车\全向组\RTTThreadCH32V103\camCoreWithRTOS\obj/../USER/isr.c:467

    //获取中断标志位
    //清除中断标志位

    rt_interrupt_leave();       //退出中断
     cde:	325010ef          	jal	ra,2802 <rt_interrupt_leave>
F:\SCHOOL\文件\智能车\全向组\RTTThreadCH32V103\camCoreWithRTOS\obj/../USER/isr.c:468
}
     ce2:	50f2                	lw	ra,60(sp)
     ce4:	52e2                	lw	t0,56(sp)
     ce6:	5352                	lw	t1,52(sp)
     ce8:	53c2                	lw	t2,48(sp)
     cea:	5532                	lw	a0,44(sp)
     cec:	55a2                	lw	a1,40(sp)
     cee:	5612                	lw	a2,36(sp)
     cf0:	5682                	lw	a3,32(sp)
     cf2:	4772                	lw	a4,28(sp)
     cf4:	47e2                	lw	a5,24(sp)
     cf6:	4852                	lw	a6,20(sp)
     cf8:	48c2                	lw	a7,16(sp)
     cfa:	4e32                	lw	t3,12(sp)
     cfc:	4ea2                	lw	t4,8(sp)
     cfe:	4f12                	lw	t5,4(sp)
     d00:	4f82                	lw	t6,0(sp)
     d02:	6121                	addi	sp,sp,64
     d04:	30200073          	mret

00000d08 <DMA1_Channel3_IRQHandler>:
DMA1_Channel3_IRQHandler():
F:\SCHOOL\文件\智能车\全向组\RTTThreadCH32V103\camCoreWithRTOS\obj/../USER/isr.c:470
void DMA1_Channel3_IRQHandler(void)
{
     d08:	7139                	addi	sp,sp,-64
     d0a:	de06                	sw	ra,60(sp)
     d0c:	dc16                	sw	t0,56(sp)
     d0e:	da1a                	sw	t1,52(sp)
     d10:	d81e                	sw	t2,48(sp)
     d12:	d62a                	sw	a0,44(sp)
     d14:	d42e                	sw	a1,40(sp)
     d16:	d232                	sw	a2,36(sp)
     d18:	d036                	sw	a3,32(sp)
     d1a:	ce3a                	sw	a4,28(sp)
     d1c:	cc3e                	sw	a5,24(sp)
     d1e:	ca42                	sw	a6,20(sp)
     d20:	c846                	sw	a7,16(sp)
     d22:	c672                	sw	t3,12(sp)
     d24:	c476                	sw	t4,8(sp)
     d26:	c27a                	sw	t5,4(sp)
     d28:	c07e                	sw	t6,0(sp)
F:\SCHOOL\文件\智能车\全向组\RTTThreadCH32V103\camCoreWithRTOS\obj/../USER/isr.c:471
    rt_interrupt_enter();       //进入中断
     d2a:	2b5010ef          	jal	ra,27de <rt_interrupt_enter>
F:\SCHOOL\文件\智能车\全向组\RTTThreadCH32V103\camCoreWithRTOS\obj/../USER/isr.c:476

    //获取中断标志位
    //清除中断标志位

    rt_interrupt_leave();       //退出中断
     d2e:	2d5010ef          	jal	ra,2802 <rt_interrupt_leave>
F:\SCHOOL\文件\智能车\全向组\RTTThreadCH32V103\camCoreWithRTOS\obj/../USER/isr.c:477
}
     d32:	50f2                	lw	ra,60(sp)
     d34:	52e2                	lw	t0,56(sp)
     d36:	5352                	lw	t1,52(sp)
     d38:	53c2                	lw	t2,48(sp)
     d3a:	5532                	lw	a0,44(sp)
     d3c:	55a2                	lw	a1,40(sp)
     d3e:	5612                	lw	a2,36(sp)
     d40:	5682                	lw	a3,32(sp)
     d42:	4772                	lw	a4,28(sp)
     d44:	47e2                	lw	a5,24(sp)
     d46:	4852                	lw	a6,20(sp)
     d48:	48c2                	lw	a7,16(sp)
     d4a:	4e32                	lw	t3,12(sp)
     d4c:	4ea2                	lw	t4,8(sp)
     d4e:	4f12                	lw	t5,4(sp)
     d50:	4f82                	lw	t6,0(sp)
     d52:	6121                	addi	sp,sp,64
     d54:	30200073          	mret

00000d58 <DMA1_Channel5_IRQHandler>:
DMA1_Channel5_IRQHandler():
F:\SCHOOL\文件\智能车\全向组\RTTThreadCH32V103\camCoreWithRTOS\obj/../USER/isr.c:479
void DMA1_Channel5_IRQHandler(void)
{
     d58:	7139                	addi	sp,sp,-64
     d5a:	de06                	sw	ra,60(sp)
     d5c:	dc16                	sw	t0,56(sp)
     d5e:	da1a                	sw	t1,52(sp)
     d60:	d81e                	sw	t2,48(sp)
     d62:	d62a                	sw	a0,44(sp)
     d64:	d42e                	sw	a1,40(sp)
     d66:	d232                	sw	a2,36(sp)
     d68:	d036                	sw	a3,32(sp)
     d6a:	ce3a                	sw	a4,28(sp)
     d6c:	cc3e                	sw	a5,24(sp)
     d6e:	ca42                	sw	a6,20(sp)
     d70:	c846                	sw	a7,16(sp)
     d72:	c672                	sw	t3,12(sp)
     d74:	c476                	sw	t4,8(sp)
     d76:	c27a                	sw	t5,4(sp)
     d78:	c07e                	sw	t6,0(sp)
F:\SCHOOL\文件\智能车\全向组\RTTThreadCH32V103\camCoreWithRTOS\obj/../USER/isr.c:480
    rt_interrupt_enter();       //进入中断
     d7a:	265010ef          	jal	ra,27de <rt_interrupt_enter>
F:\SCHOOL\文件\智能车\全向组\RTTThreadCH32V103\camCoreWithRTOS\obj/../USER/isr.c:485

    //获取中断标志位
    //清除中断标志位

    rt_interrupt_leave();       //退出中断
     d7e:	285010ef          	jal	ra,2802 <rt_interrupt_leave>
F:\SCHOOL\文件\智能车\全向组\RTTThreadCH32V103\camCoreWithRTOS\obj/../USER/isr.c:486
}
     d82:	50f2                	lw	ra,60(sp)
     d84:	52e2                	lw	t0,56(sp)
     d86:	5352                	lw	t1,52(sp)
     d88:	53c2                	lw	t2,48(sp)
     d8a:	5532                	lw	a0,44(sp)
     d8c:	55a2                	lw	a1,40(sp)
     d8e:	5612                	lw	a2,36(sp)
     d90:	5682                	lw	a3,32(sp)
     d92:	4772                	lw	a4,28(sp)
     d94:	47e2                	lw	a5,24(sp)
     d96:	4852                	lw	a6,20(sp)
     d98:	48c2                	lw	a7,16(sp)
     d9a:	4e32                	lw	t3,12(sp)
     d9c:	4ea2                	lw	t4,8(sp)
     d9e:	4f12                	lw	t5,4(sp)
     da0:	4f82                	lw	t6,0(sp)
     da2:	6121                	addi	sp,sp,64
     da4:	30200073          	mret

00000da8 <DMA1_Channel6_IRQHandler>:
DMA1_Channel6_IRQHandler():
F:\SCHOOL\文件\智能车\全向组\RTTThreadCH32V103\camCoreWithRTOS\obj/../USER/isr.c:488
void DMA1_Channel6_IRQHandler(void)
{
     da8:	7139                	addi	sp,sp,-64
     daa:	de06                	sw	ra,60(sp)
     dac:	dc16                	sw	t0,56(sp)
     dae:	da1a                	sw	t1,52(sp)
     db0:	d81e                	sw	t2,48(sp)
     db2:	d62a                	sw	a0,44(sp)
     db4:	d42e                	sw	a1,40(sp)
     db6:	d232                	sw	a2,36(sp)
     db8:	d036                	sw	a3,32(sp)
     dba:	ce3a                	sw	a4,28(sp)
     dbc:	cc3e                	sw	a5,24(sp)
     dbe:	ca42                	sw	a6,20(sp)
     dc0:	c846                	sw	a7,16(sp)
     dc2:	c672                	sw	t3,12(sp)
     dc4:	c476                	sw	t4,8(sp)
     dc6:	c27a                	sw	t5,4(sp)
     dc8:	c07e                	sw	t6,0(sp)
F:\SCHOOL\文件\智能车\全向组\RTTThreadCH32V103\camCoreWithRTOS\obj/../USER/isr.c:489
    rt_interrupt_enter();       //进入中断
     dca:	215010ef          	jal	ra,27de <rt_interrupt_enter>
F:\SCHOOL\文件\智能车\全向组\RTTThreadCH32V103\camCoreWithRTOS\obj/../USER/isr.c:494

    //获取中断标志位
    //清除中断标志位

    rt_interrupt_leave();       //退出中断
     dce:	235010ef          	jal	ra,2802 <rt_interrupt_leave>
F:\SCHOOL\文件\智能车\全向组\RTTThreadCH32V103\camCoreWithRTOS\obj/../USER/isr.c:495
}
     dd2:	50f2                	lw	ra,60(sp)
     dd4:	52e2                	lw	t0,56(sp)
     dd6:	5352                	lw	t1,52(sp)
     dd8:	53c2                	lw	t2,48(sp)
     dda:	5532                	lw	a0,44(sp)
     ddc:	55a2                	lw	a1,40(sp)
     dde:	5612                	lw	a2,36(sp)
     de0:	5682                	lw	a3,32(sp)
     de2:	4772                	lw	a4,28(sp)
     de4:	47e2                	lw	a5,24(sp)
     de6:	4852                	lw	a6,20(sp)
     de8:	48c2                	lw	a7,16(sp)
     dea:	4e32                	lw	t3,12(sp)
     dec:	4ea2                	lw	t4,8(sp)
     dee:	4f12                	lw	t5,4(sp)
     df0:	4f82                	lw	t6,0(sp)
     df2:	6121                	addi	sp,sp,64
     df4:	30200073          	mret

00000df8 <DMA1_Channel7_IRQHandler>:
DMA1_Channel7_IRQHandler():
F:\SCHOOL\文件\智能车\全向组\RTTThreadCH32V103\camCoreWithRTOS\obj/../USER/isr.c:497
void DMA1_Channel7_IRQHandler(void)
{
     df8:	7139                	addi	sp,sp,-64
     dfa:	de06                	sw	ra,60(sp)
     dfc:	dc16                	sw	t0,56(sp)
     dfe:	da1a                	sw	t1,52(sp)
     e00:	d81e                	sw	t2,48(sp)
     e02:	d62a                	sw	a0,44(sp)
     e04:	d42e                	sw	a1,40(sp)
     e06:	d232                	sw	a2,36(sp)
     e08:	d036                	sw	a3,32(sp)
     e0a:	ce3a                	sw	a4,28(sp)
     e0c:	cc3e                	sw	a5,24(sp)
     e0e:	ca42                	sw	a6,20(sp)
     e10:	c846                	sw	a7,16(sp)
     e12:	c672                	sw	t3,12(sp)
     e14:	c476                	sw	t4,8(sp)
     e16:	c27a                	sw	t5,4(sp)
     e18:	c07e                	sw	t6,0(sp)
F:\SCHOOL\文件\智能车\全向组\RTTThreadCH32V103\camCoreWithRTOS\obj/../USER/isr.c:498
    rt_interrupt_enter();       //进入中断
     e1a:	1c5010ef          	jal	ra,27de <rt_interrupt_enter>
F:\SCHOOL\文件\智能车\全向组\RTTThreadCH32V103\camCoreWithRTOS\obj/../USER/isr.c:503

    //获取中断标志位
    //清除中断标志位

    rt_interrupt_leave();       //退出中断
     e1e:	1e5010ef          	jal	ra,2802 <rt_interrupt_leave>
F:\SCHOOL\文件\智能车\全向组\RTTThreadCH32V103\camCoreWithRTOS\obj/../USER/isr.c:504
}
     e22:	50f2                	lw	ra,60(sp)
     e24:	52e2                	lw	t0,56(sp)
     e26:	5352                	lw	t1,52(sp)
     e28:	53c2                	lw	t2,48(sp)
     e2a:	5532                	lw	a0,44(sp)
     e2c:	55a2                	lw	a1,40(sp)
     e2e:	5612                	lw	a2,36(sp)
     e30:	5682                	lw	a3,32(sp)
     e32:	4772                	lw	a4,28(sp)
     e34:	47e2                	lw	a5,24(sp)
     e36:	4852                	lw	a6,20(sp)
     e38:	48c2                	lw	a7,16(sp)
     e3a:	4e32                	lw	t3,12(sp)
     e3c:	4ea2                	lw	t4,8(sp)
     e3e:	4f12                	lw	t5,4(sp)
     e40:	4f82                	lw	t6,0(sp)
     e42:	6121                	addi	sp,sp,64
     e44:	30200073          	mret

00000e48 <main>:
main():
F:\SCHOOL\文件\智能车\全向组\RTTThreadCH32V103\camCoreWithRTOS\obj/../USER/main.c:33
#include "communication.h"

rt_sem_t camera_sem;

int main(void)
{
     e48:	1141                	addi	sp,sp,-16
     e4a:	c606                	sw	ra,12(sp)
F:\SCHOOL\文件\智能车\全向组\RTTThreadCH32V103\camCoreWithRTOS\obj/../USER/main.c:36
    //camera_sem = rt_sem_create("camera", 0, RT_IPC_FLAG_FIFO);
    //mt9v03x_init();
    rt_thread_mdelay(3000);
     e4c:	6505                	lui	a0,0x1
     e4e:	bb850513          	addi	a0,a0,-1096 # bb8 <HardFault_Handler+0x10>
     e52:	2d1020ef          	jal	ra,3922 <rt_thread_mdelay>
F:\SCHOOL\文件\智能车\全向组\RTTThreadCH32V103\camCoreWithRTOS\obj/../USER/main.c:38

    display_init();
     e56:	1b6040ef          	jal	ra,500c <display_init>
F:\SCHOOL\文件\智能车\全向组\RTTThreadCH32V103\camCoreWithRTOS\obj/../USER/main.c:39
    encoder_init();
     e5a:	09c040ef          	jal	ra,4ef6 <encoder_init>
F:\SCHOOL\文件\智能车\全向组\RTTThreadCH32V103\camCoreWithRTOS\obj/../USER/main.c:40
    timer_pit_init();//软定时器初始化
     e5e:	210040ef          	jal	ra,506e <timer_pit_init>
F:\SCHOOL\文件\智能车\全向组\RTTThreadCH32V103\camCoreWithRTOS\obj/../USER/main.c:42

    gpio_init(B12, GPO, 0, GPIO_PIN_CONFIG);                 //同步引脚初始化
     e62:	31000693          	li	a3,784
     e66:	4601                	li	a2,0
     e68:	4585                	li	a1,1
     e6a:	02c00513          	li	a0,44
     e6e:	3af000ef          	jal	ra,1a1c <gpio_init>
F:\SCHOOL\文件\智能车\全向组\RTTThreadCH32V103\camCoreWithRTOS\obj/../USER/main.c:43
    uart_init(UART_3,921600,UART3_TX_B10,UART3_RX_B11);
     e72:	02100693          	li	a3,33
     e76:	02000613          	li	a2,32
     e7a:	000e15b7          	lui	a1,0xe1
     e7e:	4509                	li	a0,2
     e80:	046010ef          	jal	ra,1ec6 <uart_init>
F:\SCHOOL\文件\智能车\全向组\RTTThreadCH32V103\camCoreWithRTOS\obj/../USER/main.c:44
    gpio_init(B15, GPO, 0, GPIO_PIN_CONFIG);
     e84:	31000693          	li	a3,784
     e88:	4601                	li	a2,0
     e8a:	4585                	li	a1,1
     e8c:	02f00513          	li	a0,47
     e90:	38d000ef          	jal	ra,1a1c <gpio_init>
F:\SCHOOL\文件\智能车\全向组\RTTThreadCH32V103\camCoreWithRTOS\obj/../USER/main.c:50 (discriminator 1)

    while(1)
    {
        //等待摄像头采集完毕
        //rt_sem_take(camera_sem, RT_WAITING_FOREVER);
        rt_thread_mdelay(200);
     e94:	0c800513          	li	a0,200
     e98:	28b020ef          	jal	ra,3922 <rt_thread_mdelay>
F:\SCHOOL\文件\智能车\全向组\RTTThreadCH32V103\camCoreWithRTOS\obj/../USER/main.c:51 (discriminator 1)
        gpio_toggle(B15);
     e9c:	02f00513          	li	a0,47
     ea0:	48f000ef          	jal	ra,1b2e <gpio_toggle>
     ea4:	bfc5                	j	e94 <main+0x4c>

00000ea6 <handle_reset>:
handle_reset():
F:\SCHOOL\文件\智能车\全向组\RTTThreadCH32V103\camCoreWithRTOS\obj/../Libraries/wch_libraries/Startup/startup_ch32v10x.S:147
	.weak	handle_reset
	.align	1
handle_reset:
.option push 
.option	norelax 
	la gp, __global_pointer$
     ea6:	20000197          	auipc	gp,0x20000
     eaa:	a0a18193          	addi	gp,gp,-1526 # 200008b0 <__global_pointer$>
F:\SCHOOL\文件\智能车\全向组\RTTThreadCH32V103\camCoreWithRTOS\obj/../Libraries/wch_libraries/Startup/startup_ch32v10x.S:150
.option	pop 
1:
	la sp, _eusrstack 
     eae:	20004117          	auipc	sp,0x20004
     eb2:	15210113          	addi	sp,sp,338 # 20005000 <_eusrstack>
F:\SCHOOL\文件\智能车\全向组\RTTThreadCH32V103\camCoreWithRTOS\obj/../Libraries/wch_libraries/Startup/startup_ch32v10x.S:153
2:
	/* Load data section from flash to RAM */
	la a0, _data_lma
     eb6:	00006517          	auipc	a0,0x6
     eba:	69250513          	addi	a0,a0,1682 # 7548 <_data_lma>
F:\SCHOOL\文件\智能车\全向组\RTTThreadCH32V103\camCoreWithRTOS\obj/../Libraries/wch_libraries/Startup/startup_ch32v10x.S:154
	la a1, _data_vma
     ebe:	1ffff597          	auipc	a1,0x1ffff
     ec2:	14258593          	addi	a1,a1,322 # 20000000 <_data_vma>
F:\SCHOOL\文件\智能车\全向组\RTTThreadCH32V103\camCoreWithRTOS\obj/../Libraries/wch_libraries/Startup/startup_ch32v10x.S:155
	la a2, _edata
     ec6:	83018613          	addi	a2,gp,-2000 # 200000e0 <_edata>
F:\SCHOOL\文件\智能车\全向组\RTTThreadCH32V103\camCoreWithRTOS\obj/../Libraries/wch_libraries/Startup/startup_ch32v10x.S:156
	bgeu a1, a2, 2f
     eca:	00c5fa63          	bgeu	a1,a2,ede <handle_reset+0x38>
F:\SCHOOL\文件\智能车\全向组\RTTThreadCH32V103\camCoreWithRTOS\obj/../Libraries/wch_libraries/Startup/startup_ch32v10x.S:158
1:
	lw t0, (a0)
     ece:	00052283          	lw	t0,0(a0)
F:\SCHOOL\文件\智能车\全向组\RTTThreadCH32V103\camCoreWithRTOS\obj/../Libraries/wch_libraries/Startup/startup_ch32v10x.S:159
	sw t0, (a1)
     ed2:	0055a023          	sw	t0,0(a1)
F:\SCHOOL\文件\智能车\全向组\RTTThreadCH32V103\camCoreWithRTOS\obj/../Libraries/wch_libraries/Startup/startup_ch32v10x.S:160
	addi a0, a0, 4
     ed6:	0511                	addi	a0,a0,4
F:\SCHOOL\文件\智能车\全向组\RTTThreadCH32V103\camCoreWithRTOS\obj/../Libraries/wch_libraries/Startup/startup_ch32v10x.S:161
	addi a1, a1, 4
     ed8:	0591                	addi	a1,a1,4
F:\SCHOOL\文件\智能车\全向组\RTTThreadCH32V103\camCoreWithRTOS\obj/../Libraries/wch_libraries/Startup/startup_ch32v10x.S:162
	bltu a1, a2, 1b
     eda:	fec5eae3          	bltu	a1,a2,ece <handle_reset+0x28>
F:\SCHOOL\文件\智能车\全向组\RTTThreadCH32V103\camCoreWithRTOS\obj/../Libraries/wch_libraries/Startup/startup_ch32v10x.S:165
2:
	/* clear bss section */
	la a0, _sbss
     ede:	83018513          	addi	a0,gp,-2000 # 200000e0 <_edata>
F:\SCHOOL\文件\智能车\全向组\RTTThreadCH32V103\camCoreWithRTOS\obj/../Libraries/wch_libraries/Startup/startup_ch32v10x.S:166
	la a1, _ebss
     ee2:	20001597          	auipc	a1,0x20001
     ee6:	0ee58593          	addi	a1,a1,238 # 20001fd0 <_ebss>
F:\SCHOOL\文件\智能车\全向组\RTTThreadCH32V103\camCoreWithRTOS\obj/../Libraries/wch_libraries/Startup/startup_ch32v10x.S:167
	bgeu a0, a1, 2f
     eea:	00b57763          	bgeu	a0,a1,ef8 <handle_reset+0x52>
F:\SCHOOL\文件\智能车\全向组\RTTThreadCH32V103\camCoreWithRTOS\obj/../Libraries/wch_libraries/Startup/startup_ch32v10x.S:169
1:
	sw zero, (a0)
     eee:	00052023          	sw	zero,0(a0)
F:\SCHOOL\文件\智能车\全向组\RTTThreadCH32V103\camCoreWithRTOS\obj/../Libraries/wch_libraries/Startup/startup_ch32v10x.S:170
	addi a0, a0, 4
     ef2:	0511                	addi	a0,a0,4
F:\SCHOOL\文件\智能车\全向组\RTTThreadCH32V103\camCoreWithRTOS\obj/../Libraries/wch_libraries/Startup/startup_ch32v10x.S:171
	bltu a0, a1, 1b
     ef4:	feb56de3          	bltu	a0,a1,eee <handle_reset+0x48>
F:\SCHOOL\文件\智能车\全向组\RTTThreadCH32V103\camCoreWithRTOS\obj/../Libraries/wch_libraries/Startup/startup_ch32v10x.S:174
2:
	/* enable all interrupt */
  	li t0, 0x88
     ef8:	08800293          	li	t0,136
F:\SCHOOL\文件\智能车\全向组\RTTThreadCH32V103\camCoreWithRTOS\obj/../Libraries/wch_libraries/Startup/startup_ch32v10x.S:175
  	csrs mstatus, t0
     efc:	3002a073          	csrs	mstatus,t0
F:\SCHOOL\文件\智能车\全向组\RTTThreadCH32V103\camCoreWithRTOS\obj/../Libraries/wch_libraries/Startup/startup_ch32v10x.S:176
	la t0, _vector_base
     f00:	fffff297          	auipc	t0,0xfffff
     f04:	13828293          	addi	t0,t0,312 # 38 <_einit>
F:\SCHOOL\文件\智能车\全向组\RTTThreadCH32V103\camCoreWithRTOS\obj/../Libraries/wch_libraries/Startup/startup_ch32v10x.S:177
 	ori t0, t0, 1
     f08:	0012e293          	ori	t0,t0,1
F:\SCHOOL\文件\智能车\全向组\RTTThreadCH32V103\camCoreWithRTOS\obj/../Libraries/wch_libraries/Startup/startup_ch32v10x.S:178
	csrw mtvec, t0
     f0c:	30529073          	csrw	mtvec,t0
F:\SCHOOL\文件\智能车\全向组\RTTThreadCH32V103\camCoreWithRTOS\obj/../Libraries/wch_libraries/Startup/startup_ch32v10x.S:182



  	jal  SystemInit
     f10:	6cf030ef          	jal	ra,4dde <SystemInit>
F:\SCHOOL\文件\智能车\全向组\RTTThreadCH32V103\camCoreWithRTOS\obj/../Libraries/wch_libraries/Startup/startup_ch32v10x.S:183
  	li a0, 0
     f14:	4501                	li	a0,0
F:\SCHOOL\文件\智能车\全向组\RTTThreadCH32V103\camCoreWithRTOS\obj/../Libraries/wch_libraries/Startup/startup_ch32v10x.S:184
    li a1, 0
     f16:	4581                	li	a1,0
F:\SCHOOL\文件\智能车\全向组\RTTThreadCH32V103\camCoreWithRTOS\obj/../Libraries/wch_libraries/Startup/startup_ch32v10x.S:185
    call entry
     f18:	2a8010ef          	jal	ra,21c0 <entry>
F:\SCHOOL\文件\智能车\全向组\RTTThreadCH32V103\camCoreWithRTOS\obj/../Libraries/wch_libraries/Startup/startup_ch32v10x.S:186
	la t0, entry //main
     f1c:	00001297          	auipc	t0,0x1
     f20:	2a428293          	addi	t0,t0,676 # 21c0 <entry>
F:\SCHOOL\文件\智能车\全向组\RTTThreadCH32V103\camCoreWithRTOS\obj/../Libraries/wch_libraries/Startup/startup_ch32v10x.S:187
	csrw mepc, t0
     f24:	34129073          	csrw	mepc,t0
F:\SCHOOL\文件\智能车\全向组\RTTThreadCH32V103\camCoreWithRTOS\obj/../Libraries/wch_libraries/Startup/startup_ch32v10x.S:188
	mret
     f28:	30200073          	mret

00000f2c <DMA_GetFlagStatus>:
DMA_GetFlagStatus():
F:\SCHOOL\文件\智能车\全向组\RTTThreadCH32V103\camCoreWithRTOS\obj/../Libraries/wch_libraries/Peripheral/ch32v10x_dma.c:294
FlagStatus DMA_GetFlagStatus(uint32_t DMAy_FLAG)
{
  FlagStatus bitstatus = RESET;
  uint32_t tmpreg = 0;
  
  if ((DMAy_FLAG & FLAG_Mask) != (uint32_t)RESET)
     f2c:	00351793          	slli	a5,a0,0x3
     f30:	0007da63          	bgez	a5,f44 <DMA_GetFlagStatus+0x18>
F:\SCHOOL\文件\智能车\全向组\RTTThreadCH32V103\camCoreWithRTOS\obj/../Libraries/wch_libraries/Peripheral/ch32v10x_dma.c:296
  {
    tmpreg = DMA2->INTFR ;
     f34:	400207b7          	lui	a5,0x40020
     f38:	4007a783          	lw	a5,1024(a5) # 40020400 <_eusrstack+0x2001b400>
F:\SCHOOL\文件\智能车\全向组\RTTThreadCH32V103\camCoreWithRTOS\obj/../Libraries/wch_libraries/Peripheral/ch32v10x_dma.c:303
  else
  {
    tmpreg = DMA1->INTFR ;
  }

  if ((tmpreg & DMAy_FLAG) != (uint32_t)RESET)
     f3c:	8d7d                	and	a0,a0,a5
F:\SCHOOL\文件\智能车\全向组\RTTThreadCH32V103\camCoreWithRTOS\obj/../Libraries/wch_libraries/Peripheral/ch32v10x_dma.c:313
  {
    bitstatus = RESET;
  }
  
  return  bitstatus;
}
     f3e:	00a03533          	snez	a0,a0
     f42:	8082                	ret
F:\SCHOOL\文件\智能车\全向组\RTTThreadCH32V103\camCoreWithRTOS\obj/../Libraries/wch_libraries/Peripheral/ch32v10x_dma.c:300
    tmpreg = DMA1->INTFR ;
     f44:	400207b7          	lui	a5,0x40020
     f48:	439c                	lw	a5,0(a5)
     f4a:	bfcd                	j	f3c <DMA_GetFlagStatus+0x10>

00000f4c <DMA_ClearFlag>:
DMA_ClearFlag():
F:\SCHOOL\文件\智能车\全向组\RTTThreadCH32V103\camCoreWithRTOS\obj/../Libraries/wch_libraries/Peripheral/ch32v10x_dma.c:372
*                      DMA2_FLAG_TE5: DMA2 Channel5 transfer error flag.
* Return         : None 
*********************************************************************************/
void DMA_ClearFlag(uint32_t DMAy_FLAG)
{
  if ((DMAy_FLAG & FLAG_Mask) != (uint32_t)RESET)
     f4c:	00351793          	slli	a5,a0,0x3
     f50:	0007d763          	bgez	a5,f5e <DMA_ClearFlag+0x12>
F:\SCHOOL\文件\智能车\全向组\RTTThreadCH32V103\camCoreWithRTOS\obj/../Libraries/wch_libraries/Peripheral/ch32v10x_dma.c:374
  {
    DMA2->INTFCR = DMAy_FLAG;
     f54:	400207b7          	lui	a5,0x40020
     f58:	40a7a223          	sw	a0,1028(a5) # 40020404 <_eusrstack+0x2001b404>
     f5c:	8082                	ret
F:\SCHOOL\文件\智能车\全向组\RTTThreadCH32V103\camCoreWithRTOS\obj/../Libraries/wch_libraries/Peripheral/ch32v10x_dma.c:378
  }
  else
  {
    DMA1->INTFCR = DMAy_FLAG;
     f5e:	400207b7          	lui	a5,0x40020
     f62:	c3c8                	sw	a0,4(a5)
F:\SCHOOL\文件\智能车\全向组\RTTThreadCH32V103\camCoreWithRTOS\obj/../Libraries/wch_libraries/Peripheral/ch32v10x_dma.c:380
  }
}
     f64:	8082                	ret

00000f66 <EXTI_GetITStatus>:
EXTI_GetITStatus():
F:\SCHOOL\文件\智能车\全向组\RTTThreadCH32V103\camCoreWithRTOS\obj/../Libraries/wch_libraries/Peripheral/ch32v10x_exti.c:135
ITStatus EXTI_GetITStatus(uint32_t EXTI_Line)
{
  ITStatus bitstatus = RESET;
  uint32_t enablestatus = 0;
  
  enablestatus =  EXTI->INTENR & EXTI_Line;
     f66:	40010737          	lui	a4,0x40010
     f6a:	40072783          	lw	a5,1024(a4) # 40010400 <_eusrstack+0x2000b400>
F:\SCHOOL\文件\智能车\全向组\RTTThreadCH32V103\camCoreWithRTOS\obj/../Libraries/wch_libraries/Peripheral/ch32v10x_exti.c:136
  if (((EXTI->INTFR & EXTI_Line) != (uint32_t)RESET) && (enablestatus != (uint32_t)RESET))
     f6e:	41472703          	lw	a4,1044(a4)
     f72:	8f69                	and	a4,a4,a0
     f74:	c709                	beqz	a4,f7e <EXTI_GetITStatus+0x18>
F:\SCHOOL\文件\智能车\全向组\RTTThreadCH32V103\camCoreWithRTOS\obj/../Libraries/wch_libraries/Peripheral/ch32v10x_exti.c:135 (discriminator 1)
  enablestatus =  EXTI->INTENR & EXTI_Line;
     f76:	8d7d                	and	a0,a0,a5
F:\SCHOOL\文件\智能车\全向组\RTTThreadCH32V103\camCoreWithRTOS\obj/../Libraries/wch_libraries/Peripheral/ch32v10x_exti.c:136 (discriminator 1)
  if (((EXTI->INTFR & EXTI_Line) != (uint32_t)RESET) && (enablestatus != (uint32_t)RESET))
     f78:	00a03533          	snez	a0,a0
     f7c:	8082                	ret
F:\SCHOOL\文件\智能车\全向组\RTTThreadCH32V103\camCoreWithRTOS\obj/../Libraries/wch_libraries/Peripheral/ch32v10x_exti.c:142
  {
    bitstatus = SET;
  }
  else
  {
    bitstatus = RESET;
     f7e:	4501                	li	a0,0
F:\SCHOOL\文件\智能车\全向组\RTTThreadCH32V103\camCoreWithRTOS\obj/../Libraries/wch_libraries/Peripheral/ch32v10x_exti.c:145
  }
  return bitstatus;
}
     f80:	8082                	ret

00000f82 <EXTI_ClearITPendingBit>:
EXTI_ClearITPendingBit():
F:\SCHOOL\文件\智能车\全向组\RTTThreadCH32V103\camCoreWithRTOS\obj/../Libraries/wch_libraries/Peripheral/ch32v10x_exti.c:155
* Input          : EXTI_Line: specifies the EXTI lines to be enabled or disabled.
* Return         : None
*********************************************************************************/
void EXTI_ClearITPendingBit(uint32_t EXTI_Line)
{  
  EXTI->INTFR = EXTI_Line;
     f82:	400107b7          	lui	a5,0x40010
     f86:	40a7aa23          	sw	a0,1044(a5) # 40010414 <_eusrstack+0x2000b414>
F:\SCHOOL\文件\智能车\全向组\RTTThreadCH32V103\camCoreWithRTOS\obj/../Libraries/wch_libraries/Peripheral/ch32v10x_exti.c:156
}
     f8a:	8082                	ret

00000f8c <GPIO_Init>:
GPIO_Init():
F:\SCHOOL\文件\智能车\全向组\RTTThreadCH32V103\camCoreWithRTOS\obj/../Libraries/wch_libraries/Peripheral/ch32v10x_gpio.c:92
void GPIO_Init(GPIO_TypeDef* GPIOx, GPIO_InitTypeDef* GPIO_InitStruct)
{
  uint32_t currentmode = 0x00, currentpin = 0x00, pinpos = 0x00, pos = 0x00;
  uint32_t tmpreg = 0x00, pinmask = 0x00;

  currentmode = ((uint32_t)GPIO_InitStruct->GPIO_Mode) & ((uint32_t)0x0F);
     f8c:	459c                	lw	a5,8(a1)
     f8e:	00f7f893          	andi	a7,a5,15
F:\SCHOOL\文件\智能车\全向组\RTTThreadCH32V103\camCoreWithRTOS\obj/../Libraries/wch_libraries/Peripheral/ch32v10x_gpio.c:94
	
  if ((((uint32_t)GPIO_InitStruct->GPIO_Mode) & ((uint32_t)0x10)) != 0x00)
     f92:	8bc1                	andi	a5,a5,16
     f94:	c781                	beqz	a5,f9c <GPIO_Init+0x10>
F:\SCHOOL\文件\智能车\全向组\RTTThreadCH32V103\camCoreWithRTOS\obj/../Libraries/wch_libraries/Peripheral/ch32v10x_gpio.c:96
  { 
    currentmode |= (uint32_t)GPIO_InitStruct->GPIO_Speed;
     f96:	41dc                	lw	a5,4(a1)
     f98:	00f8e8b3          	or	a7,a7,a5
F:\SCHOOL\文件\智能车\全向组\RTTThreadCH32V103\camCoreWithRTOS\obj/../Libraries/wch_libraries/Peripheral/ch32v10x_gpio.c:99
  }

  if (((uint32_t)GPIO_InitStruct->GPIO_Pin & ((uint32_t)0x00FF)) != 0x00)
     f9c:	0005c783          	lbu	a5,0(a1)
     fa0:	cba9                	beqz	a5,ff2 <GPIO_Init+0x66>
F:\SCHOOL\文件\智能车\全向组\RTTThreadCH32V103\camCoreWithRTOS\obj/../Libraries/wch_libraries/Peripheral/ch32v10x_gpio.c:101
  {
    tmpreg = GPIOx->CFGLR;
     fa2:	4110                	lw	a2,0(a0)
F:\SCHOOL\文件\智能车\全向组\RTTThreadCH32V103\camCoreWithRTOS\obj/../Libraries/wch_libraries/Peripheral/ch32v10x_gpio.c:103
		
    for (pinpos = 0x00; pinpos < 0x08; pinpos++)
     fa4:	4781                	li	a5,0
F:\SCHOOL\文件\智能车\全向组\RTTThreadCH32V103\camCoreWithRTOS\obj/../Libraries/wch_libraries/Peripheral/ch32v10x_gpio.c:105
    {
      pos = ((uint32_t)0x01) << pinpos;
     fa6:	4e05                	li	t3,1
F:\SCHOOL\文件\智能车\全向组\RTTThreadCH32V103\camCoreWithRTOS\obj/../Libraries/wch_libraries/Peripheral/ch32v10x_gpio.c:111
      currentpin = (GPIO_InitStruct->GPIO_Pin) & pos;
			
      if (currentpin == pos)
      {
        pos = pinpos << 2;
        pinmask = ((uint32_t)0x0F) << pos;
     fa8:	4f3d                	li	t5,15
F:\SCHOOL\文件\智能车\全向组\RTTThreadCH32V103\camCoreWithRTOS\obj/../Libraries/wch_libraries/Peripheral/ch32v10x_gpio.c:115
        tmpreg &= ~pinmask;
        tmpreg |= (currentmode << pos);

        if (GPIO_InitStruct->GPIO_Mode == GPIO_Mode_IPD)
     faa:	02800e93          	li	t4,40
F:\SCHOOL\文件\智能车\全向组\RTTThreadCH32V103\camCoreWithRTOS\obj/../Libraries/wch_libraries/Peripheral/ch32v10x_gpio.c:121
        {
          GPIOx->BCR = (((uint32_t)0x01) << pinpos);
        }
        else
        {
          if (GPIO_InitStruct->GPIO_Mode == GPIO_Mode_IPU)
     fae:	04800f93          	li	t6,72
F:\SCHOOL\文件\智能车\全向组\RTTThreadCH32V103\camCoreWithRTOS\obj/../Libraries/wch_libraries/Peripheral/ch32v10x_gpio.c:103
    for (pinpos = 0x00; pinpos < 0x08; pinpos++)
     fb2:	4321                	li	t1,8
     fb4:	a029                	j	fbe <GPIO_Init+0x32>
F:\SCHOOL\文件\智能车\全向组\RTTThreadCH32V103\camCoreWithRTOS\obj/../Libraries/wch_libraries/Peripheral/ch32v10x_gpio.c:117
          GPIOx->BCR = (((uint32_t)0x01) << pinpos);
     fb6:	c954                	sw	a3,20(a0)
F:\SCHOOL\文件\智能车\全向组\RTTThreadCH32V103\camCoreWithRTOS\obj/../Libraries/wch_libraries/Peripheral/ch32v10x_gpio.c:103 (discriminator 2)
    for (pinpos = 0x00; pinpos < 0x08; pinpos++)
     fb8:	0785                	addi	a5,a5,1
     fba:	02678b63          	beq	a5,t1,ff0 <GPIO_Init+0x64>
F:\SCHOOL\文件\智能车\全向组\RTTThreadCH32V103\camCoreWithRTOS\obj/../Libraries/wch_libraries/Peripheral/ch32v10x_gpio.c:105
      pos = ((uint32_t)0x01) << pinpos;
     fbe:	00fe16b3          	sll	a3,t3,a5
F:\SCHOOL\文件\智能车\全向组\RTTThreadCH32V103\camCoreWithRTOS\obj/../Libraries/wch_libraries/Peripheral/ch32v10x_gpio.c:106
      currentpin = (GPIO_InitStruct->GPIO_Pin) & pos;
     fc2:	0005d703          	lhu	a4,0(a1)
     fc6:	8f75                	and	a4,a4,a3
F:\SCHOOL\文件\智能车\全向组\RTTThreadCH32V103\camCoreWithRTOS\obj/../Libraries/wch_libraries/Peripheral/ch32v10x_gpio.c:108
      if (currentpin == pos)
     fc8:	fee698e3          	bne	a3,a4,fb8 <GPIO_Init+0x2c>
F:\SCHOOL\文件\智能车\全向组\RTTThreadCH32V103\camCoreWithRTOS\obj/../Libraries/wch_libraries/Peripheral/ch32v10x_gpio.c:110
        pos = pinpos << 2;
     fcc:	00279713          	slli	a4,a5,0x2
F:\SCHOOL\文件\智能车\全向组\RTTThreadCH32V103\camCoreWithRTOS\obj/../Libraries/wch_libraries/Peripheral/ch32v10x_gpio.c:111
        pinmask = ((uint32_t)0x0F) << pos;
     fd0:	00ef1833          	sll	a6,t5,a4
F:\SCHOOL\文件\智能车\全向组\RTTThreadCH32V103\camCoreWithRTOS\obj/../Libraries/wch_libraries/Peripheral/ch32v10x_gpio.c:112
        tmpreg &= ~pinmask;
     fd4:	fff84813          	not	a6,a6
     fd8:	00c87633          	and	a2,a6,a2
F:\SCHOOL\文件\智能车\全向组\RTTThreadCH32V103\camCoreWithRTOS\obj/../Libraries/wch_libraries/Peripheral/ch32v10x_gpio.c:113
        tmpreg |= (currentmode << pos);
     fdc:	00e89733          	sll	a4,a7,a4
     fe0:	8e59                	or	a2,a2,a4
F:\SCHOOL\文件\智能车\全向组\RTTThreadCH32V103\camCoreWithRTOS\obj/../Libraries/wch_libraries/Peripheral/ch32v10x_gpio.c:115
        if (GPIO_InitStruct->GPIO_Mode == GPIO_Mode_IPD)
     fe2:	4598                	lw	a4,8(a1)
     fe4:	fdd709e3          	beq	a4,t4,fb6 <GPIO_Init+0x2a>
F:\SCHOOL\文件\智能车\全向组\RTTThreadCH32V103\camCoreWithRTOS\obj/../Libraries/wch_libraries/Peripheral/ch32v10x_gpio.c:121
          if (GPIO_InitStruct->GPIO_Mode == GPIO_Mode_IPU)
     fe8:	fdf718e3          	bne	a4,t6,fb8 <GPIO_Init+0x2c>
F:\SCHOOL\文件\智能车\全向组\RTTThreadCH32V103\camCoreWithRTOS\obj/../Libraries/wch_libraries/Peripheral/ch32v10x_gpio.c:123
          {
            GPIOx->BSHR = (((uint32_t)0x01) << pinpos);
     fec:	c914                	sw	a3,16(a0)
     fee:	b7e9                	j	fb8 <GPIO_Init+0x2c>
F:\SCHOOL\文件\智能车\全向组\RTTThreadCH32V103\camCoreWithRTOS\obj/../Libraries/wch_libraries/Peripheral/ch32v10x_gpio.c:128
          }
        }
      }
    }
    GPIOx->CFGLR = tmpreg;
     ff0:	c110                	sw	a2,0(a0)
F:\SCHOOL\文件\智能车\全向组\RTTThreadCH32V103\camCoreWithRTOS\obj/../Libraries/wch_libraries/Peripheral/ch32v10x_gpio.c:131
  }

  if (GPIO_InitStruct->GPIO_Pin > 0x00FF)
     ff2:	0005d703          	lhu	a4,0(a1)
     ff6:	0ff00793          	li	a5,255
     ffa:	04e7fd63          	bgeu	a5,a4,1054 <GPIO_Init+0xc8>
F:\SCHOOL\文件\智能车\全向组\RTTThreadCH32V103\camCoreWithRTOS\obj/../Libraries/wch_libraries/Peripheral/ch32v10x_gpio.c:133
  {
    tmpreg = GPIOx->CFGHR;
     ffe:	4150                	lw	a2,4(a0)
    1000:	47a1                	li	a5,8
F:\SCHOOL\文件\智能车\全向组\RTTThreadCH32V103\camCoreWithRTOS\obj/../Libraries/wch_libraries/Peripheral/ch32v10x_gpio.c:137
		
    for (pinpos = 0x00; pinpos < 0x08; pinpos++)
    {
      pos = (((uint32_t)0x01) << (pinpos + 0x08));
    1002:	4e05                	li	t3,1
F:\SCHOOL\文件\智能车\全向组\RTTThreadCH32V103\camCoreWithRTOS\obj/../Libraries/wch_libraries/Peripheral/ch32v10x_gpio.c:143
      currentpin = ((GPIO_InitStruct->GPIO_Pin) & pos);
			
      if (currentpin == pos)
      {
        pos = pinpos << 2;
        pinmask = ((uint32_t)0x0F) << pos;
    1004:	4fbd                	li	t6,15
F:\SCHOOL\文件\智能车\全向组\RTTThreadCH32V103\camCoreWithRTOS\obj/../Libraries/wch_libraries/Peripheral/ch32v10x_gpio.c:147
        tmpreg &= ~pinmask;
        tmpreg |= (currentmode << pos);

        if (GPIO_InitStruct->GPIO_Mode == GPIO_Mode_IPD)
    1006:	02800f13          	li	t5,40
F:\SCHOOL\文件\智能车\全向组\RTTThreadCH32V103\camCoreWithRTOS\obj/../Libraries/wch_libraries/Peripheral/ch32v10x_gpio.c:152
        {
          GPIOx->BCR = (((uint32_t)0x01) << (pinpos + 0x08));
        }

        if (GPIO_InitStruct->GPIO_Mode == GPIO_Mode_IPU)
    100a:	04800e93          	li	t4,72
F:\SCHOOL\文件\智能车\全向组\RTTThreadCH32V103\camCoreWithRTOS\obj/../Libraries/wch_libraries/Peripheral/ch32v10x_gpio.c:135
    for (pinpos = 0x00; pinpos < 0x08; pinpos++)
    100e:	4341                	li	t1,16
    1010:	a031                	j	101c <GPIO_Init+0x90>
F:\SCHOOL\文件\智能车\全向组\RTTThreadCH32V103\camCoreWithRTOS\obj/../Libraries/wch_libraries/Peripheral/ch32v10x_gpio.c:149
          GPIOx->BCR = (((uint32_t)0x01) << (pinpos + 0x08));
    1012:	c954                	sw	a3,20(a0)
    1014:	a815                	j	1048 <GPIO_Init+0xbc>
    1016:	0785                	addi	a5,a5,1
F:\SCHOOL\文件\智能车\全向组\RTTThreadCH32V103\camCoreWithRTOS\obj/../Libraries/wch_libraries/Peripheral/ch32v10x_gpio.c:135 (discriminator 2)
    for (pinpos = 0x00; pinpos < 0x08; pinpos++)
    1018:	02678d63          	beq	a5,t1,1052 <GPIO_Init+0xc6>
F:\SCHOOL\文件\智能车\全向组\RTTThreadCH32V103\camCoreWithRTOS\obj/../Libraries/wch_libraries/Peripheral/ch32v10x_gpio.c:137
      pos = (((uint32_t)0x01) << (pinpos + 0x08));
    101c:	00fe16b3          	sll	a3,t3,a5
F:\SCHOOL\文件\智能车\全向组\RTTThreadCH32V103\camCoreWithRTOS\obj/../Libraries/wch_libraries/Peripheral/ch32v10x_gpio.c:138
      currentpin = ((GPIO_InitStruct->GPIO_Pin) & pos);
    1020:	0005d703          	lhu	a4,0(a1)
    1024:	8f75                	and	a4,a4,a3
F:\SCHOOL\文件\智能车\全向组\RTTThreadCH32V103\camCoreWithRTOS\obj/../Libraries/wch_libraries/Peripheral/ch32v10x_gpio.c:140
      if (currentpin == pos)
    1026:	fee698e3          	bne	a3,a4,1016 <GPIO_Init+0x8a>
F:\SCHOOL\文件\智能车\全向组\RTTThreadCH32V103\camCoreWithRTOS\obj/../Libraries/wch_libraries/Peripheral/ch32v10x_gpio.c:142
        pos = pinpos << 2;
    102a:	00279713          	slli	a4,a5,0x2
    102e:	1701                	addi	a4,a4,-32
F:\SCHOOL\文件\智能车\全向组\RTTThreadCH32V103\camCoreWithRTOS\obj/../Libraries/wch_libraries/Peripheral/ch32v10x_gpio.c:143
        pinmask = ((uint32_t)0x0F) << pos;
    1030:	00ef9833          	sll	a6,t6,a4
F:\SCHOOL\文件\智能车\全向组\RTTThreadCH32V103\camCoreWithRTOS\obj/../Libraries/wch_libraries/Peripheral/ch32v10x_gpio.c:144
        tmpreg &= ~pinmask;
    1034:	fff84813          	not	a6,a6
    1038:	00c87633          	and	a2,a6,a2
F:\SCHOOL\文件\智能车\全向组\RTTThreadCH32V103\camCoreWithRTOS\obj/../Libraries/wch_libraries/Peripheral/ch32v10x_gpio.c:145
        tmpreg |= (currentmode << pos);
    103c:	00e89733          	sll	a4,a7,a4
    1040:	8e59                	or	a2,a2,a4
F:\SCHOOL\文件\智能车\全向组\RTTThreadCH32V103\camCoreWithRTOS\obj/../Libraries/wch_libraries/Peripheral/ch32v10x_gpio.c:147
        if (GPIO_InitStruct->GPIO_Mode == GPIO_Mode_IPD)
    1042:	4598                	lw	a4,8(a1)
    1044:	fde707e3          	beq	a4,t5,1012 <GPIO_Init+0x86>
F:\SCHOOL\文件\智能车\全向组\RTTThreadCH32V103\camCoreWithRTOS\obj/../Libraries/wch_libraries/Peripheral/ch32v10x_gpio.c:152
        if (GPIO_InitStruct->GPIO_Mode == GPIO_Mode_IPU)
    1048:	4598                	lw	a4,8(a1)
    104a:	fdd716e3          	bne	a4,t4,1016 <GPIO_Init+0x8a>
F:\SCHOOL\文件\智能车\全向组\RTTThreadCH32V103\camCoreWithRTOS\obj/../Libraries/wch_libraries/Peripheral/ch32v10x_gpio.c:154
        {
          GPIOx->BSHR = (((uint32_t)0x01) << (pinpos + 0x08));
    104e:	c914                	sw	a3,16(a0)
    1050:	b7d9                	j	1016 <GPIO_Init+0x8a>
F:\SCHOOL\文件\智能车\全向组\RTTThreadCH32V103\camCoreWithRTOS\obj/../Libraries/wch_libraries/Peripheral/ch32v10x_gpio.c:158
        }
      }
    }
    GPIOx->CFGHR = tmpreg;
    1052:	c150                	sw	a2,4(a0)
F:\SCHOOL\文件\智能车\全向组\RTTThreadCH32V103\camCoreWithRTOS\obj/../Libraries/wch_libraries/Peripheral/ch32v10x_gpio.c:160
  }
}
    1054:	8082                	ret

00001056 <GPIO_WriteBit>:
GPIO_WriteBit():
F:\SCHOOL\文件\智能车\全向组\RTTThreadCH32V103\camCoreWithRTOS\obj/../Libraries/wch_libraries/Peripheral/ch32v10x_gpio.c:283
*                    Bit_SetH: to set the port pin.                  
* Return         : None
*******************************************************************************/
void GPIO_WriteBit(GPIO_TypeDef* GPIOx, uint16_t GPIO_Pin, BitAction BitVal)
{
  if (BitVal != Bit_RESET)
    1056:	c219                	beqz	a2,105c <GPIO_WriteBit+0x6>
F:\SCHOOL\文件\智能车\全向组\RTTThreadCH32V103\camCoreWithRTOS\obj/../Libraries/wch_libraries/Peripheral/ch32v10x_gpio.c:285
  {
    GPIOx->BSHR = GPIO_Pin;
    1058:	c90c                	sw	a1,16(a0)
    105a:	8082                	ret
F:\SCHOOL\文件\智能车\全向组\RTTThreadCH32V103\camCoreWithRTOS\obj/../Libraries/wch_libraries/Peripheral/ch32v10x_gpio.c:289
  }
  else
  {
    GPIOx->BCR = GPIO_Pin;
    105c:	c94c                	sw	a1,20(a0)
F:\SCHOOL\文件\智能车\全向组\RTTThreadCH32V103\camCoreWithRTOS\obj/../Libraries/wch_libraries/Peripheral/ch32v10x_gpio.c:291
  }
}
    105e:	8082                	ret

00001060 <GPIO_PinRemapConfig>:
GPIO_PinRemapConfig():
F:\SCHOOL\文件\智能车\全向组\RTTThreadCH32V103\camCoreWithRTOS\obj/../Libraries/wch_libraries/Peripheral/ch32v10x_gpio.c:405
*******************************************************************************/
void GPIO_PinRemapConfig(uint32_t GPIO_Remap, FunctionalState NewState)
{
  uint32_t tmp = 0x00, tmp1 = 0x00, tmpreg = 0x00, tmpmask = 0x00;

  if((GPIO_Remap & 0x80000000) == 0x80000000)
    1060:	862a                	mv	a2,a0
    1062:	04054063          	bltz	a0,10a2 <GPIO_PinRemapConfig+0x42>
F:\SCHOOL\文件\智能车\全向组\RTTThreadCH32V103\camCoreWithRTOS\obj/../Libraries/wch_libraries/Peripheral/ch32v10x_gpio.c:411
  {
    tmpreg = AFIO->PCFR2;
  }
  else
  {
    tmpreg = AFIO->PCFR1;
    1066:	400107b7          	lui	a5,0x40010
    106a:	43dc                	lw	a5,4(a5)
F:\SCHOOL\文件\智能车\全向组\RTTThreadCH32V103\camCoreWithRTOS\obj/../Libraries/wch_libraries/Peripheral/ch32v10x_gpio.c:415
  }

  tmpmask = (GPIO_Remap & DBGAFR_POSITION_MASK) >> 0x10;
  tmp = GPIO_Remap & LSB_MASK;
    106c:	01051693          	slli	a3,a0,0x10
    1070:	82c1                	srli	a3,a3,0x10
F:\SCHOOL\文件\智能车\全向组\RTTThreadCH32V103\camCoreWithRTOS\obj/../Libraries/wch_libraries/Peripheral/ch32v10x_gpio.c:417

  if ((GPIO_Remap & (DBGAFR_LOCATION_MASK | DBGAFR_NUMBITS_MASK)) == (DBGAFR_LOCATION_MASK | DBGAFR_NUMBITS_MASK))
    1072:	00300737          	lui	a4,0x300
    1076:	00e57833          	and	a6,a0,a4
    107a:	02e80863          	beq	a6,a4,10aa <GPIO_PinRemapConfig+0x4a>
F:\SCHOOL\文件\智能车\全向组\RTTThreadCH32V103\camCoreWithRTOS\obj/../Libraries/wch_libraries/Peripheral/ch32v10x_gpio.c:422
  {
    tmpreg &= DBGAFR_SWJCFG_MASK;
    AFIO->PCFR1 &= DBGAFR_SWJCFG_MASK;
  }
  else if ((GPIO_Remap & DBGAFR_NUMBITS_MASK) == DBGAFR_NUMBITS_MASK)
    107e:	00b51713          	slli	a4,a0,0xb
    1082:	04075c63          	bgez	a4,10da <GPIO_PinRemapConfig+0x7a>
F:\SCHOOL\文件\智能车\全向组\RTTThreadCH32V103\camCoreWithRTOS\obj/../Libraries/wch_libraries/Peripheral/ch32v10x_gpio.c:414
  tmpmask = (GPIO_Remap & DBGAFR_POSITION_MASK) >> 0x10;
    1086:	01055713          	srli	a4,a0,0x10
    108a:	00f77813          	andi	a6,a4,15
F:\SCHOOL\文件\智能车\全向组\RTTThreadCH32V103\camCoreWithRTOS\obj/../Libraries/wch_libraries/Peripheral/ch32v10x_gpio.c:424
  {
    tmp1 = ((uint32_t)0x03) << tmpmask;
    108e:	470d                	li	a4,3
    1090:	01071733          	sll	a4,a4,a6
F:\SCHOOL\文件\智能车\全向组\RTTThreadCH32V103\camCoreWithRTOS\obj/../Libraries/wch_libraries/Peripheral/ch32v10x_gpio.c:425
    tmpreg &= ~tmp1;
    1094:	fff74713          	not	a4,a4
    1098:	8f7d                	and	a4,a4,a5
F:\SCHOOL\文件\智能车\全向组\RTTThreadCH32V103\camCoreWithRTOS\obj/../Libraries/wch_libraries/Peripheral/ch32v10x_gpio.c:426
    tmpreg |= ~DBGAFR_SWJCFG_MASK;
    109a:	0f0007b7          	lui	a5,0xf000
    109e:	8fd9                	or	a5,a5,a4
    10a0:	a00d                	j	10c2 <GPIO_PinRemapConfig+0x62>
F:\SCHOOL\文件\智能车\全向组\RTTThreadCH32V103\camCoreWithRTOS\obj/../Libraries/wch_libraries/Peripheral/ch32v10x_gpio.c:407
    tmpreg = AFIO->PCFR2;
    10a2:	400107b7          	lui	a5,0x40010
    10a6:	4fdc                	lw	a5,28(a5)
    10a8:	b7d1                	j	106c <GPIO_PinRemapConfig+0xc>
F:\SCHOOL\文件\智能车\全向组\RTTThreadCH32V103\camCoreWithRTOS\obj/../Libraries/wch_libraries/Peripheral/ch32v10x_gpio.c:419
    tmpreg &= DBGAFR_SWJCFG_MASK;
    10aa:	f1000737          	lui	a4,0xf1000
    10ae:	177d                	addi	a4,a4,-1
    10b0:	8ff9                	and	a5,a5,a4
F:\SCHOOL\文件\智能车\全向组\RTTThreadCH32V103\camCoreWithRTOS\obj/../Libraries/wch_libraries/Peripheral/ch32v10x_gpio.c:420
    AFIO->PCFR1 &= DBGAFR_SWJCFG_MASK;
    10b2:	400108b7          	lui	a7,0x40010
    10b6:	0048a803          	lw	a6,4(a7) # 40010004 <_eusrstack+0x2000b004>
    10ba:	00e87733          	and	a4,a6,a4
    10be:	00e8a223          	sw	a4,4(a7)
F:\SCHOOL\文件\智能车\全向组\RTTThreadCH32V103\camCoreWithRTOS\obj/../Libraries/wch_libraries/Peripheral/ch32v10x_gpio.c:434
  {
    tmpreg &= ~(tmp << ((GPIO_Remap >> 0x15)*0x10));
    tmpreg |= ~DBGAFR_SWJCFG_MASK;
  }

  if (NewState != DISABLE)
    10c2:	c591                	beqz	a1,10ce <GPIO_PinRemapConfig+0x6e>
F:\SCHOOL\文件\智能车\全向组\RTTThreadCH32V103\camCoreWithRTOS\obj/../Libraries/wch_libraries/Peripheral/ch32v10x_gpio.c:436
  {
    tmpreg |= (tmp << ((GPIO_Remap >> 0x15)*0x10));
    10c4:	8155                	srli	a0,a0,0x15
    10c6:	0512                	slli	a0,a0,0x4
    10c8:	00a69533          	sll	a0,a3,a0
    10cc:	8fc9                	or	a5,a5,a0
F:\SCHOOL\文件\智能车\全向组\RTTThreadCH32V103\camCoreWithRTOS\obj/../Libraries/wch_libraries/Peripheral/ch32v10x_gpio.c:439
  }

  if((GPIO_Remap & 0x80000000) == 0x80000000)
    10ce:	02064263          	bltz	a2,10f2 <GPIO_PinRemapConfig+0x92>
F:\SCHOOL\文件\智能车\全向组\RTTThreadCH32V103\camCoreWithRTOS\obj/../Libraries/wch_libraries/Peripheral/ch32v10x_gpio.c:445
  {
    AFIO->PCFR2 = tmpreg;
  }
  else
  {
    AFIO->PCFR1 = tmpreg;
    10d2:	40010737          	lui	a4,0x40010
    10d6:	c35c                	sw	a5,4(a4)
F:\SCHOOL\文件\智能车\全向组\RTTThreadCH32V103\camCoreWithRTOS\obj/../Libraries/wch_libraries/Peripheral/ch32v10x_gpio.c:447
  }  
}
    10d8:	8082                	ret
F:\SCHOOL\文件\智能车\全向组\RTTThreadCH32V103\camCoreWithRTOS\obj/../Libraries/wch_libraries/Peripheral/ch32v10x_gpio.c:430
    tmpreg &= ~(tmp << ((GPIO_Remap >> 0x15)*0x10));
    10da:	01555713          	srli	a4,a0,0x15
    10de:	0712                	slli	a4,a4,0x4
    10e0:	00e69733          	sll	a4,a3,a4
    10e4:	fff74713          	not	a4,a4
    10e8:	8f7d                	and	a4,a4,a5
F:\SCHOOL\文件\智能车\全向组\RTTThreadCH32V103\camCoreWithRTOS\obj/../Libraries/wch_libraries/Peripheral/ch32v10x_gpio.c:431
    tmpreg |= ~DBGAFR_SWJCFG_MASK;
    10ea:	0f0007b7          	lui	a5,0xf000
    10ee:	8fd9                	or	a5,a5,a4
    10f0:	bfc9                	j	10c2 <GPIO_PinRemapConfig+0x62>
F:\SCHOOL\文件\智能车\全向组\RTTThreadCH32V103\camCoreWithRTOS\obj/../Libraries/wch_libraries/Peripheral/ch32v10x_gpio.c:441
    AFIO->PCFR2 = tmpreg;
    10f2:	40010737          	lui	a4,0x40010
    10f6:	cf5c                	sw	a5,28(a4)
    10f8:	8082                	ret

000010fa <NVIC_Init>:
NVIC_Init():
F:\SCHOOL\文件\智能车\全向组\RTTThreadCH32V103\camCoreWithRTOS\obj/../Libraries/wch_libraries/Peripheral/ch32v10x_misc.c:47
*******************************************************************************************/
void NVIC_Init(NVIC_InitTypeDef* NVIC_InitStruct)
{
	//uint8_t tmppre = 0;

	if((PFIC->CFGR&(1<<1)) != 0)                    //中断嵌套标志位：1为关闭
    10fa:	e000e7b7          	lui	a5,0xe000e
    10fe:	47bc                	lw	a5,72(a5)
    1100:	8b89                	andi	a5,a5,2
    1102:	cf95                	beqz	a5,113e <NVIC_Init+0x44>
F:\SCHOOL\文件\智能车\全向组\RTTThreadCH32V103\camCoreWithRTOS\obj/../Libraries/wch_libraries/Peripheral/ch32v10x_misc.c:49
	{
		NVIC_SetPriority( NVIC_InitStruct->NVIC_IRQChannel, NVIC_InitStruct->NVIC_IRQChannelSubPriority<<4);
    1104:	00054683          	lbu	a3,0(a0)
    1108:	00254783          	lbu	a5,2(a0)
    110c:	0792                	slli	a5,a5,0x4
    110e:	0ff7f793          	andi	a5,a5,255
NVIC_SetPriority():
F:\SCHOOL\文件\智能车\全向组\RTTThreadCH32V103\camCoreWithRTOS\obj/../Libraries/wch_libraries/Core/core_riscv.h:209
*                            bit6-bit4: subpriority
* Return         : None
*******************************************************************************/
RV_STATIC_INLINE void NVIC_SetPriority(IRQn_Type IRQn, uint8_t priority)
{
  NVIC->IPRIOR[(uint32_t)(IRQn)] = priority;
    1112:	e000e737          	lui	a4,0xe000e
    1116:	9736                	add	a4,a4,a3
    1118:	40f70023          	sb	a5,1024(a4) # e000e400 <_eusrstack+0xc0009400>
NVIC_Init():
F:\SCHOOL\文件\智能车\全向组\RTTThreadCH32V103\camCoreWithRTOS\obj/../Libraries/wch_libraries/Peripheral/ch32v10x_misc.c:93
//	else if(NVIC_Priority_Group == NVIC_PriorityGroup_4)
//	{
//		NVIC_SetPriority( NVIC_InitStruct->NVIC_IRQChannel, NVIC_InitStruct->NVIC_IRQChannelPreemptionPriority<<4);
//	}

  if (NVIC_InitStruct->NVIC_IRQChannelCmd != DISABLE)
    111c:	415c                	lw	a5,4(a0)
    111e:	c7b5                	beqz	a5,118a <NVIC_Init+0x90>
F:\SCHOOL\文件\智能车\全向组\RTTThreadCH32V103\camCoreWithRTOS\obj/../Libraries/wch_libraries/Peripheral/ch32v10x_misc.c:95
  {
  	NVIC_EnableIRQ(NVIC_InitStruct->NVIC_IRQChannel);
    1120:	00054703          	lbu	a4,0(a0)
NVIC_EnableIRQ():
F:\SCHOOL\文件\智能车\全向组\RTTThreadCH32V103\camCoreWithRTOS\obj/../Libraries/wch_libraries/Core/core_riscv.h:127
  NVIC->IENR[((uint32_t)(IRQn) >> 5)] = (1 << ((uint32_t)(IRQn) & 0x1F));
    1124:	00575793          	srli	a5,a4,0x5
    1128:	4685                	li	a3,1
    112a:	00e696b3          	sll	a3,a3,a4
    112e:	04078793          	addi	a5,a5,64 # e000e040 <_eusrstack+0xc0009040>
    1132:	078a                	slli	a5,a5,0x2
    1134:	e000e737          	lui	a4,0xe000e
    1138:	97ba                	add	a5,a5,a4
    113a:	c394                	sw	a3,0(a5)
    113c:	8082                	ret
NVIC_Init():
F:\SCHOOL\文件\智能车\全向组\RTTThreadCH32V103\camCoreWithRTOS\obj/../Libraries/wch_libraries/Peripheral/ch32v10x_misc.c:51
	else if((PFIC->CFGR&(1<<1)) == 0)               //中断嵌套标志位：0为打开
    113e:	e000e7b7          	lui	a5,0xe000e
    1142:	47bc                	lw	a5,72(a5)
    1144:	8b89                	andi	a5,a5,2
    1146:	fbf9                	bnez	a5,111c <NVIC_Init+0x22>
F:\SCHOOL\文件\智能车\全向组\RTTThreadCH32V103\camCoreWithRTOS\obj/../Libraries/wch_libraries/Peripheral/ch32v10x_misc.c:53
        if(NVIC_InitStruct->NVIC_IRQChannelPreemptionPriority == 1)
    1148:	00154703          	lbu	a4,1(a0)
    114c:	4785                	li	a5,1
    114e:	00f70f63          	beq	a4,a5,116c <NVIC_Init+0x72>
F:\SCHOOL\文件\智能车\全向组\RTTThreadCH32V103\camCoreWithRTOS\obj/../Libraries/wch_libraries/Peripheral/ch32v10x_misc.c:59
            NVIC_SetPriority( NVIC_InitStruct->NVIC_IRQChannel, (0<<7)|(NVIC_InitStruct->NVIC_IRQChannelSubPriority<<4));
    1152:	00054683          	lbu	a3,0(a0)
    1156:	00254783          	lbu	a5,2(a0)
    115a:	0792                	slli	a5,a5,0x4
    115c:	0ff7f793          	andi	a5,a5,255
NVIC_SetPriority():
F:\SCHOOL\文件\智能车\全向组\RTTThreadCH32V103\camCoreWithRTOS\obj/../Libraries/wch_libraries/Core/core_riscv.h:209
  NVIC->IPRIOR[(uint32_t)(IRQn)] = priority;
    1160:	e000e737          	lui	a4,0xe000e
    1164:	9736                	add	a4,a4,a3
    1166:	40f70023          	sb	a5,1024(a4) # e000e400 <_eusrstack+0xc0009400>
    116a:	bf4d                	j	111c <NVIC_Init+0x22>
NVIC_Init():
F:\SCHOOL\文件\智能车\全向组\RTTThreadCH32V103\camCoreWithRTOS\obj/../Libraries/wch_libraries/Peripheral/ch32v10x_misc.c:55
            NVIC_SetPriority( NVIC_InitStruct->NVIC_IRQChannel, (1<<7)|(NVIC_InitStruct->NVIC_IRQChannelSubPriority<<4));
    116c:	00054683          	lbu	a3,0(a0)
    1170:	00254783          	lbu	a5,2(a0)
    1174:	0792                	slli	a5,a5,0x4
    1176:	f807e793          	ori	a5,a5,-128
    117a:	0ff7f793          	andi	a5,a5,255
NVIC_SetPriority():
F:\SCHOOL\文件\智能车\全向组\RTTThreadCH32V103\camCoreWithRTOS\obj/../Libraries/wch_libraries/Core/core_riscv.h:209
    117e:	e000e737          	lui	a4,0xe000e
    1182:	9736                	add	a4,a4,a3
    1184:	40f70023          	sb	a5,1024(a4) # e000e400 <_eusrstack+0xc0009400>
    1188:	bf51                	j	111c <NVIC_Init+0x22>
NVIC_Init():
F:\SCHOOL\文件\智能车\全向组\RTTThreadCH32V103\camCoreWithRTOS\obj/../Libraries/wch_libraries/Peripheral/ch32v10x_misc.c:99
  }
  else
  {
  	NVIC_DisableIRQ(NVIC_InitStruct->NVIC_IRQChannel);
    118a:	00054703          	lbu	a4,0(a0)
NVIC_DisableIRQ():
F:\SCHOOL\文件\智能车\全向组\RTTThreadCH32V103\camCoreWithRTOS\obj/../Libraries/wch_libraries/Core/core_riscv.h:138
  NVIC->IRER[((uint32_t)(IRQn) >> 5)] = (1 << ((uint32_t)(IRQn) & 0x1F));
    118e:	00575793          	srli	a5,a4,0x5
    1192:	4685                	li	a3,1
    1194:	00e696b3          	sll	a3,a3,a4
    1198:	06078793          	addi	a5,a5,96 # e000e060 <_eusrstack+0xc0009060>
    119c:	078a                	slli	a5,a5,0x2
    119e:	e000e737          	lui	a4,0xe000e
    11a2:	97ba                	add	a5,a5,a4
    11a4:	c394                	sw	a3,0(a5)
NVIC_Init():
F:\SCHOOL\文件\智能车\全向组\RTTThreadCH32V103\camCoreWithRTOS\obj/../Libraries/wch_libraries/Peripheral/ch32v10x_misc.c:101
  }
}
    11a6:	8082                	ret

000011a8 <RCC_GetClocksFreq>:
RCC_GetClocksFreq():
F:\SCHOOL\文件\智能车\全向组\RTTThreadCH32V103\camCoreWithRTOS\obj/../Libraries/wch_libraries/Peripheral/ch32v10x_rcc.c:472
********************************************************************************/
void RCC_GetClocksFreq(RCC_ClocksTypeDef* RCC_Clocks)
{
  uint32_t tmp = 0, pllmull = 0, pllsource = 0, presc = 0;
  
  tmp = RCC->CFGR0 & CFGR0_SWS_Mask;
    11a8:	400217b7          	lui	a5,0x40021
    11ac:	43dc                	lw	a5,4(a5)
    11ae:	8bb1                	andi	a5,a5,12
F:\SCHOOL\文件\智能车\全向组\RTTThreadCH32V103\camCoreWithRTOS\obj/../Libraries/wch_libraries/Peripheral/ch32v10x_rcc.c:474
  
  switch (tmp)
    11b0:	4711                	li	a4,4
    11b2:	08e78463          	beq	a5,a4,123a <RCC_GetClocksFreq+0x92>
    11b6:	4721                	li	a4,8
    11b8:	08e78763          	beq	a5,a4,1246 <RCC_GetClocksFreq+0x9e>
    11bc:	c799                	beqz	a5,11ca <RCC_GetClocksFreq+0x22>
F:\SCHOOL\文件\智能车\全向组\RTTThreadCH32V103\camCoreWithRTOS\obj/../Libraries/wch_libraries/Peripheral/ch32v10x_rcc.c:507
        }
      } 
      break;

    default:
      RCC_Clocks->SYSCLK_Frequency = HSI_VALUE;
    11be:	007a17b7          	lui	a5,0x7a1
    11c2:	20078793          	addi	a5,a5,512 # 7a1200 <_data_lma+0x799cb8>
    11c6:	c11c                	sw	a5,0(a0)
F:\SCHOOL\文件\智能车\全向组\RTTThreadCH32V103\camCoreWithRTOS\obj/../Libraries/wch_libraries/Peripheral/ch32v10x_rcc.c:508
      break;
    11c8:	a031                	j	11d4 <RCC_GetClocksFreq+0x2c>
F:\SCHOOL\文件\智能车\全向组\RTTThreadCH32V103\camCoreWithRTOS\obj/../Libraries/wch_libraries/Peripheral/ch32v10x_rcc.c:477
      RCC_Clocks->SYSCLK_Frequency = HSI_VALUE;
    11ca:	007a17b7          	lui	a5,0x7a1
    11ce:	20078793          	addi	a5,a5,512 # 7a1200 <_data_lma+0x799cb8>
    11d2:	c11c                	sw	a5,0(a0)
F:\SCHOOL\文件\智能车\全向组\RTTThreadCH32V103\camCoreWithRTOS\obj/../Libraries/wch_libraries/Peripheral/ch32v10x_rcc.c:511
  }

  tmp = RCC->CFGR0 & CFGR0_HPRE_Set_Mask;
    11d4:	40021637          	lui	a2,0x40021
    11d8:	425c                	lw	a5,4(a2)
F:\SCHOOL\文件\智能车\全向组\RTTThreadCH32V103\camCoreWithRTOS\obj/../Libraries/wch_libraries/Peripheral/ch32v10x_rcc.c:512
  tmp = tmp >> 4;
    11da:	8391                	srli	a5,a5,0x4
    11dc:	8bbd                	andi	a5,a5,15
F:\SCHOOL\文件\智能车\全向组\RTTThreadCH32V103\camCoreWithRTOS\obj/../Libraries/wch_libraries/Peripheral/ch32v10x_rcc.c:513
  presc = APBAHBPrescTable[tmp];
    11de:	20000737          	lui	a4,0x20000
    11e2:	00070713          	mv	a4,a4
    11e6:	97ba                	add	a5,a5,a4
    11e8:	0007c683          	lbu	a3,0(a5)
F:\SCHOOL\文件\智能车\全向组\RTTThreadCH32V103\camCoreWithRTOS\obj/../Libraries/wch_libraries/Peripheral/ch32v10x_rcc.c:514
  RCC_Clocks->HCLK_Frequency = RCC_Clocks->SYSCLK_Frequency >> presc;
    11ec:	411c                	lw	a5,0(a0)
    11ee:	00d7d7b3          	srl	a5,a5,a3
    11f2:	c15c                	sw	a5,4(a0)
F:\SCHOOL\文件\智能车\全向组\RTTThreadCH32V103\camCoreWithRTOS\obj/../Libraries/wch_libraries/Peripheral/ch32v10x_rcc.c:515
  tmp = RCC->CFGR0 & CFGR0_PPRE1_Set_Mask;
    11f4:	4254                	lw	a3,4(a2)
F:\SCHOOL\文件\智能车\全向组\RTTThreadCH32V103\camCoreWithRTOS\obj/../Libraries/wch_libraries/Peripheral/ch32v10x_rcc.c:516
  tmp = tmp >> 8;
    11f6:	82a1                	srli	a3,a3,0x8
    11f8:	8a9d                	andi	a3,a3,7
F:\SCHOOL\文件\智能车\全向组\RTTThreadCH32V103\camCoreWithRTOS\obj/../Libraries/wch_libraries/Peripheral/ch32v10x_rcc.c:517
  presc = APBAHBPrescTable[tmp];
    11fa:	96ba                	add	a3,a3,a4
    11fc:	0006c683          	lbu	a3,0(a3)
F:\SCHOOL\文件\智能车\全向组\RTTThreadCH32V103\camCoreWithRTOS\obj/../Libraries/wch_libraries/Peripheral/ch32v10x_rcc.c:518
  RCC_Clocks->PCLK1_Frequency = RCC_Clocks->HCLK_Frequency >> presc;
    1200:	00d7d6b3          	srl	a3,a5,a3
    1204:	c514                	sw	a3,8(a0)
F:\SCHOOL\文件\智能车\全向组\RTTThreadCH32V103\camCoreWithRTOS\obj/../Libraries/wch_libraries/Peripheral/ch32v10x_rcc.c:519
  tmp = RCC->CFGR0 & CFGR0_PPRE2_Set_Mask;
    1206:	4254                	lw	a3,4(a2)
F:\SCHOOL\文件\智能车\全向组\RTTThreadCH32V103\camCoreWithRTOS\obj/../Libraries/wch_libraries/Peripheral/ch32v10x_rcc.c:520
  tmp = tmp >> 11;
    1208:	82ad                	srli	a3,a3,0xb
    120a:	8a9d                	andi	a3,a3,7
F:\SCHOOL\文件\智能车\全向组\RTTThreadCH32V103\camCoreWithRTOS\obj/../Libraries/wch_libraries/Peripheral/ch32v10x_rcc.c:521
  presc = APBAHBPrescTable[tmp];
    120c:	9736                	add	a4,a4,a3
    120e:	00074703          	lbu	a4,0(a4) # 20000000 <_data_vma>
F:\SCHOOL\文件\智能车\全向组\RTTThreadCH32V103\camCoreWithRTOS\obj/../Libraries/wch_libraries/Peripheral/ch32v10x_rcc.c:522
  RCC_Clocks->PCLK2_Frequency = RCC_Clocks->HCLK_Frequency >> presc;
    1212:	00e7d7b3          	srl	a5,a5,a4
    1216:	c55c                	sw	a5,12(a0)
F:\SCHOOL\文件\智能车\全向组\RTTThreadCH32V103\camCoreWithRTOS\obj/../Libraries/wch_libraries/Peripheral/ch32v10x_rcc.c:523
  tmp = RCC->CFGR0 & CFGR0_ADCPRE_Set_Mask;
    1218:	4258                	lw	a4,4(a2)
F:\SCHOOL\文件\智能车\全向组\RTTThreadCH32V103\camCoreWithRTOS\obj/../Libraries/wch_libraries/Peripheral/ch32v10x_rcc.c:524
  tmp = tmp >> 14;
    121a:	8339                	srli	a4,a4,0xe
    121c:	00377693          	andi	a3,a4,3
F:\SCHOOL\文件\智能车\全向组\RTTThreadCH32V103\camCoreWithRTOS\obj/../Libraries/wch_libraries/Peripheral/ch32v10x_rcc.c:525
  presc = ADCPrescTable[tmp];
    1220:	20000737          	lui	a4,0x20000
    1224:	0b070713          	addi	a4,a4,176 # 200000b0 <ADCPrescTable>
    1228:	9736                	add	a4,a4,a3
    122a:	00074703          	lbu	a4,0(a4)
    122e:	0ff77713          	andi	a4,a4,255
F:\SCHOOL\文件\智能车\全向组\RTTThreadCH32V103\camCoreWithRTOS\obj/../Libraries/wch_libraries/Peripheral/ch32v10x_rcc.c:526
  RCC_Clocks->ADCCLK_Frequency = RCC_Clocks->PCLK2_Frequency / presc;
    1232:	02e7d7b3          	divu	a5,a5,a4
    1236:	c91c                	sw	a5,16(a0)
F:\SCHOOL\文件\智能车\全向组\RTTThreadCH32V103\camCoreWithRTOS\obj/../Libraries/wch_libraries/Peripheral/ch32v10x_rcc.c:527
}
    1238:	8082                	ret
F:\SCHOOL\文件\智能车\全向组\RTTThreadCH32V103\camCoreWithRTOS\obj/../Libraries/wch_libraries/Peripheral/ch32v10x_rcc.c:481
      RCC_Clocks->SYSCLK_Frequency = HSE_VALUE;
    123a:	007a17b7          	lui	a5,0x7a1
    123e:	20078793          	addi	a5,a5,512 # 7a1200 <_data_lma+0x799cb8>
    1242:	c11c                	sw	a5,0(a0)
F:\SCHOOL\文件\智能车\全向组\RTTThreadCH32V103\camCoreWithRTOS\obj/../Libraries/wch_libraries/Peripheral/ch32v10x_rcc.c:482
      break;
    1244:	bf41                	j	11d4 <RCC_GetClocksFreq+0x2c>
F:\SCHOOL\文件\智能车\全向组\RTTThreadCH32V103\camCoreWithRTOS\obj/../Libraries/wch_libraries/Peripheral/ch32v10x_rcc.c:485
      pllmull = RCC->CFGR0 & CFGR0_PLLMull_Mask;
    1246:	40021737          	lui	a4,0x40021
    124a:	435c                	lw	a5,4(a4)
F:\SCHOOL\文件\智能车\全向组\RTTThreadCH32V103\camCoreWithRTOS\obj/../Libraries/wch_libraries/Peripheral/ch32v10x_rcc.c:486
      pllsource = RCC->CFGR0 & CFGR0_PLLSRC_Mask;    
    124c:	4358                	lw	a4,4(a4)
F:\SCHOOL\文件\智能车\全向组\RTTThreadCH32V103\camCoreWithRTOS\obj/../Libraries/wch_libraries/Peripheral/ch32v10x_rcc.c:487
      pllmull = ( pllmull >> 18) + 2;
    124e:	83c9                	srli	a5,a5,0x12
    1250:	8bbd                	andi	a5,a5,15
    1252:	0789                	addi	a5,a5,2
F:\SCHOOL\文件\智能车\全向组\RTTThreadCH32V103\camCoreWithRTOS\obj/../Libraries/wch_libraries/Peripheral/ch32v10x_rcc.c:489
      if (pllsource == 0x00)
    1254:	00f71693          	slli	a3,a4,0xf
    1258:	0006ca63          	bltz	a3,126c <RCC_GetClocksFreq+0xc4>
F:\SCHOOL\文件\智能车\全向组\RTTThreadCH32V103\camCoreWithRTOS\obj/../Libraries/wch_libraries/Peripheral/ch32v10x_rcc.c:491
        RCC_Clocks->SYSCLK_Frequency = (HSI_VALUE >> 1) * pllmull;
    125c:	003d1737          	lui	a4,0x3d1
    1260:	90070713          	addi	a4,a4,-1792 # 3d0900 <_data_lma+0x3c93b8>
    1264:	02e787b3          	mul	a5,a5,a4
    1268:	c11c                	sw	a5,0(a0)
    126a:	b7ad                	j	11d4 <RCC_GetClocksFreq+0x2c>
F:\SCHOOL\文件\智能车\全向组\RTTThreadCH32V103\camCoreWithRTOS\obj/../Libraries/wch_libraries/Peripheral/ch32v10x_rcc.c:495
        if ((RCC->CFGR0 & CFGR0_PLLXTPRE_Mask) != (uint32_t)RESET)
    126c:	40021737          	lui	a4,0x40021
    1270:	4358                	lw	a4,4(a4)
    1272:	00e71693          	slli	a3,a4,0xe
    1276:	0006da63          	bgez	a3,128a <RCC_GetClocksFreq+0xe2>
F:\SCHOOL\文件\智能车\全向组\RTTThreadCH32V103\camCoreWithRTOS\obj/../Libraries/wch_libraries/Peripheral/ch32v10x_rcc.c:497
          RCC_Clocks->SYSCLK_Frequency = (HSE_VALUE >> 1) * pllmull;
    127a:	003d1737          	lui	a4,0x3d1
    127e:	90070713          	addi	a4,a4,-1792 # 3d0900 <_data_lma+0x3c93b8>
    1282:	02e787b3          	mul	a5,a5,a4
    1286:	c11c                	sw	a5,0(a0)
    1288:	b7b1                	j	11d4 <RCC_GetClocksFreq+0x2c>
F:\SCHOOL\文件\智能车\全向组\RTTThreadCH32V103\camCoreWithRTOS\obj/../Libraries/wch_libraries/Peripheral/ch32v10x_rcc.c:501
          RCC_Clocks->SYSCLK_Frequency = HSE_VALUE * pllmull;
    128a:	007a1737          	lui	a4,0x7a1
    128e:	20070713          	addi	a4,a4,512 # 7a1200 <_data_lma+0x799cb8>
    1292:	02e787b3          	mul	a5,a5,a4
    1296:	c11c                	sw	a5,0(a0)
    1298:	bf35                	j	11d4 <RCC_GetClocksFreq+0x2c>

0000129a <RCC_APB2PeriphClockCmd>:
RCC_APB2PeriphClockCmd():
F:\SCHOOL\文件\智能车\全向组\RTTThreadCH32V103\camCoreWithRTOS\obj/../Libraries/wch_libraries/Peripheral/ch32v10x_rcc.c:571
*                  NewState: ENABLE or DISABLE
* Return         : None
*******************************************************************************/	
void RCC_APB2PeriphClockCmd(uint32_t RCC_APB2Periph, FunctionalState NewState)
{
  if (NewState != DISABLE)
    129a:	c599                	beqz	a1,12a8 <RCC_APB2PeriphClockCmd+0xe>
F:\SCHOOL\文件\智能车\全向组\RTTThreadCH32V103\camCoreWithRTOS\obj/../Libraries/wch_libraries/Peripheral/ch32v10x_rcc.c:573
  {
    RCC->APB2PCENR |= RCC_APB2Periph;
    129c:	40021737          	lui	a4,0x40021
    12a0:	4f1c                	lw	a5,24(a4)
    12a2:	8d5d                	or	a0,a0,a5
    12a4:	cf08                	sw	a0,24(a4)
    12a6:	8082                	ret
F:\SCHOOL\文件\智能车\全向组\RTTThreadCH32V103\camCoreWithRTOS\obj/../Libraries/wch_libraries/Peripheral/ch32v10x_rcc.c:577
  }
  else
  {
    RCC->APB2PCENR &= ~RCC_APB2Periph;
    12a8:	400217b7          	lui	a5,0x40021
    12ac:	4f98                	lw	a4,24(a5)
    12ae:	fff54513          	not	a0,a0
    12b2:	8d79                	and	a0,a0,a4
    12b4:	cf88                	sw	a0,24(a5)
F:\SCHOOL\文件\智能车\全向组\RTTThreadCH32V103\camCoreWithRTOS\obj/../Libraries/wch_libraries/Peripheral/ch32v10x_rcc.c:579
  }
}
    12b6:	8082                	ret

000012b8 <RCC_APB1PeriphClockCmd>:
RCC_APB1PeriphClockCmd():
F:\SCHOOL\文件\智能车\全向组\RTTThreadCH32V103\camCoreWithRTOS\obj/../Libraries/wch_libraries/Peripheral/ch32v10x_rcc.c:604
*                  NewState: ENABLE or DISABLE.
* Return         : None
*******************************************************************************/	
void RCC_APB1PeriphClockCmd(uint32_t RCC_APB1Periph, FunctionalState NewState)
{
  if (NewState != DISABLE)
    12b8:	c599                	beqz	a1,12c6 <RCC_APB1PeriphClockCmd+0xe>
F:\SCHOOL\文件\智能车\全向组\RTTThreadCH32V103\camCoreWithRTOS\obj/../Libraries/wch_libraries/Peripheral/ch32v10x_rcc.c:606
  {
    RCC->APB1PCENR |= RCC_APB1Periph;
    12ba:	40021737          	lui	a4,0x40021
    12be:	4f5c                	lw	a5,28(a4)
    12c0:	8d5d                	or	a0,a0,a5
    12c2:	cf48                	sw	a0,28(a4)
    12c4:	8082                	ret
F:\SCHOOL\文件\智能车\全向组\RTTThreadCH32V103\camCoreWithRTOS\obj/../Libraries/wch_libraries/Peripheral/ch32v10x_rcc.c:610
  }
  else
  {
    RCC->APB1PCENR &= ~RCC_APB1Periph;
    12c6:	400217b7          	lui	a5,0x40021
    12ca:	4fd8                	lw	a4,28(a5)
    12cc:	fff54513          	not	a0,a0
    12d0:	8d79                	and	a0,a0,a4
    12d2:	cfc8                	sw	a0,28(a5)
F:\SCHOOL\文件\智能车\全向组\RTTThreadCH32V103\camCoreWithRTOS\obj/../Libraries/wch_libraries/Peripheral/ch32v10x_rcc.c:612
  }
}
    12d4:	8082                	ret

000012d6 <TIM_TimeBaseInit>:
TIM_TimeBaseInit():
F:\SCHOOL\文件\智能车\全向组\RTTThreadCH32V103\camCoreWithRTOS\obj/../Libraries/wch_libraries/Peripheral/ch32v10x_tim.c:70
*******************************************************************************/
void TIM_TimeBaseInit(TIM_TypeDef* TIMx, TIM_TimeBaseInitTypeDef* TIM_TimeBaseInitStruct)
{
  uint16_t tmpcr1 = 0;

  tmpcr1 = TIMx->CTLR1;  
    12d6:	00055783          	lhu	a5,0(a0)
    12da:	07c2                	slli	a5,a5,0x10
    12dc:	83c1                	srli	a5,a5,0x10
F:\SCHOOL\文件\智能车\全向组\RTTThreadCH32V103\camCoreWithRTOS\obj/../Libraries/wch_libraries/Peripheral/ch32v10x_tim.c:72

  if((TIMx == TIM1) || (TIMx == TIM2) || (TIMx == TIM3)|| (TIMx == TIM4)) 
    12de:	40013737          	lui	a4,0x40013
    12e2:	c0070713          	addi	a4,a4,-1024 # 40012c00 <_eusrstack+0x2000dc00>
    12e6:	04e50063          	beq	a0,a4,1326 <TIM_TimeBaseInit+0x50>
F:\SCHOOL\文件\智能车\全向组\RTTThreadCH32V103\camCoreWithRTOS\obj/../Libraries/wch_libraries/Peripheral/ch32v10x_tim.c:72 (discriminator 1)
    12ea:	40000737          	lui	a4,0x40000
    12ee:	06e50763          	beq	a0,a4,135c <TIM_TimeBaseInit+0x86>
F:\SCHOOL\文件\智能车\全向组\RTTThreadCH32V103\camCoreWithRTOS\obj/../Libraries/wch_libraries/Peripheral/ch32v10x_tim.c:72 (discriminator 2)
    12f2:	40070713          	addi	a4,a4,1024 # 40000400 <_eusrstack+0x1fffb400>
    12f6:	06e50363          	beq	a0,a4,135c <TIM_TimeBaseInit+0x86>
F:\SCHOOL\文件\智能车\全向组\RTTThreadCH32V103\camCoreWithRTOS\obj/../Libraries/wch_libraries/Peripheral/ch32v10x_tim.c:72 (discriminator 3)
    12fa:	40001737          	lui	a4,0x40001
    12fe:	80070713          	addi	a4,a4,-2048 # 40000800 <_eusrstack+0x1fffb800>
    1302:	04e50d63          	beq	a0,a4,135c <TIM_TimeBaseInit+0x86>
F:\SCHOOL\文件\智能车\全向组\RTTThreadCH32V103\camCoreWithRTOS\obj/../Libraries/wch_libraries/Peripheral/ch32v10x_tim.c:78
  {
    tmpcr1 &= (uint16_t)(~((uint16_t)(TIM_DIR | TIM_CMS)));
    tmpcr1 |= (uint32_t)TIM_TimeBaseInitStruct->TIM_CounterMode;
  }

  tmpcr1 &= (uint16_t)(~((uint16_t)TIM_CTLR1_CKD));
    1306:	cff7f793          	andi	a5,a5,-769
F:\SCHOOL\文件\智能车\全向组\RTTThreadCH32V103\camCoreWithRTOS\obj/../Libraries/wch_libraries/Peripheral/ch32v10x_tim.c:79
  tmpcr1 |= (uint32_t)TIM_TimeBaseInitStruct->TIM_ClockDivision;
    130a:	0065d703          	lhu	a4,6(a1)
    130e:	8fd9                	or	a5,a5,a4
F:\SCHOOL\文件\智能车\全向组\RTTThreadCH32V103\camCoreWithRTOS\obj/../Libraries/wch_libraries/Peripheral/ch32v10x_tim.c:81

  TIMx->CTLR1 = tmpcr1;
    1310:	00f51023          	sh	a5,0(a0)
F:\SCHOOL\文件\智能车\全向组\RTTThreadCH32V103\camCoreWithRTOS\obj/../Libraries/wch_libraries/Peripheral/ch32v10x_tim.c:82
  TIMx->ATRLR = TIM_TimeBaseInitStruct->TIM_Period ;
    1314:	0045d783          	lhu	a5,4(a1)
    1318:	02f51623          	sh	a5,44(a0)
F:\SCHOOL\文件\智能车\全向组\RTTThreadCH32V103\camCoreWithRTOS\obj/../Libraries/wch_libraries/Peripheral/ch32v10x_tim.c:83
  TIMx->PSC = TIM_TimeBaseInitStruct->TIM_Prescaler;
    131c:	0005d783          	lhu	a5,0(a1)
    1320:	02f51423          	sh	a5,40(a0)
F:\SCHOOL\文件\智能车\全向组\RTTThreadCH32V103\camCoreWithRTOS\obj/../Libraries/wch_libraries/Peripheral/ch32v10x_tim.c:85
    
  if (TIMx == TIM1)  
    1324:	a085                	j	1384 <TIM_TimeBaseInit+0xae>
F:\SCHOOL\文件\智能车\全向组\RTTThreadCH32V103\camCoreWithRTOS\obj/../Libraries/wch_libraries/Peripheral/ch32v10x_tim.c:74
    tmpcr1 &= (uint16_t)(~((uint16_t)(TIM_DIR | TIM_CMS)));
    1326:	f8f7f793          	andi	a5,a5,-113
F:\SCHOOL\文件\智能车\全向组\RTTThreadCH32V103\camCoreWithRTOS\obj/../Libraries/wch_libraries/Peripheral/ch32v10x_tim.c:75
    tmpcr1 |= (uint32_t)TIM_TimeBaseInitStruct->TIM_CounterMode;
    132a:	0025d703          	lhu	a4,2(a1)
    132e:	8fd9                	or	a5,a5,a4
F:\SCHOOL\文件\智能车\全向组\RTTThreadCH32V103\camCoreWithRTOS\obj/../Libraries/wch_libraries/Peripheral/ch32v10x_tim.c:78
  tmpcr1 &= (uint16_t)(~((uint16_t)TIM_CTLR1_CKD));
    1330:	cff7f793          	andi	a5,a5,-769
F:\SCHOOL\文件\智能车\全向组\RTTThreadCH32V103\camCoreWithRTOS\obj/../Libraries/wch_libraries/Peripheral/ch32v10x_tim.c:79
  tmpcr1 |= (uint32_t)TIM_TimeBaseInitStruct->TIM_ClockDivision;
    1334:	0065d703          	lhu	a4,6(a1)
    1338:	8fd9                	or	a5,a5,a4
F:\SCHOOL\文件\智能车\全向组\RTTThreadCH32V103\camCoreWithRTOS\obj/../Libraries/wch_libraries/Peripheral/ch32v10x_tim.c:81
  TIMx->CTLR1 = tmpcr1;
    133a:	00f51023          	sh	a5,0(a0)
F:\SCHOOL\文件\智能车\全向组\RTTThreadCH32V103\camCoreWithRTOS\obj/../Libraries/wch_libraries/Peripheral/ch32v10x_tim.c:82
  TIMx->ATRLR = TIM_TimeBaseInitStruct->TIM_Period ;
    133e:	0045d783          	lhu	a5,4(a1)
    1342:	02f51623          	sh	a5,44(a0)
F:\SCHOOL\文件\智能车\全向组\RTTThreadCH32V103\camCoreWithRTOS\obj/../Libraries/wch_libraries/Peripheral/ch32v10x_tim.c:83
  TIMx->PSC = TIM_TimeBaseInitStruct->TIM_Prescaler;
    1346:	0005d783          	lhu	a5,0(a1)
    134a:	02f51423          	sh	a5,40(a0)
F:\SCHOOL\文件\智能车\全向组\RTTThreadCH32V103\camCoreWithRTOS\obj/../Libraries/wch_libraries/Peripheral/ch32v10x_tim.c:87
  {
    TIMx->RPTCR = TIM_TimeBaseInitStruct->TIM_RepetitionCounter;
    134e:	0085c703          	lbu	a4,8(a1)
    1352:	400137b7          	lui	a5,0x40013
    1356:	c2e79823          	sh	a4,-976(a5) # 40012c30 <_eusrstack+0x2000dc30>
    135a:	a02d                	j	1384 <TIM_TimeBaseInit+0xae>
F:\SCHOOL\文件\智能车\全向组\RTTThreadCH32V103\camCoreWithRTOS\obj/../Libraries/wch_libraries/Peripheral/ch32v10x_tim.c:74
    tmpcr1 &= (uint16_t)(~((uint16_t)(TIM_DIR | TIM_CMS)));
    135c:	f8f7f793          	andi	a5,a5,-113
F:\SCHOOL\文件\智能车\全向组\RTTThreadCH32V103\camCoreWithRTOS\obj/../Libraries/wch_libraries/Peripheral/ch32v10x_tim.c:75
    tmpcr1 |= (uint32_t)TIM_TimeBaseInitStruct->TIM_CounterMode;
    1360:	0025d703          	lhu	a4,2(a1)
    1364:	8fd9                	or	a5,a5,a4
F:\SCHOOL\文件\智能车\全向组\RTTThreadCH32V103\camCoreWithRTOS\obj/../Libraries/wch_libraries/Peripheral/ch32v10x_tim.c:78
  tmpcr1 &= (uint16_t)(~((uint16_t)TIM_CTLR1_CKD));
    1366:	cff7f793          	andi	a5,a5,-769
F:\SCHOOL\文件\智能车\全向组\RTTThreadCH32V103\camCoreWithRTOS\obj/../Libraries/wch_libraries/Peripheral/ch32v10x_tim.c:79
  tmpcr1 |= (uint32_t)TIM_TimeBaseInitStruct->TIM_ClockDivision;
    136a:	0065d703          	lhu	a4,6(a1)
    136e:	8fd9                	or	a5,a5,a4
F:\SCHOOL\文件\智能车\全向组\RTTThreadCH32V103\camCoreWithRTOS\obj/../Libraries/wch_libraries/Peripheral/ch32v10x_tim.c:81
  TIMx->CTLR1 = tmpcr1;
    1370:	00f51023          	sh	a5,0(a0)
F:\SCHOOL\文件\智能车\全向组\RTTThreadCH32V103\camCoreWithRTOS\obj/../Libraries/wch_libraries/Peripheral/ch32v10x_tim.c:82
  TIMx->ATRLR = TIM_TimeBaseInitStruct->TIM_Period ;
    1374:	0045d783          	lhu	a5,4(a1)
    1378:	02f51623          	sh	a5,44(a0)
F:\SCHOOL\文件\智能车\全向组\RTTThreadCH32V103\camCoreWithRTOS\obj/../Libraries/wch_libraries/Peripheral/ch32v10x_tim.c:83
  TIMx->PSC = TIM_TimeBaseInitStruct->TIM_Prescaler;
    137c:	0005d783          	lhu	a5,0(a1)
    1380:	02f51423          	sh	a5,40(a0)
F:\SCHOOL\文件\智能车\全向组\RTTThreadCH32V103\camCoreWithRTOS\obj/../Libraries/wch_libraries/Peripheral/ch32v10x_tim.c:90
  }

  TIMx->SWEVGR = TIM_PSCReloadMode_Immediate;           
    1384:	4785                	li	a5,1
    1386:	00f51a23          	sh	a5,20(a0)
F:\SCHOOL\文件\智能车\全向组\RTTThreadCH32V103\camCoreWithRTOS\obj/../Libraries/wch_libraries/Peripheral/ch32v10x_tim.c:91
}
    138a:	8082                	ret

0000138c <TIM_TimeBaseStructInit>:
TIM_TimeBaseStructInit():
F:\SCHOOL\文件\智能车\全向组\RTTThreadCH32V103\camCoreWithRTOS\obj/../Libraries/wch_libraries/Peripheral/ch32v10x_tim.c:368
* Input          : TIM_TimeBaseInitStruct : pointer to a TIM_TimeBaseInitTypeDef structure.                 
* Return         : None
*******************************************************************************/
void TIM_TimeBaseStructInit(TIM_TimeBaseInitTypeDef* TIM_TimeBaseInitStruct)
{
  TIM_TimeBaseInitStruct->TIM_Period = 0xFFFF;
    138c:	57fd                	li	a5,-1
    138e:	00f51223          	sh	a5,4(a0)
F:\SCHOOL\文件\智能车\全向组\RTTThreadCH32V103\camCoreWithRTOS\obj/../Libraries/wch_libraries/Peripheral/ch32v10x_tim.c:369
  TIM_TimeBaseInitStruct->TIM_Prescaler = 0x0000;
    1392:	00051023          	sh	zero,0(a0)
F:\SCHOOL\文件\智能车\全向组\RTTThreadCH32V103\camCoreWithRTOS\obj/../Libraries/wch_libraries/Peripheral/ch32v10x_tim.c:370
  TIM_TimeBaseInitStruct->TIM_ClockDivision = TIM_CKD_DIV1;
    1396:	00051323          	sh	zero,6(a0)
F:\SCHOOL\文件\智能车\全向组\RTTThreadCH32V103\camCoreWithRTOS\obj/../Libraries/wch_libraries/Peripheral/ch32v10x_tim.c:371
  TIM_TimeBaseInitStruct->TIM_CounterMode = TIM_CounterMode_Up;
    139a:	00051123          	sh	zero,2(a0)
F:\SCHOOL\文件\智能车\全向组\RTTThreadCH32V103\camCoreWithRTOS\obj/../Libraries/wch_libraries/Peripheral/ch32v10x_tim.c:372
  TIM_TimeBaseInitStruct->TIM_RepetitionCounter = 0x0000;
    139e:	00050423          	sb	zero,8(a0)
F:\SCHOOL\文件\智能车\全向组\RTTThreadCH32V103\camCoreWithRTOS\obj/../Libraries/wch_libraries/Peripheral/ch32v10x_tim.c:373
}
    13a2:	8082                	ret

000013a4 <TIM_Cmd>:
TIM_Cmd():
F:\SCHOOL\文件\智能车\全向组\RTTThreadCH32V103\camCoreWithRTOS\obj/../Libraries/wch_libraries/Peripheral/ch32v10x_tim.c:434
*                  NewState: ENABLE or DISABLE.
* Return         : None
*******************************************************************************/
void TIM_Cmd(TIM_TypeDef* TIMx, FunctionalState NewState)
{ 
  if (NewState != DISABLE)
    13a4:	c981                	beqz	a1,13b4 <TIM_Cmd+0x10>
F:\SCHOOL\文件\智能车\全向组\RTTThreadCH32V103\camCoreWithRTOS\obj/../Libraries/wch_libraries/Peripheral/ch32v10x_tim.c:436
  {
    TIMx->CTLR1 |= TIM_CEN;
    13a6:	00055783          	lhu	a5,0(a0)
    13aa:	0017e793          	ori	a5,a5,1
    13ae:	00f51023          	sh	a5,0(a0)
    13b2:	8082                	ret
F:\SCHOOL\文件\智能车\全向组\RTTThreadCH32V103\camCoreWithRTOS\obj/../Libraries/wch_libraries/Peripheral/ch32v10x_tim.c:440
  }
  else
  {
    TIMx->CTLR1 &= (uint16_t)(~((uint16_t)TIM_CEN));
    13b4:	00055783          	lhu	a5,0(a0)
    13b8:	07c2                	slli	a5,a5,0x10
    13ba:	83c1                	srli	a5,a5,0x10
    13bc:	9bf9                	andi	a5,a5,-2
    13be:	07c2                	slli	a5,a5,0x10
    13c0:	83c1                	srli	a5,a5,0x10
    13c2:	00f51023          	sh	a5,0(a0)
F:\SCHOOL\文件\智能车\全向组\RTTThreadCH32V103\camCoreWithRTOS\obj/../Libraries/wch_libraries/Peripheral/ch32v10x_tim.c:442
  }
}
    13c6:	8082                	ret

000013c8 <TIM_EncoderInterfaceConfig>:
TIM_EncoderInterfaceConfig():
F:\SCHOOL\文件\智能车\全向组\RTTThreadCH32V103\camCoreWithRTOS\obj/../Libraries/wch_libraries/Peripheral/ch32v10x_tim.c:801
{
  uint16_t tmpsmcr = 0;
  uint16_t tmpccmr1 = 0;
  uint16_t tmpccer = 0;
    
  tmpsmcr = TIMx->SMCFGR;
    13c8:	00855803          	lhu	a6,8(a0)
    13cc:	0842                	slli	a6,a6,0x10
    13ce:	01085813          	srli	a6,a6,0x10
F:\SCHOOL\文件\智能车\全向组\RTTThreadCH32V103\camCoreWithRTOS\obj/../Libraries/wch_libraries/Peripheral/ch32v10x_tim.c:802
  tmpccmr1 = TIMx->CHCTLR1;
    13d2:	01855703          	lhu	a4,24(a0)
    13d6:	0742                	slli	a4,a4,0x10
    13d8:	8341                	srli	a4,a4,0x10
F:\SCHOOL\文件\智能车\全向组\RTTThreadCH32V103\camCoreWithRTOS\obj/../Libraries/wch_libraries/Peripheral/ch32v10x_tim.c:803
  tmpccer = TIMx->CCER;
    13da:	02055783          	lhu	a5,32(a0)
    13de:	07c2                	slli	a5,a5,0x10
    13e0:	83c1                	srli	a5,a5,0x10
F:\SCHOOL\文件\智能车\全向组\RTTThreadCH32V103\camCoreWithRTOS\obj/../Libraries/wch_libraries/Peripheral/ch32v10x_tim.c:804
  tmpsmcr &= (uint16_t)(~((uint16_t)TIM_SMS));
    13e2:	ff887813          	andi	a6,a6,-8
F:\SCHOOL\文件\智能车\全向组\RTTThreadCH32V103\camCoreWithRTOS\obj/../Libraries/wch_libraries/Peripheral/ch32v10x_tim.c:805
  tmpsmcr |= TIM_EncoderMode;
    13e6:	00b865b3          	or	a1,a6,a1
F:\SCHOOL\文件\智能车\全向组\RTTThreadCH32V103\camCoreWithRTOS\obj/../Libraries/wch_libraries/Peripheral/ch32v10x_tim.c:806
  tmpccmr1 &= (uint16_t)(((uint16_t)~((uint16_t)TIM_CC1S)) & (uint16_t)(~((uint16_t)TIM_CC2S)));
    13ea:	cfc77713          	andi	a4,a4,-772
F:\SCHOOL\文件\智能车\全向组\RTTThreadCH32V103\camCoreWithRTOS\obj/../Libraries/wch_libraries/Peripheral/ch32v10x_tim.c:807
  tmpccmr1 |= TIM_CC1S_0 | TIM_CC2S_0;
    13ee:	10176713          	ori	a4,a4,257
F:\SCHOOL\文件\智能车\全向组\RTTThreadCH32V103\camCoreWithRTOS\obj/../Libraries/wch_libraries/Peripheral/ch32v10x_tim.c:808
  tmpccer &= (uint16_t)(((uint16_t)~((uint16_t)TIM_CC1P)) & ((uint16_t)~((uint16_t)TIM_CC2P)));
    13f2:	fdd7f793          	andi	a5,a5,-35
F:\SCHOOL\文件\智能车\全向组\RTTThreadCH32V103\camCoreWithRTOS\obj/../Libraries/wch_libraries/Peripheral/ch32v10x_tim.c:809
  tmpccer |= (uint16_t)(TIM_IC1Polarity | (uint16_t)(TIM_IC2Polarity << (uint16_t)4)); 
    13f6:	0692                	slli	a3,a3,0x4
    13f8:	8e55                	or	a2,a2,a3
    13fa:	8fd1                	or	a5,a5,a2
    13fc:	07c2                	slli	a5,a5,0x10
    13fe:	83c1                	srli	a5,a5,0x10
F:\SCHOOL\文件\智能车\全向组\RTTThreadCH32V103\camCoreWithRTOS\obj/../Libraries/wch_libraries/Peripheral/ch32v10x_tim.c:810
  TIMx->SMCFGR = tmpsmcr;
    1400:	00b51423          	sh	a1,8(a0)
F:\SCHOOL\文件\智能车\全向组\RTTThreadCH32V103\camCoreWithRTOS\obj/../Libraries/wch_libraries/Peripheral/ch32v10x_tim.c:811
  TIMx->CHCTLR1 = tmpccmr1;
    1404:	00e51c23          	sh	a4,24(a0)
F:\SCHOOL\文件\智能车\全向组\RTTThreadCH32V103\camCoreWithRTOS\obj/../Libraries/wch_libraries/Peripheral/ch32v10x_tim.c:812
  TIMx->CCER = tmpccer;
    1408:	02f51023          	sh	a5,32(a0)
F:\SCHOOL\文件\智能车\全向组\RTTThreadCH32V103\camCoreWithRTOS\obj/../Libraries/wch_libraries/Peripheral/ch32v10x_tim.c:813
}
    140c:	8082                	ret

0000140e <TIM_GetITStatus>:
TIM_GetITStatus():
F:\SCHOOL\文件\智能车\全向组\RTTThreadCH32V103\camCoreWithRTOS\obj/../Libraries/wch_libraries/Peripheral/ch32v10x_tim.c:1857
ITStatus TIM_GetITStatus(TIM_TypeDef* TIMx, uint16_t TIM_IT)
{
  ITStatus bitstatus = RESET;  
  uint16_t itstatus = 0x0, itenable = 0x0;
   
  itstatus = TIMx->INTFR & TIM_IT;
    140e:	01055783          	lhu	a5,16(a0)
F:\SCHOOL\文件\智能车\全向组\RTTThreadCH32V103\camCoreWithRTOS\obj/../Libraries/wch_libraries/Peripheral/ch32v10x_tim.c:1859
  
  itenable = TIMx->DMAINTENR & TIM_IT;
    1412:	00c55503          	lhu	a0,12(a0)
    1416:	0542                	slli	a0,a0,0x10
    1418:	8141                	srli	a0,a0,0x10
F:\SCHOOL\文件\智能车\全向组\RTTThreadCH32V103\camCoreWithRTOS\obj/../Libraries/wch_libraries/Peripheral/ch32v10x_tim.c:1860
  if ((itstatus != (uint16_t)RESET) && (itenable != (uint16_t)RESET))
    141a:	8fed                	and	a5,a5,a1
    141c:	c789                	beqz	a5,1426 <TIM_GetITStatus+0x18>
F:\SCHOOL\文件\智能车\全向组\RTTThreadCH32V103\camCoreWithRTOS\obj/../Libraries/wch_libraries/Peripheral/ch32v10x_tim.c:1860 (discriminator 1)
    141e:	8d6d                	and	a0,a0,a1
    1420:	00a03533          	snez	a0,a0
    1424:	8082                	ret
F:\SCHOOL\文件\智能车\全向组\RTTThreadCH32V103\camCoreWithRTOS\obj/../Libraries/wch_libraries/Peripheral/ch32v10x_tim.c:1866
  {
    bitstatus = SET;
  }
  else
  {
    bitstatus = RESET;
    1426:	4501                	li	a0,0
F:\SCHOOL\文件\智能车\全向组\RTTThreadCH32V103\camCoreWithRTOS\obj/../Libraries/wch_libraries/Peripheral/ch32v10x_tim.c:1870
  }
	
  return bitstatus;
}
    1428:	8082                	ret

0000142a <TIM_ClearITPendingBit>:
TIM_ClearITPendingBit():
F:\SCHOOL\文件\智能车\全向组\RTTThreadCH32V103\camCoreWithRTOS\obj/../Libraries/wch_libraries/Peripheral/ch32v10x_tim.c:1889
*                    TIM_IT_Break: TIM Break Interrupt source.
* Return         : None
*******************************************************************************/
void TIM_ClearITPendingBit(TIM_TypeDef* TIMx, uint16_t TIM_IT)
{
  TIMx->INTFR = (uint16_t)~TIM_IT;
    142a:	fff5c593          	not	a1,a1
    142e:	05c2                	slli	a1,a1,0x10
    1430:	81c1                	srli	a1,a1,0x10
    1432:	00b51823          	sh	a1,16(a0)
F:\SCHOOL\文件\智能车\全向组\RTTThreadCH32V103\camCoreWithRTOS\obj/../Libraries/wch_libraries/Peripheral/ch32v10x_tim.c:1890
}
    1436:	8082                	ret

00001438 <USART_Init>:
USART_Init():
F:\SCHOOL\文件\智能车\全向组\RTTThreadCH32V103\camCoreWithRTOS\obj/../Libraries/wch_libraries/Peripheral/ch32v10x_usart.c:105
*                  USART_InitStruct: pointer to a USART_InitTypeDef structure
*      that contains the configuration information for the specified USART peripheral. 
* Return         : None
*******************************************************************************/
void USART_Init(USART_TypeDef* USARTx, USART_InitTypeDef* USART_InitStruct)
{
    1438:	7179                	addi	sp,sp,-48
    143a:	d606                	sw	ra,44(sp)
    143c:	d422                	sw	s0,40(sp)
    143e:	d226                	sw	s1,36(sp)
    1440:	842a                	mv	s0,a0
    1442:	84ae                	mv	s1,a1
F:\SCHOOL\文件\智能车\全向组\RTTThreadCH32V103\camCoreWithRTOS\obj/../Libraries/wch_libraries/Peripheral/ch32v10x_usart.c:117
  if (USART_InitStruct->USART_HardwareFlowControl != USART_HardwareFlowControl_None)
  {
  }

  usartxbase = (uint32_t)USARTx;
  tmpreg = USARTx->CTLR2;
    1444:	01055703          	lhu	a4,16(a0)
F:\SCHOOL\文件\智能车\全向组\RTTThreadCH32V103\camCoreWithRTOS\obj/../Libraries/wch_libraries/Peripheral/ch32v10x_usart.c:119
  tmpreg &= CTLR2_STOP_CLEAR_Mask;
  tmpreg |= (uint32_t)USART_InitStruct->USART_StopBits;  
    1448:	77f5                	lui	a5,0xffffd
    144a:	17fd                	addi	a5,a5,-1
    144c:	8ff9                	and	a5,a5,a4
    144e:	0065d703          	lhu	a4,6(a1)
    1452:	8fd9                	or	a5,a5,a4
F:\SCHOOL\文件\智能车\全向组\RTTThreadCH32V103\camCoreWithRTOS\obj/../Libraries/wch_libraries/Peripheral/ch32v10x_usart.c:121
	
  USARTx->CTLR2 = (uint16_t)tmpreg;
    1454:	00f51823          	sh	a5,16(a0)
F:\SCHOOL\文件\智能车\全向组\RTTThreadCH32V103\camCoreWithRTOS\obj/../Libraries/wch_libraries/Peripheral/ch32v10x_usart.c:122
  tmpreg = USARTx->CTLR1;
    1458:	00c55703          	lhu	a4,12(a0)
F:\SCHOOL\文件\智能车\全向组\RTTThreadCH32V103\camCoreWithRTOS\obj/../Libraries/wch_libraries/Peripheral/ch32v10x_usart.c:124
  tmpreg &= CTLR1_CLEAR_Mask;
  tmpreg |= (uint32_t)USART_InitStruct->USART_WordLength | USART_InitStruct->USART_Parity |
    145c:	77fd                	lui	a5,0xfffff
    145e:	9f378793          	addi	a5,a5,-1549 # ffffe9f3 <_eusrstack+0xdfff99f3>
    1462:	8ff9                	and	a5,a5,a4
    1464:	0045d703          	lhu	a4,4(a1)
    1468:	8fd9                	or	a5,a5,a4
    146a:	0085d703          	lhu	a4,8(a1)
    146e:	8fd9                	or	a5,a5,a4
    1470:	00a5d703          	lhu	a4,10(a1)
    1474:	8fd9                	or	a5,a5,a4
F:\SCHOOL\文件\智能车\全向组\RTTThreadCH32V103\camCoreWithRTOS\obj/../Libraries/wch_libraries/Peripheral/ch32v10x_usart.c:126
            USART_InitStruct->USART_Mode;
  USARTx->CTLR1 = (uint16_t)tmpreg;
    1476:	00f51623          	sh	a5,12(a0)
F:\SCHOOL\文件\智能车\全向组\RTTThreadCH32V103\camCoreWithRTOS\obj/../Libraries/wch_libraries/Peripheral/ch32v10x_usart.c:128
 
  tmpreg = USARTx->CTLR3;
    147a:	01455783          	lhu	a5,20(a0)
    147e:	07c2                	slli	a5,a5,0x10
    1480:	83c1                	srli	a5,a5,0x10
F:\SCHOOL\文件\智能车\全向组\RTTThreadCH32V103\camCoreWithRTOS\obj/../Libraries/wch_libraries/Peripheral/ch32v10x_usart.c:130
  tmpreg &= CTLR3_CLEAR_Mask;
  tmpreg |= USART_InitStruct->USART_HardwareFlowControl;
    1482:	cff7f793          	andi	a5,a5,-769
    1486:	00c5d703          	lhu	a4,12(a1)
    148a:	8fd9                	or	a5,a5,a4
F:\SCHOOL\文件\智能车\全向组\RTTThreadCH32V103\camCoreWithRTOS\obj/../Libraries/wch_libraries/Peripheral/ch32v10x_usart.c:131
  USARTx->CTLR3 = (uint16_t)tmpreg;
    148c:	00f51a23          	sh	a5,20(a0)
F:\SCHOOL\文件\智能车\全向组\RTTThreadCH32V103\camCoreWithRTOS\obj/../Libraries/wch_libraries/Peripheral/ch32v10x_usart.c:133

  RCC_GetClocksFreq(&RCC_ClocksStatus);
    1490:	0068                	addi	a0,sp,12
    1492:	3b19                	jal	11a8 <RCC_GetClocksFreq>
F:\SCHOOL\文件\智能车\全向组\RTTThreadCH32V103\camCoreWithRTOS\obj/../Libraries/wch_libraries/Peripheral/ch32v10x_usart.c:135
	
  if (usartxbase == USART1_BASE)
    1494:	400147b7          	lui	a5,0x40014
    1498:	80078793          	addi	a5,a5,-2048 # 40013800 <_eusrstack+0x2000e800>
    149c:	06f40163          	beq	s0,a5,14fe <USART_Init+0xc6>
F:\SCHOOL\文件\智能车\全向组\RTTThreadCH32V103\camCoreWithRTOS\obj/../Libraries/wch_libraries/Peripheral/ch32v10x_usart.c:141
  {
    apbclock = RCC_ClocksStatus.PCLK2_Frequency;
  }
  else
  {
    apbclock = RCC_ClocksStatus.PCLK1_Frequency;
    14a0:	4752                	lw	a4,20(sp)
F:\SCHOOL\文件\智能车\全向组\RTTThreadCH32V103\camCoreWithRTOS\obj/../Libraries/wch_libraries/Peripheral/ch32v10x_usart.c:144
  }
  
  if ((USARTx->CTLR1 & CTLR1_OVER8_Set) != 0)
    14a2:	00c45783          	lhu	a5,12(s0)
    14a6:	07c2                	slli	a5,a5,0x10
    14a8:	87c1                	srai	a5,a5,0x10
    14aa:	0407cc63          	bltz	a5,1502 <USART_Init+0xca>
F:\SCHOOL\文件\智能车\全向组\RTTThreadCH32V103\camCoreWithRTOS\obj/../Libraries/wch_libraries/Peripheral/ch32v10x_usart.c:150
  {
    integerdivider = ((25 * apbclock) / (2 * (USART_InitStruct->USART_BaudRate)));    
  }
  else 
  {
    integerdivider = ((25 * apbclock) / (4 * (USART_InitStruct->USART_BaudRate)));    
    14ae:	00171793          	slli	a5,a4,0x1
    14b2:	97ba                	add	a5,a5,a4
    14b4:	078e                	slli	a5,a5,0x3
    14b6:	97ba                	add	a5,a5,a4
    14b8:	4098                	lw	a4,0(s1)
    14ba:	070a                	slli	a4,a4,0x2
    14bc:	02e7d7b3          	divu	a5,a5,a4
F:\SCHOOL\文件\智能车\全向组\RTTThreadCH32V103\camCoreWithRTOS\obj/../Libraries/wch_libraries/Peripheral/ch32v10x_usart.c:152
  }
  tmpreg = (integerdivider / 100) << 4;
    14c0:	06400713          	li	a4,100
    14c4:	02e7d6b3          	divu	a3,a5,a4
    14c8:	0692                	slli	a3,a3,0x4
F:\SCHOOL\文件\智能车\全向组\RTTThreadCH32V103\camCoreWithRTOS\obj/../Libraries/wch_libraries/Peripheral/ch32v10x_usart.c:154

  fractionaldivider = integerdivider - (100 * (tmpreg >> 4));
    14ca:	02e7f7b3          	remu	a5,a5,a4
F:\SCHOOL\文件\智能车\全向组\RTTThreadCH32V103\camCoreWithRTOS\obj/../Libraries/wch_libraries/Peripheral/ch32v10x_usart.c:156

  if ((USARTx->CTLR1 & CTLR1_OVER8_Set) != 0)
    14ce:	00c45703          	lhu	a4,12(s0)
    14d2:	0742                	slli	a4,a4,0x10
    14d4:	8741                	srai	a4,a4,0x10
    14d6:	04074063          	bltz	a4,1516 <USART_Init+0xde>
F:\SCHOOL\文件\智能车\全向组\RTTThreadCH32V103\camCoreWithRTOS\obj/../Libraries/wch_libraries/Peripheral/ch32v10x_usart.c:162
  {
    tmpreg |= ((((fractionaldivider * 8) + 50) / 100)) & ((uint8_t)0x07);
  }
  else 
  {
    tmpreg |= ((((fractionaldivider * 16) + 50) / 100)) & ((uint8_t)0x0F);
    14da:	0792                	slli	a5,a5,0x4
    14dc:	03278793          	addi	a5,a5,50
    14e0:	06400713          	li	a4,100
    14e4:	02e7d7b3          	divu	a5,a5,a4
    14e8:	8bbd                	andi	a5,a5,15
    14ea:	8fd5                	or	a5,a5,a3
F:\SCHOOL\文件\智能车\全向组\RTTThreadCH32V103\camCoreWithRTOS\obj/../Libraries/wch_libraries/Peripheral/ch32v10x_usart.c:165
  }
  
  USARTx->BRR = (uint16_t)tmpreg;
    14ec:	07c2                	slli	a5,a5,0x10
    14ee:	83c1                	srli	a5,a5,0x10
    14f0:	00f41423          	sh	a5,8(s0)
F:\SCHOOL\文件\智能车\全向组\RTTThreadCH32V103\camCoreWithRTOS\obj/../Libraries/wch_libraries/Peripheral/ch32v10x_usart.c:166
}
    14f4:	50b2                	lw	ra,44(sp)
    14f6:	5422                	lw	s0,40(sp)
    14f8:	5492                	lw	s1,36(sp)
    14fa:	6145                	addi	sp,sp,48
    14fc:	8082                	ret
F:\SCHOOL\文件\智能车\全向组\RTTThreadCH32V103\camCoreWithRTOS\obj/../Libraries/wch_libraries/Peripheral/ch32v10x_usart.c:137
    apbclock = RCC_ClocksStatus.PCLK2_Frequency;
    14fe:	4762                	lw	a4,24(sp)
    1500:	b74d                	j	14a2 <USART_Init+0x6a>
F:\SCHOOL\文件\智能车\全向组\RTTThreadCH32V103\camCoreWithRTOS\obj/../Libraries/wch_libraries/Peripheral/ch32v10x_usart.c:146
    integerdivider = ((25 * apbclock) / (2 * (USART_InitStruct->USART_BaudRate)));    
    1502:	00171793          	slli	a5,a4,0x1
    1506:	97ba                	add	a5,a5,a4
    1508:	078e                	slli	a5,a5,0x3
    150a:	97ba                	add	a5,a5,a4
    150c:	4098                	lw	a4,0(s1)
    150e:	0706                	slli	a4,a4,0x1
    1510:	02e7d7b3          	divu	a5,a5,a4
    1514:	b775                	j	14c0 <USART_Init+0x88>
F:\SCHOOL\文件\智能车\全向组\RTTThreadCH32V103\camCoreWithRTOS\obj/../Libraries/wch_libraries/Peripheral/ch32v10x_usart.c:158
    tmpreg |= ((((fractionaldivider * 8) + 50) / 100)) & ((uint8_t)0x07);
    1516:	00379713          	slli	a4,a5,0x3
    151a:	03270713          	addi	a4,a4,50
    151e:	06400793          	li	a5,100
    1522:	02f75733          	divu	a4,a4,a5
    1526:	8b1d                	andi	a4,a4,7
    1528:	00d767b3          	or	a5,a4,a3
    152c:	b7c1                	j	14ec <USART_Init+0xb4>

0000152e <USART_Cmd>:
USART_Cmd():
F:\SCHOOL\文件\智能车\全向组\RTTThreadCH32V103\camCoreWithRTOS\obj/../Libraries/wch_libraries/Peripheral/ch32v10x_usart.c:230
*                  NewState: ENABLE or DISABLE.
* Return         : None
*******************************************************************************/
void USART_Cmd(USART_TypeDef* USARTx, FunctionalState NewState)
{
  if (NewState != DISABLE)
    152e:	c981                	beqz	a1,153e <USART_Cmd+0x10>
F:\SCHOOL\文件\智能车\全向组\RTTThreadCH32V103\camCoreWithRTOS\obj/../Libraries/wch_libraries/Peripheral/ch32v10x_usart.c:232
  {
    USARTx->CTLR1 |= CTLR1_UE_Set;
    1530:	00c55783          	lhu	a5,12(a0)
    1534:	6709                	lui	a4,0x2
    1536:	8fd9                	or	a5,a5,a4
    1538:	00f51623          	sh	a5,12(a0)
    153c:	8082                	ret
F:\SCHOOL\文件\智能车\全向组\RTTThreadCH32V103\camCoreWithRTOS\obj/../Libraries/wch_libraries/Peripheral/ch32v10x_usart.c:236
  }
  else
  {
    USARTx->CTLR1 &= CTLR1_UE_Reset;
    153e:	00c55703          	lhu	a4,12(a0)
    1542:	77f9                	lui	a5,0xffffe
    1544:	17fd                	addi	a5,a5,-1
    1546:	8ff9                	and	a5,a5,a4
    1548:	00f51623          	sh	a5,12(a0)
F:\SCHOOL\文件\智能车\全向组\RTTThreadCH32V103\camCoreWithRTOS\obj/../Libraries/wch_libraries/Peripheral/ch32v10x_usart.c:238
  }
}
    154c:	8082                	ret

0000154e <USART_ITConfig>:
USART_ITConfig():
F:\SCHOOL\文件\智能车\全向组\RTTThreadCH32V103\camCoreWithRTOS\obj/../Libraries/wch_libraries/Peripheral/ch32v10x_usart.c:266
  if (USART_IT == USART_IT_CTS)
  {
  }   
  
  usartxbase = (uint32_t)USARTx;
  usartreg = (((uint8_t)USART_IT) >> 0x05);
    154e:	0ff5f793          	andi	a5,a1,255
    1552:	8395                	srli	a5,a5,0x5
F:\SCHOOL\文件\智能车\全向组\RTTThreadCH32V103\camCoreWithRTOS\obj/../Libraries/wch_libraries/Peripheral/ch32v10x_usart.c:268
  itpos = USART_IT & IT_Mask;
  itmask = (((uint32_t)0x01) << itpos);
    1554:	4705                	li	a4,1
    1556:	00b715b3          	sll	a1,a4,a1
F:\SCHOOL\文件\智能车\全向组\RTTThreadCH32V103\camCoreWithRTOS\obj/../Libraries/wch_libraries/Peripheral/ch32v10x_usart.c:270
    
  if (usartreg == 0x01) 
    155a:	00e78c63          	beq	a5,a4,1572 <USART_ITConfig+0x24>
F:\SCHOOL\文件\智能车\全向组\RTTThreadCH32V103\camCoreWithRTOS\obj/../Libraries/wch_libraries/Peripheral/ch32v10x_usart.c:274
  {
    usartxbase += 0x0C;
  }
  else if (usartreg == 0x02) 
    155e:	4689                	li	a3,2
F:\SCHOOL\文件\智能车\全向组\RTTThreadCH32V103\camCoreWithRTOS\obj/../Libraries/wch_libraries/Peripheral/ch32v10x_usart.c:280
  {
    usartxbase += 0x10;
  }
  else 
  {
    usartxbase += 0x14; 
    1560:	01450713          	addi	a4,a0,20
F:\SCHOOL\文件\智能车\全向组\RTTThreadCH32V103\camCoreWithRTOS\obj/../Libraries/wch_libraries/Peripheral/ch32v10x_usart.c:274
  else if (usartreg == 0x02) 
    1564:	00d78a63          	beq	a5,a3,1578 <USART_ITConfig+0x2a>
F:\SCHOOL\文件\智能车\全向组\RTTThreadCH32V103\camCoreWithRTOS\obj/../Libraries/wch_libraries/Peripheral/ch32v10x_usart.c:283
  }
	
  if (NewState != DISABLE)
    1568:	ca19                	beqz	a2,157e <USART_ITConfig+0x30>
F:\SCHOOL\文件\智能车\全向组\RTTThreadCH32V103\camCoreWithRTOS\obj/../Libraries/wch_libraries/Peripheral/ch32v10x_usart.c:285
  {
    *(__IO uint32_t*)usartxbase  |= itmask;
    156a:	431c                	lw	a5,0(a4)
    156c:	8ddd                	or	a1,a1,a5
    156e:	c30c                	sw	a1,0(a4)
    1570:	8082                	ret
F:\SCHOOL\文件\智能车\全向组\RTTThreadCH32V103\camCoreWithRTOS\obj/../Libraries/wch_libraries/Peripheral/ch32v10x_usart.c:272
    usartxbase += 0x0C;
    1572:	00c50713          	addi	a4,a0,12
    1576:	bfcd                	j	1568 <USART_ITConfig+0x1a>
F:\SCHOOL\文件\智能车\全向组\RTTThreadCH32V103\camCoreWithRTOS\obj/../Libraries/wch_libraries/Peripheral/ch32v10x_usart.c:276
    usartxbase += 0x10;
    1578:	01050713          	addi	a4,a0,16
    157c:	b7f5                	j	1568 <USART_ITConfig+0x1a>
F:\SCHOOL\文件\智能车\全向组\RTTThreadCH32V103\camCoreWithRTOS\obj/../Libraries/wch_libraries/Peripheral/ch32v10x_usart.c:289
  }
  else
  {
    *(__IO uint32_t*)usartxbase &= ~itmask;
    157e:	431c                	lw	a5,0(a4)
    1580:	fff5c593          	not	a1,a1
    1584:	8dfd                	and	a1,a1,a5
    1586:	c30c                	sw	a1,0(a4)
F:\SCHOOL\文件\智能车\全向组\RTTThreadCH32V103\camCoreWithRTOS\obj/../Libraries/wch_libraries/Peripheral/ch32v10x_usart.c:291
  }
}
    1588:	8082                	ret

0000158a <USART_SendData>:
USART_SendData():
F:\SCHOOL\文件\智能车\全向组\RTTThreadCH32V103\camCoreWithRTOS\obj/../Libraries/wch_libraries/Peripheral/ch32v10x_usart.c:405
*                  Data: the data to transmit..
* Return         : None
*******************************************************************************/
void USART_SendData(USART_TypeDef* USARTx, uint16_t Data)
{
  USARTx->DATAR = (Data & (uint16_t)0x01FF);
    158a:	1ff5f593          	andi	a1,a1,511
    158e:	00b51223          	sh	a1,4(a0)
F:\SCHOOL\文件\智能车\全向组\RTTThreadCH32V103\camCoreWithRTOS\obj/../Libraries/wch_libraries/Peripheral/ch32v10x_usart.c:406
}
    1592:	8082                	ret

00001594 <USART_GetFlagStatus>:
USART_GetFlagStatus():
F:\SCHOOL\文件\智能车\全向组\RTTThreadCH32V103\camCoreWithRTOS\obj/../Libraries/wch_libraries/Peripheral/ch32v10x_usart.c:610

  if (USART_FLAG == USART_FLAG_CTS)
  {
  }  
  
  if ((USARTx->STATR & USART_FLAG) != (uint16_t)RESET)
    1594:	00055503          	lhu	a0,0(a0)
    1598:	8d6d                	and	a0,a0,a1
F:\SCHOOL\文件\智能车\全向组\RTTThreadCH32V103\camCoreWithRTOS\obj/../Libraries/wch_libraries/Peripheral/ch32v10x_usart.c:619
  else
  {
    bitstatus = RESET;
  }
  return bitstatus;
}
    159a:	00a03533          	snez	a0,a0
    159e:	8082                	ret

000015a0 <USART_GetITStatus>:
USART_GetITStatus():
F:\SCHOOL\文件\智能车\全向组\RTTThreadCH32V103\camCoreWithRTOS\obj/../Libraries/wch_libraries/Peripheral/ch32v10x_usart.c:668

  if (USART_IT == USART_IT_CTS)
  {
  }   
  
  usartreg = (((uint8_t)USART_IT) >> 0x05);
    15a0:	0ff5f793          	andi	a5,a1,255
    15a4:	8395                	srli	a5,a5,0x5
F:\SCHOOL\文件\智能车\全向组\RTTThreadCH32V103\camCoreWithRTOS\obj/../Libraries/wch_libraries/Peripheral/ch32v10x_usart.c:670
  itmask = USART_IT & IT_Mask;
  itmask = (uint32_t)0x01 << itmask;
    15a6:	4685                	li	a3,1
    15a8:	00b69733          	sll	a4,a3,a1
F:\SCHOOL\文件\智能车\全向组\RTTThreadCH32V103\camCoreWithRTOS\obj/../Libraries/wch_libraries/Peripheral/ch32v10x_usart.c:672
  
  if (usartreg == 0x01) 
    15ac:	02d78863          	beq	a5,a3,15dc <USART_GetITStatus+0x3c>
F:\SCHOOL\文件\智能车\全向组\RTTThreadCH32V103\camCoreWithRTOS\obj/../Libraries/wch_libraries/Peripheral/ch32v10x_usart.c:676
  {
    itmask &= USARTx->CTLR1;
  }
  else if (usartreg == 0x02) 
    15b0:	4689                	li	a3,2
    15b2:	02d78963          	beq	a5,a3,15e4 <USART_GetITStatus+0x44>
F:\SCHOOL\文件\智能车\全向组\RTTThreadCH32V103\camCoreWithRTOS\obj/../Libraries/wch_libraries/Peripheral/ch32v10x_usart.c:682
  {
    itmask &= USARTx->CTLR2;
  }
  else 
  {
    itmask &= USARTx->CTLR3;
    15b6:	01455783          	lhu	a5,20(a0)
    15ba:	8f7d                	and	a4,a4,a5
F:\SCHOOL\文件\智能车\全向组\RTTThreadCH32V103\camCoreWithRTOS\obj/../Libraries/wch_libraries/Peripheral/ch32v10x_usart.c:687
  }
  
  bitpos = USART_IT >> 0x08;
  bitpos = (uint32_t)0x01 << bitpos;
  bitpos &= USARTx->STATR;
    15bc:	00055503          	lhu	a0,0(a0)
    15c0:	01051793          	slli	a5,a0,0x10
    15c4:	83c1                	srli	a5,a5,0x10
F:\SCHOOL\文件\智能车\全向组\RTTThreadCH32V103\camCoreWithRTOS\obj/../Libraries/wch_libraries/Peripheral/ch32v10x_usart.c:695
  {
    bitstatus = SET;
  }
  else
  {
    bitstatus = RESET;
    15c6:	4501                	li	a0,0
F:\SCHOOL\文件\智能车\全向组\RTTThreadCH32V103\camCoreWithRTOS\obj/../Libraries/wch_libraries/Peripheral/ch32v10x_usart.c:689
  if ((itmask != (uint16_t)RESET)&&(bitpos != (uint16_t)RESET))
    15c8:	cb09                	beqz	a4,15da <USART_GetITStatus+0x3a>
F:\SCHOOL\文件\智能车\全向组\RTTThreadCH32V103\camCoreWithRTOS\obj/../Libraries/wch_libraries/Peripheral/ch32v10x_usart.c:685 (discriminator 1)
  bitpos = USART_IT >> 0x08;
    15ca:	81a1                	srli	a1,a1,0x8
F:\SCHOOL\文件\智能车\全向组\RTTThreadCH32V103\camCoreWithRTOS\obj/../Libraries/wch_libraries/Peripheral/ch32v10x_usart.c:686 (discriminator 1)
  bitpos = (uint32_t)0x01 << bitpos;
    15cc:	4505                	li	a0,1
    15ce:	00b515b3          	sll	a1,a0,a1
F:\SCHOOL\文件\智能车\全向组\RTTThreadCH32V103\camCoreWithRTOS\obj/../Libraries/wch_libraries/Peripheral/ch32v10x_usart.c:687 (discriminator 1)
  bitpos &= USARTx->STATR;
    15d2:	00b7f533          	and	a0,a5,a1
F:\SCHOOL\文件\智能车\全向组\RTTThreadCH32V103\camCoreWithRTOS\obj/../Libraries/wch_libraries/Peripheral/ch32v10x_usart.c:689 (discriminator 1)
  if ((itmask != (uint16_t)RESET)&&(bitpos != (uint16_t)RESET))
    15d6:	00a03533          	snez	a0,a0
F:\SCHOOL\文件\智能车\全向组\RTTThreadCH32V103\camCoreWithRTOS\obj/../Libraries/wch_libraries/Peripheral/ch32v10x_usart.c:699
  }
  
  return bitstatus;  
}
    15da:	8082                	ret
F:\SCHOOL\文件\智能车\全向组\RTTThreadCH32V103\camCoreWithRTOS\obj/../Libraries/wch_libraries/Peripheral/ch32v10x_usart.c:674
    itmask &= USARTx->CTLR1;
    15dc:	00c55783          	lhu	a5,12(a0)
    15e0:	8f7d                	and	a4,a4,a5
    15e2:	bfe9                	j	15bc <USART_GetITStatus+0x1c>
F:\SCHOOL\文件\智能车\全向组\RTTThreadCH32V103\camCoreWithRTOS\obj/../Libraries/wch_libraries/Peripheral/ch32v10x_usart.c:678
    itmask &= USARTx->CTLR2;
    15e4:	01055783          	lhu	a5,16(a0)
    15e8:	8f7d                	and	a4,a4,a5
    15ea:	bfc9                	j	15bc <USART_GetITStatus+0x1c>

000015ec <mt9v03x_uart_callback>:
mt9v03x_uart_callback():
F:\SCHOOL\文件\智能车\全向组\RTTThreadCH32V103\camCoreWithRTOS\obj/../Libraries/seekfree_peripheral/SEEKFREE_MT9V03X.c:90
//  @since      v1.0
//  Sample usage:
//  @note       
//-------------------------------------------------------------------------------------------------------------------
void mt9v03x_uart_callback(void)
{
    15ec:	1141                	addi	sp,sp,-16
    15ee:	c606                	sw	ra,12(sp)
    15f0:	c422                	sw	s0,8(sp)
F:\SCHOOL\文件\智能车\全向组\RTTThreadCH32V103\camCoreWithRTOS\obj/../Libraries/seekfree_peripheral/SEEKFREE_MT9V03X.c:91
    uart_query(MT9V03X_COF_UART, &receive[receive_num]);
    15f2:	83b18413          	addi	s0,gp,-1989 # 200000eb <receive_num>
    15f6:	00044583          	lbu	a1,0(s0)
    15fa:	83818793          	addi	a5,gp,-1992 # 200000e8 <receive>
    15fe:	95be                	add	a1,a1,a5
    1600:	4505                	li	a0,1
    1602:	239000ef          	jal	ra,203a <uart_query>
F:\SCHOOL\文件\智能车\全向组\RTTThreadCH32V103\camCoreWithRTOS\obj/../Libraries/seekfree_peripheral/SEEKFREE_MT9V03X.c:92
    receive_num++;
    1606:	00044783          	lbu	a5,0(s0)
    160a:	0785                	addi	a5,a5,1
    160c:	0ff7f793          	andi	a5,a5,255
    1610:	00f40023          	sb	a5,0(s0)
F:\SCHOOL\文件\智能车\全向组\RTTThreadCH32V103\camCoreWithRTOS\obj/../Libraries/seekfree_peripheral/SEEKFREE_MT9V03X.c:94

    if(1==receive_num && 0XA5!=receive[0])  receive_num = 0;
    1614:	4705                	li	a4,1
    1616:	00e78e63          	beq	a5,a4,1632 <mt9v03x_uart_callback+0x46>
F:\SCHOOL\文件\智能车\全向组\RTTThreadCH32V103\camCoreWithRTOS\obj/../Libraries/seekfree_peripheral/SEEKFREE_MT9V03X.c:95
    if(3 == receive_num)
    161a:	470d                	li	a4,3
    161c:	00e79763          	bne	a5,a4,162a <mt9v03x_uart_callback+0x3e>
F:\SCHOOL\文件\智能车\全向组\RTTThreadCH32V103\camCoreWithRTOS\obj/../Libraries/seekfree_peripheral/SEEKFREE_MT9V03X.c:97
    {
        receive_num = 0;
    1620:	82018da3          	sb	zero,-1989(gp) # 200000eb <receive_num>
F:\SCHOOL\文件\智能车\全向组\RTTThreadCH32V103\camCoreWithRTOS\obj/../Libraries/seekfree_peripheral/SEEKFREE_MT9V03X.c:98
        uart_receive_flag = 1;
    1624:	4705                	li	a4,1
    1626:	82e18e23          	sb	a4,-1988(gp) # 200000ec <uart_receive_flag>
F:\SCHOOL\文件\智能车\全向组\RTTThreadCH32V103\camCoreWithRTOS\obj/../Libraries/seekfree_peripheral/SEEKFREE_MT9V03X.c:101
    }
    
}
    162a:	40b2                	lw	ra,12(sp)
    162c:	4422                	lw	s0,8(sp)
    162e:	0141                	addi	sp,sp,16
    1630:	8082                	ret
F:\SCHOOL\文件\智能车\全向组\RTTThreadCH32V103\camCoreWithRTOS\obj/../Libraries/seekfree_peripheral/SEEKFREE_MT9V03X.c:94 (discriminator 1)
    if(1==receive_num && 0XA5!=receive[0])  receive_num = 0;
    1632:	8381c703          	lbu	a4,-1992(gp) # 200000e8 <receive>
    1636:	0a500793          	li	a5,165
    163a:	fef708e3          	beq	a4,a5,162a <mt9v03x_uart_callback+0x3e>
F:\SCHOOL\文件\智能车\全向组\RTTThreadCH32V103\camCoreWithRTOS\obj/../Libraries/seekfree_peripheral/SEEKFREE_MT9V03X.c:94 (discriminator 2)
    163e:	82018da3          	sb	zero,-1989(gp) # 200000eb <receive_num>
    1642:	b7e5                	j	162a <mt9v03x_uart_callback+0x3e>

00001644 <mt9v03x_vsync>:
mt9v03x_vsync():
F:\SCHOOL\文件\智能车\全向组\RTTThreadCH32V103\camCoreWithRTOS\obj/../Libraries/seekfree_peripheral/SEEKFREE_MT9V03X.c:377
//  @since      v1.0
//  Sample usage:               在isr.c里面先创建对应的中断函数，然后调用该函数(之后别忘记清除中断标志位)
//-------------------------------------------------------------------------------------------------------------------
void mt9v03x_vsync(void)
{
    MT9V03X_DMA_CH->CNTR = MT9V03X_H*MT9V03X_W;             //设置当前DMA传输的剩余数量，向下递减，该寄存器只能在DMA不工作时更改。
    1644:	400207b7          	lui	a5,0x40020
    1648:	6709                	lui	a4,0x2
    164a:	4b870713          	addi	a4,a4,1208 # 24b8 <rt_mb_send_wait+0x2e>
    164e:	c7b8                	sw	a4,72(a5)
F:\SCHOOL\文件\智能车\全向组\RTTThreadCH32V103\camCoreWithRTOS\obj/../Libraries/seekfree_peripheral/SEEKFREE_MT9V03X.c:378
    MT9V03X_DMA_CH->CFGR |= DMA_CFGR1_EN;
    1650:	43f8                	lw	a4,68(a5)
    1652:	00176713          	ori	a4,a4,1
    1656:	c3f8                	sw	a4,68(a5)
F:\SCHOOL\文件\智能车\全向组\RTTThreadCH32V103\camCoreWithRTOS\obj/../Libraries/seekfree_peripheral/SEEKFREE_MT9V03X.c:379
}
    1658:	8082                	ret

0000165a <mt9v03x_dma>:
mt9v03x_dma():
F:\SCHOOL\文件\智能车\全向组\RTTThreadCH32V103\camCoreWithRTOS\obj/../Libraries/seekfree_peripheral/SEEKFREE_MT9V03X.c:390
//  @since      v1.0
//  Sample usage:
//-------------------------------------------------------------------------------------------------------------------
extern rt_sem_t camera_sem;
void mt9v03x_dma(void)
{
    165a:	1141                	addi	sp,sp,-16
    165c:	c606                	sw	ra,12(sp)
F:\SCHOOL\文件\智能车\全向组\RTTThreadCH32V103\camCoreWithRTOS\obj/../Libraries/seekfree_peripheral/SEEKFREE_MT9V03X.c:391
    mt9v03x_finish_flag = 1;//一副图像从采集开始到采集结束耗时3.8MS左右(50FPS、188*120分辨率)
    165e:	4705                	li	a4,1
    1660:	82e18a23          	sb	a4,-1996(gp) # 200000e4 <mt9v03x_finish_flag>
F:\SCHOOL\文件\智能车\全向组\RTTThreadCH32V103\camCoreWithRTOS\obj/../Libraries/seekfree_peripheral/SEEKFREE_MT9V03X.c:392
    MT9V03X_DMA_CH->CFGR &= (uint16)(~DMA_CFGR1_EN);   //关闭DMA1
    1664:	400206b7          	lui	a3,0x40020
    1668:	42fc                	lw	a5,68(a3)
    166a:	6741                	lui	a4,0x10
    166c:	1779                	addi	a4,a4,-2
    166e:	8ff9                	and	a5,a5,a4
    1670:	c2fc                	sw	a5,68(a3)
F:\SCHOOL\文件\智能车\全向组\RTTThreadCH32V103\camCoreWithRTOS\obj/../Libraries/seekfree_peripheral/SEEKFREE_MT9V03X.c:393
    rt_sem_release(camera_sem);
    1672:	8301a503          	lw	a0,-2000(gp) # 200000e0 <_edata>
    1676:	567000ef          	jal	ra,23dc <rt_sem_release>
F:\SCHOOL\文件\智能车\全向组\RTTThreadCH32V103\camCoreWithRTOS\obj/../Libraries/seekfree_peripheral/SEEKFREE_MT9V03X.c:394
}
    167a:	40b2                	lw	ra,12(sp)
    167c:	0141                	addi	sp,sp,16
    167e:	8082                	ret

00001680 <oled_wrdat>:
oled_wrdat():
F:\SCHOOL\文件\智能车\全向组\RTTThreadCH32V103\camCoreWithRTOS\obj/../Libraries/seekfree_peripheral/SEEKFREE_OLED.c:58
//-------------------------------------------------------------------------------------------------------------------
void oled_wrdat(uint8 data)
{
	uint8 i=8;
	
    OLED_CS(0); //使能信号端，拉低时正常使用
    1680:	679d                	lui	a5,0x7
    1682:	b5478713          	addi	a4,a5,-1196 # 6b54 <GPION>
    1686:	4718                	lw	a4,8(a4)
    1688:	66a1                	lui	a3,0x8
    168a:	cb54                	sw	a3,20(a4)
F:\SCHOOL\文件\智能车\全向组\RTTThreadCH32V103\camCoreWithRTOS\obj/../Libraries/seekfree_peripheral/SEEKFREE_OLED.c:59
	OLED_DC(1);
    168c:	6691                	lui	a3,0x4
    168e:	cb14                	sw	a3,16(a4)
F:\SCHOOL\文件\智能车\全向组\RTTThreadCH32V103\camCoreWithRTOS\obj/../Libraries/seekfree_peripheral/SEEKFREE_OLED.c:60
	OLED_SCL(0);
    1690:	b547a703          	lw	a4,-1196(a5)
    1694:	02000793          	li	a5,32
    1698:	cb5c                	sw	a5,20(a4)
    169a:	47a1                	li	a5,8
F:\SCHOOL\文件\智能车\全向组\RTTThreadCH32V103\camCoreWithRTOS\obj/../Libraries/seekfree_peripheral/SEEKFREE_OLED.c:64
	while(i--)
	{
	  	if(data&0x80){OLED_SDA(1);}
	  	else{OLED_SDA(0);}
    169c:	08000593          	li	a1,128
F:\SCHOOL\文件\智能车\全向组\RTTThreadCH32V103\camCoreWithRTOS\obj/../Libraries/seekfree_peripheral/SEEKFREE_OLED.c:65
	  	OLED_SCL(1);
    16a0:	02000693          	li	a3,32
    16a4:	a819                	j	16ba <oled_wrdat+0x3a>
F:\SCHOOL\文件\智能车\全向组\RTTThreadCH32V103\camCoreWithRTOS\obj/../Libraries/seekfree_peripheral/SEEKFREE_OLED.c:63 (discriminator 1)
	  	if(data&0x80){OLED_SDA(1);}
    16a6:	cb0c                	sw	a1,16(a4)
F:\SCHOOL\文件\智能车\全向组\RTTThreadCH32V103\camCoreWithRTOS\obj/../Libraries/seekfree_peripheral/SEEKFREE_OLED.c:65
	  	OLED_SCL(1);
    16a8:	cb14                	sw	a3,16(a4)
F:\SCHOOL\文件\智能车\全向组\RTTThreadCH32V103\camCoreWithRTOS\obj/../Libraries/seekfree_peripheral/SEEKFREE_OLED.c:67
		
	  	OLED_SCL(0);
    16aa:	cb54                	sw	a3,20(a4)
F:\SCHOOL\文件\智能车\全向组\RTTThreadCH32V103\camCoreWithRTOS\obj/../Libraries/seekfree_peripheral/SEEKFREE_OLED.c:68
	  	data<<=1;
    16ac:	0506                	slli	a0,a0,0x1
    16ae:	0ff57513          	andi	a0,a0,255
    16b2:	17fd                	addi	a5,a5,-1
    16b4:	0ff7f793          	andi	a5,a5,255
F:\SCHOOL\文件\智能车\全向组\RTTThreadCH32V103\camCoreWithRTOS\obj/../Libraries/seekfree_peripheral/SEEKFREE_OLED.c:61
	while(i--)
    16b8:	cb81                	beqz	a5,16c8 <oled_wrdat+0x48>
F:\SCHOOL\文件\智能车\全向组\RTTThreadCH32V103\camCoreWithRTOS\obj/../Libraries/seekfree_peripheral/SEEKFREE_OLED.c:63
	  	if(data&0x80){OLED_SDA(1);}
    16ba:	01851613          	slli	a2,a0,0x18
    16be:	8661                	srai	a2,a2,0x18
    16c0:	fe0643e3          	bltz	a2,16a6 <oled_wrdat+0x26>
F:\SCHOOL\文件\智能车\全向组\RTTThreadCH32V103\camCoreWithRTOS\obj/../Libraries/seekfree_peripheral/SEEKFREE_OLED.c:64
	  	else{OLED_SDA(0);}
    16c4:	cb4c                	sw	a1,20(a4)
    16c6:	b7cd                	j	16a8 <oled_wrdat+0x28>
F:\SCHOOL\文件\智能车\全向组\RTTThreadCH32V103\camCoreWithRTOS\obj/../Libraries/seekfree_peripheral/SEEKFREE_OLED.c:70
	}
    OLED_CS(1); //使能信号端，拉低时正常使用
    16c8:	679d                	lui	a5,0x7
    16ca:	b5c7a783          	lw	a5,-1188(a5) # 6b5c <GPION+0x8>
    16ce:	6721                	lui	a4,0x8
    16d0:	cb98                	sw	a4,16(a5)
F:\SCHOOL\文件\智能车\全向组\RTTThreadCH32V103\camCoreWithRTOS\obj/../Libraries/seekfree_peripheral/SEEKFREE_OLED.c:71
}
    16d2:	8082                	ret

000016d4 <oled_wrcmd>:
oled_wrcmd():
F:\SCHOOL\文件\智能车\全向组\RTTThreadCH32V103\camCoreWithRTOS\obj/../Libraries/seekfree_peripheral/SEEKFREE_OLED.c:109
//-------------------------------------------------------------------------------------------------------------------
void oled_wrcmd(uint8 cmd)
{
	uint8 i=8;
    
	OLED_CS(0); //使能信号端，拉低时正常使用
    16d4:	679d                	lui	a5,0x7
    16d6:	b5478713          	addi	a4,a5,-1196 # 6b54 <GPION>
    16da:	4718                	lw	a4,8(a4)
    16dc:	66a1                	lui	a3,0x8
    16de:	cb54                	sw	a3,20(a4)
F:\SCHOOL\文件\智能车\全向组\RTTThreadCH32V103\camCoreWithRTOS\obj/../Libraries/seekfree_peripheral/SEEKFREE_OLED.c:110
	OLED_DC(0);
    16e0:	6691                	lui	a3,0x4
    16e2:	cb54                	sw	a3,20(a4)
F:\SCHOOL\文件\智能车\全向组\RTTThreadCH32V103\camCoreWithRTOS\obj/../Libraries/seekfree_peripheral/SEEKFREE_OLED.c:111
	OLED_SCL(0);;
    16e4:	b547a703          	lw	a4,-1196(a5)
    16e8:	02000793          	li	a5,32
    16ec:	cb5c                	sw	a5,20(a4)
    16ee:	47a1                	li	a5,8
F:\SCHOOL\文件\智能车\全向组\RTTThreadCH32V103\camCoreWithRTOS\obj/../Libraries/seekfree_peripheral/SEEKFREE_OLED.c:116
	
	while(i--)
	{
		if(cmd&0x80){OLED_SDA(1);}
		else{OLED_SDA(0);}
    16f0:	08000593          	li	a1,128
F:\SCHOOL\文件\智能车\全向组\RTTThreadCH32V103\camCoreWithRTOS\obj/../Libraries/seekfree_peripheral/SEEKFREE_OLED.c:117
		OLED_SCL(1);
    16f4:	02000693          	li	a3,32
    16f8:	a819                	j	170e <oled_wrcmd+0x3a>
F:\SCHOOL\文件\智能车\全向组\RTTThreadCH32V103\camCoreWithRTOS\obj/../Libraries/seekfree_peripheral/SEEKFREE_OLED.c:115 (discriminator 1)
		if(cmd&0x80){OLED_SDA(1);}
    16fa:	cb0c                	sw	a1,16(a4)
F:\SCHOOL\文件\智能车\全向组\RTTThreadCH32V103\camCoreWithRTOS\obj/../Libraries/seekfree_peripheral/SEEKFREE_OLED.c:117
		OLED_SCL(1);
    16fc:	cb14                	sw	a3,16(a4)
F:\SCHOOL\文件\智能车\全向组\RTTThreadCH32V103\camCoreWithRTOS\obj/../Libraries/seekfree_peripheral/SEEKFREE_OLED.c:119
		
		OLED_SCL(0);
    16fe:	cb54                	sw	a3,20(a4)
F:\SCHOOL\文件\智能车\全向组\RTTThreadCH32V103\camCoreWithRTOS\obj/../Libraries/seekfree_peripheral/SEEKFREE_OLED.c:120
		cmd<<=1;
    1700:	0506                	slli	a0,a0,0x1
    1702:	0ff57513          	andi	a0,a0,255
    1706:	17fd                	addi	a5,a5,-1
    1708:	0ff7f793          	andi	a5,a5,255
F:\SCHOOL\文件\智能车\全向组\RTTThreadCH32V103\camCoreWithRTOS\obj/../Libraries/seekfree_peripheral/SEEKFREE_OLED.c:113
	while(i--)
    170c:	cb81                	beqz	a5,171c <oled_wrcmd+0x48>
F:\SCHOOL\文件\智能车\全向组\RTTThreadCH32V103\camCoreWithRTOS\obj/../Libraries/seekfree_peripheral/SEEKFREE_OLED.c:115
		if(cmd&0x80){OLED_SDA(1);}
    170e:	01851613          	slli	a2,a0,0x18
    1712:	8661                	srai	a2,a2,0x18
    1714:	fe0643e3          	bltz	a2,16fa <oled_wrcmd+0x26>
F:\SCHOOL\文件\智能车\全向组\RTTThreadCH32V103\camCoreWithRTOS\obj/../Libraries/seekfree_peripheral/SEEKFREE_OLED.c:116
		else{OLED_SDA(0);}
    1718:	cb4c                	sw	a1,20(a4)
    171a:	b7cd                	j	16fc <oled_wrcmd+0x28>
F:\SCHOOL\文件\智能车\全向组\RTTThreadCH32V103\camCoreWithRTOS\obj/../Libraries/seekfree_peripheral/SEEKFREE_OLED.c:122
	}
    OLED_CS(1); //使能信号端，拉低时正常使用
    171c:	679d                	lui	a5,0x7
    171e:	b5c7a783          	lw	a5,-1188(a5) # 6b5c <GPION+0x8>
    1722:	6721                	lui	a4,0x8
    1724:	cb98                	sw	a4,16(a5)
F:\SCHOOL\文件\智能车\全向组\RTTThreadCH32V103\camCoreWithRTOS\obj/../Libraries/seekfree_peripheral/SEEKFREE_OLED.c:123
}
    1726:	8082                	ret

00001728 <oled_set_pos>:
oled_set_pos():
F:\SCHOOL\文件\智能车\全向组\RTTThreadCH32V103\camCoreWithRTOS\obj/../Libraries/seekfree_peripheral/SEEKFREE_OLED.c:216
//  @return     void
//  @since      v1.0
//  Sample usage:			
//-------------------------------------------------------------------------------------------------------------------
void oled_set_pos(uint8 x, uint8 y)
{
    1728:	1141                	addi	sp,sp,-16
    172a:	c606                	sw	ra,12(sp)
    172c:	c422                	sw	s0,8(sp)
F:\SCHOOL\文件\智能车\全向组\RTTThreadCH32V103\camCoreWithRTOS\obj/../Libraries/seekfree_peripheral/SEEKFREE_OLED.c:217
    assert(X_WIDTH>x);      //参数断言，进入断言标志参数超出范围
    172e:	01851793          	slli	a5,a0,0x18
    1732:	87e1                	srai	a5,a5,0x18
    1734:	0207c763          	bltz	a5,1762 <oled_set_pos+0x3a>
    1738:	842a                	mv	s0,a0
F:\SCHOOL\文件\智能车\全向组\RTTThreadCH32V103\camCoreWithRTOS\obj/../Libraries/seekfree_peripheral/SEEKFREE_OLED.c:218
    assert((Y_WIDTH/8)>y);
    173a:	479d                	li	a5,7
    173c:	04b7e263          	bltu	a5,a1,1780 <oled_set_pos+0x58>
F:\SCHOOL\文件\智能车\全向组\RTTThreadCH32V103\camCoreWithRTOS\obj/../Libraries/seekfree_peripheral/SEEKFREE_OLED.c:220
    
    oled_wrcmd(0xb0+y);
    1740:	fb058593          	addi	a1,a1,-80
    1744:	0ff5f513          	andi	a0,a1,255
    1748:	3771                	jal	16d4 <oled_wrcmd>
F:\SCHOOL\文件\智能车\全向组\RTTThreadCH32V103\camCoreWithRTOS\obj/../Libraries/seekfree_peripheral/SEEKFREE_OLED.c:221
    oled_wrcmd(((x&0xf0)>>4)|0x10);
    174a:	00445513          	srli	a0,s0,0x4
    174e:	01056513          	ori	a0,a0,16
    1752:	3749                	jal	16d4 <oled_wrcmd>
F:\SCHOOL\文件\智能车\全向组\RTTThreadCH32V103\camCoreWithRTOS\obj/../Libraries/seekfree_peripheral/SEEKFREE_OLED.c:222
    oled_wrcmd((x&0x0f)|0x00);
    1754:	00f47513          	andi	a0,s0,15
    1758:	3fb5                	jal	16d4 <oled_wrcmd>
F:\SCHOOL\文件\智能车\全向组\RTTThreadCH32V103\camCoreWithRTOS\obj/../Libraries/seekfree_peripheral/SEEKFREE_OLED.c:223
}
    175a:	40b2                	lw	ra,12(sp)
    175c:	4422                	lw	s0,8(sp)
    175e:	0141                	addi	sp,sp,16
    1760:	8082                	ret
F:\SCHOOL\文件\智能车\全向组\RTTThreadCH32V103\camCoreWithRTOS\obj/../Libraries/seekfree_peripheral/SEEKFREE_OLED.c:217 (discriminator 1)
    assert(X_WIDTH>x);      //参数断言，进入断言标志参数超出范围
    1762:	000076b7          	lui	a3,0x7
    1766:	b0468693          	addi	a3,a3,-1276 # 6b04 <__func__.3175+0x10>
    176a:	661d                	lui	a2,0x7
    176c:	af460613          	addi	a2,a2,-1292 # 6af4 <__func__.3175>
    1770:	0d900593          	li	a1,217
    1774:	00007537          	lui	a0,0x7
    1778:	b1050513          	addi	a0,a0,-1264 # 6b10 <__func__.3175+0x1c>
    177c:	11d030ef          	jal	ra,5098 <__assert_func>
F:\SCHOOL\文件\智能车\全向组\RTTThreadCH32V103\camCoreWithRTOS\obj/../Libraries/seekfree_peripheral/SEEKFREE_OLED.c:218 (discriminator 1)
    assert((Y_WIDTH/8)>y);
    1780:	000076b7          	lui	a3,0x7
    1784:	b4468693          	addi	a3,a3,-1212 # 6b44 <__func__.3175+0x50>
    1788:	661d                	lui	a2,0x7
    178a:	af460613          	addi	a2,a2,-1292 # 6af4 <__func__.3175>
    178e:	0da00593          	li	a1,218
    1792:	00007537          	lui	a0,0x7
    1796:	b1050513          	addi	a0,a0,-1264 # 6b10 <__func__.3175+0x1c>
    179a:	0ff030ef          	jal	ra,5098 <__assert_func>

0000179e <oled_fill>:
oled_fill():
F:\SCHOOL\文件\智能车\全向组\RTTThreadCH32V103\camCoreWithRTOS\obj/../Libraries/seekfree_peripheral/SEEKFREE_OLED.c:233
//  @return     void
//  @since      v1.0
//  Sample usage:			
//-------------------------------------------------------------------------------------------------------------------
void oled_fill(uint8 bmp_data)
{
    179e:	1101                	addi	sp,sp,-32
    17a0:	ce06                	sw	ra,28(sp)
    17a2:	cc22                	sw	s0,24(sp)
    17a4:	ca26                	sw	s1,20(sp)
    17a6:	c84a                	sw	s2,16(sp)
    17a8:	c64e                	sw	s3,12(sp)
    17aa:	84aa                	mv	s1,a0
    17ac:	0b000913          	li	s2,176
F:\SCHOOL\文件\智能车\全向组\RTTThreadCH32V103\camCoreWithRTOS\obj/../Libraries/seekfree_peripheral/SEEKFREE_OLED.c:236
	uint8 y,x;
	
	for(y=0;y<8;y++)
    17b0:	0b800993          	li	s3,184
F:\SCHOOL\文件\智能车\全向组\RTTThreadCH32V103\camCoreWithRTOS\obj/../Libraries/seekfree_peripheral/SEEKFREE_OLED.c:238
	{
		oled_wrcmd(0xb0+y);
    17b4:	854a                	mv	a0,s2
    17b6:	3f39                	jal	16d4 <oled_wrcmd>
F:\SCHOOL\文件\智能车\全向组\RTTThreadCH32V103\camCoreWithRTOS\obj/../Libraries/seekfree_peripheral/SEEKFREE_OLED.c:239
		oled_wrcmd(0x01);
    17b8:	4505                	li	a0,1
    17ba:	3f29                	jal	16d4 <oled_wrcmd>
F:\SCHOOL\文件\智能车\全向组\RTTThreadCH32V103\camCoreWithRTOS\obj/../Libraries/seekfree_peripheral/SEEKFREE_OLED.c:240
		oled_wrcmd(0x10);
    17bc:	4541                	li	a0,16
    17be:	3f19                	jal	16d4 <oled_wrcmd>
    17c0:	08000413          	li	s0,128
F:\SCHOOL\文件\智能车\全向组\RTTThreadCH32V103\camCoreWithRTOS\obj/../Libraries/seekfree_peripheral/SEEKFREE_OLED.c:241 (discriminator 3)
		for(x=0;x<X_WIDTH;x++)	oled_wrdat(bmp_data); 
    17c4:	8526                	mv	a0,s1
    17c6:	3d6d                	jal	1680 <oled_wrdat>
    17c8:	147d                	addi	s0,s0,-1
    17ca:	fc6d                	bnez	s0,17c4 <oled_fill+0x26>
    17cc:	0905                	addi	s2,s2,1
    17ce:	0ff97913          	andi	s2,s2,255
F:\SCHOOL\文件\智能车\全向组\RTTThreadCH32V103\camCoreWithRTOS\obj/../Libraries/seekfree_peripheral/SEEKFREE_OLED.c:236 (discriminator 2)
	for(y=0;y<8;y++)
    17d2:	ff3911e3          	bne	s2,s3,17b4 <oled_fill+0x16>
F:\SCHOOL\文件\智能车\全向组\RTTThreadCH32V103\camCoreWithRTOS\obj/../Libraries/seekfree_peripheral/SEEKFREE_OLED.c:243
	}
}
    17d6:	40f2                	lw	ra,28(sp)
    17d8:	4462                	lw	s0,24(sp)
    17da:	44d2                	lw	s1,20(sp)
    17dc:	4942                	lw	s2,16(sp)
    17de:	49b2                	lw	s3,12(sp)
    17e0:	6105                	addi	sp,sp,32
    17e2:	8082                	ret

000017e4 <oled_init>:
oled_init():
F:\SCHOOL\文件\智能车\全向组\RTTThreadCH32V103\camCoreWithRTOS\obj/../Libraries/seekfree_peripheral/SEEKFREE_OLED.c:156
{
    17e4:	1141                	addi	sp,sp,-16
    17e6:	c606                	sw	ra,12(sp)
    17e8:	c422                	sw	s0,8(sp)
    17ea:	c226                	sw	s1,4(sp)
F:\SCHOOL\文件\智能车\全向组\RTTThreadCH32V103\camCoreWithRTOS\obj/../Libraries/seekfree_peripheral/SEEKFREE_OLED.c:157
	gpio_init (OLED_SCL_PIN, GPO,1,GPIO_PIN_CONFIG);
    17ec:	31000693          	li	a3,784
    17f0:	4605                	li	a2,1
    17f2:	4585                	li	a1,1
    17f4:	4515                	li	a0,5
    17f6:	241d                	jal	1a1c <gpio_init>
F:\SCHOOL\文件\智能车\全向组\RTTThreadCH32V103\camCoreWithRTOS\obj/../Libraries/seekfree_peripheral/SEEKFREE_OLED.c:158
    gpio_init (OLED_SDA_PIN, GPO,0,GPIO_PIN_CONFIG);
    17f8:	31000693          	li	a3,784
    17fc:	4601                	li	a2,0
    17fe:	4585                	li	a1,1
    1800:	451d                	li	a0,7
    1802:	2c29                	jal	1a1c <gpio_init>
F:\SCHOOL\文件\智能车\全向组\RTTThreadCH32V103\camCoreWithRTOS\obj/../Libraries/seekfree_peripheral/SEEKFREE_OLED.c:159
    gpio_init (OLED_RST_PIN, GPO,1,GPIO_PIN_CONFIG);
    1804:	31000693          	li	a3,784
    1808:	4605                	li	a2,1
    180a:	4585                	li	a1,1
    180c:	04d00513          	li	a0,77
    1810:	2431                	jal	1a1c <gpio_init>
F:\SCHOOL\文件\智能车\全向组\RTTThreadCH32V103\camCoreWithRTOS\obj/../Libraries/seekfree_peripheral/SEEKFREE_OLED.c:160
    gpio_init (OLED_DC_PIN , GPO,1,GPIO_PIN_CONFIG);
    1812:	31000693          	li	a3,784
    1816:	4605                	li	a2,1
    1818:	4585                	li	a1,1
    181a:	04e00513          	li	a0,78
    181e:	2afd                	jal	1a1c <gpio_init>
F:\SCHOOL\文件\智能车\全向组\RTTThreadCH32V103\camCoreWithRTOS\obj/../Libraries/seekfree_peripheral/SEEKFREE_OLED.c:161
    gpio_init (OLED_CS_PIN , GPO,1,GPIO_PIN_CONFIG);
    1820:	31000693          	li	a3,784
    1824:	4605                	li	a2,1
    1826:	4585                	li	a1,1
    1828:	04f00513          	li	a0,79
    182c:	2ac5                	jal	1a1c <gpio_init>
F:\SCHOOL\文件\智能车\全向组\RTTThreadCH32V103\camCoreWithRTOS\obj/../Libraries/seekfree_peripheral/SEEKFREE_OLED.c:163
	OLED_SCL(1);
    182e:	679d                	lui	a5,0x7
    1830:	b547a703          	lw	a4,-1196(a5) # 6b54 <GPION>
    1834:	02000693          	li	a3,32
    1838:	cb14                	sw	a3,16(a4)
F:\SCHOOL\文件\智能车\全向组\RTTThreadCH32V103\camCoreWithRTOS\obj/../Libraries/seekfree_peripheral/SEEKFREE_OLED.c:164
	OLED_RST(0);
    183a:	b5478793          	addi	a5,a5,-1196
    183e:	4780                	lw	s0,8(a5)
    1840:	6489                	lui	s1,0x2
    1842:	c844                	sw	s1,20(s0)
F:\SCHOOL\文件\智能车\全向组\RTTThreadCH32V103\camCoreWithRTOS\obj/../Libraries/seekfree_peripheral/SEEKFREE_OLED.c:165
	systick_delay_ms(50);
    1844:	03200513          	li	a0,50
    1848:	4581                	li	a1,0
    184a:	2365                	jal	1df2 <systick_delay2>
F:\SCHOOL\文件\智能车\全向组\RTTThreadCH32V103\camCoreWithRTOS\obj/../Libraries/seekfree_peripheral/SEEKFREE_OLED.c:166
	OLED_RST(1);
    184c:	c804                	sw	s1,16(s0)
F:\SCHOOL\文件\智能车\全向组\RTTThreadCH32V103\camCoreWithRTOS\obj/../Libraries/seekfree_peripheral/SEEKFREE_OLED.c:168
	oled_wrcmd(0xae);//--turn off oled panel
    184e:	0ae00513          	li	a0,174
    1852:	3549                	jal	16d4 <oled_wrcmd>
F:\SCHOOL\文件\智能车\全向组\RTTThreadCH32V103\camCoreWithRTOS\obj/../Libraries/seekfree_peripheral/SEEKFREE_OLED.c:169
	oled_wrcmd(0x00);//---set low column address
    1854:	4501                	li	a0,0
    1856:	3dbd                	jal	16d4 <oled_wrcmd>
F:\SCHOOL\文件\智能车\全向组\RTTThreadCH32V103\camCoreWithRTOS\obj/../Libraries/seekfree_peripheral/SEEKFREE_OLED.c:170
	oled_wrcmd(0x10);//---set high column address
    1858:	4541                	li	a0,16
    185a:	3dad                	jal	16d4 <oled_wrcmd>
F:\SCHOOL\文件\智能车\全向组\RTTThreadCH32V103\camCoreWithRTOS\obj/../Libraries/seekfree_peripheral/SEEKFREE_OLED.c:171
	oled_wrcmd(0x40);//--set start line address  Set Mapping RAM Display Start Line (0x00~0x3F)
    185c:	04000513          	li	a0,64
    1860:	3d95                	jal	16d4 <oled_wrcmd>
F:\SCHOOL\文件\智能车\全向组\RTTThreadCH32V103\camCoreWithRTOS\obj/../Libraries/seekfree_peripheral/SEEKFREE_OLED.c:172
	oled_wrcmd(0x81);//--set contrast control register
    1862:	08100513          	li	a0,129
    1866:	35bd                	jal	16d4 <oled_wrcmd>
F:\SCHOOL\文件\智能车\全向组\RTTThreadCH32V103\camCoreWithRTOS\obj/../Libraries/seekfree_peripheral/SEEKFREE_OLED.c:173
	oled_wrcmd(Brightness); // Set SEG Output Current Brightness
    1868:	07f00513          	li	a0,127
    186c:	35a5                	jal	16d4 <oled_wrcmd>
F:\SCHOOL\文件\智能车\全向组\RTTThreadCH32V103\camCoreWithRTOS\obj/../Libraries/seekfree_peripheral/SEEKFREE_OLED.c:179
    oled_wrcmd(0xa0);//--Set SEG/Column Mapping     0xa0左右反置 0xa1正常
    186e:	0a000513          	li	a0,160
    1872:	358d                	jal	16d4 <oled_wrcmd>
F:\SCHOOL\文件\智能车\全向组\RTTThreadCH32V103\camCoreWithRTOS\obj/../Libraries/seekfree_peripheral/SEEKFREE_OLED.c:180
	oled_wrcmd(0xc0);//Set COM/Row Scan Direction   0xc0上下反置 0xc8正常
    1874:	0c000513          	li	a0,192
    1878:	3db1                	jal	16d4 <oled_wrcmd>
F:\SCHOOL\文件\智能车\全向组\RTTThreadCH32V103\camCoreWithRTOS\obj/../Libraries/seekfree_peripheral/SEEKFREE_OLED.c:183
	oled_wrcmd(0xa6);//--set normal display
    187a:	0a600513          	li	a0,166
    187e:	3d99                	jal	16d4 <oled_wrcmd>
F:\SCHOOL\文件\智能车\全向组\RTTThreadCH32V103\camCoreWithRTOS\obj/../Libraries/seekfree_peripheral/SEEKFREE_OLED.c:184
	oled_wrcmd(0xa8);//--set multiplex ratio(1 to 64)
    1880:	0a800513          	li	a0,168
    1884:	3d81                	jal	16d4 <oled_wrcmd>
F:\SCHOOL\文件\智能车\全向组\RTTThreadCH32V103\camCoreWithRTOS\obj/../Libraries/seekfree_peripheral/SEEKFREE_OLED.c:185
	oled_wrcmd(0x3f);//--1/64 duty
    1886:	03f00513          	li	a0,63
    188a:	35a9                	jal	16d4 <oled_wrcmd>
F:\SCHOOL\文件\智能车\全向组\RTTThreadCH32V103\camCoreWithRTOS\obj/../Libraries/seekfree_peripheral/SEEKFREE_OLED.c:186
	oled_wrcmd(0xd3);//-set display offset	Shift Mapping RAM Counter (0x00~0x3F)
    188c:	0d300513          	li	a0,211
    1890:	3591                	jal	16d4 <oled_wrcmd>
F:\SCHOOL\文件\智能车\全向组\RTTThreadCH32V103\camCoreWithRTOS\obj/../Libraries/seekfree_peripheral/SEEKFREE_OLED.c:187
	oled_wrcmd(0x00);//-not offset
    1892:	4501                	li	a0,0
    1894:	3581                	jal	16d4 <oled_wrcmd>
F:\SCHOOL\文件\智能车\全向组\RTTThreadCH32V103\camCoreWithRTOS\obj/../Libraries/seekfree_peripheral/SEEKFREE_OLED.c:188
	oled_wrcmd(0xd5);//--set display clock divide ratio/oscillator frequency
    1896:	0d500513          	li	a0,213
    189a:	3d2d                	jal	16d4 <oled_wrcmd>
F:\SCHOOL\文件\智能车\全向组\RTTThreadCH32V103\camCoreWithRTOS\obj/../Libraries/seekfree_peripheral/SEEKFREE_OLED.c:189
	oled_wrcmd(0x80);//--set divide ratio, Set Clock as 100 Frames/Sec
    189c:	08000513          	li	a0,128
    18a0:	3d15                	jal	16d4 <oled_wrcmd>
F:\SCHOOL\文件\智能车\全向组\RTTThreadCH32V103\camCoreWithRTOS\obj/../Libraries/seekfree_peripheral/SEEKFREE_OLED.c:190
	oled_wrcmd(0xd9);//--set pre-charge period
    18a2:	0d900513          	li	a0,217
    18a6:	353d                	jal	16d4 <oled_wrcmd>
F:\SCHOOL\文件\智能车\全向组\RTTThreadCH32V103\camCoreWithRTOS\obj/../Libraries/seekfree_peripheral/SEEKFREE_OLED.c:191
	oled_wrcmd(0xf1);//Set Pre-Charge as 15 Clocks & Discharge as 1 Clock
    18a8:	0f100513          	li	a0,241
    18ac:	3525                	jal	16d4 <oled_wrcmd>
F:\SCHOOL\文件\智能车\全向组\RTTThreadCH32V103\camCoreWithRTOS\obj/../Libraries/seekfree_peripheral/SEEKFREE_OLED.c:192
	oled_wrcmd(0xda);//--set com pins hardware configuration
    18ae:	0da00513          	li	a0,218
    18b2:	350d                	jal	16d4 <oled_wrcmd>
F:\SCHOOL\文件\智能车\全向组\RTTThreadCH32V103\camCoreWithRTOS\obj/../Libraries/seekfree_peripheral/SEEKFREE_OLED.c:193
	oled_wrcmd(0x12);
    18b4:	4549                	li	a0,18
    18b6:	3d39                	jal	16d4 <oled_wrcmd>
F:\SCHOOL\文件\智能车\全向组\RTTThreadCH32V103\camCoreWithRTOS\obj/../Libraries/seekfree_peripheral/SEEKFREE_OLED.c:194
	oled_wrcmd(0xdb);//--set vcomh
    18b8:	0db00513          	li	a0,219
    18bc:	3d21                	jal	16d4 <oled_wrcmd>
F:\SCHOOL\文件\智能车\全向组\RTTThreadCH32V103\camCoreWithRTOS\obj/../Libraries/seekfree_peripheral/SEEKFREE_OLED.c:195
	oled_wrcmd(0x40);//Set VCOM Deselect Level
    18be:	04000513          	li	a0,64
    18c2:	3d09                	jal	16d4 <oled_wrcmd>
F:\SCHOOL\文件\智能车\全向组\RTTThreadCH32V103\camCoreWithRTOS\obj/../Libraries/seekfree_peripheral/SEEKFREE_OLED.c:196
	oled_wrcmd(0x20);//-Set Page Addressing Mode (0x00/0x01/0x02)
    18c4:	02000513          	li	a0,32
    18c8:	3531                	jal	16d4 <oled_wrcmd>
F:\SCHOOL\文件\智能车\全向组\RTTThreadCH32V103\camCoreWithRTOS\obj/../Libraries/seekfree_peripheral/SEEKFREE_OLED.c:197
	oled_wrcmd(0x02);//
    18ca:	4509                	li	a0,2
    18cc:	3521                	jal	16d4 <oled_wrcmd>
F:\SCHOOL\文件\智能车\全向组\RTTThreadCH32V103\camCoreWithRTOS\obj/../Libraries/seekfree_peripheral/SEEKFREE_OLED.c:198
	oled_wrcmd(0x8d);//--set Charge Pump enable/disable
    18ce:	08d00513          	li	a0,141
    18d2:	3509                	jal	16d4 <oled_wrcmd>
F:\SCHOOL\文件\智能车\全向组\RTTThreadCH32V103\camCoreWithRTOS\obj/../Libraries/seekfree_peripheral/SEEKFREE_OLED.c:199
	oled_wrcmd(0x14);//--set(0x10) disable
    18d4:	4551                	li	a0,20
    18d6:	3bfd                	jal	16d4 <oled_wrcmd>
F:\SCHOOL\文件\智能车\全向组\RTTThreadCH32V103\camCoreWithRTOS\obj/../Libraries/seekfree_peripheral/SEEKFREE_OLED.c:200
	oled_wrcmd(0xa4);// Disable Entire Display On (0xa4/0xa5)
    18d8:	0a400513          	li	a0,164
    18dc:	3be5                	jal	16d4 <oled_wrcmd>
F:\SCHOOL\文件\智能车\全向组\RTTThreadCH32V103\camCoreWithRTOS\obj/../Libraries/seekfree_peripheral/SEEKFREE_OLED.c:201
	oled_wrcmd(0xa6);// Disable Inverse Display On (0xa6/a7)
    18de:	0a600513          	li	a0,166
    18e2:	3bcd                	jal	16d4 <oled_wrcmd>
F:\SCHOOL\文件\智能车\全向组\RTTThreadCH32V103\camCoreWithRTOS\obj/../Libraries/seekfree_peripheral/SEEKFREE_OLED.c:202
	oled_wrcmd(0xaf);//--turn on oled panel
    18e4:	0af00513          	li	a0,175
    18e8:	33f5                	jal	16d4 <oled_wrcmd>
F:\SCHOOL\文件\智能车\全向组\RTTThreadCH32V103\camCoreWithRTOS\obj/../Libraries/seekfree_peripheral/SEEKFREE_OLED.c:203
	oled_fill(0x00);  //初始清屏
    18ea:	4501                	li	a0,0
    18ec:	3d4d                	jal	179e <oled_fill>
F:\SCHOOL\文件\智能车\全向组\RTTThreadCH32V103\camCoreWithRTOS\obj/../Libraries/seekfree_peripheral/SEEKFREE_OLED.c:204
	oled_set_pos(0,0);
    18ee:	4581                	li	a1,0
    18f0:	4501                	li	a0,0
    18f2:	3d1d                	jal	1728 <oled_set_pos>
F:\SCHOOL\文件\智能车\全向组\RTTThreadCH32V103\camCoreWithRTOS\obj/../Libraries/seekfree_peripheral/SEEKFREE_OLED.c:205
}
    18f4:	40b2                	lw	ra,12(sp)
    18f6:	4422                	lw	s0,8(sp)
    18f8:	4492                	lw	s1,4(sp)
    18fa:	0141                	addi	sp,sp,16
    18fc:	8082                	ret

000018fe <oled_p6x8str>:
oled_p6x8str():
F:\SCHOOL\文件\智能车\全向组\RTTThreadCH32V103\camCoreWithRTOS\obj/../Libraries/seekfree_peripheral/SEEKFREE_OLED.c:293
//  @return     void
//  @since      v1.0
//  Sample usage:			
//-------------------------------------------------------------------------------------------------------------------
void oled_p6x8str(uint8 x,uint8 y,const int8 ch[])
{
    18fe:	7179                	addi	sp,sp,-48
    1900:	d606                	sw	ra,44(sp)
    1902:	d422                	sw	s0,40(sp)
    1904:	d226                	sw	s1,36(sp)
    1906:	d04a                	sw	s2,32(sp)
    1908:	ce4e                	sw	s3,28(sp)
    190a:	cc52                	sw	s4,24(sp)
    190c:	ca56                	sw	s5,20(sp)
    190e:	c85a                	sw	s6,16(sp)
    1910:	c65e                	sw	s7,12(sp)
    1912:	c462                	sw	s8,8(sp)
    1914:	c266                	sw	s9,4(sp)
F:\SCHOOL\文件\智能车\全向组\RTTThreadCH32V103\camCoreWithRTOS\obj/../Libraries/seekfree_peripheral/SEEKFREE_OLED.c:295
	uint8 c=0,i=0,j=0;
	while (ch[j]!='\0')
    1916:	00060483          	lb	s1,0(a2)
    191a:	c0bd                	beqz	s1,1980 <oled_p6x8str+0x82>
    191c:	892a                	mv	s2,a0
    191e:	8b2e                	mv	s6,a1
    1920:	8bb2                	mv	s7,a2
F:\SCHOOL\文件\智能车\全向组\RTTThreadCH32V103\camCoreWithRTOS\obj/../Libraries/seekfree_peripheral/SEEKFREE_OLED.c:294
	uint8 c=0,i=0,j=0;
    1922:	4a81                	li	s5,0
F:\SCHOOL\文件\智能车\全向组\RTTThreadCH32V103\camCoreWithRTOS\obj/../Libraries/seekfree_peripheral/SEEKFREE_OLED.c:298
	{
	  	c =ch[j]-32;
	  	if(x>126){x=0;y++;}
    1924:	07e00c13          	li	s8,126
    1928:	4c81                	li	s9,0
F:\SCHOOL\文件\智能车\全向组\RTTThreadCH32V103\camCoreWithRTOS\obj/../Libraries/seekfree_peripheral/SEEKFREE_OLED.c:300
	  	oled_set_pos(x,y);
	  	for(i=0;i<6;i++)	oled_wrdat(oled_6x8[c][i]);
    192a:	699d                	lui	s3,0x7
    192c:	8cc98993          	addi	s3,s3,-1844 # 68cc <oled_6x8>
    1930:	4a19                	li	s4,6
    1932:	a82d                	j	196c <oled_p6x8str+0x6e>
F:\SCHOOL\文件\智能车\全向组\RTTThreadCH32V103\camCoreWithRTOS\obj/../Libraries/seekfree_peripheral/SEEKFREE_OLED.c:299
	  	oled_set_pos(x,y);
    1934:	85da                	mv	a1,s6
    1936:	854a                	mv	a0,s2
    1938:	3bc5                	jal	1728 <oled_set_pos>
F:\SCHOOL\文件\智能车\全向组\RTTThreadCH32V103\camCoreWithRTOS\obj/../Libraries/seekfree_peripheral/SEEKFREE_OLED.c:300
	  	for(i=0;i<6;i++)	oled_wrdat(oled_6x8[c][i]);
    193a:	00141493          	slli	s1,s0,0x1
    193e:	94a2                	add	s1,s1,s0
    1940:	0486                	slli	s1,s1,0x1
F:\SCHOOL\文件\智能车\全向组\RTTThreadCH32V103\camCoreWithRTOS\obj/../Libraries/seekfree_peripheral/SEEKFREE_OLED.c:299
	  	oled_set_pos(x,y);
    1942:	4401                	li	s0,0
F:\SCHOOL\文件\智能车\全向组\RTTThreadCH32V103\camCoreWithRTOS\obj/../Libraries/seekfree_peripheral/SEEKFREE_OLED.c:300 (discriminator 3)
	  	for(i=0;i<6;i++)	oled_wrdat(oled_6x8[c][i]);
    1944:	008487b3          	add	a5,s1,s0
    1948:	97ce                	add	a5,a5,s3
    194a:	0007c503          	lbu	a0,0(a5)
    194e:	3b0d                	jal	1680 <oled_wrdat>
    1950:	0405                	addi	s0,s0,1
    1952:	ff4419e3          	bne	s0,s4,1944 <oled_p6x8str+0x46>
F:\SCHOOL\文件\智能车\全向组\RTTThreadCH32V103\camCoreWithRTOS\obj/../Libraries/seekfree_peripheral/SEEKFREE_OLED.c:301
	  	x+=6;
    1956:	0919                	addi	s2,s2,6
    1958:	0ff97913          	andi	s2,s2,255
F:\SCHOOL\文件\智能车\全向组\RTTThreadCH32V103\camCoreWithRTOS\obj/../Libraries/seekfree_peripheral/SEEKFREE_OLED.c:302
	  	j++;
    195c:	0a85                	addi	s5,s5,1
    195e:	0ffafa93          	andi	s5,s5,255
F:\SCHOOL\文件\智能车\全向组\RTTThreadCH32V103\camCoreWithRTOS\obj/../Libraries/seekfree_peripheral/SEEKFREE_OLED.c:295
	while (ch[j]!='\0')
    1962:	015b87b3          	add	a5,s7,s5
    1966:	00078483          	lb	s1,0(a5)
    196a:	c899                	beqz	s1,1980 <oled_p6x8str+0x82>
F:\SCHOOL\文件\智能车\全向组\RTTThreadCH32V103\camCoreWithRTOS\obj/../Libraries/seekfree_peripheral/SEEKFREE_OLED.c:297
	  	c =ch[j]-32;
    196c:	1481                	addi	s1,s1,-32
    196e:	0ff4f413          	andi	s0,s1,255
F:\SCHOOL\文件\智能车\全向组\RTTThreadCH32V103\camCoreWithRTOS\obj/../Libraries/seekfree_peripheral/SEEKFREE_OLED.c:298
	  	if(x>126){x=0;y++;}
    1972:	fd2c71e3          	bgeu	s8,s2,1934 <oled_p6x8str+0x36>
F:\SCHOOL\文件\智能车\全向组\RTTThreadCH32V103\camCoreWithRTOS\obj/../Libraries/seekfree_peripheral/SEEKFREE_OLED.c:298 (discriminator 1)
    1976:	0b05                	addi	s6,s6,1
    1978:	0ffb7b13          	andi	s6,s6,255
    197c:	8966                	mv	s2,s9
    197e:	bf5d                	j	1934 <oled_p6x8str+0x36>
F:\SCHOOL\文件\智能车\全向组\RTTThreadCH32V103\camCoreWithRTOS\obj/../Libraries/seekfree_peripheral/SEEKFREE_OLED.c:304
	}
}
    1980:	50b2                	lw	ra,44(sp)
    1982:	5422                	lw	s0,40(sp)
    1984:	5492                	lw	s1,36(sp)
    1986:	5902                	lw	s2,32(sp)
    1988:	49f2                	lw	s3,28(sp)
    198a:	4a62                	lw	s4,24(sp)
    198c:	4ad2                	lw	s5,20(sp)
    198e:	4b42                	lw	s6,16(sp)
    1990:	4bb2                	lw	s7,12(sp)
    1992:	4c22                	lw	s8,8(sp)
    1994:	4c92                	lw	s9,4(sp)
    1996:	6145                	addi	sp,sp,48
    1998:	8082                	ret

0000199a <ov7725_cof_uart_interrupt>:
ov7725_cof_uart_interrupt():
F:\SCHOOL\文件\智能车\全向组\RTTThreadCH32V103\camCoreWithRTOS\obj/../Libraries/seekfree_peripheral/SEEKFREE_UART_7725.c:81
//  Sample usage:
//  @note       该函数在ISR文件 串口3中断程序被调用
//-------------------------------------------------------------------------------------------------------------------

void ov7725_cof_uart_interrupt(void)
{
    199a:	1141                	addi	sp,sp,-16
    199c:	c606                	sw	ra,12(sp)
    199e:	c422                	sw	s0,8(sp)
F:\SCHOOL\文件\智能车\全向组\RTTThreadCH32V103\camCoreWithRTOS\obj/../Libraries/seekfree_peripheral/SEEKFREE_UART_7725.c:82
    uart_query(OV7725_UART_COF_UART, &ov7725_uart_receive[ov7725_uart_receive_num]);
    19a0:	84418413          	addi	s0,gp,-1980 # 200000f4 <ov7725_uart_receive_num>
    19a4:	00044583          	lbu	a1,0(s0)
    19a8:	84018793          	addi	a5,gp,-1984 # 200000f0 <ov7725_uart_receive>
    19ac:	95be                	add	a1,a1,a5
    19ae:	4505                	li	a0,1
    19b0:	2569                	jal	203a <uart_query>
F:\SCHOOL\文件\智能车\全向组\RTTThreadCH32V103\camCoreWithRTOS\obj/../Libraries/seekfree_peripheral/SEEKFREE_UART_7725.c:83
    ov7725_uart_receive_num++;
    19b2:	00044783          	lbu	a5,0(s0)
    19b6:	0785                	addi	a5,a5,1
    19b8:	0ff7f793          	andi	a5,a5,255
    19bc:	00f40023          	sb	a5,0(s0)
F:\SCHOOL\文件\智能车\全向组\RTTThreadCH32V103\camCoreWithRTOS\obj/../Libraries/seekfree_peripheral/SEEKFREE_UART_7725.c:85

    if(1==ov7725_uart_receive_num && 0XA5!=ov7725_uart_receive[0])  ov7725_uart_receive_num = 0;
    19c0:	4705                	li	a4,1
    19c2:	00e78e63          	beq	a5,a4,19de <ov7725_cof_uart_interrupt+0x44>
F:\SCHOOL\文件\智能车\全向组\RTTThreadCH32V103\camCoreWithRTOS\obj/../Libraries/seekfree_peripheral/SEEKFREE_UART_7725.c:86
    if(3 == ov7725_uart_receive_num)
    19c6:	470d                	li	a4,3
    19c8:	00e79763          	bne	a5,a4,19d6 <ov7725_cof_uart_interrupt+0x3c>
F:\SCHOOL\文件\智能车\全向组\RTTThreadCH32V103\camCoreWithRTOS\obj/../Libraries/seekfree_peripheral/SEEKFREE_UART_7725.c:88
    {
        ov7725_uart_receive_num = 0;
    19cc:	84018223          	sb	zero,-1980(gp) # 200000f4 <ov7725_uart_receive_num>
F:\SCHOOL\文件\智能车\全向组\RTTThreadCH32V103\camCoreWithRTOS\obj/../Libraries/seekfree_peripheral/SEEKFREE_UART_7725.c:89
        ov7725_uart_receive_flag = 1;
    19d0:	4705                	li	a4,1
    19d2:	84e181a3          	sb	a4,-1981(gp) # 200000f3 <ov7725_uart_receive_flag>
F:\SCHOOL\文件\智能车\全向组\RTTThreadCH32V103\camCoreWithRTOS\obj/../Libraries/seekfree_peripheral/SEEKFREE_UART_7725.c:91
    }
}
    19d6:	40b2                	lw	ra,12(sp)
    19d8:	4422                	lw	s0,8(sp)
    19da:	0141                	addi	sp,sp,16
    19dc:	8082                	ret
F:\SCHOOL\文件\智能车\全向组\RTTThreadCH32V103\camCoreWithRTOS\obj/../Libraries/seekfree_peripheral/SEEKFREE_UART_7725.c:85 (discriminator 1)
    if(1==ov7725_uart_receive_num && 0XA5!=ov7725_uart_receive[0])  ov7725_uart_receive_num = 0;
    19de:	8401c703          	lbu	a4,-1984(gp) # 200000f0 <ov7725_uart_receive>
    19e2:	0a500793          	li	a5,165
    19e6:	fef708e3          	beq	a4,a5,19d6 <ov7725_cof_uart_interrupt+0x3c>
F:\SCHOOL\文件\智能车\全向组\RTTThreadCH32V103\camCoreWithRTOS\obj/../Libraries/seekfree_peripheral/SEEKFREE_UART_7725.c:85 (discriminator 2)
    19ea:	84018223          	sb	zero,-1980(gp) # 200000f4 <ov7725_uart_receive_num>
    19ee:	b7e5                	j	19d6 <ov7725_cof_uart_interrupt+0x3c>

000019f0 <ov7725_uart_vsync>:
ov7725_uart_vsync():
F:\SCHOOL\文件\智能车\全向组\RTTThreadCH32V103\camCoreWithRTOS\obj/../Libraries/seekfree_peripheral/SEEKFREE_UART_7725.c:103
//  Sample usage:                   在isr.c里面先创建对应的中断函数，然后调用该函数(之后别忘记清除中断标志位)
//-------------------------------------------------------------------------------------------------------------------

void ov7725_uart_vsync(void)
{
    OV7725_UART_DMA_CH->CNTR = OV7725_UART_SIZE;             //设置当前DMA传输的剩余数量，向下递减，该寄存器只能在DMA不工作时更改。
    19f0:	400207b7          	lui	a5,0x40020
    19f4:	6705                	lui	a4,0x1
    19f6:	96070713          	addi	a4,a4,-1696 # 960 <TIM3_IRQHandler+0x38>
    19fa:	c7b8                	sw	a4,72(a5)
F:\SCHOOL\文件\智能车\全向组\RTTThreadCH32V103\camCoreWithRTOS\obj/../Libraries/seekfree_peripheral/SEEKFREE_UART_7725.c:104
    OV7725_UART_DMA_CH->CFGR |= DMA_CFGR1_EN;                //开启DMA1
    19fc:	43f8                	lw	a4,68(a5)
    19fe:	00176713          	ori	a4,a4,1
    1a02:	c3f8                	sw	a4,68(a5)
F:\SCHOOL\文件\智能车\全向组\RTTThreadCH32V103\camCoreWithRTOS\obj/../Libraries/seekfree_peripheral/SEEKFREE_UART_7725.c:105
}
    1a04:	8082                	ret

00001a06 <ov7725_uart_dma>:
ov7725_uart_dma():
F:\SCHOOL\文件\智能车\全向组\RTTThreadCH32V103\camCoreWithRTOS\obj/../Libraries/seekfree_peripheral/SEEKFREE_UART_7725.c:117
//  @since      v1.0
//  Sample usage:                   在isr.c里面先创建对应的中断函数，然后调用该函数(之后别忘记清除中断标志位)
//-------------------------------------------------------------------------------------------------------------------
void ov7725_uart_dma(void)
{
    ov7725_uart_finish_flag = 1;                             //摄像头数据采集置1
    1a06:	4705                	li	a4,1
    1a08:	82e18ea3          	sb	a4,-1987(gp) # 200000ed <ov7725_uart_finish_flag>
F:\SCHOOL\文件\智能车\全向组\RTTThreadCH32V103\camCoreWithRTOS\obj/../Libraries/seekfree_peripheral/SEEKFREE_UART_7725.c:118
    OV7725_UART_DMA_CH->CFGR &= (uint16)(~DMA_CFGR1_EN);     //关闭DMA1
    1a0c:	400206b7          	lui	a3,0x40020
    1a10:	42fc                	lw	a5,68(a3)
    1a12:	6741                	lui	a4,0x10
    1a14:	1779                	addi	a4,a4,-2
    1a16:	8ff9                	and	a5,a5,a4
    1a18:	c2fc                	sw	a5,68(a3)
F:\SCHOOL\文件\智能车\全向组\RTTThreadCH32V103\camCoreWithRTOS\obj/../Libraries/seekfree_peripheral/SEEKFREE_UART_7725.c:119
}
    1a1a:	8082                	ret

00001a1c <gpio_init>:
gpio_init():
F:\SCHOOL\文件\智能车\全向组\RTTThreadCH32V103\camCoreWithRTOS\obj/../Libraries/seekfree_libraries/zf_gpio.c:46
    GPIO_InitTypeDef GPIO_InitStructure;
    uint8 io_group = (pin & 0xE0) >> 5;
    uint8 io_pin = pin & 0x1F;


    if(PIN_NULL == pin) return;
    1a1c:	08000713          	li	a4,128
    1a20:	10e50663          	beq	a0,a4,1b2c <gpio_init+0x110>
F:\SCHOOL\文件\智能车\全向组\RTTThreadCH32V103\camCoreWithRTOS\obj/../Libraries/seekfree_libraries/zf_gpio.c:40
{
    1a24:	7179                	addi	sp,sp,-48
    1a26:	d606                	sw	ra,44(sp)
    1a28:	d422                	sw	s0,40(sp)
    1a2a:	d226                	sw	s1,36(sp)
    1a2c:	d04a                	sw	s2,32(sp)
    1a2e:	ce4e                	sw	s3,28(sp)
    1a30:	cc52                	sw	s4,24(sp)
    1a32:	00555793          	srli	a5,a0,0x5
    1a36:	0077f913          	andi	s2,a5,7
    1a3a:	01f57413          	andi	s0,a0,31
    1a3e:	8a36                	mv	s4,a3
    1a40:	89b2                	mv	s3,a2
    1a42:	84ae                	mv	s1,a1
F:\SCHOOL\文件\智能车\全向组\RTTThreadCH32V103\camCoreWithRTOS\obj/../Libraries/seekfree_libraries/zf_gpio.c:48
    //GPIO总线使能
    if(0 == (pin >> 5))      RCC_APB2PeriphClockCmd(RCC_APB2Periph_GPIOA, ENABLE);
    1a44:	cb8d                	beqz	a5,1a76 <gpio_init+0x5a>
F:\SCHOOL\文件\智能车\全向组\RTTThreadCH32V103\camCoreWithRTOS\obj/../Libraries/seekfree_libraries/zf_gpio.c:49
    else if(1 == (pin >> 5)) RCC_APB2PeriphClockCmd(RCC_APB2Periph_GPIOB, ENABLE);
    1a46:	4705                	li	a4,1
    1a48:	06e78963          	beq	a5,a4,1aba <gpio_init+0x9e>
F:\SCHOOL\文件\智能车\全向组\RTTThreadCH32V103\camCoreWithRTOS\obj/../Libraries/seekfree_libraries/zf_gpio.c:50
    else if(2 == (pin >> 5)) RCC_APB2PeriphClockCmd(RCC_APB2Periph_GPIOC, ENABLE);
    1a4c:	4709                	li	a4,2
    1a4e:	06e78b63          	beq	a5,a4,1ac4 <gpio_init+0xa8>
F:\SCHOOL\文件\智能车\全向组\RTTThreadCH32V103\camCoreWithRTOS\obj/../Libraries/seekfree_libraries/zf_gpio.c:51
    else if(3 == (pin >> 5)) RCC_APB2PeriphClockCmd(RCC_APB2Periph_GPIOD, ENABLE);
    1a52:	470d                	li	a4,3
    1a54:	06e78d63          	beq	a5,a4,1ace <gpio_init+0xb2>
F:\SCHOOL\文件\智能车\全向组\RTTThreadCH32V103\camCoreWithRTOS\obj/../Libraries/seekfree_libraries/zf_gpio.c:52
    else if(4 == (pin >> 5)) RCC_APB2PeriphClockCmd(RCC_APB2Periph_GPIOE, ENABLE);
    1a58:	4711                	li	a4,4
    1a5a:	08e78063          	beq	a5,a4,1ada <gpio_init+0xbe>
F:\SCHOOL\文件\智能车\全向组\RTTThreadCH32V103\camCoreWithRTOS\obj/../Libraries/seekfree_libraries/zf_gpio.c:53
    else if(5 == (pin >> 5)) RCC_APB2PeriphClockCmd(RCC_APB2Periph_GPIOF, ENABLE);
    1a5e:	4715                	li	a4,5
    1a60:	08e78363          	beq	a5,a4,1ae6 <gpio_init+0xca>
F:\SCHOOL\文件\智能车\全向组\RTTThreadCH32V103\camCoreWithRTOS\obj/../Libraries/seekfree_libraries/zf_gpio.c:54
    else if(6 == (pin >> 5)) RCC_APB2PeriphClockCmd(RCC_APB2Periph_GPIOG, ENABLE);
    1a64:	4719                	li	a4,6
    1a66:	00e79c63          	bne	a5,a4,1a7e <gpio_init+0x62>
F:\SCHOOL\文件\智能车\全向组\RTTThreadCH32V103\camCoreWithRTOS\obj/../Libraries/seekfree_libraries/zf_gpio.c:54 (discriminator 1)
    1a6a:	4585                	li	a1,1
    1a6c:	10000513          	li	a0,256
    1a70:	82bff0ef          	jal	ra,129a <RCC_APB2PeriphClockCmd>
    1a74:	a029                	j	1a7e <gpio_init+0x62>
F:\SCHOOL\文件\智能车\全向组\RTTThreadCH32V103\camCoreWithRTOS\obj/../Libraries/seekfree_libraries/zf_gpio.c:48 (discriminator 1)
    if(0 == (pin >> 5))      RCC_APB2PeriphClockCmd(RCC_APB2Periph_GPIOA, ENABLE);
    1a76:	4585                	li	a1,1
    1a78:	4511                	li	a0,4
    1a7a:	821ff0ef          	jal	ra,129a <RCC_APB2PeriphClockCmd>
F:\SCHOOL\文件\智能车\全向组\RTTThreadCH32V103\camCoreWithRTOS\obj/../Libraries/seekfree_libraries/zf_gpio.c:58


    //设置引脚号
    GPIO_InitStructure.GPIO_Pin = (uint16)(1 << io_pin);
    1a7e:	4785                	li	a5,1
    1a80:	00879433          	sll	s0,a5,s0
    1a84:	0442                	slli	s0,s0,0x10
    1a86:	8041                	srli	s0,s0,0x10
    1a88:	00811223          	sh	s0,4(sp)
F:\SCHOOL\文件\智能车\全向组\RTTThreadCH32V103\camCoreWithRTOS\obj/../Libraries/seekfree_libraries/zf_gpio.c:60

    if(GPO == dir)
    1a8c:	06f48363          	beq	s1,a5,1af2 <gpio_init+0xd6>
F:\SCHOOL\文件\智能车\全向组\RTTThreadCH32V103\camCoreWithRTOS\obj/../Libraries/seekfree_libraries/zf_gpio.c:68
        if((uint16)pinconf >> 8 == 0) GPIO_InitStructure.GPIO_Speed = (GPIOSpeed_TypeDef)(GPIO_Speed_50MHz);  //防止没有填写这个参数,默认设置50Mhz
        else GPIO_InitStructure.GPIO_Speed = (GPIOSpeed_TypeDef)((uint16)pinconf >> 8);                       //已经填写了该参数。根据值来设置
    }

    //设置模式
    GPIO_InitStructure.GPIO_Mode = (GPIOMode_TypeDef)((uint16)pinconf & 0xff);
    1a90:	0ffa7693          	andi	a3,s4,255
    1a94:	c636                	sw	a3,12(sp)
F:\SCHOOL\文件\智能车\全向组\RTTThreadCH32V103\camCoreWithRTOS\obj/../Libraries/seekfree_libraries/zf_gpio.c:69
    GPIO_Init((GPIO_TypeDef *)(GPION[io_group]), &GPIO_InitStructure);
    1a96:	00291713          	slli	a4,s2,0x2
    1a9a:	679d                	lui	a5,0x7
    1a9c:	b5478793          	addi	a5,a5,-1196 # 6b54 <GPION>
    1aa0:	97ba                	add	a5,a5,a4
    1aa2:	004c                	addi	a1,sp,4
    1aa4:	4388                	lw	a0,0(a5)
    1aa6:	ce6ff0ef          	jal	ra,f8c <GPIO_Init>
F:\SCHOOL\文件\智能车\全向组\RTTThreadCH32V103\camCoreWithRTOS\obj/../Libraries/seekfree_libraries/zf_gpio.c:76
    if(GPO == dir)
    {
        //只有输出需要设置引脚状态
        GPIO_WriteBit((GPIO_TypeDef *)(GPION[io_group]), (uint16)(1 << io_pin), dat);
    }
}
    1aaa:	50b2                	lw	ra,44(sp)
    1aac:	5422                	lw	s0,40(sp)
    1aae:	5492                	lw	s1,36(sp)
    1ab0:	5902                	lw	s2,32(sp)
    1ab2:	49f2                	lw	s3,28(sp)
    1ab4:	4a62                	lw	s4,24(sp)
    1ab6:	6145                	addi	sp,sp,48
    1ab8:	8082                	ret
F:\SCHOOL\文件\智能车\全向组\RTTThreadCH32V103\camCoreWithRTOS\obj/../Libraries/seekfree_libraries/zf_gpio.c:49 (discriminator 1)
    else if(1 == (pin >> 5)) RCC_APB2PeriphClockCmd(RCC_APB2Periph_GPIOB, ENABLE);
    1aba:	4585                	li	a1,1
    1abc:	4521                	li	a0,8
    1abe:	fdcff0ef          	jal	ra,129a <RCC_APB2PeriphClockCmd>
    1ac2:	bf75                	j	1a7e <gpio_init+0x62>
F:\SCHOOL\文件\智能车\全向组\RTTThreadCH32V103\camCoreWithRTOS\obj/../Libraries/seekfree_libraries/zf_gpio.c:50 (discriminator 1)
    else if(2 == (pin >> 5)) RCC_APB2PeriphClockCmd(RCC_APB2Periph_GPIOC, ENABLE);
    1ac4:	4585                	li	a1,1
    1ac6:	4541                	li	a0,16
    1ac8:	fd2ff0ef          	jal	ra,129a <RCC_APB2PeriphClockCmd>
    1acc:	bf4d                	j	1a7e <gpio_init+0x62>
F:\SCHOOL\文件\智能车\全向组\RTTThreadCH32V103\camCoreWithRTOS\obj/../Libraries/seekfree_libraries/zf_gpio.c:51 (discriminator 1)
    else if(3 == (pin >> 5)) RCC_APB2PeriphClockCmd(RCC_APB2Periph_GPIOD, ENABLE);
    1ace:	4585                	li	a1,1
    1ad0:	02000513          	li	a0,32
    1ad4:	fc6ff0ef          	jal	ra,129a <RCC_APB2PeriphClockCmd>
    1ad8:	b75d                	j	1a7e <gpio_init+0x62>
F:\SCHOOL\文件\智能车\全向组\RTTThreadCH32V103\camCoreWithRTOS\obj/../Libraries/seekfree_libraries/zf_gpio.c:52 (discriminator 1)
    else if(4 == (pin >> 5)) RCC_APB2PeriphClockCmd(RCC_APB2Periph_GPIOE, ENABLE);
    1ada:	4585                	li	a1,1
    1adc:	04000513          	li	a0,64
    1ae0:	fbaff0ef          	jal	ra,129a <RCC_APB2PeriphClockCmd>
    1ae4:	bf69                	j	1a7e <gpio_init+0x62>
F:\SCHOOL\文件\智能车\全向组\RTTThreadCH32V103\camCoreWithRTOS\obj/../Libraries/seekfree_libraries/zf_gpio.c:53 (discriminator 1)
    else if(5 == (pin >> 5)) RCC_APB2PeriphClockCmd(RCC_APB2Periph_GPIOF, ENABLE);
    1ae6:	4585                	li	a1,1
    1ae8:	08000513          	li	a0,128
    1aec:	faeff0ef          	jal	ra,129a <RCC_APB2PeriphClockCmd>
    1af0:	b779                	j	1a7e <gpio_init+0x62>
F:\SCHOOL\文件\智能车\全向组\RTTThreadCH32V103\camCoreWithRTOS\obj/../Libraries/seekfree_libraries/zf_gpio.c:63
        if((uint16)pinconf >> 8 == 0) GPIO_InitStructure.GPIO_Speed = (GPIOSpeed_TypeDef)(GPIO_Speed_50MHz);  //防止没有填写这个参数,默认设置50Mhz
    1af2:	010a1793          	slli	a5,s4,0x10
    1af6:	83c1                	srli	a5,a5,0x10
    1af8:	83a1                	srli	a5,a5,0x8
    1afa:	e79d                	bnez	a5,1b28 <gpio_init+0x10c>
F:\SCHOOL\文件\智能车\全向组\RTTThreadCH32V103\camCoreWithRTOS\obj/../Libraries/seekfree_libraries/zf_gpio.c:63 (discriminator 1)
    1afc:	478d                	li	a5,3
    1afe:	c43e                	sw	a5,8(sp)
F:\SCHOOL\文件\智能车\全向组\RTTThreadCH32V103\camCoreWithRTOS\obj/../Libraries/seekfree_libraries/zf_gpio.c:68
    GPIO_InitStructure.GPIO_Mode = (GPIOMode_TypeDef)((uint16)pinconf & 0xff);
    1b00:	0ffa7693          	andi	a3,s4,255
    1b04:	c636                	sw	a3,12(sp)
F:\SCHOOL\文件\智能车\全向组\RTTThreadCH32V103\camCoreWithRTOS\obj/../Libraries/seekfree_libraries/zf_gpio.c:69
    GPIO_Init((GPIO_TypeDef *)(GPION[io_group]), &GPIO_InitStructure);
    1b06:	00291713          	slli	a4,s2,0x2
    1b0a:	669d                	lui	a3,0x7
    1b0c:	b5468693          	addi	a3,a3,-1196 # 6b54 <GPION>
    1b10:	9736                	add	a4,a4,a3
    1b12:	4304                	lw	s1,0(a4)
    1b14:	004c                	addi	a1,sp,4
    1b16:	8526                	mv	a0,s1
    1b18:	c74ff0ef          	jal	ra,f8c <GPIO_Init>
F:\SCHOOL\文件\智能车\全向组\RTTThreadCH32V103\camCoreWithRTOS\obj/../Libraries/seekfree_libraries/zf_gpio.c:74
        GPIO_WriteBit((GPIO_TypeDef *)(GPION[io_group]), (uint16)(1 << io_pin), dat);
    1b1c:	864e                	mv	a2,s3
    1b1e:	85a2                	mv	a1,s0
    1b20:	8526                	mv	a0,s1
    1b22:	d34ff0ef          	jal	ra,1056 <GPIO_WriteBit>
    1b26:	b751                	j	1aaa <gpio_init+0x8e>
F:\SCHOOL\文件\智能车\全向组\RTTThreadCH32V103\camCoreWithRTOS\obj/../Libraries/seekfree_libraries/zf_gpio.c:64
        else GPIO_InitStructure.GPIO_Speed = (GPIOSpeed_TypeDef)((uint16)pinconf >> 8);                       //已经填写了该参数。根据值来设置
    1b28:	c43e                	sw	a5,8(sp)
    1b2a:	bfd9                	j	1b00 <gpio_init+0xe4>
    1b2c:	8082                	ret

00001b2e <gpio_toggle>:
gpio_toggle():
F:\SCHOOL\文件\智能车\全向组\RTTThreadCH32V103\camCoreWithRTOS\obj/../Libraries/seekfree_libraries/zf_gpio.c:128
void gpio_toggle(PIN_enum pin)
{
    uint8 io_group = (pin & 0xE0) >> 5;
    uint8 io_pin = pin & 0x1F;

    ((GPIO_TypeDef *)(GPION[io_group]))->OUTDR ^= (uint16)(1 << io_pin);
    1b2e:	00355713          	srli	a4,a0,0x3
    1b32:	01c77693          	andi	a3,a4,28
    1b36:	671d                	lui	a4,0x7
    1b38:	b5470713          	addi	a4,a4,-1196 # 6b54 <GPION>
    1b3c:	9736                	add	a4,a4,a3
    1b3e:	4318                	lw	a4,0(a4)
    1b40:	4754                	lw	a3,12(a4)
    1b42:	4785                	li	a5,1
    1b44:	00a797b3          	sll	a5,a5,a0
    1b48:	07c2                	slli	a5,a5,0x10
    1b4a:	83c1                	srli	a5,a5,0x10
    1b4c:	8fb5                	xor	a5,a5,a3
    1b4e:	c75c                	sw	a5,12(a4)
F:\SCHOOL\文件\智能车\全向组\RTTThreadCH32V103\camCoreWithRTOS\obj/../Libraries/seekfree_libraries/zf_gpio.c:129
}
    1b50:	8082                	ret

00001b52 <close_all_irq>:
close_all_irq():
F:\SCHOOL\文件\智能车\全向组\RTTThreadCH32V103\camCoreWithRTOS\obj/../Libraries/seekfree_libraries/zf_nvic.c:65
//  Sample usage:
//-------------------------------------------------------------------------------------------------------------------
void close_all_irq(void)
{
    //写1，清空状态
    PFIC->IRER[0] = 0xffffffff;
    1b52:	e000e7b7          	lui	a5,0xe000e
    1b56:	577d                	li	a4,-1
    1b58:	18e7a023          	sw	a4,384(a5) # e000e180 <_eusrstack+0xc0009180>
F:\SCHOOL\文件\智能车\全向组\RTTThreadCH32V103\camCoreWithRTOS\obj/../Libraries/seekfree_libraries/zf_nvic.c:66
    PFIC->IRER[1] = 0xffffffff;
    1b5c:	18e7a223          	sw	a4,388(a5)
F:\SCHOOL\文件\智能车\全向组\RTTThreadCH32V103\camCoreWithRTOS\obj/../Libraries/seekfree_libraries/zf_nvic.c:67
}
    1b60:	8082                	ret

00001b62 <nvic_init>:
nvic_init():
F:\SCHOOL\文件\智能车\全向组\RTTThreadCH32V103\camCoreWithRTOS\obj/../Libraries/seekfree_libraries/zf_nvic.c:38
{
    1b62:	1101                	addi	sp,sp,-32
    1b64:	ce06                	sw	ra,28(sp)
F:\SCHOOL\文件\智能车\全向组\RTTThreadCH32V103\camCoreWithRTOS\obj/../Libraries/seekfree_libraries/zf_nvic.c:41
    NVIC_InitStructure.NVIC_IRQChannel = irqn;                                  //中断号设置
    1b66:	00a10423          	sb	a0,8(sp)
F:\SCHOOL\文件\智能车\全向组\RTTThreadCH32V103\camCoreWithRTOS\obj/../Libraries/seekfree_libraries/zf_nvic.c:42
    NVIC_InitStructure.NVIC_IRQChannelPreemptionPriority=preemption_priority;   //抢占优先级值越小，优先级越高
    1b6a:	00b104a3          	sb	a1,9(sp)
F:\SCHOOL\文件\智能车\全向组\RTTThreadCH32V103\camCoreWithRTOS\obj/../Libraries/seekfree_libraries/zf_nvic.c:43
    NVIC_InitStructure.NVIC_IRQChannelSubPriority = sub_priority;               //次优先级值越小，优先级越高
    1b6e:	00c10523          	sb	a2,10(sp)
F:\SCHOOL\文件\智能车\全向组\RTTThreadCH32V103\camCoreWithRTOS\obj/../Libraries/seekfree_libraries/zf_nvic.c:44
    NVIC_InitStructure.NVIC_IRQChannelCmd = status;                             //使能
    1b72:	c636                	sw	a3,12(sp)
F:\SCHOOL\文件\智能车\全向组\RTTThreadCH32V103\camCoreWithRTOS\obj/../Libraries/seekfree_libraries/zf_nvic.c:45
    NVIC_Init(&NVIC_InitStructure);
    1b74:	0028                	addi	a0,sp,8
    1b76:	d84ff0ef          	jal	ra,10fa <NVIC_Init>
F:\SCHOOL\文件\智能车\全向组\RTTThreadCH32V103\camCoreWithRTOS\obj/../Libraries/seekfree_libraries/zf_nvic.c:48
    irq_status.ienr0 |= (PFIC->ISR[0] & 0xFFFFF000);    //[31:12]
    1b7a:	e000e637          	lui	a2,0xe000e
    1b7e:	4218                	lw	a4,0(a2)
    1b80:	76fd                	lui	a3,0xfffff
    1b82:	8ef9                	and	a3,a3,a4
    1b84:	8c81a703          	lw	a4,-1848(gp) # 20000178 <irq_status>
    1b88:	8f55                	or	a4,a4,a3
    1b8a:	8ce1a423          	sw	a4,-1848(gp) # 20000178 <irq_status>
F:\SCHOOL\文件\智能车\全向组\RTTThreadCH32V103\camCoreWithRTOS\obj/../Libraries/seekfree_libraries/zf_nvic.c:49
    irq_status.ienr1 |= (PFIC->ISR[1] & 0x0FFFFFFF);    //[27:0]
    1b8e:	4258                	lw	a4,4(a2)
    1b90:	8c818793          	addi	a5,gp,-1848 # 20000178 <irq_status>
    1b94:	0712                	slli	a4,a4,0x4
    1b96:	8311                	srli	a4,a4,0x4
    1b98:	43d4                	lw	a3,4(a5)
    1b9a:	8f55                	or	a4,a4,a3
    1b9c:	c3d8                	sw	a4,4(a5)
F:\SCHOOL\文件\智能车\全向组\RTTThreadCH32V103\camCoreWithRTOS\obj/../Libraries/seekfree_libraries/zf_nvic.c:50
    if(irq_status.flag == 1)
    1b9e:	0087c703          	lbu	a4,8(a5)
    1ba2:	4785                	li	a5,1
    1ba4:	00f70563          	beq	a4,a5,1bae <nvic_init+0x4c>
F:\SCHOOL\文件\智能车\全向组\RTTThreadCH32V103\camCoreWithRTOS\obj/../Libraries/seekfree_libraries/zf_nvic.c:54
}
    1ba8:	40f2                	lw	ra,28(sp)
    1baa:	6105                	addi	sp,sp,32
    1bac:	8082                	ret
F:\SCHOOL\文件\智能车\全向组\RTTThreadCH32V103\camCoreWithRTOS\obj/../Libraries/seekfree_libraries/zf_nvic.c:52
        close_all_irq();
    1bae:	3755                	jal	1b52 <close_all_irq>
F:\SCHOOL\文件\智能车\全向组\RTTThreadCH32V103\camCoreWithRTOS\obj/../Libraries/seekfree_libraries/zf_nvic.c:54
}
    1bb0:	bfe5                	j	1ba8 <nvic_init+0x46>

00001bb2 <timer_gpio_quad_init>:
timer_gpio_quad_init():
F:\SCHOOL\文件\智能车\全向组\RTTThreadCH32V103\camCoreWithRTOS\obj/../Libraries/seekfree_libraries/zf_qtimer.c:40
//  @param      phaseB      通道B以及引脚
//  @return     void
//  Sample usage:           内部使用，用户无需关心
//-------------------------------------------------------------------------------------------------------------------
void timer_gpio_quad_init(TIMER_PIN_enum phaseA, TIMER_PIN_enum phaseB)
{
    1bb2:	1141                	addi	sp,sp,-16
    1bb4:	c606                	sw	ra,12(sp)
    1bb6:	c422                	sw	s0,8(sp)
    1bb8:	842e                	mv	s0,a1
F:\SCHOOL\文件\智能车\全向组\RTTThreadCH32V103\camCoreWithRTOS\obj/../Libraries/seekfree_libraries/zf_qtimer.c:41
    if(TIMER1_CHA_A8 == phaseA)       gpio_init(A8, GPI, 0, IN_FLOAT);
    1bba:	c915                	beqz	a0,1bee <timer_gpio_quad_init+0x3c>
F:\SCHOOL\文件\智能车\全向组\RTTThreadCH32V103\camCoreWithRTOS\obj/../Libraries/seekfree_libraries/zf_qtimer.c:42
    else if(TIMER2_CHA_A0 == phaseA)  gpio_init(A0, GPI, 0, IN_FLOAT);
    1bbc:	4789                	li	a5,2
    1bbe:	06f50663          	beq	a0,a5,1c2a <timer_gpio_quad_init+0x78>
F:\SCHOOL\文件\智能车\全向组\RTTThreadCH32V103\camCoreWithRTOS\obj/../Libraries/seekfree_libraries/zf_qtimer.c:43
    else if(TIMER2_CHA_A15 == phaseA) gpio_init(A15, GPI, 0, IN_FLOAT);
    1bc2:	4791                	li	a5,4
    1bc4:	06f50963          	beq	a0,a5,1c36 <timer_gpio_quad_init+0x84>
F:\SCHOOL\文件\智能车\全向组\RTTThreadCH32V103\camCoreWithRTOS\obj/../Libraries/seekfree_libraries/zf_qtimer.c:44
    else if(TIMER3_CHA_A6 == phaseA)  gpio_init(A6, GPI, 0, IN_FLOAT);
    1bc8:	4799                	li	a5,6
    1bca:	06f50c63          	beq	a0,a5,1c42 <timer_gpio_quad_init+0x90>
F:\SCHOOL\文件\智能车\全向组\RTTThreadCH32V103\camCoreWithRTOS\obj/../Libraries/seekfree_libraries/zf_qtimer.c:45
    else if(TIMER3_CHA_C6 == phaseA)  gpio_init(C6, GPI, 0, IN_FLOAT);
    1bce:	47a1                	li	a5,8
    1bd0:	06f50f63          	beq	a0,a5,1c4e <timer_gpio_quad_init+0x9c>
F:\SCHOOL\文件\智能车\全向组\RTTThreadCH32V103\camCoreWithRTOS\obj/../Libraries/seekfree_libraries/zf_qtimer.c:46
    else if(TIMER3_CHA_B4 == phaseA)  gpio_init(B4, GPI, 0, IN_FLOAT);
    1bd4:	47a9                	li	a5,10
    1bd6:	08f50363          	beq	a0,a5,1c5c <timer_gpio_quad_init+0xaa>
F:\SCHOOL\文件\智能车\全向组\RTTThreadCH32V103\camCoreWithRTOS\obj/../Libraries/seekfree_libraries/zf_qtimer.c:47
    else if(TIMER4_CHA_B6 == phaseA)  gpio_init(B6, GPI, 0, IN_FLOAT);
    1bda:	47b1                	li	a5,12
    1bdc:	00f51e63          	bne	a0,a5,1bf8 <timer_gpio_quad_init+0x46>
F:\SCHOOL\文件\智能车\全向组\RTTThreadCH32V103\camCoreWithRTOS\obj/../Libraries/seekfree_libraries/zf_qtimer.c:47 (discriminator 1)
    1be0:	4691                	li	a3,4
    1be2:	4601                	li	a2,0
    1be4:	4581                	li	a1,0
    1be6:	02600513          	li	a0,38
    1bea:	3d0d                	jal	1a1c <gpio_init>
    1bec:	a031                	j	1bf8 <timer_gpio_quad_init+0x46>
F:\SCHOOL\文件\智能车\全向组\RTTThreadCH32V103\camCoreWithRTOS\obj/../Libraries/seekfree_libraries/zf_qtimer.c:41 (discriminator 1)
    if(TIMER1_CHA_A8 == phaseA)       gpio_init(A8, GPI, 0, IN_FLOAT);
    1bee:	4691                	li	a3,4
    1bf0:	4601                	li	a2,0
    1bf2:	4581                	li	a1,0
    1bf4:	4521                	li	a0,8
    1bf6:	351d                	jal	1a1c <gpio_init>
F:\SCHOOL\文件\智能车\全向组\RTTThreadCH32V103\camCoreWithRTOS\obj/../Libraries/seekfree_libraries/zf_qtimer.c:49

    if(TIMER1_CHB_A9 == phaseB)       gpio_init(A9, GPI, 0, IN_FLOAT);
    1bf8:	4785                	li	a5,1
    1bfa:	06f40863          	beq	s0,a5,1c6a <timer_gpio_quad_init+0xb8>
F:\SCHOOL\文件\智能车\全向组\RTTThreadCH32V103\camCoreWithRTOS\obj/../Libraries/seekfree_libraries/zf_qtimer.c:50
    else if(TIMER2_CHB_A1 == phaseB)  gpio_init(A1, GPI, 0, IN_FLOAT);
    1bfe:	478d                	li	a5,3
    1c00:	06f40b63          	beq	s0,a5,1c76 <timer_gpio_quad_init+0xc4>
F:\SCHOOL\文件\智能车\全向组\RTTThreadCH32V103\camCoreWithRTOS\obj/../Libraries/seekfree_libraries/zf_qtimer.c:51
    else if(TIMER2_CHB_B3 == phaseB)  gpio_init(B3, GPI, 0, IN_FLOAT);
    1c04:	4795                	li	a5,5
    1c06:	06f40e63          	beq	s0,a5,1c82 <timer_gpio_quad_init+0xd0>
F:\SCHOOL\文件\智能车\全向组\RTTThreadCH32V103\camCoreWithRTOS\obj/../Libraries/seekfree_libraries/zf_qtimer.c:52
    else if(TIMER3_CHB_A7 == phaseB)  gpio_init(A7, GPI, 0, IN_FLOAT);
    1c0a:	479d                	li	a5,7
    1c0c:	08f40263          	beq	s0,a5,1c90 <timer_gpio_quad_init+0xde>
F:\SCHOOL\文件\智能车\全向组\RTTThreadCH32V103\camCoreWithRTOS\obj/../Libraries/seekfree_libraries/zf_qtimer.c:53
    else if(TIMER3_CHB_C7 == phaseB)  gpio_init(C7, GPI, 0, IN_FLOAT);
    1c10:	47a5                	li	a5,9
    1c12:	08f40563          	beq	s0,a5,1c9c <timer_gpio_quad_init+0xea>
F:\SCHOOL\文件\智能车\全向组\RTTThreadCH32V103\camCoreWithRTOS\obj/../Libraries/seekfree_libraries/zf_qtimer.c:54
    else if(TIMER3_CHB_B5 == phaseB)  gpio_init(B5, GPI, 0, IN_FLOAT);
    1c16:	47ad                	li	a5,11
    1c18:	08f40963          	beq	s0,a5,1caa <timer_gpio_quad_init+0xf8>
F:\SCHOOL\文件\智能车\全向组\RTTThreadCH32V103\camCoreWithRTOS\obj/../Libraries/seekfree_libraries/zf_qtimer.c:55
    else if(TIMER4_CHB_B7 == phaseB)  gpio_init(B7, GPI, 0, IN_FLOAT);
    1c1c:	47b5                	li	a5,13
    1c1e:	08f40d63          	beq	s0,a5,1cb8 <timer_gpio_quad_init+0x106>
F:\SCHOOL\文件\智能车\全向组\RTTThreadCH32V103\camCoreWithRTOS\obj/../Libraries/seekfree_libraries/zf_qtimer.c:57

}
    1c22:	40b2                	lw	ra,12(sp)
    1c24:	4422                	lw	s0,8(sp)
    1c26:	0141                	addi	sp,sp,16
    1c28:	8082                	ret
F:\SCHOOL\文件\智能车\全向组\RTTThreadCH32V103\camCoreWithRTOS\obj/../Libraries/seekfree_libraries/zf_qtimer.c:42 (discriminator 1)
    else if(TIMER2_CHA_A0 == phaseA)  gpio_init(A0, GPI, 0, IN_FLOAT);
    1c2a:	4691                	li	a3,4
    1c2c:	4601                	li	a2,0
    1c2e:	4581                	li	a1,0
    1c30:	4501                	li	a0,0
    1c32:	33ed                	jal	1a1c <gpio_init>
    1c34:	b7d1                	j	1bf8 <timer_gpio_quad_init+0x46>
F:\SCHOOL\文件\智能车\全向组\RTTThreadCH32V103\camCoreWithRTOS\obj/../Libraries/seekfree_libraries/zf_qtimer.c:43 (discriminator 1)
    else if(TIMER2_CHA_A15 == phaseA) gpio_init(A15, GPI, 0, IN_FLOAT);
    1c36:	4691                	li	a3,4
    1c38:	4601                	li	a2,0
    1c3a:	4581                	li	a1,0
    1c3c:	453d                	li	a0,15
    1c3e:	3bf9                	jal	1a1c <gpio_init>
    1c40:	bf65                	j	1bf8 <timer_gpio_quad_init+0x46>
F:\SCHOOL\文件\智能车\全向组\RTTThreadCH32V103\camCoreWithRTOS\obj/../Libraries/seekfree_libraries/zf_qtimer.c:44 (discriminator 1)
    else if(TIMER3_CHA_A6 == phaseA)  gpio_init(A6, GPI, 0, IN_FLOAT);
    1c42:	4691                	li	a3,4
    1c44:	4601                	li	a2,0
    1c46:	4581                	li	a1,0
    1c48:	4519                	li	a0,6
    1c4a:	3bc9                	jal	1a1c <gpio_init>
    1c4c:	b775                	j	1bf8 <timer_gpio_quad_init+0x46>
F:\SCHOOL\文件\智能车\全向组\RTTThreadCH32V103\camCoreWithRTOS\obj/../Libraries/seekfree_libraries/zf_qtimer.c:45 (discriminator 1)
    else if(TIMER3_CHA_C6 == phaseA)  gpio_init(C6, GPI, 0, IN_FLOAT);
    1c4e:	4691                	li	a3,4
    1c50:	4601                	li	a2,0
    1c52:	4581                	li	a1,0
    1c54:	04600513          	li	a0,70
    1c58:	33d1                	jal	1a1c <gpio_init>
    1c5a:	bf79                	j	1bf8 <timer_gpio_quad_init+0x46>
F:\SCHOOL\文件\智能车\全向组\RTTThreadCH32V103\camCoreWithRTOS\obj/../Libraries/seekfree_libraries/zf_qtimer.c:46 (discriminator 1)
    else if(TIMER3_CHA_B4 == phaseA)  gpio_init(B4, GPI, 0, IN_FLOAT);
    1c5c:	4691                	li	a3,4
    1c5e:	4601                	li	a2,0
    1c60:	4581                	li	a1,0
    1c62:	02400513          	li	a0,36
    1c66:	3b5d                	jal	1a1c <gpio_init>
    1c68:	bf41                	j	1bf8 <timer_gpio_quad_init+0x46>
F:\SCHOOL\文件\智能车\全向组\RTTThreadCH32V103\camCoreWithRTOS\obj/../Libraries/seekfree_libraries/zf_qtimer.c:49 (discriminator 1)
    if(TIMER1_CHB_A9 == phaseB)       gpio_init(A9, GPI, 0, IN_FLOAT);
    1c6a:	4691                	li	a3,4
    1c6c:	4601                	li	a2,0
    1c6e:	4581                	li	a1,0
    1c70:	4525                	li	a0,9
    1c72:	336d                	jal	1a1c <gpio_init>
    1c74:	b77d                	j	1c22 <timer_gpio_quad_init+0x70>
F:\SCHOOL\文件\智能车\全向组\RTTThreadCH32V103\camCoreWithRTOS\obj/../Libraries/seekfree_libraries/zf_qtimer.c:50 (discriminator 1)
    else if(TIMER2_CHB_A1 == phaseB)  gpio_init(A1, GPI, 0, IN_FLOAT);
    1c76:	4691                	li	a3,4
    1c78:	4601                	li	a2,0
    1c7a:	4581                	li	a1,0
    1c7c:	4505                	li	a0,1
    1c7e:	3b79                	jal	1a1c <gpio_init>
    1c80:	b74d                	j	1c22 <timer_gpio_quad_init+0x70>
F:\SCHOOL\文件\智能车\全向组\RTTThreadCH32V103\camCoreWithRTOS\obj/../Libraries/seekfree_libraries/zf_qtimer.c:51 (discriminator 1)
    else if(TIMER2_CHB_B3 == phaseB)  gpio_init(B3, GPI, 0, IN_FLOAT);
    1c82:	4691                	li	a3,4
    1c84:	4601                	li	a2,0
    1c86:	4581                	li	a1,0
    1c88:	02300513          	li	a0,35
    1c8c:	3b41                	jal	1a1c <gpio_init>
    1c8e:	bf51                	j	1c22 <timer_gpio_quad_init+0x70>
F:\SCHOOL\文件\智能车\全向组\RTTThreadCH32V103\camCoreWithRTOS\obj/../Libraries/seekfree_libraries/zf_qtimer.c:52 (discriminator 1)
    else if(TIMER3_CHB_A7 == phaseB)  gpio_init(A7, GPI, 0, IN_FLOAT);
    1c90:	4691                	li	a3,4
    1c92:	4601                	li	a2,0
    1c94:	4581                	li	a1,0
    1c96:	451d                	li	a0,7
    1c98:	3351                	jal	1a1c <gpio_init>
    1c9a:	b761                	j	1c22 <timer_gpio_quad_init+0x70>
F:\SCHOOL\文件\智能车\全向组\RTTThreadCH32V103\camCoreWithRTOS\obj/../Libraries/seekfree_libraries/zf_qtimer.c:53 (discriminator 1)
    else if(TIMER3_CHB_C7 == phaseB)  gpio_init(C7, GPI, 0, IN_FLOAT);
    1c9c:	4691                	li	a3,4
    1c9e:	4601                	li	a2,0
    1ca0:	4581                	li	a1,0
    1ca2:	04700513          	li	a0,71
    1ca6:	3b9d                	jal	1a1c <gpio_init>
    1ca8:	bfad                	j	1c22 <timer_gpio_quad_init+0x70>
F:\SCHOOL\文件\智能车\全向组\RTTThreadCH32V103\camCoreWithRTOS\obj/../Libraries/seekfree_libraries/zf_qtimer.c:54 (discriminator 1)
    else if(TIMER3_CHB_B5 == phaseB)  gpio_init(B5, GPI, 0, IN_FLOAT);
    1caa:	4691                	li	a3,4
    1cac:	4601                	li	a2,0
    1cae:	4581                	li	a1,0
    1cb0:	02500513          	li	a0,37
    1cb4:	33a5                	jal	1a1c <gpio_init>
    1cb6:	b7b5                	j	1c22 <timer_gpio_quad_init+0x70>
F:\SCHOOL\文件\智能车\全向组\RTTThreadCH32V103\camCoreWithRTOS\obj/../Libraries/seekfree_libraries/zf_qtimer.c:55 (discriminator 1)
    else if(TIMER4_CHB_B7 == phaseB)  gpio_init(B7, GPI, 0, IN_FLOAT);
    1cb8:	4691                	li	a3,4
    1cba:	4601                	li	a2,0
    1cbc:	4581                	li	a1,0
    1cbe:	02700513          	li	a0,39
    1cc2:	3ba9                	jal	1a1c <gpio_init>
F:\SCHOOL\文件\智能车\全向组\RTTThreadCH32V103\camCoreWithRTOS\obj/../Libraries/seekfree_libraries/zf_qtimer.c:57 (discriminator 1)
}
    1cc4:	bfb9                	j	1c22 <timer_gpio_quad_init+0x70>

00001cc6 <timer_quad_init>:
timer_quad_init():
F:\SCHOOL\文件\智能车\全向组\RTTThreadCH32V103\camCoreWithRTOS\obj/../Libraries/seekfree_libraries/zf_qtimer.c:69
//  @param      phaseB      通道B以及引脚
//  @return     void
//  Sample usage:           推荐使用正交解码编码器。
//-------------------------------------------------------------------------------------------------------------------
void timer_quad_init(TIMERN_enum timern, TIMER_PIN_enum phaseA, TIMER_PIN_enum phaseB)
{
    1cc6:	1101                	addi	sp,sp,-32
    1cc8:	ce06                	sw	ra,28(sp)
    1cca:	cc22                	sw	s0,24(sp)
    1ccc:	ca26                	sw	s1,20(sp)
    1cce:	c84a                	sw	s2,16(sp)
    1cd0:	842a                	mv	s0,a0
    1cd2:	84ae                	mv	s1,a1
    1cd4:	8932                	mv	s2,a2
F:\SCHOOL\文件\智能车\全向组\RTTThreadCH32V103\camCoreWithRTOS\obj/../Libraries/seekfree_libraries/zf_qtimer.c:72
    TIM_TimeBaseInitTypeDef TIM_TimeBaseStructure;

    if(TIMER_1 == timern)       RCC_APB2PeriphClockCmd(RCC_APB2Periph_TIM1, ENABLE);//使能定时器1的时钟
    1cd6:	c529                	beqz	a0,1d20 <timer_quad_init+0x5a>
F:\SCHOOL\文件\智能车\全向组\RTTThreadCH32V103\camCoreWithRTOS\obj/../Libraries/seekfree_libraries/zf_qtimer.c:73
    else  if(TIMER_2 == timern) RCC_APB1PeriphClockCmd(RCC_APB1Periph_TIM2, ENABLE);//使能定时器2的时钟
    1cd8:	4785                	li	a5,1
    1cda:	04f50a63          	beq	a0,a5,1d2e <timer_quad_init+0x68>
F:\SCHOOL\文件\智能车\全向组\RTTThreadCH32V103\camCoreWithRTOS\obj/../Libraries/seekfree_libraries/zf_qtimer.c:74
    else  if(TIMER_3 == timern) RCC_APB1PeriphClockCmd(RCC_APB1Periph_TIM3, ENABLE);//使能定时器3的时钟
    1cde:	4789                	li	a5,2
    1ce0:	04f50c63          	beq	a0,a5,1d38 <timer_quad_init+0x72>
F:\SCHOOL\文件\智能车\全向组\RTTThreadCH32V103\camCoreWithRTOS\obj/../Libraries/seekfree_libraries/zf_qtimer.c:75
    else  if(TIMER_4 == timern) RCC_APB1PeriphClockCmd(RCC_APB1Periph_TIM4, ENABLE);//使能定时器4的时钟
    1ce4:	478d                	li	a5,3
    1ce6:	04f50e63          	beq	a0,a5,1d42 <timer_quad_init+0x7c>
F:\SCHOOL\文件\智能车\全向组\RTTThreadCH32V103\camCoreWithRTOS\obj/../Libraries/seekfree_libraries/zf_qtimer.c:77

    timer_gpio_quad_init(phaseA, phaseB);                                           //初始化引脚
    1cea:	85ca                	mv	a1,s2
    1cec:	8526                	mv	a0,s1
    1cee:	35d1                	jal	1bb2 <timer_gpio_quad_init>
F:\SCHOOL\文件\智能车\全向组\RTTThreadCH32V103\camCoreWithRTOS\obj/../Libraries/seekfree_libraries/zf_qtimer.c:79

    RCC_APB2PeriphClockCmd(RCC_APB2Periph_AFIO, ENABLE);                            //使能AFIO复用功能模块时钟
    1cf0:	4585                	li	a1,1
    1cf2:	4505                	li	a0,1
    1cf4:	da6ff0ef          	jal	ra,129a <RCC_APB2PeriphClockCmd>
F:\SCHOOL\文件\智能车\全向组\RTTThreadCH32V103\camCoreWithRTOS\obj/../Libraries/seekfree_libraries/zf_qtimer.c:81

    if(TIMER2_CHA_A15 == phaseA && TIMER2_CHB_B3 == phaseB)                         //引脚重映射
    1cf8:	4791                	li	a5,4
    1cfa:	04f48963          	beq	s1,a5,1d4c <timer_quad_init+0x86>
F:\SCHOOL\文件\智能车\全向组\RTTThreadCH32V103\camCoreWithRTOS\obj/../Libraries/seekfree_libraries/zf_qtimer.c:83
        GPIO_PinRemapConfig(GPIO_FullRemap_TIM2, ENABLE);
    else    if(TIMER3_CHA_C6 == phaseA && TIMER3_CHB_C7 == phaseB)
    1cfe:	47a1                	li	a5,8
    1d00:	0af48a63          	beq	s1,a5,1db4 <timer_quad_init+0xee>
F:\SCHOOL\文件\智能车\全向组\RTTThreadCH32V103\camCoreWithRTOS\obj/../Libraries/seekfree_libraries/zf_qtimer.c:85
        GPIO_PinRemapConfig(GPIO_FullRemap_TIM3, ENABLE);
    else    if(TIMER3_CHA_B4 == phaseA && TIMER3_CHB_B5 == phaseB)
    1d04:	47a9                	li	a5,10
    1d06:	04f49663          	bne	s1,a5,1d52 <timer_quad_init+0x8c>
F:\SCHOOL\文件\智能车\全向组\RTTThreadCH32V103\camCoreWithRTOS\obj/../Libraries/seekfree_libraries/zf_qtimer.c:85 (discriminator 1)
    1d0a:	47ad                	li	a5,11
    1d0c:	04f91363          	bne	s2,a5,1d52 <timer_quad_init+0x8c>
F:\SCHOOL\文件\智能车\全向组\RTTThreadCH32V103\camCoreWithRTOS\obj/../Libraries/seekfree_libraries/zf_qtimer.c:86
        GPIO_PinRemapConfig(GPIO_PartialRemap_TIM3, ENABLE);
    1d10:	4585                	li	a1,1
    1d12:	001a1537          	lui	a0,0x1a1
    1d16:	80050513          	addi	a0,a0,-2048 # 1a0800 <_data_lma+0x1992b8>
    1d1a:	b46ff0ef          	jal	ra,1060 <GPIO_PinRemapConfig>
    1d1e:	a815                	j	1d52 <timer_quad_init+0x8c>
F:\SCHOOL\文件\智能车\全向组\RTTThreadCH32V103\camCoreWithRTOS\obj/../Libraries/seekfree_libraries/zf_qtimer.c:72 (discriminator 1)
    if(TIMER_1 == timern)       RCC_APB2PeriphClockCmd(RCC_APB2Periph_TIM1, ENABLE);//使能定时器1的时钟
    1d20:	4585                	li	a1,1
    1d22:	6505                	lui	a0,0x1
    1d24:	80050513          	addi	a0,a0,-2048 # 800 <TIM1_TRG_COM_IRQHandler+0x6a>
    1d28:	d72ff0ef          	jal	ra,129a <RCC_APB2PeriphClockCmd>
    1d2c:	bf7d                	j	1cea <timer_quad_init+0x24>
F:\SCHOOL\文件\智能车\全向组\RTTThreadCH32V103\camCoreWithRTOS\obj/../Libraries/seekfree_libraries/zf_qtimer.c:73 (discriminator 1)
    else  if(TIMER_2 == timern) RCC_APB1PeriphClockCmd(RCC_APB1Periph_TIM2, ENABLE);//使能定时器2的时钟
    1d2e:	4585                	li	a1,1
    1d30:	4505                	li	a0,1
    1d32:	d86ff0ef          	jal	ra,12b8 <RCC_APB1PeriphClockCmd>
    1d36:	bf55                	j	1cea <timer_quad_init+0x24>
F:\SCHOOL\文件\智能车\全向组\RTTThreadCH32V103\camCoreWithRTOS\obj/../Libraries/seekfree_libraries/zf_qtimer.c:74 (discriminator 1)
    else  if(TIMER_3 == timern) RCC_APB1PeriphClockCmd(RCC_APB1Periph_TIM3, ENABLE);//使能定时器3的时钟
    1d38:	4585                	li	a1,1
    1d3a:	4509                	li	a0,2
    1d3c:	d7cff0ef          	jal	ra,12b8 <RCC_APB1PeriphClockCmd>
    1d40:	b76d                	j	1cea <timer_quad_init+0x24>
F:\SCHOOL\文件\智能车\全向组\RTTThreadCH32V103\camCoreWithRTOS\obj/../Libraries/seekfree_libraries/zf_qtimer.c:75 (discriminator 1)
    else  if(TIMER_4 == timern) RCC_APB1PeriphClockCmd(RCC_APB1Periph_TIM4, ENABLE);//使能定时器4的时钟
    1d42:	4585                	li	a1,1
    1d44:	4511                	li	a0,4
    1d46:	d72ff0ef          	jal	ra,12b8 <RCC_APB1PeriphClockCmd>
    1d4a:	b745                	j	1cea <timer_quad_init+0x24>
F:\SCHOOL\文件\智能车\全向组\RTTThreadCH32V103\camCoreWithRTOS\obj/../Libraries/seekfree_libraries/zf_qtimer.c:81 (discriminator 1)
    if(TIMER2_CHA_A15 == phaseA && TIMER2_CHB_B3 == phaseB)                         //引脚重映射
    1d4c:	4795                	li	a5,5
    1d4e:	04f90b63          	beq	s2,a5,1da4 <timer_quad_init+0xde>
F:\SCHOOL\文件\智能车\全向组\RTTThreadCH32V103\camCoreWithRTOS\obj/../Libraries/seekfree_libraries/zf_qtimer.c:88

    TIM_TimeBaseStructInit(&TIM_TimeBaseStructure);
    1d52:	0048                	addi	a0,sp,4
    1d54:	e38ff0ef          	jal	ra,138c <TIM_TimeBaseStructInit>
F:\SCHOOL\文件\智能车\全向组\RTTThreadCH32V103\camCoreWithRTOS\obj/../Libraries/seekfree_libraries/zf_qtimer.c:89
    TIM_TimeBaseStructure.TIM_Prescaler = 1;                                        //预分频器
    1d58:	4785                	li	a5,1
    1d5a:	00f11223          	sh	a5,4(sp)
F:\SCHOOL\文件\智能车\全向组\RTTThreadCH32V103\camCoreWithRTOS\obj/../Libraries/seekfree_libraries/zf_qtimer.c:90
    TIM_TimeBaseStructure.TIM_Period = 0xFFFF;                                      //设定计数器自动重装值
    1d5e:	57fd                	li	a5,-1
    1d60:	00f11423          	sh	a5,8(sp)
F:\SCHOOL\文件\智能车\全向组\RTTThreadCH32V103\camCoreWithRTOS\obj/../Libraries/seekfree_libraries/zf_qtimer.c:91
    TIM_TimeBaseStructure.TIM_ClockDivision = TIM_CKD_DIV1;                         //选择时钟分频：不分频
    1d64:	00011523          	sh	zero,10(sp)
F:\SCHOOL\文件\智能车\全向组\RTTThreadCH32V103\camCoreWithRTOS\obj/../Libraries/seekfree_libraries/zf_qtimer.c:92
    TIM_TimeBaseStructure.TIM_CounterMode = TIM_CounterMode_Up;                     //TIM向上计数
    1d68:	00011323          	sh	zero,6(sp)
F:\SCHOOL\文件\智能车\全向组\RTTThreadCH32V103\camCoreWithRTOS\obj/../Libraries/seekfree_libraries/zf_qtimer.c:93
    TIM_TimeBaseStructure.TIM_RepetitionCounter = 0;                                //重复计数器
    1d6c:	00010623          	sb	zero,12(sp)
F:\SCHOOL\文件\智能车\全向组\RTTThreadCH32V103\camCoreWithRTOS\obj/../Libraries/seekfree_libraries/zf_qtimer.c:94
    TIM_TimeBaseInit((TIM_TypeDef*)(TIMERN[timern]), &TIM_TimeBaseStructure);       //初始化结构体
    1d70:	040a                	slli	s0,s0,0x2
    1d72:	679d                	lui	a5,0x7
    1d74:	b6478793          	addi	a5,a5,-1180 # 6b64 <TIMERN>
    1d78:	943e                	add	s0,s0,a5
    1d7a:	4000                	lw	s0,0(s0)
    1d7c:	004c                	addi	a1,sp,4
    1d7e:	8522                	mv	a0,s0
    1d80:	d56ff0ef          	jal	ra,12d6 <TIM_TimeBaseInit>
F:\SCHOOL\文件\智能车\全向组\RTTThreadCH32V103\camCoreWithRTOS\obj/../Libraries/seekfree_libraries/zf_qtimer.c:95
    TIM_EncoderInterfaceConfig((TIM_TypeDef*)(TIMERN[timern]), TIM_EncoderMode_TI2 , TIM_ICPolarity_Rising, TIM_ICPolarity_Rising);//使用编码器模式
    1d84:	4681                	li	a3,0
    1d86:	4601                	li	a2,0
    1d88:	4589                	li	a1,2
    1d8a:	8522                	mv	a0,s0
    1d8c:	e3cff0ef          	jal	ra,13c8 <TIM_EncoderInterfaceConfig>
F:\SCHOOL\文件\智能车\全向组\RTTThreadCH32V103\camCoreWithRTOS\obj/../Libraries/seekfree_libraries/zf_qtimer.c:97

    TIM_Cmd((TIM_TypeDef*)(TIMERN[timern]), ENABLE);                                //定时器使能
    1d90:	4585                	li	a1,1
    1d92:	8522                	mv	a0,s0
    1d94:	e10ff0ef          	jal	ra,13a4 <TIM_Cmd>
F:\SCHOOL\文件\智能车\全向组\RTTThreadCH32V103\camCoreWithRTOS\obj/../Libraries/seekfree_libraries/zf_qtimer.c:98
}
    1d98:	40f2                	lw	ra,28(sp)
    1d9a:	4462                	lw	s0,24(sp)
    1d9c:	44d2                	lw	s1,20(sp)
    1d9e:	4942                	lw	s2,16(sp)
    1da0:	6105                	addi	sp,sp,32
    1da2:	8082                	ret
F:\SCHOOL\文件\智能车\全向组\RTTThreadCH32V103\camCoreWithRTOS\obj/../Libraries/seekfree_libraries/zf_qtimer.c:82
        GPIO_PinRemapConfig(GPIO_FullRemap_TIM2, ENABLE);
    1da4:	4585                	li	a1,1
    1da6:	00180537          	lui	a0,0x180
    1daa:	30050513          	addi	a0,a0,768 # 180300 <_data_lma+0x178db8>
    1dae:	ab2ff0ef          	jal	ra,1060 <GPIO_PinRemapConfig>
    1db2:	b745                	j	1d52 <timer_quad_init+0x8c>
F:\SCHOOL\文件\智能车\全向组\RTTThreadCH32V103\camCoreWithRTOS\obj/../Libraries/seekfree_libraries/zf_qtimer.c:83 (discriminator 1)
    else    if(TIMER3_CHA_C6 == phaseA && TIMER3_CHB_C7 == phaseB)
    1db4:	47a5                	li	a5,9
    1db6:	f8f91ee3          	bne	s2,a5,1d52 <timer_quad_init+0x8c>
F:\SCHOOL\文件\智能车\全向组\RTTThreadCH32V103\camCoreWithRTOS\obj/../Libraries/seekfree_libraries/zf_qtimer.c:84
        GPIO_PinRemapConfig(GPIO_FullRemap_TIM3, ENABLE);
    1dba:	4585                	li	a1,1
    1dbc:	001a1537          	lui	a0,0x1a1
    1dc0:	c0050513          	addi	a0,a0,-1024 # 1a0c00 <_data_lma+0x1996b8>
    1dc4:	a9cff0ef          	jal	ra,1060 <GPIO_PinRemapConfig>
    1dc8:	b769                	j	1d52 <timer_quad_init+0x8c>

00001dca <timer_quad_get>:
timer_quad_get():
F:\SCHOOL\文件\智能车\全向组\RTTThreadCH32V103\camCoreWithRTOS\obj/../Libraries/seekfree_libraries/zf_qtimer.c:108
//  @return     void
//  Sample usage:
//-------------------------------------------------------------------------------------------------------------------
int16 timer_quad_get(TIMERN_enum timern)
{
    int16 count = ((TIM_TypeDef*)(TIMERN[timern]))->CNT;
    1dca:	050a                	slli	a0,a0,0x2
    1dcc:	679d                	lui	a5,0x7
    1dce:	b6478793          	addi	a5,a5,-1180 # 6b64 <TIMERN>
    1dd2:	97aa                	add	a5,a5,a0
    1dd4:	439c                	lw	a5,0(a5)
    1dd6:	0247d503          	lhu	a0,36(a5)
F:\SCHOOL\文件\智能车\全向组\RTTThreadCH32V103\camCoreWithRTOS\obj/../Libraries/seekfree_libraries/zf_qtimer.c:110
    return count;
}
    1dda:	0542                	slli	a0,a0,0x10
    1ddc:	8541                	srai	a0,a0,0x10
    1dde:	8082                	ret

00001de0 <timer_quad_clear>:
timer_quad_clear():
F:\SCHOOL\文件\智能车\全向组\RTTThreadCH32V103\camCoreWithRTOS\obj/../Libraries/seekfree_libraries/zf_qtimer.c:120
//  @return     void
//  Sample usage:
//-------------------------------------------------------------------------------------------------------------------
void timer_quad_clear(TIMERN_enum timern)
{
    ((TIM_TypeDef*)(TIMERN[timern]))->CNT = 0;
    1de0:	050a                	slli	a0,a0,0x2
    1de2:	679d                	lui	a5,0x7
    1de4:	b6478793          	addi	a5,a5,-1180 # 6b64 <TIMERN>
    1de8:	97aa                	add	a5,a5,a0
    1dea:	439c                	lw	a5,0(a5)
    1dec:	02079223          	sh	zero,36(a5)
F:\SCHOOL\文件\智能车\全向组\RTTThreadCH32V103\camCoreWithRTOS\obj/../Libraries/seekfree_libraries/zf_qtimer.c:121
}
    1df0:	8082                	ret

00001df2 <systick_delay2>:
systick_delay2():
F:\SCHOOL\文件\智能车\全向组\RTTThreadCH32V103\camCoreWithRTOS\obj/../Libraries/seekfree_libraries/zf_systick.c:44
//  @param      time                ms
//  @return     void
//  Sample usage:                   内部使用，用户无需关心
//-------------------------------------------------------------------------------------------------------------------
void systick_delay2(uint64 time)
{
    1df2:	1141                	addi	sp,sp,-16
    1df4:	c606                	sw	ra,12(sp)
F:\SCHOOL\文件\智能车\全向组\RTTThreadCH32V103\camCoreWithRTOS\obj/../Libraries/seekfree_libraries/zf_systick.c:45
    rt_thread_mdelay(time);
    1df6:	32d010ef          	jal	ra,3922 <rt_thread_mdelay>
F:\SCHOOL\文件\智能车\全向组\RTTThreadCH32V103\camCoreWithRTOS\obj/../Libraries/seekfree_libraries/zf_systick.c:46
}
    1dfa:	40b2                	lw	ra,12(sp)
    1dfc:	0141                	addi	sp,sp,16
    1dfe:	8082                	ret

00001e00 <uart_gpio_init>:
uart_gpio_init():
F:\SCHOOL\文件\智能车\全向组\RTTThreadCH32V103\camCoreWithRTOS\obj/../Libraries/seekfree_libraries/zf_uart.c:38
//  @param      rx_pin      串口接收引脚号
//  @return     void
//  Sample usage:           内部使用，用户无需关心
//-------------------------------------------------------------------------------------------------------------------
void uart_gpio_init(UARTPIN_enum tx_pin, UARTPIN_enum rx_pin)
{
    1e00:	1141                	addi	sp,sp,-16
    1e02:	c606                	sw	ra,12(sp)
F:\SCHOOL\文件\智能车\全向组\RTTThreadCH32V103\camCoreWithRTOS\obj/../Libraries/seekfree_libraries/zf_uart.c:39
    if(tx_pin == UART1_TX_A9 && rx_pin == UART1_RX_A10)
    1e04:	e50d                	bnez	a0,1e2e <uart_gpio_init+0x2e>
F:\SCHOOL\文件\智能车\全向组\RTTThreadCH32V103\camCoreWithRTOS\obj/../Libraries/seekfree_libraries/zf_uart.c:39 (discriminator 1)
    1e06:	4785                	li	a5,1
    1e08:	00f58563          	beq	a1,a5,1e12 <uart_gpio_init+0x12>
F:\SCHOOL\文件\智能车\全向组\RTTThreadCH32V103\camCoreWithRTOS\obj/../Libraries/seekfree_libraries/zf_uart.c:67
    else if(tx_pin == UART3_TX_C10)
    {
        gpio_init(C10, GPO, 0, SPEED_50MHZ|OUT_AF_PP);
        gpio_init(C11, GPI, 0, IN_FLOAT);
    }
}
    1e0c:	40b2                	lw	ra,12(sp)
    1e0e:	0141                	addi	sp,sp,16
    1e10:	8082                	ret
F:\SCHOOL\文件\智能车\全向组\RTTThreadCH32V103\camCoreWithRTOS\obj/../Libraries/seekfree_libraries/zf_uart.c:41
        gpio_init(A9, GPO, 0, SPEED_50MHZ|OUT_AF_PP);
    1e12:	31800693          	li	a3,792
    1e16:	4601                	li	a2,0
    1e18:	4585                	li	a1,1
    1e1a:	4525                	li	a0,9
    1e1c:	c01ff0ef          	jal	ra,1a1c <gpio_init>
F:\SCHOOL\文件\智能车\全向组\RTTThreadCH32V103\camCoreWithRTOS\obj/../Libraries/seekfree_libraries/zf_uart.c:42
        gpio_init(A10, GPI, 0, IN_FLOAT);
    1e20:	4691                	li	a3,4
    1e22:	4601                	li	a2,0
    1e24:	4581                	li	a1,0
    1e26:	4529                	li	a0,10
    1e28:	bf5ff0ef          	jal	ra,1a1c <gpio_init>
    1e2c:	b7c5                	j	1e0c <uart_gpio_init+0xc>
F:\SCHOOL\文件\智能车\全向组\RTTThreadCH32V103\camCoreWithRTOS\obj/../Libraries/seekfree_libraries/zf_uart.c:44
    else if(tx_pin == UART1_TX_B6)
    1e2e:	4789                	li	a5,2
    1e30:	02f50963          	beq	a0,a5,1e62 <uart_gpio_init+0x62>
F:\SCHOOL\文件\智能车\全向组\RTTThreadCH32V103\camCoreWithRTOS\obj/../Libraries/seekfree_libraries/zf_uart.c:50
    else if(tx_pin == UART2_TX_A2)
    1e34:	47c1                	li	a5,16
    1e36:	04f50663          	beq	a0,a5,1e82 <uart_gpio_init+0x82>
F:\SCHOOL\文件\智能车\全向组\RTTThreadCH32V103\camCoreWithRTOS\obj/../Libraries/seekfree_libraries/zf_uart.c:56
    else if(tx_pin == UART3_TX_B10)
    1e3a:	02000793          	li	a5,32
    1e3e:	06f51063          	bne	a0,a5,1e9e <uart_gpio_init+0x9e>
F:\SCHOOL\文件\智能车\全向组\RTTThreadCH32V103\camCoreWithRTOS\obj/../Libraries/seekfree_libraries/zf_uart.c:58
        gpio_init(B10, GPO, 0, SPEED_50MHZ|OUT_AF_PP);
    1e42:	31800693          	li	a3,792
    1e46:	4601                	li	a2,0
    1e48:	4585                	li	a1,1
    1e4a:	02a00513          	li	a0,42
    1e4e:	bcfff0ef          	jal	ra,1a1c <gpio_init>
F:\SCHOOL\文件\智能车\全向组\RTTThreadCH32V103\camCoreWithRTOS\obj/../Libraries/seekfree_libraries/zf_uart.c:59
        gpio_init(B11, GPI, 0, IN_FLOAT);
    1e52:	4691                	li	a3,4
    1e54:	4601                	li	a2,0
    1e56:	4581                	li	a1,0
    1e58:	02b00513          	li	a0,43
    1e5c:	bc1ff0ef          	jal	ra,1a1c <gpio_init>
    1e60:	b775                	j	1e0c <uart_gpio_init+0xc>
F:\SCHOOL\文件\智能车\全向组\RTTThreadCH32V103\camCoreWithRTOS\obj/../Libraries/seekfree_libraries/zf_uart.c:46
        gpio_init(B6, GPO, 0, SPEED_50MHZ|OUT_AF_PP);
    1e62:	31800693          	li	a3,792
    1e66:	4601                	li	a2,0
    1e68:	4585                	li	a1,1
    1e6a:	02600513          	li	a0,38
    1e6e:	bafff0ef          	jal	ra,1a1c <gpio_init>
F:\SCHOOL\文件\智能车\全向组\RTTThreadCH32V103\camCoreWithRTOS\obj/../Libraries/seekfree_libraries/zf_uart.c:47
        gpio_init(B7, GPI, 0, IN_FLOAT);
    1e72:	4691                	li	a3,4
    1e74:	4601                	li	a2,0
    1e76:	4581                	li	a1,0
    1e78:	02700513          	li	a0,39
    1e7c:	ba1ff0ef          	jal	ra,1a1c <gpio_init>
    1e80:	b771                	j	1e0c <uart_gpio_init+0xc>
F:\SCHOOL\文件\智能车\全向组\RTTThreadCH32V103\camCoreWithRTOS\obj/../Libraries/seekfree_libraries/zf_uart.c:52
        gpio_init(A2, GPO, 0, SPEED_50MHZ|OUT_AF_PP);
    1e82:	31800693          	li	a3,792
    1e86:	4601                	li	a2,0
    1e88:	4585                	li	a1,1
    1e8a:	4509                	li	a0,2
    1e8c:	b91ff0ef          	jal	ra,1a1c <gpio_init>
F:\SCHOOL\文件\智能车\全向组\RTTThreadCH32V103\camCoreWithRTOS\obj/../Libraries/seekfree_libraries/zf_uart.c:53
        gpio_init(A3, GPI, 0, IN_FLOAT);
    1e90:	4691                	li	a3,4
    1e92:	4601                	li	a2,0
    1e94:	4581                	li	a1,0
    1e96:	450d                	li	a0,3
    1e98:	b85ff0ef          	jal	ra,1a1c <gpio_init>
    1e9c:	bf85                	j	1e0c <uart_gpio_init+0xc>
F:\SCHOOL\文件\智能车\全向组\RTTThreadCH32V103\camCoreWithRTOS\obj/../Libraries/seekfree_libraries/zf_uart.c:62
    else if(tx_pin == UART3_TX_C10)
    1e9e:	02200793          	li	a5,34
    1ea2:	f6f515e3          	bne	a0,a5,1e0c <uart_gpio_init+0xc>
F:\SCHOOL\文件\智能车\全向组\RTTThreadCH32V103\camCoreWithRTOS\obj/../Libraries/seekfree_libraries/zf_uart.c:64
        gpio_init(C10, GPO, 0, SPEED_50MHZ|OUT_AF_PP);
    1ea6:	31800693          	li	a3,792
    1eaa:	4601                	li	a2,0
    1eac:	4585                	li	a1,1
    1eae:	04a00513          	li	a0,74
    1eb2:	b6bff0ef          	jal	ra,1a1c <gpio_init>
F:\SCHOOL\文件\智能车\全向组\RTTThreadCH32V103\camCoreWithRTOS\obj/../Libraries/seekfree_libraries/zf_uart.c:65
        gpio_init(C11, GPI, 0, IN_FLOAT);
    1eb6:	4691                	li	a3,4
    1eb8:	4601                	li	a2,0
    1eba:	4581                	li	a1,0
    1ebc:	04b00513          	li	a0,75
    1ec0:	b5dff0ef          	jal	ra,1a1c <gpio_init>
F:\SCHOOL\文件\智能车\全向组\RTTThreadCH32V103\camCoreWithRTOS\obj/../Libraries/seekfree_libraries/zf_uart.c:67
}
    1ec4:	b7a1                	j	1e0c <uart_gpio_init+0xc>

00001ec6 <uart_init>:
uart_init():
F:\SCHOOL\文件\智能车\全向组\RTTThreadCH32V103\camCoreWithRTOS\obj/../Libraries/seekfree_libraries/zf_uart.c:79
//  @param      rx_pin      串口接收引脚号
//  @return     void
//  Sample usage:           uart_init(UART_1, 115200, UART1_TX_A9, UART1_RX_A10); //串口1初始化引脚号,TX为A9,RX为A10
//-------------------------------------------------------------------------------------------------------------------
void uart_init(UARTN_enum uartn, uint32 baud, UARTPIN_enum tx_pin, UARTPIN_enum rx_pin)
{
    1ec6:	7179                	addi	sp,sp,-48
    1ec8:	d606                	sw	ra,44(sp)
    1eca:	d422                	sw	s0,40(sp)
    1ecc:	d226                	sw	s1,36(sp)
    1ece:	d04a                	sw	s2,32(sp)
    1ed0:	ce4e                	sw	s3,28(sp)
    1ed2:	842a                	mv	s0,a0
    1ed4:	89ae                	mv	s3,a1
    1ed6:	84b2                	mv	s1,a2
    1ed8:	8936                	mv	s2,a3
F:\SCHOOL\文件\智能车\全向组\RTTThreadCH32V103\camCoreWithRTOS\obj/../Libraries/seekfree_libraries/zf_uart.c:83
    USART_InitTypeDef USART_InitStructure;


    RCC_APB2PeriphClockCmd(RCC_APB2Periph_AFIO, ENABLE);
    1eda:	4585                	li	a1,1
    1edc:	4505                	li	a0,1
    1ede:	bbcff0ef          	jal	ra,129a <RCC_APB2PeriphClockCmd>
F:\SCHOOL\文件\智能车\全向组\RTTThreadCH32V103\camCoreWithRTOS\obj/../Libraries/seekfree_libraries/zf_uart.c:86

    //引脚初始化
    uart_gpio_init(tx_pin, rx_pin);
    1ee2:	85ca                	mv	a1,s2
    1ee4:	8526                	mv	a0,s1
    1ee6:	3f29                	jal	1e00 <uart_gpio_init>
F:\SCHOOL\文件\智能车\全向组\RTTThreadCH32V103\camCoreWithRTOS\obj/../Libraries/seekfree_libraries/zf_uart.c:88

    if(UART1_TX_B6 == tx_pin && UART1_RX_B7 == rx_pin)                         //引脚重映射
    1ee8:	4789                	li	a5,2
    1eea:	02f48163          	beq	s1,a5,1f0c <uart_init+0x46>
F:\SCHOOL\文件\智能车\全向组\RTTThreadCH32V103\camCoreWithRTOS\obj/../Libraries/seekfree_libraries/zf_uart.c:90
        GPIO_PinRemapConfig(GPIO_Remap_USART1, ENABLE);
    if(UART3_TX_C10 == tx_pin && UART3_RX_C11 == rx_pin)
    1eee:	02200793          	li	a5,34
    1ef2:	02f49063          	bne	s1,a5,1f12 <uart_init+0x4c>
F:\SCHOOL\文件\智能车\全向组\RTTThreadCH32V103\camCoreWithRTOS\obj/../Libraries/seekfree_libraries/zf_uart.c:90 (discriminator 1)
    1ef6:	02300793          	li	a5,35
    1efa:	00f91c63          	bne	s2,a5,1f12 <uart_init+0x4c>
F:\SCHOOL\文件\智能车\全向组\RTTThreadCH32V103\camCoreWithRTOS\obj/../Libraries/seekfree_libraries/zf_uart.c:91
        GPIO_PinRemapConfig(GPIO_PartialRemap_USART3, ENABLE);
    1efe:	4585                	li	a1,1
    1f00:	00140537          	lui	a0,0x140
    1f04:	0541                	addi	a0,a0,16
    1f06:	95aff0ef          	jal	ra,1060 <GPIO_PinRemapConfig>
    1f0a:	a021                	j	1f12 <uart_init+0x4c>
F:\SCHOOL\文件\智能车\全向组\RTTThreadCH32V103\camCoreWithRTOS\obj/../Libraries/seekfree_libraries/zf_uart.c:88 (discriminator 1)
    if(UART1_TX_B6 == tx_pin && UART1_RX_B7 == rx_pin)                         //引脚重映射
    1f0c:	478d                	li	a5,3
    1f0e:	04f90a63          	beq	s2,a5,1f62 <uart_init+0x9c>
F:\SCHOOL\文件\智能车\全向组\RTTThreadCH32V103\camCoreWithRTOS\obj/../Libraries/seekfree_libraries/zf_uart.c:94

    //串口总线使能
    if(UART_1 == uartn) RCC_APB2PeriphClockCmd(RCC_APB2Periph_USART1, ENABLE);
    1f12:	cc29                	beqz	s0,1f6c <uart_init+0xa6>
F:\SCHOOL\文件\智能车\全向组\RTTThreadCH32V103\camCoreWithRTOS\obj/../Libraries/seekfree_libraries/zf_uart.c:95
    else if(UART_2 == uartn) RCC_APB1PeriphClockCmd(RCC_APB1Periph_USART2, ENABLE);
    1f14:	4785                	li	a5,1
    1f16:	06f40063          	beq	s0,a5,1f76 <uart_init+0xb0>
F:\SCHOOL\文件\智能车\全向组\RTTThreadCH32V103\camCoreWithRTOS\obj/../Libraries/seekfree_libraries/zf_uart.c:96
    else if(UART_3 == uartn) RCC_APB1PeriphClockCmd(RCC_APB1Periph_USART3, ENABLE);
    1f1a:	4789                	li	a5,2
    1f1c:	06f40363          	beq	s0,a5,1f82 <uart_init+0xbc>
F:\SCHOOL\文件\智能车\全向组\RTTThreadCH32V103\camCoreWithRTOS\obj/../Libraries/seekfree_libraries/zf_uart.c:99

    //串口参数配置
    USART_InitStructure.USART_BaudRate = baud;
    1f20:	c04e                	sw	s3,0(sp)
F:\SCHOOL\文件\智能车\全向组\RTTThreadCH32V103\camCoreWithRTOS\obj/../Libraries/seekfree_libraries/zf_uart.c:100
    USART_InitStructure.USART_WordLength = USART_WordLength_8b;
    1f22:	00011223          	sh	zero,4(sp)
F:\SCHOOL\文件\智能车\全向组\RTTThreadCH32V103\camCoreWithRTOS\obj/../Libraries/seekfree_libraries/zf_uart.c:101
    USART_InitStructure.USART_StopBits = USART_StopBits_1;
    1f26:	00011323          	sh	zero,6(sp)
F:\SCHOOL\文件\智能车\全向组\RTTThreadCH32V103\camCoreWithRTOS\obj/../Libraries/seekfree_libraries/zf_uart.c:102
    USART_InitStructure.USART_Parity = USART_Parity_No;
    1f2a:	00011423          	sh	zero,8(sp)
F:\SCHOOL\文件\智能车\全向组\RTTThreadCH32V103\camCoreWithRTOS\obj/../Libraries/seekfree_libraries/zf_uart.c:103
    USART_InitStructure.USART_HardwareFlowControl = USART_HardwareFlowControl_None;
    1f2e:	00011623          	sh	zero,12(sp)
F:\SCHOOL\文件\智能车\全向组\RTTThreadCH32V103\camCoreWithRTOS\obj/../Libraries/seekfree_libraries/zf_uart.c:104
    USART_InitStructure.USART_Mode = USART_Mode_Tx | USART_Mode_Rx;
    1f32:	47b1                	li	a5,12
    1f34:	00f11523          	sh	a5,10(sp)
F:\SCHOOL\文件\智能车\全向组\RTTThreadCH32V103\camCoreWithRTOS\obj/../Libraries/seekfree_libraries/zf_uart.c:107

    //使能串口
    USART_Init((USART_TypeDef*)UARTN[uartn], &USART_InitStructure);
    1f38:	040a                	slli	s0,s0,0x2
    1f3a:	679d                	lui	a5,0x7
    1f3c:	b7478793          	addi	a5,a5,-1164 # 6b74 <UARTN>
    1f40:	943e                	add	s0,s0,a5
    1f42:	4000                	lw	s0,0(s0)
    1f44:	858a                	mv	a1,sp
    1f46:	8522                	mv	a0,s0
    1f48:	cf0ff0ef          	jal	ra,1438 <USART_Init>
F:\SCHOOL\文件\智能车\全向组\RTTThreadCH32V103\camCoreWithRTOS\obj/../Libraries/seekfree_libraries/zf_uart.c:108
    USART_Cmd((USART_TypeDef*)UARTN[uartn], ENABLE);
    1f4c:	4585                	li	a1,1
    1f4e:	8522                	mv	a0,s0
    1f50:	ddeff0ef          	jal	ra,152e <USART_Cmd>
F:\SCHOOL\文件\智能车\全向组\RTTThreadCH32V103\camCoreWithRTOS\obj/../Libraries/seekfree_libraries/zf_uart.c:111


}
    1f54:	50b2                	lw	ra,44(sp)
    1f56:	5422                	lw	s0,40(sp)
    1f58:	5492                	lw	s1,36(sp)
    1f5a:	5902                	lw	s2,32(sp)
    1f5c:	49f2                	lw	s3,28(sp)
    1f5e:	6145                	addi	sp,sp,48
    1f60:	8082                	ret
F:\SCHOOL\文件\智能车\全向组\RTTThreadCH32V103\camCoreWithRTOS\obj/../Libraries/seekfree_libraries/zf_uart.c:89
        GPIO_PinRemapConfig(GPIO_Remap_USART1, ENABLE);
    1f62:	4585                	li	a1,1
    1f64:	4511                	li	a0,4
    1f66:	8faff0ef          	jal	ra,1060 <GPIO_PinRemapConfig>
    1f6a:	b765                	j	1f12 <uart_init+0x4c>
F:\SCHOOL\文件\智能车\全向组\RTTThreadCH32V103\camCoreWithRTOS\obj/../Libraries/seekfree_libraries/zf_uart.c:94 (discriminator 1)
    if(UART_1 == uartn) RCC_APB2PeriphClockCmd(RCC_APB2Periph_USART1, ENABLE);
    1f6c:	4585                	li	a1,1
    1f6e:	6511                	lui	a0,0x4
    1f70:	b2aff0ef          	jal	ra,129a <RCC_APB2PeriphClockCmd>
    1f74:	b775                	j	1f20 <uart_init+0x5a>
F:\SCHOOL\文件\智能车\全向组\RTTThreadCH32V103\camCoreWithRTOS\obj/../Libraries/seekfree_libraries/zf_uart.c:95 (discriminator 1)
    else if(UART_2 == uartn) RCC_APB1PeriphClockCmd(RCC_APB1Periph_USART2, ENABLE);
    1f76:	4585                	li	a1,1
    1f78:	00020537          	lui	a0,0x20
    1f7c:	b3cff0ef          	jal	ra,12b8 <RCC_APB1PeriphClockCmd>
    1f80:	b745                	j	1f20 <uart_init+0x5a>
F:\SCHOOL\文件\智能车\全向组\RTTThreadCH32V103\camCoreWithRTOS\obj/../Libraries/seekfree_libraries/zf_uart.c:96 (discriminator 1)
    else if(UART_3 == uartn) RCC_APB1PeriphClockCmd(RCC_APB1Periph_USART3, ENABLE);
    1f82:	4585                	li	a1,1
    1f84:	00040537          	lui	a0,0x40
    1f88:	b30ff0ef          	jal	ra,12b8 <RCC_APB1PeriphClockCmd>
    1f8c:	bf51                	j	1f20 <uart_init+0x5a>

00001f8e <uart_putchar>:
uart_putchar():
F:\SCHOOL\文件\智能车\全向组\RTTThreadCH32V103\camCoreWithRTOS\obj/../Libraries/seekfree_libraries/zf_uart.c:123
//  @return     void
//  Sample usage:           uart_putchar(UART_1, 0x43);        //串口1发送0x43。
//-------------------------------------------------------------------------------------------------------------------
void uart_putchar(UARTN_enum uartn, uint8 dat)
{
    while((((USART_TypeDef*)UARTN[uartn])->STATR & USART_FLAG_TXE)==0);
    1f8e:	050a                	slli	a0,a0,0x2
    1f90:	679d                	lui	a5,0x7
    1f92:	b7478793          	addi	a5,a5,-1164 # 6b74 <UARTN>
    1f96:	97aa                	add	a5,a5,a0
    1f98:	4398                	lw	a4,0(a5)
F:\SCHOOL\文件\智能车\全向组\RTTThreadCH32V103\camCoreWithRTOS\obj/../Libraries/seekfree_libraries/zf_uart.c:123 (discriminator 1)
    1f9a:	00075783          	lhu	a5,0(a4)
    1f9e:	0807f793          	andi	a5,a5,128
    1fa2:	dfe5                	beqz	a5,1f9a <uart_putchar+0xc>
F:\SCHOOL\文件\智能车\全向组\RTTThreadCH32V103\camCoreWithRTOS\obj/../Libraries/seekfree_libraries/zf_uart.c:124
    ((USART_TypeDef*)UARTN[uartn])->DATAR = dat;
    1fa4:	05c2                	slli	a1,a1,0x10
    1fa6:	81c1                	srli	a1,a1,0x10
    1fa8:	00b71223          	sh	a1,4(a4)
F:\SCHOOL\文件\智能车\全向组\RTTThreadCH32V103\camCoreWithRTOS\obj/../Libraries/seekfree_libraries/zf_uart.c:125
}
    1fac:	8082                	ret

00001fae <uart_putbuff>:
uart_putbuff():
F:\SCHOOL\文件\智能车\全向组\RTTThreadCH32V103\camCoreWithRTOS\obj/../Libraries/seekfree_libraries/zf_uart.c:137
//  @return     void
//  Sample usage:           uart_putbuff(UART_1, buff, 10);     //串口1发送10个buff数组。
//-------------------------------------------------------------------------------------------------------------------
void uart_putbuff(UARTN_enum uartn, uint8 *buff, uint32 len)
{
    while(len--)
    1fae:	c61d                	beqz	a2,1fdc <uart_putbuff+0x2e>
F:\SCHOOL\文件\智能车\全向组\RTTThreadCH32V103\camCoreWithRTOS\obj/../Libraries/seekfree_libraries/zf_uart.c:136
{
    1fb0:	1141                	addi	sp,sp,-16
    1fb2:	c606                	sw	ra,12(sp)
    1fb4:	c422                	sw	s0,8(sp)
    1fb6:	c226                	sw	s1,4(sp)
    1fb8:	c04a                	sw	s2,0(sp)
    1fba:	892a                	mv	s2,a0
    1fbc:	842e                	mv	s0,a1
    1fbe:	00c584b3          	add	s1,a1,a2
F:\SCHOOL\文件\智能车\全向组\RTTThreadCH32V103\camCoreWithRTOS\obj/../Libraries/seekfree_libraries/zf_uart.c:138
        uart_putchar(uartn, *buff++);
    1fc2:	0405                	addi	s0,s0,1
    1fc4:	fff44583          	lbu	a1,-1(s0)
    1fc8:	854a                	mv	a0,s2
    1fca:	37d1                	jal	1f8e <uart_putchar>
F:\SCHOOL\文件\智能车\全向组\RTTThreadCH32V103\camCoreWithRTOS\obj/../Libraries/seekfree_libraries/zf_uart.c:137
    while(len--)
    1fcc:	fe849be3          	bne	s1,s0,1fc2 <uart_putbuff+0x14>
F:\SCHOOL\文件\智能车\全向组\RTTThreadCH32V103\camCoreWithRTOS\obj/../Libraries/seekfree_libraries/zf_uart.c:139
}
    1fd0:	40b2                	lw	ra,12(sp)
    1fd2:	4422                	lw	s0,8(sp)
    1fd4:	4492                	lw	s1,4(sp)
    1fd6:	4902                	lw	s2,0(sp)
    1fd8:	0141                	addi	sp,sp,16
    1fda:	8082                	ret
    1fdc:	8082                	ret

00001fde <uart_rx_irq>:
uart_rx_irq():
F:\SCHOOL\文件\智能车\全向组\RTTThreadCH32V103\camCoreWithRTOS\obj/../Libraries/seekfree_libraries/zf_uart.c:165
//  @param      status      使能或者失能
//  @return     void
//  Sample usage:           uart_rx_irq(UART_1, ENABLE);        //打开串口1接收中断
//-------------------------------------------------------------------------------------------------------------------
void uart_rx_irq(UARTN_enum uartn,uint8 status)
{
    1fde:	1141                	addi	sp,sp,-16
    1fe0:	c606                	sw	ra,12(sp)
    1fe2:	c422                	sw	s0,8(sp)
    1fe4:	c226                	sw	s1,4(sp)
    1fe6:	842a                	mv	s0,a0
    1fe8:	84ae                	mv	s1,a1
F:\SCHOOL\文件\智能车\全向组\RTTThreadCH32V103\camCoreWithRTOS\obj/../Libraries/seekfree_libraries/zf_uart.c:166
    USART_ITConfig(((USART_TypeDef*)UARTN[uartn]), USART_IT_RXNE, ENABLE);
    1fea:	00251713          	slli	a4,a0,0x2
    1fee:	679d                	lui	a5,0x7
    1ff0:	b7478793          	addi	a5,a5,-1164 # 6b74 <UARTN>
    1ff4:	97ba                	add	a5,a5,a4
    1ff6:	4605                	li	a2,1
    1ff8:	52500593          	li	a1,1317
    1ffc:	4388                	lw	a0,0(a5)
    1ffe:	d50ff0ef          	jal	ra,154e <USART_ITConfig>
F:\SCHOOL\文件\智能车\全向组\RTTThreadCH32V103\camCoreWithRTOS\obj/../Libraries/seekfree_libraries/zf_uart.c:167
    nvic_init(USART1_IRQn + uartn, 1, 0, status);
    2002:	86a6                	mv	a3,s1
    2004:	4601                	li	a2,0
    2006:	4585                	li	a1,1
    2008:	03540513          	addi	a0,s0,53
    200c:	b57ff0ef          	jal	ra,1b62 <nvic_init>
F:\SCHOOL\文件\智能车\全向组\RTTThreadCH32V103\camCoreWithRTOS\obj/../Libraries/seekfree_libraries/zf_uart.c:168
}
    2010:	40b2                	lw	ra,12(sp)
    2012:	4422                	lw	s0,8(sp)
    2014:	4492                	lw	s1,4(sp)
    2016:	0141                	addi	sp,sp,16
    2018:	8082                	ret

0000201a <uart_getchar>:
uart_getchar():
F:\SCHOOL\文件\智能车\全向组\RTTThreadCH32V103\camCoreWithRTOS\obj/../Libraries/seekfree_libraries/zf_uart.c:193
//  @return     void
//  Sample usage:               uint8 dat; uart_getchar(USART_1,&dat);       // 接收串口1数据  存在在dat变量里
//-------------------------------------------------------------------------------------------------------------------
void uart_getchar(UARTN_enum uartn, uint8 *dat)
{
    while((((USART_TypeDef*)UARTN[uartn])->STATR & USART_FLAG_RXNE) == 0);
    201a:	050a                	slli	a0,a0,0x2
    201c:	679d                	lui	a5,0x7
    201e:	b7478793          	addi	a5,a5,-1164 # 6b74 <UARTN>
    2022:	97aa                	add	a5,a5,a0
    2024:	4398                	lw	a4,0(a5)
F:\SCHOOL\文件\智能车\全向组\RTTThreadCH32V103\camCoreWithRTOS\obj/../Libraries/seekfree_libraries/zf_uart.c:193 (discriminator 1)
    2026:	00075783          	lhu	a5,0(a4)
    202a:	0207f793          	andi	a5,a5,32
    202e:	dfe5                	beqz	a5,2026 <uart_getchar+0xc>
F:\SCHOOL\文件\智能车\全向组\RTTThreadCH32V103\camCoreWithRTOS\obj/../Libraries/seekfree_libraries/zf_uart.c:194
    *dat = (uint16_t)(((USART_TypeDef*)UARTN[uartn])->DATAR & (uint16_t)0x01FF);
    2030:	00475783          	lhu	a5,4(a4)
    2034:	00f58023          	sb	a5,0(a1)
F:\SCHOOL\文件\智能车\全向组\RTTThreadCH32V103\camCoreWithRTOS\obj/../Libraries/seekfree_libraries/zf_uart.c:195
}
    2038:	8082                	ret

0000203a <uart_query>:
uart_query():
F:\SCHOOL\文件\智能车\全向组\RTTThreadCH32V103\camCoreWithRTOS\obj/../Libraries/seekfree_libraries/zf_uart.c:206
//  @return     uint8           1：接收成功   0：未接收到数据
//  Sample usage:               uint8 dat; uart_query(USART_1,&dat);       // 接收串口1数据  存在在dat变量里
//-------------------------------------------------------------------------------------------------------------------
uint8 uart_query(UARTN_enum uartn, uint8 *dat)
{
    if((((USART_TypeDef*)UARTN[uartn])->STATR & USART_FLAG_RXNE) != 0)
    203a:	050a                	slli	a0,a0,0x2
    203c:	679d                	lui	a5,0x7
    203e:	b7478793          	addi	a5,a5,-1164 # 6b74 <UARTN>
    2042:	97aa                	add	a5,a5,a0
    2044:	4398                	lw	a4,0(a5)
    2046:	00075783          	lhu	a5,0(a4)
    204a:	0207f793          	andi	a5,a5,32
    204e:	e399                	bnez	a5,2054 <uart_query+0x1a>
F:\SCHOOL\文件\智能车\全向组\RTTThreadCH32V103\camCoreWithRTOS\obj/../Libraries/seekfree_libraries/zf_uart.c:211
    {
        *dat = (uint16_t)(((USART_TypeDef*)UARTN[uartn])->DATAR & (uint16_t)0x01FF);
        return 1;
    }
    return 0;
    2050:	4501                	li	a0,0
F:\SCHOOL\文件\智能车\全向组\RTTThreadCH32V103\camCoreWithRTOS\obj/../Libraries/seekfree_libraries/zf_uart.c:212
}
    2052:	8082                	ret
F:\SCHOOL\文件\智能车\全向组\RTTThreadCH32V103\camCoreWithRTOS\obj/../Libraries/seekfree_libraries/zf_uart.c:208
        *dat = (uint16_t)(((USART_TypeDef*)UARTN[uartn])->DATAR & (uint16_t)0x01FF);
    2054:	00475783          	lhu	a5,4(a4)
    2058:	00f58023          	sb	a5,0(a1)
F:\SCHOOL\文件\智能车\全向组\RTTThreadCH32V103\camCoreWithRTOS\obj/../Libraries/seekfree_libraries/zf_uart.c:209
        return 1;
    205c:	4505                	li	a0,1
    205e:	8082                	ret

00002060 <rt_tick_get>:
rt_tick_get():
F:\SCHOOL\文件\智能车\全向组\RTTThreadCH32V103\camCoreWithRTOS\obj/../Libraries/rtthread_libraries/src/clock.c:48
 */
rt_tick_t rt_tick_get(void)
{
    /* return the global tick */
    return rt_tick;
}
    2060:	84c1a503          	lw	a0,-1972(gp) # 200000fc <rt_tick>
    2064:	8082                	ret

00002066 <rt_tick_increase>:
rt_tick_increase():
F:\SCHOOL\文件\智能车\全向组\RTTThreadCH32V103\camCoreWithRTOS\obj/../Libraries/rtthread_libraries/src/clock.c:68
/**
 * This function will notify kernel there is one tick passed. Normally,
 * this function is invoked by clock ISR.
 */
void rt_tick_increase(void)
{
    2066:	1141                	addi	sp,sp,-16
    2068:	c606                	sw	ra,12(sp)
F:\SCHOOL\文件\智能车\全向组\RTTThreadCH32V103\camCoreWithRTOS\obj/../Libraries/rtthread_libraries/src/clock.c:72
    struct rt_thread *thread;

    /* increase the global tick */
    ++ rt_tick;
    206a:	84c18793          	addi	a5,gp,-1972 # 200000fc <rt_tick>
    206e:	4398                	lw	a4,0(a5)
    2070:	0705                	addi	a4,a4,1
    2072:	c398                	sw	a4,0(a5)
F:\SCHOOL\文件\智能车\全向组\RTTThreadCH32V103\camCoreWithRTOS\obj/../Libraries/rtthread_libraries/src/clock.c:75

    /* check time slice */
    thread = rt_thread_self();
    2074:	6ee010ef          	jal	ra,3762 <rt_thread_self>
F:\SCHOOL\文件\智能车\全向组\RTTThreadCH32V103\camCoreWithRTOS\obj/../Libraries/rtthread_libraries/src/clock.c:77

    -- thread->remaining_tick;
    2078:	413c                	lw	a5,64(a0)
    207a:	17fd                	addi	a5,a5,-1
    207c:	c13c                	sw	a5,64(a0)
F:\SCHOOL\文件\智能车\全向组\RTTThreadCH32V103\camCoreWithRTOS\obj/../Libraries/rtthread_libraries/src/clock.c:78
    if (thread->remaining_tick == 0)
    207e:	c791                	beqz	a5,208a <rt_tick_increase+0x24>
F:\SCHOOL\文件\智能车\全向组\RTTThreadCH32V103\camCoreWithRTOS\obj/../Libraries/rtthread_libraries/src/clock.c:88
        /* yield */
        rt_thread_yield();
    }

    /* check timer */
    rt_timer_check();
    2080:	31b010ef          	jal	ra,3b9a <rt_timer_check>
F:\SCHOOL\文件\智能车\全向组\RTTThreadCH32V103\camCoreWithRTOS\obj/../Libraries/rtthread_libraries/src/clock.c:89
}
    2084:	40b2                	lw	ra,12(sp)
    2086:	0141                	addi	sp,sp,16
    2088:	8082                	ret
F:\SCHOOL\文件\智能车\全向组\RTTThreadCH32V103\camCoreWithRTOS\obj/../Libraries/rtthread_libraries/src/clock.c:81
        thread->remaining_tick = thread->init_tick;
    208a:	5d5c                	lw	a5,60(a0)
    208c:	c13c                	sw	a5,64(a0)
F:\SCHOOL\文件\智能车\全向组\RTTThreadCH32V103\camCoreWithRTOS\obj/../Libraries/rtthread_libraries/src/clock.c:84
        rt_thread_yield();
    208e:	79a010ef          	jal	ra,3828 <rt_thread_yield>
    2092:	b7fd                	j	2080 <rt_tick_increase+0x1a>

00002094 <rt_tick_from_millisecond>:
rt_tick_from_millisecond():
F:\SCHOOL\文件\智能车\全向组\RTTThreadCH32V103\camCoreWithRTOS\obj/../Libraries/rtthread_libraries/src/clock.c:105
 */
rt_tick_t rt_tick_from_millisecond(rt_int32_t ms)
{
    rt_tick_t tick;

    if (ms < 0)
    2094:	02054263          	bltz	a0,20b8 <rt_tick_from_millisecond+0x24>
F:\SCHOOL\文件\智能车\全向组\RTTThreadCH32V103\camCoreWithRTOS\obj/../Libraries/rtthread_libraries/src/clock.c:111
    {
        tick = (rt_tick_t)RT_WAITING_FOREVER;
    }
    else
    {
        tick = RT_TICK_PER_SECOND * (ms / 1000);
    2098:	3e800793          	li	a5,1000
    209c:	02f54733          	div	a4,a0,a5
    20a0:	02f70733          	mul	a4,a4,a5
F:\SCHOOL\文件\智能车\全向组\RTTThreadCH32V103\camCoreWithRTOS\obj/../Libraries/rtthread_libraries/src/clock.c:112
        tick += (RT_TICK_PER_SECOND * (ms % 1000) + 999) / 1000;
    20a4:	02f56533          	rem	a0,a0,a5
    20a8:	02f50533          	mul	a0,a0,a5
    20ac:	3e750513          	addi	a0,a0,999 # 403e7 <_data_lma+0x38e9f>
    20b0:	02f54533          	div	a0,a0,a5
    20b4:	953a                	add	a0,a0,a4
    20b6:	8082                	ret
F:\SCHOOL\文件\智能车\全向组\RTTThreadCH32V103\camCoreWithRTOS\obj/../Libraries/rtthread_libraries/src/clock.c:107
        tick = (rt_tick_t)RT_WAITING_FOREVER;
    20b8:	557d                	li	a0,-1
F:\SCHOOL\文件\智能车\全向组\RTTThreadCH32V103\camCoreWithRTOS\obj/../Libraries/rtthread_libraries/src/clock.c:117
    }
    
    /* return the calculated tick */
    return tick;
}
    20ba:	8082                	ret

000020bc <rti_start>:
rti_start():
F:\SCHOOL\文件\智能车\全向组\RTTThreadCH32V103\camCoreWithRTOS\obj/../Libraries/rtthread_libraries/src/components.c:61
 * etc.
 */
static int rti_start(void)
{
    return 0;
}
    20bc:	4501                	li	a0,0
    20be:	8082                	ret

000020c0 <rti_board_start>:
rti_board_start():
F:\SCHOOL\文件\智能车\全向组\RTTThreadCH32V103\camCoreWithRTOS\obj/../Libraries/rtthread_libraries/src/components.c:67
INIT_EXPORT(rti_start, "0");

static int rti_board_start(void)
{
    return 0;
}
    20c0:	4501                	li	a0,0
    20c2:	8082                	ret

000020c4 <rti_board_end>:
rti_board_end():
F:\SCHOOL\文件\智能车\全向组\RTTThreadCH32V103\camCoreWithRTOS\obj/../Libraries/rtthread_libraries/src/components.c:73
INIT_EXPORT(rti_board_start, "0.end");

static int rti_board_end(void)
{
    return 0;
}
    20c4:	4501                	li	a0,0
    20c6:	8082                	ret

000020c8 <rti_end>:
rti_end():
F:\SCHOOL\文件\智能车\全向组\RTTThreadCH32V103\camCoreWithRTOS\obj/../Libraries/rtthread_libraries/src/components.c:79
INIT_EXPORT(rti_board_end, "1.end");

static int rti_end(void)
{
    return 0;
}
    20c8:	4501                	li	a0,0
    20ca:	8082                	ret

000020cc <rt_components_board_init>:
rt_components_board_init():
F:\SCHOOL\文件\智能车\全向组\RTTThreadCH32V103\camCoreWithRTOS\obj/../Libraries/rtthread_libraries/src/components.c:99
        rt_kprintf(":%d done\n", result);
    }
#else
    const init_fn_t *fn_ptr;

    for (fn_ptr = &__rt_init_rti_board_start; fn_ptr < &__rt_init_rti_board_end; fn_ptr++)
    20cc:	671d                	lui	a4,0x7
    20ce:	4b470713          	addi	a4,a4,1204 # 74b4 <__rt_init_rti_board_start>
    20d2:	679d                	lui	a5,0x7
    20d4:	4b878793          	addi	a5,a5,1208 # 74b8 <__rt_init_rti_board_end>
    20d8:	02f77c63          	bgeu	a4,a5,2110 <rt_components_board_init+0x44>
F:\SCHOOL\文件\智能车\全向组\RTTThreadCH32V103\camCoreWithRTOS\obj/../Libraries/rtthread_libraries/src/components.c:86
{
    20dc:	1141                	addi	sp,sp,-16
    20de:	c606                	sw	ra,12(sp)
    20e0:	c422                	sw	s0,8(sp)
    20e2:	c226                	sw	s1,4(sp)
    20e4:	641d                	lui	s0,0x7
    20e6:	4b440493          	addi	s1,s0,1204 # 74b4 <__rt_init_rti_board_start>
    20ea:	679d                	lui	a5,0x7
    20ec:	4b778793          	addi	a5,a5,1207 # 74b7 <__rt_init_rti_board_start+0x3>
    20f0:	8f85                	sub	a5,a5,s1
    20f2:	9bf1                	andi	a5,a5,-4
    20f4:	0791                	addi	a5,a5,4
    20f6:	94be                	add	s1,s1,a5
F:\SCHOOL\文件\智能车\全向组\RTTThreadCH32V103\camCoreWithRTOS\obj/../Libraries/rtthread_libraries/src/components.c:99
    for (fn_ptr = &__rt_init_rti_board_start; fn_ptr < &__rt_init_rti_board_end; fn_ptr++)
    20f8:	4b440413          	addi	s0,s0,1204
F:\SCHOOL\文件\智能车\全向组\RTTThreadCH32V103\camCoreWithRTOS\obj/../Libraries/rtthread_libraries/src/components.c:101 (discriminator 3)
    {
        (*fn_ptr)();
    20fc:	401c                	lw	a5,0(s0)
    20fe:	9782                	jalr	a5
F:\SCHOOL\文件\智能车\全向组\RTTThreadCH32V103\camCoreWithRTOS\obj/../Libraries/rtthread_libraries/src/components.c:99 (discriminator 3)
    for (fn_ptr = &__rt_init_rti_board_start; fn_ptr < &__rt_init_rti_board_end; fn_ptr++)
    2100:	0411                	addi	s0,s0,4
    2102:	fe941de3          	bne	s0,s1,20fc <rt_components_board_init+0x30>
F:\SCHOOL\文件\智能车\全向组\RTTThreadCH32V103\camCoreWithRTOS\obj/../Libraries/rtthread_libraries/src/components.c:104
    }
#endif
}
    2106:	40b2                	lw	ra,12(sp)
    2108:	4422                	lw	s0,8(sp)
    210a:	4492                	lw	s1,4(sp)
    210c:	0141                	addi	sp,sp,16
    210e:	8082                	ret
    2110:	8082                	ret

00002112 <rt_components_init>:
rt_components_init():
F:\SCHOOL\文件\智能车\全向组\RTTThreadCH32V103\camCoreWithRTOS\obj/../Libraries/rtthread_libraries/src/components.c:125
        rt_kprintf(":%d done\n", result);
    }
#else
    const init_fn_t *fn_ptr;

    for (fn_ptr = &__rt_init_rti_board_end; fn_ptr < &__rt_init_rti_end; fn_ptr ++)
    2112:	671d                	lui	a4,0x7
    2114:	4b870713          	addi	a4,a4,1208 # 74b8 <__rt_init_rti_board_end>
    2118:	679d                	lui	a5,0x7
    211a:	4c078793          	addi	a5,a5,1216 # 74c0 <__rt_init_rti_end>
    211e:	02f77c63          	bgeu	a4,a5,2156 <rt_components_init+0x44>
F:\SCHOOL\文件\智能车\全向组\RTTThreadCH32V103\camCoreWithRTOS\obj/../Libraries/rtthread_libraries/src/components.c:110
{
    2122:	1141                	addi	sp,sp,-16
    2124:	c606                	sw	ra,12(sp)
    2126:	c422                	sw	s0,8(sp)
    2128:	c226                	sw	s1,4(sp)
    212a:	641d                	lui	s0,0x7
    212c:	4b840493          	addi	s1,s0,1208 # 74b8 <__rt_init_rti_board_end>
    2130:	679d                	lui	a5,0x7
    2132:	4bf78793          	addi	a5,a5,1215 # 74bf <__rt_init_finsh_system_init+0x3>
    2136:	8f85                	sub	a5,a5,s1
    2138:	9bf1                	andi	a5,a5,-4
    213a:	0791                	addi	a5,a5,4
    213c:	94be                	add	s1,s1,a5
F:\SCHOOL\文件\智能车\全向组\RTTThreadCH32V103\camCoreWithRTOS\obj/../Libraries/rtthread_libraries/src/components.c:125
    for (fn_ptr = &__rt_init_rti_board_end; fn_ptr < &__rt_init_rti_end; fn_ptr ++)
    213e:	4b840413          	addi	s0,s0,1208
F:\SCHOOL\文件\智能车\全向组\RTTThreadCH32V103\camCoreWithRTOS\obj/../Libraries/rtthread_libraries/src/components.c:127 (discriminator 3)
    {
        (*fn_ptr)();
    2142:	401c                	lw	a5,0(s0)
    2144:	9782                	jalr	a5
F:\SCHOOL\文件\智能车\全向组\RTTThreadCH32V103\camCoreWithRTOS\obj/../Libraries/rtthread_libraries/src/components.c:125 (discriminator 3)
    for (fn_ptr = &__rt_init_rti_board_end; fn_ptr < &__rt_init_rti_end; fn_ptr ++)
    2146:	0411                	addi	s0,s0,4
    2148:	fe941de3          	bne	s0,s1,2142 <rt_components_init+0x30>
F:\SCHOOL\文件\智能车\全向组\RTTThreadCH32V103\camCoreWithRTOS\obj/../Libraries/rtthread_libraries/src/components.c:130
    }
#endif
}
    214c:	40b2                	lw	ra,12(sp)
    214e:	4422                	lw	s0,8(sp)
    2150:	4492                	lw	s1,4(sp)
    2152:	0141                	addi	sp,sp,16
    2154:	8082                	ret
    2156:	8082                	ret

00002158 <main_thread_entry>:
main_thread_entry():
F:\SCHOOL\文件\智能车\全向组\RTTThreadCH32V103\camCoreWithRTOS\obj/../Libraries/rtthread_libraries/src/components.c:176
struct rt_thread main_thread;
#endif

/* the system main thread */
void main_thread_entry(void *parameter)
{
    2158:	1141                	addi	sp,sp,-16
    215a:	c606                	sw	ra,12(sp)
F:\SCHOOL\文件\智能车\全向组\RTTThreadCH32V103\camCoreWithRTOS\obj/../Libraries/rtthread_libraries/src/components.c:181
    extern int main(void);
    extern int $Super$$main(void);

    /* RT-Thread components initialization */
    rt_components_init();
    215c:	3f5d                	jal	2112 <rt_components_init>
F:\SCHOOL\文件\智能车\全向组\RTTThreadCH32V103\camCoreWithRTOS\obj/../Libraries/rtthread_libraries/src/components.c:187

    /* invoke system main function */
#if defined(__CC_ARM) || defined(__CLANG_ARM)
    $Super$$main(); /* for ARMCC. */
#elif defined(__ICCARM__) || defined(__GNUC__)
    main();
    215e:	cebfe0ef          	jal	ra,e48 <main>
F:\SCHOOL\文件\智能车\全向组\RTTThreadCH32V103\camCoreWithRTOS\obj/../Libraries/rtthread_libraries/src/components.c:189
#endif
}
    2162:	40b2                	lw	ra,12(sp)
    2164:	0141                	addi	sp,sp,16
    2166:	8082                	ret

00002168 <rt_application_init>:
rt_application_init():
F:\SCHOOL\文件\智能车\全向组\RTTThreadCH32V103\camCoreWithRTOS\obj/../Libraries/rtthread_libraries/src/components.c:192

void rt_application_init(void)
{
    2168:	1141                	addi	sp,sp,-16
    216a:	c606                	sw	ra,12(sp)
F:\SCHOOL\文件\智能车\全向组\RTTThreadCH32V103\camCoreWithRTOS\obj/../Libraries/rtthread_libraries/src/components.c:197
    rt_thread_t tid;


#ifdef RT_USING_HEAP
    tid = rt_thread_create("main", main_thread_entry, RT_NULL,
    216c:	47d1                	li	a5,20
    216e:	4709                	li	a4,2
    2170:	40000693          	li	a3,1024
    2174:	4601                	li	a2,0
    2176:	000025b7          	lui	a1,0x2
    217a:	15858593          	addi	a1,a1,344 # 2158 <main_thread_entry>
    217e:	00007537          	lui	a0,0x7
    2182:	b8450513          	addi	a0,a0,-1148 # 6b84 <UARTN+0x10>
    2186:	5e2010ef          	jal	ra,3768 <rt_thread_create>
F:\SCHOOL\文件\智能车\全向组\RTTThreadCH32V103\camCoreWithRTOS\obj/../Libraries/rtthread_libraries/src/components.c:212
	
    /* if not define RT_USING_HEAP, using to eliminate the warning */
    (void)result;
#endif

    rt_thread_startup(tid);
    218a:	7fa010ef          	jal	ra,3984 <rt_thread_startup>
F:\SCHOOL\文件\智能车\全向组\RTTThreadCH32V103\camCoreWithRTOS\obj/../Libraries/rtthread_libraries/src/components.c:213
}
    218e:	40b2                	lw	ra,12(sp)
    2190:	0141                	addi	sp,sp,16
    2192:	8082                	ret

00002194 <rtthread_startup>:
rtthread_startup():
F:\SCHOOL\文件\智能车\全向组\RTTThreadCH32V103\camCoreWithRTOS\obj/../Libraries/rtthread_libraries/src/components.c:216

int rtthread_startup(void)
{
    2194:	1141                	addi	sp,sp,-16
    2196:	c606                	sw	ra,12(sp)
F:\SCHOOL\文件\智能车\全向组\RTTThreadCH32V103\camCoreWithRTOS\obj/../Libraries/rtthread_libraries/src/components.c:217
    rt_hw_interrupt_disable();
    2198:	fa9fd0ef          	jal	ra,140 <rt_hw_interrupt_disable>
F:\SCHOOL\文件\智能车\全向组\RTTThreadCH32V103\camCoreWithRTOS\obj/../Libraries/rtthread_libraries/src/components.c:222

    /* board level initialization
     * NOTE: please initialize heap inside board initialization.
     */
    rt_hw_board_init();
    219c:	255020ef          	jal	ra,4bf0 <rt_hw_board_init>
F:\SCHOOL\文件\智能车\全向组\RTTThreadCH32V103\camCoreWithRTOS\obj/../Libraries/rtthread_libraries/src/components.c:225

    /* show RT-Thread version */
    rt_show_version();
    21a0:	559000ef          	jal	ra,2ef8 <rt_show_version>
F:\SCHOOL\文件\智能车\全向组\RTTThreadCH32V103\camCoreWithRTOS\obj/../Libraries/rtthread_libraries/src/components.c:228

    /* timer system initialization */ //定时器初始化
    rt_system_timer_init();
    21a4:	287010ef          	jal	ra,3c2a <rt_system_timer_init>
F:\SCHOOL\文件\智能车\全向组\RTTThreadCH32V103\camCoreWithRTOS\obj/../Libraries/rtthread_libraries/src/components.c:231

    /* scheduler system initialization */ //调度器初始化
    rt_system_scheduler_init();
    21a8:	2b4010ef          	jal	ra,345c <rt_system_scheduler_init>
F:\SCHOOL\文件\智能车\全向组\RTTThreadCH32V103\camCoreWithRTOS\obj/../Libraries/rtthread_libraries/src/components.c:239
    /* signal system initialization */
    rt_system_signal_init();
#endif

    /* create init_thread */
    rt_application_init(); //应用初始化中创建了main函数的入口
    21ac:	3f75                	jal	2168 <rt_application_init>
F:\SCHOOL\文件\智能车\全向组\RTTThreadCH32V103\camCoreWithRTOS\obj/../Libraries/rtthread_libraries/src/components.c:242

    /* timer thread initialization */
    rt_system_timer_thread_init();
    21ae:	287010ef          	jal	ra,3c34 <rt_system_timer_thread_init>
F:\SCHOOL\文件\智能车\全向组\RTTThreadCH32V103\camCoreWithRTOS\obj/../Libraries/rtthread_libraries/src/components.c:245

    /* idle thread initialization */
    rt_thread_idle_init();
    21b2:	20f1                	jal	227e <rt_thread_idle_init>
F:\SCHOOL\文件\智能车\全向组\RTTThreadCH32V103\camCoreWithRTOS\obj/../Libraries/rtthread_libraries/src/components.c:248

    /* start scheduler */
    rt_system_scheduler_start();
    21b4:	2d6010ef          	jal	ra,348a <rt_system_scheduler_start>
F:\SCHOOL\文件\智能车\全向组\RTTThreadCH32V103\camCoreWithRTOS\obj/../Libraries/rtthread_libraries/src/components.c:252

    /* never reach here */
    return 0;
}
    21b8:	4501                	li	a0,0
    21ba:	40b2                	lw	ra,12(sp)
    21bc:	0141                	addi	sp,sp,16
    21be:	8082                	ret

000021c0 <entry>:
entry():
F:\SCHOOL\文件\智能车\全向组\RTTThreadCH32V103\camCoreWithRTOS\obj/../Libraries/rtthread_libraries/src/components.c:161
{
    21c0:	1141                	addi	sp,sp,-16
    21c2:	c606                	sw	ra,12(sp)
F:\SCHOOL\文件\智能车\全向组\RTTThreadCH32V103\camCoreWithRTOS\obj/../Libraries/rtthread_libraries/src/components.c:162
    rtthread_startup();
    21c4:	3fc1                	jal	2194 <rtthread_startup>
F:\SCHOOL\文件\智能车\全向组\RTTThreadCH32V103\camCoreWithRTOS\obj/../Libraries/rtthread_libraries/src/components.c:164
}
    21c6:	4501                	li	a0,0
    21c8:	40b2                	lw	ra,12(sp)
    21ca:	0141                	addi	sp,sp,16
    21cc:	8082                	ret

000021ce <rt_thread_idle_excute>:
_has_defunct_thread():
F:\SCHOOL\文件\智能车\全向组\RTTThreadCH32V103\camCoreWithRTOS\obj/../Libraries/rtthread_libraries/src/idle.c:134
     * into a "if".
     *
     * So add the volatile qualifier here. */
    const volatile rt_list_t *l = (const volatile rt_list_t *)&rt_thread_defunct;

    return l->next != l;
    21ce:	8781a703          	lw	a4,-1928(gp) # 20000128 <rt_thread_defunct>
rt_thread_idle_excute():
F:\SCHOOL\文件\智能车\全向组\RTTThreadCH32V103\camCoreWithRTOS\obj/../Libraries/rtthread_libraries/src/idle.c:146
 */
void rt_thread_idle_excute(void)
{
    /* Loop until there is no dead thread. So one call to rt_thread_idle_excute
     * will do all the cleanups. */
    while (_has_defunct_thread())
    21d2:	87818793          	addi	a5,gp,-1928 # 20000128 <rt_thread_defunct>
    21d6:	08f70f63          	beq	a4,a5,2274 <rt_thread_idle_excute+0xa6>
F:\SCHOOL\文件\智能车\全向组\RTTThreadCH32V103\camCoreWithRTOS\obj/../Libraries/rtthread_libraries/src/idle.c:143
{
    21da:	1101                	addi	sp,sp,-32
    21dc:	ce06                	sw	ra,28(sp)
    21de:	cc22                	sw	s0,24(sp)
    21e0:	ca26                	sw	s1,20(sp)
    21e2:	c84a                	sw	s2,16(sp)
    21e4:	c64e                	sw	s3,12(sp)
    21e6:	c452                	sw	s4,8(sp)
    21e8:	c256                	sw	s5,4(sp)
F:\SCHOOL\文件\智能车\全向组\RTTThreadCH32V103\camCoreWithRTOS\obj/../Libraries/rtthread_libraries/src/idle.c:159

        /* disable interrupt */
        lock = rt_hw_interrupt_disable();

        /* re-check whether list is empty */
        if (_has_defunct_thread())
    21ea:	87818993          	addi	s3,gp,-1928 # 20000128 <rt_thread_defunct>
F:\SCHOOL\文件\智能车\全向组\RTTThreadCH32V103\camCoreWithRTOS\obj/../Libraries/rtthread_libraries/src/idle.c:187
#ifdef RT_USING_SIGNALS
            rt_thread_free_sig(thread);
#endif

            /* if it's a system object, not delete it */
            if (rt_object_is_systemobject((rt_object_t)thread) == RT_TRUE)
    21ee:	4a85                	li	s5,1
    21f0:	a02d                	j	221a <rt_thread_idle_excute+0x4c>
    21f2:	8526                	mv	a0,s1
    21f4:	260010ef          	jal	ra,3454 <rt_object_is_systemobject>
    21f8:	05550a63          	beq	a0,s5,224c <rt_thread_idle_excute+0x7e>
F:\SCHOOL\文件\智能车\全向组\RTTThreadCH32V103\camCoreWithRTOS\obj/../Libraries/rtthread_libraries/src/idle.c:201

                return;
            }

            /* unlock scheduler */
            rt_exit_critical();
    21fc:	3ec010ef          	jal	ra,35e8 <rt_exit_critical>
F:\SCHOOL\文件\智能车\全向组\RTTThreadCH32V103\camCoreWithRTOS\obj/../Libraries/rtthread_libraries/src/idle.c:213
            /* may the defunct thread list is removed by others, just return */
            return;
        }

        /* enable interrupt */
        rt_hw_interrupt_enable(lock);
    2200:	8552                	mv	a0,s4
    2202:	f45fd0ef          	jal	ra,146 <rt_hw_interrupt_enable>
F:\SCHOOL\文件\智能车\全向组\RTTThreadCH32V103\camCoreWithRTOS\obj/../Libraries/rtthread_libraries/src/idle.c:217

#ifdef RT_USING_HEAP
        /* release thread's stack */
        RT_KERNEL_FREE(thread->stack_addr);
    2206:	4848                	lw	a0,20(s0)
    2208:	016010ef          	jal	ra,321e <rt_free>
F:\SCHOOL\文件\智能车\全向组\RTTThreadCH32V103\camCoreWithRTOS\obj/../Libraries/rtthread_libraries/src/idle.c:219
        /* delete thread object */
        rt_object_delete((rt_object_t)thread);
    220c:	8526                	mv	a0,s1
    220e:	212010ef          	jal	ra,3420 <rt_object_delete>
_has_defunct_thread():
F:\SCHOOL\文件\智能车\全向组\RTTThreadCH32V103\camCoreWithRTOS\obj/../Libraries/rtthread_libraries/src/idle.c:134
    return l->next != l;
    2212:	8781a783          	lw	a5,-1928(gp) # 20000128 <rt_thread_defunct>
rt_thread_idle_excute():
F:\SCHOOL\文件\智能车\全向组\RTTThreadCH32V103\camCoreWithRTOS\obj/../Libraries/rtthread_libraries/src/idle.c:146
    while (_has_defunct_thread())
    2216:	05378663          	beq	a5,s3,2262 <rt_thread_idle_excute+0x94>
F:\SCHOOL\文件\智能车\全向组\RTTThreadCH32V103\camCoreWithRTOS\obj/../Libraries/rtthread_libraries/src/idle.c:156
        lock = rt_hw_interrupt_disable();
    221a:	f27fd0ef          	jal	ra,140 <rt_hw_interrupt_disable>
    221e:	8a2a                	mv	s4,a0
_has_defunct_thread():
F:\SCHOOL\文件\智能车\全向组\RTTThreadCH32V103\camCoreWithRTOS\obj/../Libraries/rtthread_libraries/src/idle.c:134
    return l->next != l;
    2220:	8781a783          	lw	a5,-1928(gp) # 20000128 <rt_thread_defunct>
rt_thread_idle_excute():
F:\SCHOOL\文件\智能车\全向组\RTTThreadCH32V103\camCoreWithRTOS\obj/../Libraries/rtthread_libraries/src/idle.c:159
        if (_has_defunct_thread())
    2224:	03378d63          	beq	a5,s3,225e <rt_thread_idle_excute+0x90>
F:\SCHOOL\文件\智能车\全向组\RTTThreadCH32V103\camCoreWithRTOS\obj/../Libraries/rtthread_libraries/src/idle.c:162
            thread = rt_list_entry(rt_thread_defunct.next,
    2228:	8781a403          	lw	s0,-1928(gp) # 20000128 <rt_thread_defunct>
    222c:	fec40493          	addi	s1,s0,-20
rt_list_remove():
F:\SCHOOL\文件\智能车\全向组\RTTThreadCH32V103\camCoreWithRTOS\Libraries\rtthread_libraries\include/rtservice.h:88
 * @brief remove node from list.
 * @param n the node to remove from the list.
 */
rt_inline void rt_list_remove(rt_list_t *n)
{
    n->next->prev = n->prev;
    2230:	4018                	lw	a4,0(s0)
    2232:	405c                	lw	a5,4(s0)
    2234:	c35c                	sw	a5,4(a4)
F:\SCHOOL\文件\智能车\全向组\RTTThreadCH32V103\camCoreWithRTOS\Libraries\rtthread_libraries\include/rtservice.h:89
    n->prev->next = n->next;
    2236:	4018                	lw	a4,0(s0)
    2238:	c398                	sw	a4,0(a5)
F:\SCHOOL\文件\智能车\全向组\RTTThreadCH32V103\camCoreWithRTOS\Libraries\rtthread_libraries\include/rtservice.h:91

    n->next = n->prev = n;
    223a:	c040                	sw	s0,4(s0)
    223c:	c000                	sw	s0,0(s0)
rt_thread_idle_excute():
F:\SCHOOL\文件\智能车\全向组\RTTThreadCH32V103\camCoreWithRTOS\obj/../Libraries/rtthread_libraries/src/idle.c:176
            rt_enter_critical();
    223e:	38a010ef          	jal	ra,35c8 <rt_enter_critical>
F:\SCHOOL\文件\智能车\全向组\RTTThreadCH32V103\camCoreWithRTOS\obj/../Libraries/rtthread_libraries/src/idle.c:179
            if (thread->cleanup != RT_NULL)
    2242:	4c7c                	lw	a5,92(s0)
    2244:	d7dd                	beqz	a5,21f2 <rt_thread_idle_excute+0x24>
F:\SCHOOL\文件\智能车\全向组\RTTThreadCH32V103\camCoreWithRTOS\obj/../Libraries/rtthread_libraries/src/idle.c:180
                thread->cleanup(thread);
    2246:	8526                	mv	a0,s1
    2248:	9782                	jalr	a5
    224a:	b765                	j	21f2 <rt_thread_idle_excute+0x24>
F:\SCHOOL\文件\智能车\全向组\RTTThreadCH32V103\camCoreWithRTOS\obj/../Libraries/rtthread_libraries/src/idle.c:190
                rt_object_detach((rt_object_t)thread);
    224c:	8526                	mv	a0,s1
    224e:	140010ef          	jal	ra,338e <rt_object_detach>
F:\SCHOOL\文件\智能车\全向组\RTTThreadCH32V103\camCoreWithRTOS\obj/../Libraries/rtthread_libraries/src/idle.c:192
                rt_exit_critical();
    2252:	396010ef          	jal	ra,35e8 <rt_exit_critical>
F:\SCHOOL\文件\智能车\全向组\RTTThreadCH32V103\camCoreWithRTOS\obj/../Libraries/rtthread_libraries/src/idle.c:195
                rt_hw_interrupt_enable(lock);
    2256:	8552                	mv	a0,s4
    2258:	eeffd0ef          	jal	ra,146 <rt_hw_interrupt_enable>
F:\SCHOOL\文件\智能车\全向组\RTTThreadCH32V103\camCoreWithRTOS\obj/../Libraries/rtthread_libraries/src/idle.c:197
                return;
    225c:	a019                	j	2262 <rt_thread_idle_excute+0x94>
F:\SCHOOL\文件\智能车\全向组\RTTThreadCH32V103\camCoreWithRTOS\obj/../Libraries/rtthread_libraries/src/idle.c:206
            rt_hw_interrupt_enable(lock);
    225e:	ee9fd0ef          	jal	ra,146 <rt_hw_interrupt_enable>
F:\SCHOOL\文件\智能车\全向组\RTTThreadCH32V103\camCoreWithRTOS\obj/../Libraries/rtthread_libraries/src/idle.c:222
#endif
    }
}
    2262:	40f2                	lw	ra,28(sp)
    2264:	4462                	lw	s0,24(sp)
    2266:	44d2                	lw	s1,20(sp)
    2268:	4942                	lw	s2,16(sp)
    226a:	49b2                	lw	s3,12(sp)
    226c:	4a22                	lw	s4,8(sp)
    226e:	4a92                	lw	s5,4(sp)
    2270:	6105                	addi	sp,sp,32
    2272:	8082                	ret
    2274:	8082                	ret

00002276 <rt_thread_idle_entry>:
rt_thread_idle_entry():
F:\SCHOOL\文件\智能车\全向组\RTTThreadCH32V103\camCoreWithRTOS\obj/../Libraries/rtthread_libraries/src/idle.c:226

extern void rt_system_power_manager(void); // @suppress("Unused function declaration")
static void rt_thread_idle_entry(void *parameter)
{
    2276:	1141                	addi	sp,sp,-16
    2278:	c606                	sw	ra,12(sp)
F:\SCHOOL\文件\智能车\全向组\RTTThreadCH32V103\camCoreWithRTOS\obj/../Libraries/rtthread_libraries/src/idle.c:242 (discriminator 1)
                idle_hook_list[i]();
            }
        }
#endif

        rt_thread_idle_excute();
    227a:	3f91                	jal	21ce <rt_thread_idle_excute>
    227c:	bffd                	j	227a <rt_thread_idle_entry+0x4>

0000227e <rt_thread_idle_init>:
rt_thread_idle_init():
F:\SCHOOL\文件\智能车\全向组\RTTThreadCH32V103\camCoreWithRTOS\obj/../Libraries/rtthread_libraries/src/idle.c:257
 * This function will initialize idle thread, then start it.
 *
 * @note this function must be invoked when system init.
 */
void rt_thread_idle_init(void)
{
    227e:	1141                	addi	sp,sp,-16
    2280:	c606                	sw	ra,12(sp)
    2282:	c422                	sw	s0,8(sp)
F:\SCHOOL\文件\智能车\全向组\RTTThreadCH32V103\camCoreWithRTOS\obj/../Libraries/rtthread_libraries/src/idle.c:259
    /* initialize thread */
    rt_thread_init(&idle,
    2284:	02000893          	li	a7,32
    2288:	481d                	li	a6,7
    228a:	30000793          	li	a5,768
    228e:	94c18713          	addi	a4,gp,-1716 # 200001fc <rt_thread_stack>
    2292:	4681                	li	a3,0
    2294:	00002637          	lui	a2,0x2
    2298:	27660613          	addi	a2,a2,630 # 2276 <rt_thread_idle_entry>
    229c:	000075b7          	lui	a1,0x7
    22a0:	b8c58593          	addi	a1,a1,-1140 # 6b8c <UARTN+0x18>
    22a4:	8d418513          	addi	a0,gp,-1836 # 20000184 <idle>
    22a8:	40a010ef          	jal	ra,36b2 <rt_thread_init>
F:\SCHOOL\文件\智能车\全向组\RTTThreadCH32V103\camCoreWithRTOS\obj/../Libraries/rtthread_libraries/src/idle.c:269
                   sizeof(rt_thread_stack),
                   RT_THREAD_PRIORITY_MAX - 1,
                   32);

    /* startup */
    rt_thread_startup(&idle);
    22ac:	8d418513          	addi	a0,gp,-1836 # 20000184 <idle>
    22b0:	6d4010ef          	jal	ra,3984 <rt_thread_startup>
F:\SCHOOL\文件\智能车\全向组\RTTThreadCH32V103\camCoreWithRTOS\obj/../Libraries/rtthread_libraries/src/idle.c:270
}
    22b4:	40b2                	lw	ra,12(sp)
    22b6:	4422                	lw	s0,8(sp)
    22b8:	0141                	addi	sp,sp,16
    22ba:	8082                	ret

000022bc <rt_sem_init>:
rt_sem_init():
F:\SCHOOL\文件\智能车\全向组\RTTThreadCH32V103\camCoreWithRTOS\obj/../Libraries/rtthread_libraries/src/ipc.c:201
 */
rt_err_t rt_sem_init(rt_sem_t    sem,
                     const char *name,
                     rt_uint32_t value,
                     rt_uint8_t  flag)
{
    22bc:	1141                	addi	sp,sp,-16
    22be:	c606                	sw	ra,12(sp)
    22c0:	c422                	sw	s0,8(sp)
    22c2:	c226                	sw	s1,4(sp)
    22c4:	c04a                	sw	s2,0(sp)
    22c6:	842a                	mv	s0,a0
    22c8:	8932                	mv	s2,a2
    22ca:	84b6                	mv	s1,a3
F:\SCHOOL\文件\智能车\全向组\RTTThreadCH32V103\camCoreWithRTOS\obj/../Libraries/rtthread_libraries/src/ipc.c:206
    RT_ASSERT(sem != RT_NULL);
    RT_ASSERT(value < 0x10000U);

    /* init object */
    rt_object_init(&(sem->parent.parent), RT_Object_Class_Semaphore, name);
    22cc:	862e                	mv	a2,a1
    22ce:	4589                	li	a1,2
    22d0:	04e010ef          	jal	ra,331e <rt_object_init>
rt_ipc_object_init():
F:\SCHOOL\文件\智能车\全向组\RTTThreadCH32V103\camCoreWithRTOS\obj/../Libraries/rtthread_libraries/src/ipc.c:62
    rt_list_init(&(ipc->suspend_thread));
    22d4:	01440793          	addi	a5,s0,20
rt_list_init():
F:\SCHOOL\文件\智能车\全向组\RTTThreadCH32V103\camCoreWithRTOS\Libraries\rtthread_libraries\include/rtservice.h:49
    l->next = l->prev = l;
    22d8:	cc1c                	sw	a5,24(s0)
    22da:	c85c                	sw	a5,20(s0)
rt_sem_init():
F:\SCHOOL\文件\智能车\全向组\RTTThreadCH32V103\camCoreWithRTOS\obj/../Libraries/rtthread_libraries/src/ipc.c:212

    /* init ipc object */
    rt_ipc_object_init(&(sem->parent));

    /* set init value */
    sem->value = (rt_uint16_t)value;
    22dc:	01241e23          	sh	s2,28(s0)
F:\SCHOOL\文件\智能车\全向组\RTTThreadCH32V103\camCoreWithRTOS\obj/../Libraries/rtthread_libraries/src/ipc.c:215

    /* set parent */
    sem->parent.parent.flag = flag;
    22e0:	009404a3          	sb	s1,9(s0)
F:\SCHOOL\文件\智能车\全向组\RTTThreadCH32V103\camCoreWithRTOS\obj/../Libraries/rtthread_libraries/src/ipc.c:218

    return RT_EOK;
}
    22e4:	4501                	li	a0,0
    22e6:	40b2                	lw	ra,12(sp)
    22e8:	4422                	lw	s0,8(sp)
    22ea:	4492                	lw	s1,4(sp)
    22ec:	4902                	lw	s2,0(sp)
    22ee:	0141                	addi	sp,sp,16
    22f0:	8082                	ret

000022f2 <rt_sem_take>:
rt_sem_take():
F:\SCHOOL\文件\智能车\全向组\RTTThreadCH32V103\camCoreWithRTOS\obj/../Libraries/rtthread_libraries/src/ipc.c:323
 * @param time the waiting time
 *
 * @return the error code
 */
rt_err_t rt_sem_take(rt_sem_t sem, rt_int32_t time)
{
    22f2:	7179                	addi	sp,sp,-48
    22f4:	d606                	sw	ra,44(sp)
    22f6:	d422                	sw	s0,40(sp)
    22f8:	d226                	sw	s1,36(sp)
    22fa:	d04a                	sw	s2,32(sp)
    22fc:	ce4e                	sw	s3,28(sp)
    22fe:	cc52                	sw	s4,24(sp)
    2300:	842a                	mv	s0,a0
    2302:	c62e                	sw	a1,12(sp)
F:\SCHOOL\文件\智能车\全向组\RTTThreadCH32V103\camCoreWithRTOS\obj/../Libraries/rtthread_libraries/src/ipc.c:334
    RT_ASSERT(rt_object_get_type(&sem->parent.parent) == RT_Object_Class_Semaphore);

    RT_OBJECT_HOOK_CALL(rt_object_trytake_hook, (&(sem->parent.parent)));

    /* disable interrupt */
    temp = rt_hw_interrupt_disable();
    2304:	e3dfd0ef          	jal	ra,140 <rt_hw_interrupt_disable>
    2308:	89aa                	mv	s3,a0
F:\SCHOOL\文件\智能车\全向组\RTTThreadCH32V103\camCoreWithRTOS\obj/../Libraries/rtthread_libraries/src/ipc.c:341
    RT_DEBUG_LOG(RT_DEBUG_IPC, ("thread %s take sem:%s, which value is: %d\n",
                                rt_thread_self()->name,
                                ((struct rt_object *)sem)->name,
                                sem->value));

    if (sem->value > 0)
    230a:	01c45783          	lhu	a5,28(s0)
    230e:	e7a1                	bnez	a5,2356 <rt_sem_take+0x64>
F:\SCHOOL\文件\智能车\全向组\RTTThreadCH32V103\camCoreWithRTOS\obj/../Libraries/rtthread_libraries/src/ipc.c:352
        rt_hw_interrupt_enable(temp);
    }
    else
    {
        /* no waiting, return with timeout */
        if (time == 0)
    2310:	47b2                	lw	a5,12(sp)
    2312:	cba9                	beqz	a5,2364 <rt_sem_take+0x72>
F:\SCHOOL\文件\智能车\全向组\RTTThreadCH32V103\camCoreWithRTOS\obj/../Libraries/rtthread_libraries/src/ipc.c:365
            /* current context checking */
            RT_DEBUG_IN_THREAD_CONTEXT;

            /* semaphore is unavailable, push to suspend list */
            /* get current thread */
            thread = rt_thread_self();
    2314:	44e010ef          	jal	ra,3762 <rt_thread_self>
    2318:	84aa                	mv	s1,a0
F:\SCHOOL\文件\智能车\全向组\RTTThreadCH32V103\camCoreWithRTOS\obj/../Libraries/rtthread_libraries/src/ipc.c:368

            /* reset thread error number */
            thread->error = RT_EOK;
    231a:	02052823          	sw	zero,48(a0)
F:\SCHOOL\文件\智能车\全向组\RTTThreadCH32V103\camCoreWithRTOS\obj/../Libraries/rtthread_libraries/src/ipc.c:374

            RT_DEBUG_LOG(RT_DEBUG_IPC, ("sem take: suspend thread - %s\n",
                                        thread->name));

            /* suspend thread */
            rt_ipc_list_suspend(&(sem->parent.suspend_thread),
    231e:	01440913          	addi	s2,s0,20
    2322:	00944a03          	lbu	s4,9(s0)
rt_ipc_list_suspend():
F:\SCHOOL\文件\智能车\全向组\RTTThreadCH32V103\camCoreWithRTOS\obj/../Libraries/rtthread_libraries/src/ipc.c:83
    rt_thread_suspend(thread);
    2326:	55e010ef          	jal	ra,3884 <rt_thread_suspend>
F:\SCHOOL\文件\智能车\全向组\RTTThreadCH32V103\camCoreWithRTOS\obj/../Libraries/rtthread_libraries/src/ipc.c:85
    switch (flag)
    232a:	040a0163          	beqz	s4,236c <rt_sem_take+0x7a>
    232e:	4785                	li	a5,1
    2330:	04fa0863          	beq	s4,a5,2380 <rt_sem_take+0x8e>
rt_sem_take():
F:\SCHOOL\文件\智能车\全向组\RTTThreadCH32V103\camCoreWithRTOS\obj/../Libraries/rtthread_libraries/src/ipc.c:379
                                thread,
                                sem->parent.parent.flag);

            /* has waiting time, start thread timer */
            if (time > 0)
    2334:	47b2                	lw	a5,12(sp)
    2336:	08f04863          	bgtz	a5,23c6 <rt_sem_take+0xd4>
F:\SCHOOL\文件\智能车\全向组\RTTThreadCH32V103\camCoreWithRTOS\obj/../Libraries/rtthread_libraries/src/ipc.c:392
                                 &time);
                rt_timer_start(&(thread->thread_timer));
            }

            /* enable interrupt */
            rt_hw_interrupt_enable(temp);
    233a:	854e                	mv	a0,s3
    233c:	e0bfd0ef          	jal	ra,146 <rt_hw_interrupt_enable>
F:\SCHOOL\文件\智能车\全向组\RTTThreadCH32V103\camCoreWithRTOS\obj/../Libraries/rtthread_libraries/src/ipc.c:395

            /* do schedule */
            rt_schedule();
    2340:	178010ef          	jal	ra,34b8 <rt_schedule>
F:\SCHOOL\文件\智能车\全向组\RTTThreadCH32V103\camCoreWithRTOS\obj/../Libraries/rtthread_libraries/src/ipc.c:397

            if (thread->error != RT_EOK)
    2344:	5888                	lw	a0,48(s1)
F:\SCHOOL\文件\智能车\全向组\RTTThreadCH32V103\camCoreWithRTOS\obj/../Libraries/rtthread_libraries/src/ipc.c:407
    }

    RT_OBJECT_HOOK_CALL(rt_object_take_hook, (&(sem->parent.parent)));

    return RT_EOK;
}
    2346:	50b2                	lw	ra,44(sp)
    2348:	5422                	lw	s0,40(sp)
    234a:	5492                	lw	s1,36(sp)
    234c:	5902                	lw	s2,32(sp)
    234e:	49f2                	lw	s3,28(sp)
    2350:	4a62                	lw	s4,24(sp)
    2352:	6145                	addi	sp,sp,48
    2354:	8082                	ret
F:\SCHOOL\文件\智能车\全向组\RTTThreadCH32V103\camCoreWithRTOS\obj/../Libraries/rtthread_libraries/src/ipc.c:344
        sem->value --;
    2356:	17fd                	addi	a5,a5,-1
    2358:	00f41e23          	sh	a5,28(s0)
F:\SCHOOL\文件\智能车\全向组\RTTThreadCH32V103\camCoreWithRTOS\obj/../Libraries/rtthread_libraries/src/ipc.c:347
        rt_hw_interrupt_enable(temp);
    235c:	debfd0ef          	jal	ra,146 <rt_hw_interrupt_enable>
F:\SCHOOL\文件\智能车\全向组\RTTThreadCH32V103\camCoreWithRTOS\obj/../Libraries/rtthread_libraries/src/ipc.c:406
    return RT_EOK;
    2360:	4501                	li	a0,0
    2362:	b7d5                	j	2346 <rt_sem_take+0x54>
F:\SCHOOL\文件\智能车\全向组\RTTThreadCH32V103\camCoreWithRTOS\obj/../Libraries/rtthread_libraries/src/ipc.c:354
            rt_hw_interrupt_enable(temp);
    2364:	de3fd0ef          	jal	ra,146 <rt_hw_interrupt_enable>
F:\SCHOOL\文件\智能车\全向组\RTTThreadCH32V103\camCoreWithRTOS\obj/../Libraries/rtthread_libraries/src/ipc.c:356
            return -RT_ETIMEOUT;
    2368:	5579                	li	a0,-2
    236a:	bff1                	j	2346 <rt_sem_take+0x54>
rt_ipc_list_suspend():
F:\SCHOOL\文件\智能车\全向组\RTTThreadCH32V103\camCoreWithRTOS\obj/../Libraries/rtthread_libraries/src/ipc.c:88
        rt_list_insert_before(list, &(thread->tlist));
    236c:	01448793          	addi	a5,s1,20 # 2014 <uart_rx_irq+0x36>
rt_list_insert_before():
F:\SCHOOL\文件\智能车\全向组\RTTThreadCH32V103\camCoreWithRTOS\Libraries\rtthread_libraries\include/rtservice.h:75
    l->prev->next = n;
    2370:	4c18                	lw	a4,24(s0)
    2372:	c31c                	sw	a5,0(a4)
F:\SCHOOL\文件\智能车\全向组\RTTThreadCH32V103\camCoreWithRTOS\Libraries\rtthread_libraries\include/rtservice.h:76
    n->prev = l->prev;
    2374:	4c18                	lw	a4,24(s0)
    2376:	cc98                	sw	a4,24(s1)
F:\SCHOOL\文件\智能车\全向组\RTTThreadCH32V103\camCoreWithRTOS\Libraries\rtthread_libraries\include/rtservice.h:78
    l->prev = n;
    2378:	cc1c                	sw	a5,24(s0)
F:\SCHOOL\文件\智能车\全向组\RTTThreadCH32V103\camCoreWithRTOS\Libraries\rtthread_libraries\include/rtservice.h:79
    n->next = l;
    237a:	0124aa23          	sw	s2,20(s1)
    237e:	bf5d                	j	2334 <rt_sem_take+0x42>
rt_ipc_list_suspend():
F:\SCHOOL\文件\智能车\全向组\RTTThreadCH32V103\camCoreWithRTOS\obj/../Libraries/rtthread_libraries/src/ipc.c:97
            for (n = list->next; n != list; n = n->next)
    2380:	485c                	lw	a5,20(s0)
    2382:	02f90863          	beq	s2,a5,23b2 <rt_sem_take+0xc0>
F:\SCHOOL\文件\智能车\全向组\RTTThreadCH32V103\camCoreWithRTOS\obj/../Libraries/rtthread_libraries/src/ipc.c:102
                if (thread->current_priority < sthread->current_priority)
    2386:	0354c683          	lbu	a3,53(s1)
    238a:	0217c703          	lbu	a4,33(a5)
    238e:	00e6e963          	bltu	a3,a4,23a0 <rt_sem_take+0xae>
F:\SCHOOL\文件\智能车\全向组\RTTThreadCH32V103\camCoreWithRTOS\obj/../Libraries/rtthread_libraries/src/ipc.c:97
            for (n = list->next; n != list; n = n->next)
    2392:	439c                	lw	a5,0(a5)
    2394:	00f90f63          	beq	s2,a5,23b2 <rt_sem_take+0xc0>
F:\SCHOOL\文件\智能车\全向组\RTTThreadCH32V103\camCoreWithRTOS\obj/../Libraries/rtthread_libraries/src/ipc.c:102
                if (thread->current_priority < sthread->current_priority)
    2398:	0217c703          	lbu	a4,33(a5)
    239c:	fee6fbe3          	bgeu	a3,a4,2392 <rt_sem_take+0xa0>
F:\SCHOOL\文件\智能车\全向组\RTTThreadCH32V103\camCoreWithRTOS\obj/../Libraries/rtthread_libraries/src/ipc.c:105
                    rt_list_insert_before(&(sthread->tlist), &(thread->tlist));
    23a0:	01448713          	addi	a4,s1,20
rt_list_insert_before():
F:\SCHOOL\文件\智能车\全向组\RTTThreadCH32V103\camCoreWithRTOS\Libraries\rtthread_libraries\include/rtservice.h:75
    l->prev->next = n;
    23a4:	43d4                	lw	a3,4(a5)
    23a6:	c298                	sw	a4,0(a3)
F:\SCHOOL\文件\智能车\全向组\RTTThreadCH32V103\camCoreWithRTOS\Libraries\rtthread_libraries\include/rtservice.h:76
    n->prev = l->prev;
    23a8:	43d4                	lw	a3,4(a5)
    23aa:	cc94                	sw	a3,24(s1)
F:\SCHOOL\文件\智能车\全向组\RTTThreadCH32V103\camCoreWithRTOS\Libraries\rtthread_libraries\include/rtservice.h:78
    l->prev = n;
    23ac:	c3d8                	sw	a4,4(a5)
F:\SCHOOL\文件\智能车\全向组\RTTThreadCH32V103\camCoreWithRTOS\Libraries\rtthread_libraries\include/rtservice.h:79
    n->next = l;
    23ae:	c8dc                	sw	a5,20(s1)
rt_ipc_list_suspend():
F:\SCHOOL\文件\智能车\全向组\RTTThreadCH32V103\camCoreWithRTOS\obj/../Libraries/rtthread_libraries/src/ipc.c:114
            if (n == list)
    23b0:	b751                	j	2334 <rt_sem_take+0x42>
F:\SCHOOL\文件\智能车\全向组\RTTThreadCH32V103\camCoreWithRTOS\obj/../Libraries/rtthread_libraries/src/ipc.c:115
                rt_list_insert_before(list, &(thread->tlist));
    23b2:	01448793          	addi	a5,s1,20
rt_list_insert_before():
F:\SCHOOL\文件\智能车\全向组\RTTThreadCH32V103\camCoreWithRTOS\Libraries\rtthread_libraries\include/rtservice.h:75
    l->prev->next = n;
    23b6:	4c18                	lw	a4,24(s0)
    23b8:	c31c                	sw	a5,0(a4)
F:\SCHOOL\文件\智能车\全向组\RTTThreadCH32V103\camCoreWithRTOS\Libraries\rtthread_libraries\include/rtservice.h:76
    n->prev = l->prev;
    23ba:	4c18                	lw	a4,24(s0)
    23bc:	cc98                	sw	a4,24(s1)
F:\SCHOOL\文件\智能车\全向组\RTTThreadCH32V103\camCoreWithRTOS\Libraries\rtthread_libraries\include/rtservice.h:78
    l->prev = n;
    23be:	cc1c                	sw	a5,24(s0)
F:\SCHOOL\文件\智能车\全向组\RTTThreadCH32V103\camCoreWithRTOS\Libraries\rtthread_libraries\include/rtservice.h:79
    n->next = l;
    23c0:	0124aa23          	sw	s2,20(s1)
    23c4:	bf85                	j	2334 <rt_sem_take+0x42>
rt_sem_take():
F:\SCHOOL\文件\智能车\全向组\RTTThreadCH32V103\camCoreWithRTOS\obj/../Libraries/rtthread_libraries/src/ipc.c:385
                rt_timer_control(&(thread->thread_timer),
    23c6:	04448413          	addi	s0,s1,68
    23ca:	0070                	addi	a2,sp,12
    23cc:	4581                	li	a1,0
    23ce:	8522                	mv	a0,s0
    23d0:	78a010ef          	jal	ra,3b5a <rt_timer_control>
F:\SCHOOL\文件\智能车\全向组\RTTThreadCH32V103\camCoreWithRTOS\obj/../Libraries/rtthread_libraries/src/ipc.c:388
                rt_timer_start(&(thread->thread_timer));
    23d4:	8522                	mv	a0,s0
    23d6:	6a6010ef          	jal	ra,3a7c <rt_timer_start>
    23da:	b785                	j	233a <rt_sem_take+0x48>

000023dc <rt_sem_release>:
rt_sem_release():
F:\SCHOOL\文件\智能车\全向组\RTTThreadCH32V103\camCoreWithRTOS\obj/../Libraries/rtthread_libraries/src/ipc.c:432
 * @param sem the semaphore object
 *
 * @return the error code
 */
rt_err_t rt_sem_release(rt_sem_t sem)
{
    23dc:	1141                	addi	sp,sp,-16
    23de:	c606                	sw	ra,12(sp)
    23e0:	c422                	sw	s0,8(sp)
    23e2:	c226                	sw	s1,4(sp)
    23e4:	842a                	mv	s0,a0
F:\SCHOOL\文件\智能车\全向组\RTTThreadCH32V103\camCoreWithRTOS\obj/../Libraries/rtthread_libraries/src/ipc.c:445
    RT_OBJECT_HOOK_CALL(rt_object_put_hook, (&(sem->parent.parent)));

    need_schedule = RT_FALSE;

    /* disable interrupt */
    temp = rt_hw_interrupt_disable();
    23e6:	d5bfd0ef          	jal	ra,140 <rt_hw_interrupt_disable>
    23ea:	84aa                	mv	s1,a0
rt_list_isempty():
F:\SCHOOL\文件\智能车\全向组\RTTThreadCH32V103\camCoreWithRTOS\Libraries\rtthread_libraries\include/rtservice.h:100
 * @brief tests whether a list is empty
 * @param l the list to test.
 */
rt_inline int rt_list_isempty(const rt_list_t *l)
{
    return l->next == l;
    23ec:	4848                	lw	a0,20(s0)
rt_sem_release():
F:\SCHOOL\文件\智能车\全向组\RTTThreadCH32V103\camCoreWithRTOS\obj/../Libraries/rtthread_libraries/src/ipc.c:452
    RT_DEBUG_LOG(RT_DEBUG_IPC, ("thread %s releases sem:%s, which value is: %d\n",
                                rt_thread_self()->name,
                                ((struct rt_object *)sem)->name,
                                sem->value));

    if (!rt_list_isempty(&sem->parent.suspend_thread))
    23ee:	01440793          	addi	a5,s0,20
    23f2:	02f50063          	beq	a0,a5,2412 <rt_sem_release+0x36>
rt_ipc_list_resume():
F:\SCHOOL\文件\智能车\全向组\RTTThreadCH32V103\camCoreWithRTOS\obj/../Libraries/rtthread_libraries/src/ipc.c:142
    rt_thread_resume(thread);
    23f6:	1531                	addi	a0,a0,-20
    23f8:	53c010ef          	jal	ra,3934 <rt_thread_resume>
rt_sem_release():
F:\SCHOOL\文件\智能车\全向组\RTTThreadCH32V103\camCoreWithRTOS\obj/../Libraries/rtthread_libraries/src/ipc.c:462
    }
    else
        sem->value ++; /* increase value */

    /* enable interrupt */
    rt_hw_interrupt_enable(temp);
    23fc:	8526                	mv	a0,s1
    23fe:	d49fd0ef          	jal	ra,146 <rt_hw_interrupt_enable>
F:\SCHOOL\文件\智能车\全向组\RTTThreadCH32V103\camCoreWithRTOS\obj/../Libraries/rtthread_libraries/src/ipc.c:466

    /* resume a thread, re-schedule */
    if (need_schedule == RT_TRUE)
        rt_schedule();
    2402:	0b6010ef          	jal	ra,34b8 <rt_schedule>
F:\SCHOOL\文件\智能车\全向组\RTTThreadCH32V103\camCoreWithRTOS\obj/../Libraries/rtthread_libraries/src/ipc.c:469

    return RT_EOK;
}
    2406:	4501                	li	a0,0
    2408:	40b2                	lw	ra,12(sp)
    240a:	4422                	lw	s0,8(sp)
    240c:	4492                	lw	s1,4(sp)
    240e:	0141                	addi	sp,sp,16
    2410:	8082                	ret
F:\SCHOOL\文件\智能车\全向组\RTTThreadCH32V103\camCoreWithRTOS\obj/../Libraries/rtthread_libraries/src/ipc.c:459
        sem->value ++; /* increase value */
    2412:	01c45783          	lhu	a5,28(s0)
    2416:	0785                	addi	a5,a5,1
    2418:	00f41e23          	sh	a5,28(s0)
F:\SCHOOL\文件\智能车\全向组\RTTThreadCH32V103\camCoreWithRTOS\obj/../Libraries/rtthread_libraries/src/ipc.c:462
    rt_hw_interrupt_enable(temp);
    241c:	8526                	mv	a0,s1
    241e:	d29fd0ef          	jal	ra,146 <rt_hw_interrupt_enable>
F:\SCHOOL\文件\智能车\全向组\RTTThreadCH32V103\camCoreWithRTOS\obj/../Libraries/rtthread_libraries/src/ipc.c:465
    if (need_schedule == RT_TRUE)
    2422:	b7d5                	j	2406 <rt_sem_release+0x2a>

00002424 <rt_mb_create>:
rt_mb_create():
F:\SCHOOL\文件\智能车\全向组\RTTThreadCH32V103\camCoreWithRTOS\obj/../Libraries/rtthread_libraries/src/ipc.c:1360
 * @param flag the flag of mailbox
 *
 * @return the created mailbox, RT_NULL on error happen
 */
rt_mailbox_t rt_mb_create(const char *name, rt_size_t size, rt_uint8_t flag)
{
    2424:	1141                	addi	sp,sp,-16
    2426:	c606                	sw	ra,12(sp)
    2428:	c422                	sw	s0,8(sp)
    242a:	c226                	sw	s1,4(sp)
    242c:	c04a                	sw	s2,0(sp)
    242e:	84ae                	mv	s1,a1
    2430:	8932                	mv	s2,a2
F:\SCHOOL\文件\智能车\全向组\RTTThreadCH32V103\camCoreWithRTOS\obj/../Libraries/rtthread_libraries/src/ipc.c:1366
    rt_mailbox_t mb;

    RT_DEBUG_NOT_IN_INTERRUPT;

    /* allocate object */
    mb = (rt_mailbox_t)rt_object_allocate(RT_Object_Class_MailBox, name);
    2432:	85aa                	mv	a1,a0
    2434:	4515                	li	a0,5
    2436:	787000ef          	jal	ra,33bc <rt_object_allocate>
    243a:	842a                	mv	s0,a0
F:\SCHOOL\文件\智能车\全向组\RTTThreadCH32V103\camCoreWithRTOS\obj/../Libraries/rtthread_libraries/src/ipc.c:1367
    if (mb == RT_NULL)
    243c:	c91d                	beqz	a0,2472 <rt_mb_create+0x4e>
F:\SCHOOL\文件\智能车\全向组\RTTThreadCH32V103\camCoreWithRTOS\obj/../Libraries/rtthread_libraries/src/ipc.c:1371
        return mb;

    /* set parent */
    mb->parent.parent.flag = flag;
    243e:	012504a3          	sb	s2,9(a0)
rt_ipc_object_init():
F:\SCHOOL\文件\智能车\全向组\RTTThreadCH32V103\camCoreWithRTOS\obj/../Libraries/rtthread_libraries/src/ipc.c:62
    rt_list_init(&(ipc->suspend_thread));
    2442:	01450793          	addi	a5,a0,20
rt_list_init():
F:\SCHOOL\文件\智能车\全向组\RTTThreadCH32V103\camCoreWithRTOS\Libraries\rtthread_libraries\include/rtservice.h:49
    l->next = l->prev = l;
    2446:	cd1c                	sw	a5,24(a0)
    2448:	c95c                	sw	a5,20(a0)
rt_mb_create():
F:\SCHOOL\文件\智能车\全向组\RTTThreadCH32V103\camCoreWithRTOS\obj/../Libraries/rtthread_libraries/src/ipc.c:1377

    /* init ipc object */
    rt_ipc_object_init(&(mb->parent));

    /* init mailbox */
    mb->size     = size;
    244a:	02951023          	sh	s1,32(a0)
F:\SCHOOL\文件\智能车\全向组\RTTThreadCH32V103\camCoreWithRTOS\obj/../Libraries/rtthread_libraries/src/ipc.c:1378
    mb->msg_pool = RT_KERNEL_MALLOC(mb->size * sizeof(rt_uint32_t));
    244e:	01049513          	slli	a0,s1,0x10
    2452:	8141                	srli	a0,a0,0x10
    2454:	050a                	slli	a0,a0,0x2
    2456:	46f000ef          	jal	ra,30c4 <rt_malloc>
    245a:	cc48                	sw	a0,28(s0)
F:\SCHOOL\文件\智能车\全向组\RTTThreadCH32V103\camCoreWithRTOS\obj/../Libraries/rtthread_libraries/src/ipc.c:1379
    if (mb->msg_pool == RT_NULL)
    245c:	c115                	beqz	a0,2480 <rt_mb_create+0x5c>
F:\SCHOOL\文件\智能车\全向组\RTTThreadCH32V103\camCoreWithRTOS\obj/../Libraries/rtthread_libraries/src/ipc.c:1386
        /* delete mailbox object */
        rt_object_delete(&(mb->parent.parent));

        return RT_NULL;
    }
    mb->entry      = 0;
    245e:	02041123          	sh	zero,34(s0)
F:\SCHOOL\文件\智能车\全向组\RTTThreadCH32V103\camCoreWithRTOS\obj/../Libraries/rtthread_libraries/src/ipc.c:1387
    mb->in_offset  = 0;
    2462:	02041223          	sh	zero,36(s0)
F:\SCHOOL\文件\智能车\全向组\RTTThreadCH32V103\camCoreWithRTOS\obj/../Libraries/rtthread_libraries/src/ipc.c:1388
    mb->out_offset = 0;
    2466:	02041323          	sh	zero,38(s0)
F:\SCHOOL\文件\智能车\全向组\RTTThreadCH32V103\camCoreWithRTOS\obj/../Libraries/rtthread_libraries/src/ipc.c:1391

    /* init an additional list of sender suspend thread */
    rt_list_init(&(mb->suspend_sender_thread));
    246a:	02840793          	addi	a5,s0,40
rt_list_init():
F:\SCHOOL\文件\智能车\全向组\RTTThreadCH32V103\camCoreWithRTOS\Libraries\rtthread_libraries\include/rtservice.h:49
    246e:	d45c                	sw	a5,44(s0)
    2470:	d41c                	sw	a5,40(s0)
rt_mb_create():
F:\SCHOOL\文件\智能车\全向组\RTTThreadCH32V103\camCoreWithRTOS\obj/../Libraries/rtthread_libraries/src/ipc.c:1394

    return mb;
}
    2472:	8522                	mv	a0,s0
    2474:	40b2                	lw	ra,12(sp)
    2476:	4422                	lw	s0,8(sp)
    2478:	4492                	lw	s1,4(sp)
    247a:	4902                	lw	s2,0(sp)
    247c:	0141                	addi	sp,sp,16
    247e:	8082                	ret
F:\SCHOOL\文件\智能车\全向组\RTTThreadCH32V103\camCoreWithRTOS\obj/../Libraries/rtthread_libraries/src/ipc.c:1382
        rt_object_delete(&(mb->parent.parent));
    2480:	8522                	mv	a0,s0
    2482:	79f000ef          	jal	ra,3420 <rt_object_delete>
F:\SCHOOL\文件\智能车\全向组\RTTThreadCH32V103\camCoreWithRTOS\obj/../Libraries/rtthread_libraries/src/ipc.c:1384
        return RT_NULL;
    2486:	4401                	li	s0,0
    2488:	b7ed                	j	2472 <rt_mb_create+0x4e>

0000248a <rt_mb_send_wait>:
rt_mb_send_wait():
F:\SCHOOL\文件\智能车\全向组\RTTThreadCH32V103\camCoreWithRTOS\obj/../Libraries/rtthread_libraries/src/ipc.c:1443
 * @return the error code
 */
rt_err_t rt_mb_send_wait(rt_mailbox_t mb,
                         rt_uint32_t  value,
                         rt_int32_t   timeout)
{
    248a:	7139                	addi	sp,sp,-64
    248c:	de06                	sw	ra,60(sp)
    248e:	dc22                	sw	s0,56(sp)
    2490:	da26                	sw	s1,52(sp)
    2492:	d84a                	sw	s2,48(sp)
    2494:	d64e                	sw	s3,44(sp)
    2496:	d452                	sw	s4,40(sp)
    2498:	d256                	sw	s5,36(sp)
    249a:	d05a                	sw	s6,32(sp)
    249c:	ce5e                	sw	s7,28(sp)
    249e:	cc62                	sw	s8,24(sp)
    24a0:	ca66                	sw	s9,20(sp)
    24a2:	842a                	mv	s0,a0
    24a4:	8c2e                	mv	s8,a1
    24a6:	c632                	sw	a2,12(sp)
F:\SCHOOL\文件\智能车\全向组\RTTThreadCH32V103\camCoreWithRTOS\obj/../Libraries/rtthread_libraries/src/ipc.c:1455
    RT_ASSERT(rt_object_get_type(&mb->parent.parent) == RT_Object_Class_MailBox);

    /* initialize delta tick */
    tick_delta = 0;
    /* get current thread */
    thread = rt_thread_self();
    24a8:	2ba010ef          	jal	ra,3762 <rt_thread_self>
    24ac:	84aa                	mv	s1,a0
F:\SCHOOL\文件\智能车\全向组\RTTThreadCH32V103\camCoreWithRTOS\obj/../Libraries/rtthread_libraries/src/ipc.c:1460

    RT_OBJECT_HOOK_CALL(rt_object_put_hook, (&(mb->parent.parent)));

    /* disable interrupt */
    temp = rt_hw_interrupt_disable();
    24ae:	c93fd0ef          	jal	ra,140 <rt_hw_interrupt_disable>
    24b2:	89aa                	mv	s3,a0
F:\SCHOOL\文件\智能车\全向组\RTTThreadCH32V103\camCoreWithRTOS\obj/../Libraries/rtthread_libraries/src/ipc.c:1463

    /* for non-blocking call */
    if (mb->entry == mb->size && timeout == 0)
    24b4:	02245703          	lhu	a4,34(s0)
    24b8:	02045783          	lhu	a5,32(s0)
    24bc:	04f70963          	beq	a4,a5,250e <rt_mb_send_wait+0x84>
F:\SCHOOL\文件\智能车\全向组\RTTThreadCH32V103\camCoreWithRTOS\obj/../Libraries/rtthread_libraries/src/ipc.c:1534
                timeout = 0;
        }
    }

    /* set ptr */
    mb->msg_pool[mb->in_offset] = value;
    24c0:	02445703          	lhu	a4,36(s0)
    24c4:	4c5c                	lw	a5,28(s0)
    24c6:	070a                	slli	a4,a4,0x2
    24c8:	97ba                	add	a5,a5,a4
    24ca:	0187a023          	sw	s8,0(a5)
F:\SCHOOL\文件\智能车\全向组\RTTThreadCH32V103\camCoreWithRTOS\obj/../Libraries/rtthread_libraries/src/ipc.c:1536
    /* increase input offset */
    ++ mb->in_offset;
    24ce:	02445783          	lhu	a5,36(s0)
    24d2:	0785                	addi	a5,a5,1
    24d4:	07c2                	slli	a5,a5,0x10
    24d6:	83c1                	srli	a5,a5,0x10
    24d8:	02f41223          	sh	a5,36(s0)
F:\SCHOOL\文件\智能车\全向组\RTTThreadCH32V103\camCoreWithRTOS\obj/../Libraries/rtthread_libraries/src/ipc.c:1537
    if (mb->in_offset >= mb->size)
    24dc:	02045703          	lhu	a4,32(s0)
    24e0:	00e7e463          	bltu	a5,a4,24e8 <rt_mb_send_wait+0x5e>
F:\SCHOOL\文件\智能车\全向组\RTTThreadCH32V103\camCoreWithRTOS\obj/../Libraries/rtthread_libraries/src/ipc.c:1538
        mb->in_offset = 0;
    24e4:	02041223          	sh	zero,36(s0)
F:\SCHOOL\文件\智能车\全向组\RTTThreadCH32V103\camCoreWithRTOS\obj/../Libraries/rtthread_libraries/src/ipc.c:1540
    /* increase message entry */
    mb->entry ++;
    24e8:	02245783          	lhu	a5,34(s0)
    24ec:	0785                	addi	a5,a5,1
    24ee:	02f41123          	sh	a5,34(s0)
rt_list_isempty():
F:\SCHOOL\文件\智能车\全向组\RTTThreadCH32V103\camCoreWithRTOS\Libraries\rtthread_libraries\include/rtservice.h:100
    return l->next == l;
    24f2:	4848                	lw	a0,20(s0)
rt_mb_send_wait():
F:\SCHOOL\文件\智能车\全向组\RTTThreadCH32V103\camCoreWithRTOS\obj/../Libraries/rtthread_libraries/src/ipc.c:1543

    /* resume suspended thread */
    if (!rt_list_isempty(&mb->parent.suspend_thread))
    24f4:	0451                	addi	s0,s0,20
    24f6:	12850763          	beq	a0,s0,2624 <rt_mb_send_wait+0x19a>
rt_ipc_list_resume():
F:\SCHOOL\文件\智能车\全向组\RTTThreadCH32V103\camCoreWithRTOS\obj/../Libraries/rtthread_libraries/src/ipc.c:142
    rt_thread_resume(thread);
    24fa:	1531                	addi	a0,a0,-20
    24fc:	438010ef          	jal	ra,3934 <rt_thread_resume>
rt_mb_send_wait():
F:\SCHOOL\文件\智能车\全向组\RTTThreadCH32V103\camCoreWithRTOS\obj/../Libraries/rtthread_libraries/src/ipc.c:1548
    {
        rt_ipc_list_resume(&(mb->parent.suspend_thread));

        /* enable interrupt */
        rt_hw_interrupt_enable(temp);
    2500:	854e                	mv	a0,s3
    2502:	c45fd0ef          	jal	ra,146 <rt_hw_interrupt_enable>
F:\SCHOOL\文件\智能车\全向组\RTTThreadCH32V103\camCoreWithRTOS\obj/../Libraries/rtthread_libraries/src/ipc.c:1550

        rt_schedule();
    2506:	7b3000ef          	jal	ra,34b8 <rt_schedule>
F:\SCHOOL\文件\智能车\全向组\RTTThreadCH32V103\camCoreWithRTOS\obj/../Libraries/rtthread_libraries/src/ipc.c:1552

        return RT_EOK;
    250a:	4501                	li	a0,0
    250c:	a025                	j	2534 <rt_mb_send_wait+0xaa>
F:\SCHOOL\文件\智能车\全向组\RTTThreadCH32V103\camCoreWithRTOS\obj/../Libraries/rtthread_libraries/src/ipc.c:1463 (discriminator 1)
    if (mb->entry == mb->size && timeout == 0)
    250e:	47b2                	lw	a5,12(sp)
    2510:	4c81                	li	s9,0
    2512:	cb89                	beqz	a5,2524 <rt_mb_send_wait+0x9a>
F:\SCHOOL\文件\智能车\全向组\RTTThreadCH32V103\camCoreWithRTOS\obj/../Libraries/rtthread_libraries/src/ipc.c:1487
        rt_ipc_list_suspend(&(mb->suspend_sender_thread),
    2514:	02840a13          	addi	s4,s0,40
rt_ipc_list_suspend():
F:\SCHOOL\文件\智能车\全向组\RTTThreadCH32V103\camCoreWithRTOS\obj/../Libraries/rtthread_libraries/src/ipc.c:88
        rt_list_insert_before(list, &(thread->tlist));
    2518:	01448a93          	addi	s5,s1,20
    251c:	4b05                	li	s6,1
rt_mb_send_wait():
F:\SCHOOL\文件\智能车\全向组\RTTThreadCH32V103\camCoreWithRTOS\obj/../Libraries/rtthread_libraries/src/ipc.c:1501
            rt_timer_control(&(thread->thread_timer),
    251e:	04448b93          	addi	s7,s1,68
    2522:	a8b9                	j	2580 <rt_mb_send_wait+0xf6>
F:\SCHOOL\文件\智能车\全向组\RTTThreadCH32V103\camCoreWithRTOS\obj/../Libraries/rtthread_libraries/src/ipc.c:1465
        rt_hw_interrupt_enable(temp);
    2524:	c23fd0ef          	jal	ra,146 <rt_hw_interrupt_enable>
F:\SCHOOL\文件\智能车\全向组\RTTThreadCH32V103\camCoreWithRTOS\obj/../Libraries/rtthread_libraries/src/ipc.c:1467
        return -RT_EFULL;
    2528:	5575                	li	a0,-3
    252a:	a029                	j	2534 <rt_mb_send_wait+0xaa>
F:\SCHOOL\文件\智能车\全向组\RTTThreadCH32V103\camCoreWithRTOS\obj/../Libraries/rtthread_libraries/src/ipc.c:1480
            rt_hw_interrupt_enable(temp);
    252c:	854e                	mv	a0,s3
    252e:	c19fd0ef          	jal	ra,146 <rt_hw_interrupt_enable>
F:\SCHOOL\文件\智能车\全向组\RTTThreadCH32V103\camCoreWithRTOS\obj/../Libraries/rtthread_libraries/src/ipc.c:1482
            return -RT_EFULL;
    2532:	5575                	li	a0,-3
F:\SCHOOL\文件\智能车\全向组\RTTThreadCH32V103\camCoreWithRTOS\obj/../Libraries/rtthread_libraries/src/ipc.c:1559

    /* enable interrupt */
    rt_hw_interrupt_enable(temp);

    return RT_EOK;
}
    2534:	50f2                	lw	ra,60(sp)
    2536:	5462                	lw	s0,56(sp)
    2538:	54d2                	lw	s1,52(sp)
    253a:	5942                	lw	s2,48(sp)
    253c:	59b2                	lw	s3,44(sp)
    253e:	5a22                	lw	s4,40(sp)
    2540:	5a92                	lw	s5,36(sp)
    2542:	5b02                	lw	s6,32(sp)
    2544:	4bf2                	lw	s7,28(sp)
    2546:	4c62                	lw	s8,24(sp)
    2548:	4cd2                	lw	s9,20(sp)
    254a:	6121                	addi	sp,sp,64
    254c:	8082                	ret
rt_list_insert_before():
F:\SCHOOL\文件\智能车\全向组\RTTThreadCH32V103\camCoreWithRTOS\Libraries\rtthread_libraries\include/rtservice.h:75
    l->prev->next = n;
    254e:	545c                	lw	a5,44(s0)
    2550:	0157a023          	sw	s5,0(a5)
F:\SCHOOL\文件\智能车\全向组\RTTThreadCH32V103\camCoreWithRTOS\Libraries\rtthread_libraries\include/rtservice.h:76
    n->prev = l->prev;
    2554:	545c                	lw	a5,44(s0)
    2556:	cc9c                	sw	a5,24(s1)
F:\SCHOOL\文件\智能车\全向组\RTTThreadCH32V103\camCoreWithRTOS\Libraries\rtthread_libraries\include/rtservice.h:78
    l->prev = n;
    2558:	03542623          	sw	s5,44(s0)
F:\SCHOOL\文件\智能车\全向组\RTTThreadCH32V103\camCoreWithRTOS\Libraries\rtthread_libraries\include/rtservice.h:79
    n->next = l;
    255c:	0144aa23          	sw	s4,20(s1)
rt_mb_send_wait():
F:\SCHOOL\文件\智能车\全向组\RTTThreadCH32V103\camCoreWithRTOS\obj/../Libraries/rtthread_libraries/src/ipc.c:1492
        if (timeout > 0)
    2560:	47b2                	lw	a5,12(sp)
    2562:	08f04563          	bgtz	a5,25ec <rt_mb_send_wait+0x162>
F:\SCHOOL\文件\智能车\全向组\RTTThreadCH32V103\camCoreWithRTOS\obj/../Libraries/rtthread_libraries/src/ipc.c:1508
        rt_hw_interrupt_enable(temp);
    2566:	854e                	mv	a0,s3
    2568:	bdffd0ef          	jal	ra,146 <rt_hw_interrupt_enable>
F:\SCHOOL\文件\智能车\全向组\RTTThreadCH32V103\camCoreWithRTOS\obj/../Libraries/rtthread_libraries/src/ipc.c:1511
        rt_schedule();
    256c:	74d000ef          	jal	ra,34b8 <rt_schedule>
F:\SCHOOL\文件\智能车\全向组\RTTThreadCH32V103\camCoreWithRTOS\obj/../Libraries/rtthread_libraries/src/ipc.c:1514
        if (thread->error != RT_EOK)
    2570:	5888                	lw	a0,48(s1)
    2572:	f169                	bnez	a0,2534 <rt_mb_send_wait+0xaa>
F:\SCHOOL\文件\智能车\全向组\RTTThreadCH32V103\camCoreWithRTOS\obj/../Libraries/rtthread_libraries/src/ipc.c:1521
        temp = rt_hw_interrupt_disable();
    2574:	bcdfd0ef          	jal	ra,140 <rt_hw_interrupt_disable>
    2578:	89aa                	mv	s3,a0
F:\SCHOOL\文件\智能车\全向组\RTTThreadCH32V103\camCoreWithRTOS\obj/../Libraries/rtthread_libraries/src/ipc.c:1524
        if (timeout > 0)
    257a:	47b2                	lw	a5,12(sp)
    257c:	08f04463          	bgtz	a5,2604 <rt_mb_send_wait+0x17a>
F:\SCHOOL\文件\智能车\全向组\RTTThreadCH32V103\camCoreWithRTOS\obj/../Libraries/rtthread_libraries/src/ipc.c:1471
    while (mb->entry == mb->size)
    2580:	02245703          	lhu	a4,34(s0)
    2584:	02045783          	lhu	a5,32(s0)
    2588:	f2f71ce3          	bne	a4,a5,24c0 <rt_mb_send_wait+0x36>
F:\SCHOOL\文件\智能车\全向组\RTTThreadCH32V103\camCoreWithRTOS\obj/../Libraries/rtthread_libraries/src/ipc.c:1474
        thread->error = RT_EOK;
    258c:	0204a823          	sw	zero,48(s1)
F:\SCHOOL\文件\智能车\全向组\RTTThreadCH32V103\camCoreWithRTOS\obj/../Libraries/rtthread_libraries/src/ipc.c:1477
        if (timeout == 0)
    2590:	47b2                	lw	a5,12(sp)
    2592:	dfc9                	beqz	a5,252c <rt_mb_send_wait+0xa2>
F:\SCHOOL\文件\智能车\全向组\RTTThreadCH32V103\camCoreWithRTOS\obj/../Libraries/rtthread_libraries/src/ipc.c:1487
        rt_ipc_list_suspend(&(mb->suspend_sender_thread),
    2594:	00944903          	lbu	s2,9(s0)
rt_ipc_list_suspend():
F:\SCHOOL\文件\智能车\全向组\RTTThreadCH32V103\camCoreWithRTOS\obj/../Libraries/rtthread_libraries/src/ipc.c:83
    rt_thread_suspend(thread);
    2598:	8526                	mv	a0,s1
    259a:	2ea010ef          	jal	ra,3884 <rt_thread_suspend>
F:\SCHOOL\文件\智能车\全向组\RTTThreadCH32V103\camCoreWithRTOS\obj/../Libraries/rtthread_libraries/src/ipc.c:85
    switch (flag)
    259e:	fa0908e3          	beqz	s2,254e <rt_mb_send_wait+0xc4>
    25a2:	fb691fe3          	bne	s2,s6,2560 <rt_mb_send_wait+0xd6>
F:\SCHOOL\文件\智能车\全向组\RTTThreadCH32V103\camCoreWithRTOS\obj/../Libraries/rtthread_libraries/src/ipc.c:97
            for (n = list->next; n != list; n = n->next)
    25a6:	541c                	lw	a5,40(s0)
    25a8:	02fa0863          	beq	s4,a5,25d8 <rt_mb_send_wait+0x14e>
F:\SCHOOL\文件\智能车\全向组\RTTThreadCH32V103\camCoreWithRTOS\obj/../Libraries/rtthread_libraries/src/ipc.c:102
                if (thread->current_priority < sthread->current_priority)
    25ac:	0354c683          	lbu	a3,53(s1)
    25b0:	0217c703          	lbu	a4,33(a5)
    25b4:	00e6e963          	bltu	a3,a4,25c6 <rt_mb_send_wait+0x13c>
F:\SCHOOL\文件\智能车\全向组\RTTThreadCH32V103\camCoreWithRTOS\obj/../Libraries/rtthread_libraries/src/ipc.c:97
            for (n = list->next; n != list; n = n->next)
    25b8:	439c                	lw	a5,0(a5)
    25ba:	00fa0f63          	beq	s4,a5,25d8 <rt_mb_send_wait+0x14e>
F:\SCHOOL\文件\智能车\全向组\RTTThreadCH32V103\camCoreWithRTOS\obj/../Libraries/rtthread_libraries/src/ipc.c:102
                if (thread->current_priority < sthread->current_priority)
    25be:	0217c703          	lbu	a4,33(a5)
    25c2:	fee6fbe3          	bgeu	a3,a4,25b8 <rt_mb_send_wait+0x12e>
rt_list_insert_before():
F:\SCHOOL\文件\智能车\全向组\RTTThreadCH32V103\camCoreWithRTOS\Libraries\rtthread_libraries\include/rtservice.h:75
    l->prev->next = n;
    25c6:	43d8                	lw	a4,4(a5)
    25c8:	01572023          	sw	s5,0(a4)
F:\SCHOOL\文件\智能车\全向组\RTTThreadCH32V103\camCoreWithRTOS\Libraries\rtthread_libraries\include/rtservice.h:76
    n->prev = l->prev;
    25cc:	43d8                	lw	a4,4(a5)
    25ce:	cc98                	sw	a4,24(s1)
F:\SCHOOL\文件\智能车\全向组\RTTThreadCH32V103\camCoreWithRTOS\Libraries\rtthread_libraries\include/rtservice.h:78
    l->prev = n;
    25d0:	0157a223          	sw	s5,4(a5)
F:\SCHOOL\文件\智能车\全向组\RTTThreadCH32V103\camCoreWithRTOS\Libraries\rtthread_libraries\include/rtservice.h:79
    n->next = l;
    25d4:	c8dc                	sw	a5,20(s1)
rt_ipc_list_suspend():
F:\SCHOOL\文件\智能车\全向组\RTTThreadCH32V103\camCoreWithRTOS\obj/../Libraries/rtthread_libraries/src/ipc.c:114
            if (n == list)
    25d6:	b769                	j	2560 <rt_mb_send_wait+0xd6>
rt_list_insert_before():
F:\SCHOOL\文件\智能车\全向组\RTTThreadCH32V103\camCoreWithRTOS\Libraries\rtthread_libraries\include/rtservice.h:75
    l->prev->next = n;
    25d8:	545c                	lw	a5,44(s0)
    25da:	0157a023          	sw	s5,0(a5)
F:\SCHOOL\文件\智能车\全向组\RTTThreadCH32V103\camCoreWithRTOS\Libraries\rtthread_libraries\include/rtservice.h:76
    n->prev = l->prev;
    25de:	545c                	lw	a5,44(s0)
    25e0:	cc9c                	sw	a5,24(s1)
F:\SCHOOL\文件\智能车\全向组\RTTThreadCH32V103\camCoreWithRTOS\Libraries\rtthread_libraries\include/rtservice.h:78
    l->prev = n;
    25e2:	03542623          	sw	s5,44(s0)
F:\SCHOOL\文件\智能车\全向组\RTTThreadCH32V103\camCoreWithRTOS\Libraries\rtthread_libraries\include/rtservice.h:79
    n->next = l;
    25e6:	0144aa23          	sw	s4,20(s1)
    25ea:	bf9d                	j	2560 <rt_mb_send_wait+0xd6>
rt_mb_send_wait():
F:\SCHOOL\文件\智能车\全向组\RTTThreadCH32V103\camCoreWithRTOS\obj/../Libraries/rtthread_libraries/src/ipc.c:1495
            tick_delta = rt_tick_get();
    25ec:	a75ff0ef          	jal	ra,2060 <rt_tick_get>
    25f0:	8caa                	mv	s9,a0
F:\SCHOOL\文件\智能车\全向组\RTTThreadCH32V103\camCoreWithRTOS\obj/../Libraries/rtthread_libraries/src/ipc.c:1501
            rt_timer_control(&(thread->thread_timer),
    25f2:	0070                	addi	a2,sp,12
    25f4:	4581                	li	a1,0
    25f6:	855e                	mv	a0,s7
    25f8:	562010ef          	jal	ra,3b5a <rt_timer_control>
F:\SCHOOL\文件\智能车\全向组\RTTThreadCH32V103\camCoreWithRTOS\obj/../Libraries/rtthread_libraries/src/ipc.c:1504
            rt_timer_start(&(thread->thread_timer));
    25fc:	855e                	mv	a0,s7
    25fe:	47e010ef          	jal	ra,3a7c <rt_timer_start>
    2602:	b795                	j	2566 <rt_mb_send_wait+0xdc>
F:\SCHOOL\文件\智能车\全向组\RTTThreadCH32V103\camCoreWithRTOS\obj/../Libraries/rtthread_libraries/src/ipc.c:1526
            tick_delta = rt_tick_get() - tick_delta;
    2604:	a5dff0ef          	jal	ra,2060 <rt_tick_get>
    2608:	41950733          	sub	a4,a0,s9
F:\SCHOOL\文件\智能车\全向组\RTTThreadCH32V103\camCoreWithRTOS\obj/../Libraries/rtthread_libraries/src/ipc.c:1527
            timeout -= tick_delta;
    260c:	47b2                	lw	a5,12(sp)
    260e:	97e6                	add	a5,a5,s9
    2610:	40a78533          	sub	a0,a5,a0
F:\SCHOOL\文件\智能车\全向组\RTTThreadCH32V103\camCoreWithRTOS\obj/../Libraries/rtthread_libraries/src/ipc.c:1528
            if (timeout < 0)
    2614:	00054563          	bltz	a0,261e <rt_mb_send_wait+0x194>
F:\SCHOOL\文件\智能车\全向组\RTTThreadCH32V103\camCoreWithRTOS\obj/../Libraries/rtthread_libraries/src/ipc.c:1527
            timeout -= tick_delta;
    2618:	c62a                	sw	a0,12(sp)
F:\SCHOOL\文件\智能车\全向组\RTTThreadCH32V103\camCoreWithRTOS\obj/../Libraries/rtthread_libraries/src/ipc.c:1526
            tick_delta = rt_tick_get() - tick_delta;
    261a:	8cba                	mv	s9,a4
    261c:	b795                	j	2580 <rt_mb_send_wait+0xf6>
F:\SCHOOL\文件\智能车\全向组\RTTThreadCH32V103\camCoreWithRTOS\obj/../Libraries/rtthread_libraries/src/ipc.c:1529
                timeout = 0;
    261e:	c602                	sw	zero,12(sp)
F:\SCHOOL\文件\智能车\全向组\RTTThreadCH32V103\camCoreWithRTOS\obj/../Libraries/rtthread_libraries/src/ipc.c:1526
            tick_delta = rt_tick_get() - tick_delta;
    2620:	8cba                	mv	s9,a4
    2622:	bfb9                	j	2580 <rt_mb_send_wait+0xf6>
F:\SCHOOL\文件\智能车\全向组\RTTThreadCH32V103\camCoreWithRTOS\obj/../Libraries/rtthread_libraries/src/ipc.c:1556
    rt_hw_interrupt_enable(temp);
    2624:	854e                	mv	a0,s3
    2626:	b21fd0ef          	jal	ra,146 <rt_hw_interrupt_enable>
F:\SCHOOL\文件\智能车\全向组\RTTThreadCH32V103\camCoreWithRTOS\obj/../Libraries/rtthread_libraries/src/ipc.c:1558
    return RT_EOK;
    262a:	4501                	li	a0,0
    262c:	b721                	j	2534 <rt_mb_send_wait+0xaa>

0000262e <rt_mb_send>:
rt_mb_send():
F:\SCHOOL\文件\智能车\全向组\RTTThreadCH32V103\camCoreWithRTOS\obj/../Libraries/rtthread_libraries/src/ipc.c:1573
 * @param value the mail
 *
 * @return the error code
 */
rt_err_t rt_mb_send(rt_mailbox_t mb, rt_uint32_t value)
{
    262e:	1141                	addi	sp,sp,-16
    2630:	c606                	sw	ra,12(sp)
F:\SCHOOL\文件\智能车\全向组\RTTThreadCH32V103\camCoreWithRTOS\obj/../Libraries/rtthread_libraries/src/ipc.c:1574
    return rt_mb_send_wait(mb, value, 0);
    2632:	4601                	li	a2,0
    2634:	3d99                	jal	248a <rt_mb_send_wait>
F:\SCHOOL\文件\智能车\全向组\RTTThreadCH32V103\camCoreWithRTOS\obj/../Libraries/rtthread_libraries/src/ipc.c:1575
}
    2636:	40b2                	lw	ra,12(sp)
    2638:	0141                	addi	sp,sp,16
    263a:	8082                	ret

0000263c <rt_mb_recv>:
rt_mb_recv():
F:\SCHOOL\文件\智能车\全向组\RTTThreadCH32V103\camCoreWithRTOS\obj/../Libraries/rtthread_libraries/src/ipc.c:1589
 * @param timeout the waiting time
 *
 * @return the error code
 */
rt_err_t rt_mb_recv(rt_mailbox_t mb, rt_uint32_t *value, rt_int32_t timeout)
{
    263c:	7139                	addi	sp,sp,-64
    263e:	de06                	sw	ra,60(sp)
    2640:	dc22                	sw	s0,56(sp)
    2642:	da26                	sw	s1,52(sp)
    2644:	d84a                	sw	s2,48(sp)
    2646:	d64e                	sw	s3,44(sp)
    2648:	d452                	sw	s4,40(sp)
    264a:	d256                	sw	s5,36(sp)
    264c:	d05a                	sw	s6,32(sp)
    264e:	ce5e                	sw	s7,28(sp)
    2650:	cc62                	sw	s8,24(sp)
    2652:	ca66                	sw	s9,20(sp)
    2654:	84aa                	mv	s1,a0
    2656:	8c2e                	mv	s8,a1
    2658:	c632                	sw	a2,12(sp)
F:\SCHOOL\文件\智能车\全向组\RTTThreadCH32V103\camCoreWithRTOS\obj/../Libraries/rtthread_libraries/src/ipc.c:1601
    RT_ASSERT(rt_object_get_type(&mb->parent.parent) == RT_Object_Class_MailBox);

    /* initialize delta tick */
    tick_delta = 0;
    /* get current thread */
    thread = rt_thread_self();
    265a:	108010ef          	jal	ra,3762 <rt_thread_self>
    265e:	842a                	mv	s0,a0
F:\SCHOOL\文件\智能车\全向组\RTTThreadCH32V103\camCoreWithRTOS\obj/../Libraries/rtthread_libraries/src/ipc.c:1606

    RT_OBJECT_HOOK_CALL(rt_object_trytake_hook, (&(mb->parent.parent)));

    /* disable interrupt */
    temp = rt_hw_interrupt_disable();
    2660:	ae1fd0ef          	jal	ra,140 <rt_hw_interrupt_disable>
    2664:	89aa                	mv	s3,a0
F:\SCHOOL\文件\智能车\全向组\RTTThreadCH32V103\camCoreWithRTOS\obj/../Libraries/rtthread_libraries/src/ipc.c:1609

    /* for non-blocking call */
    if (mb->entry == 0 && timeout == 0)
    2666:	0224d783          	lhu	a5,34(s1)
    266a:	10079c63          	bnez	a5,2782 <rt_mb_recv+0x146>
F:\SCHOOL\文件\智能车\全向组\RTTThreadCH32V103\camCoreWithRTOS\obj/../Libraries/rtthread_libraries/src/ipc.c:1609 (discriminator 1)
    266e:	47b2                	lw	a5,12(sp)
    2670:	4c81                	li	s9,0
    2672:	cb89                	beqz	a5,2684 <rt_mb_recv+0x48>
F:\SCHOOL\文件\智能车\全向组\RTTThreadCH32V103\camCoreWithRTOS\obj/../Libraries/rtthread_libraries/src/ipc.c:1635
            return -RT_ETIMEOUT;
        }

        RT_DEBUG_IN_THREAD_CONTEXT;
        /* suspend current thread */
        rt_ipc_list_suspend(&(mb->parent.suspend_thread),
    2674:	01448a13          	addi	s4,s1,20
rt_ipc_list_suspend():
F:\SCHOOL\文件\智能车\全向组\RTTThreadCH32V103\camCoreWithRTOS\obj/../Libraries/rtthread_libraries/src/ipc.c:88
        rt_list_insert_before(list, &(thread->tlist));
    2678:	01440a93          	addi	s5,s0,20
    267c:	4b05                	li	s6,1
rt_mb_recv():
F:\SCHOOL\文件\智能车\全向组\RTTThreadCH32V103\camCoreWithRTOS\obj/../Libraries/rtthread_libraries/src/ipc.c:1649

            RT_DEBUG_LOG(RT_DEBUG_IPC, ("mb_recv: start timer of thread:%s\n",
                                        thread->name));

            /* reset the timeout of thread timer and start it */
            rt_timer_control(&(thread->thread_timer),
    267e:	04440b93          	addi	s7,s0,68
    2682:	a08d                	j	26e4 <rt_mb_recv+0xa8>
F:\SCHOOL\文件\智能车\全向组\RTTThreadCH32V103\camCoreWithRTOS\obj/../Libraries/rtthread_libraries/src/ipc.c:1611
        rt_hw_interrupt_enable(temp);
    2684:	ac3fd0ef          	jal	ra,146 <rt_hw_interrupt_enable>
F:\SCHOOL\文件\智能车\全向组\RTTThreadCH32V103\camCoreWithRTOS\obj/../Libraries/rtthread_libraries/src/ipc.c:1613
        return -RT_ETIMEOUT;
    2688:	5579                	li	a0,-2
    268a:	a039                	j	2698 <rt_mb_recv+0x5c>
F:\SCHOOL\文件\智能车\全向组\RTTThreadCH32V103\camCoreWithRTOS\obj/../Libraries/rtthread_libraries/src/ipc.c:1626
            rt_hw_interrupt_enable(temp);
    268c:	854e                	mv	a0,s3
    268e:	ab9fd0ef          	jal	ra,146 <rt_hw_interrupt_enable>
F:\SCHOOL\文件\智能车\全向组\RTTThreadCH32V103\camCoreWithRTOS\obj/../Libraries/rtthread_libraries/src/ipc.c:1628
            thread->error = -RT_ETIMEOUT;
    2692:	57f9                	li	a5,-2
    2694:	d81c                	sw	a5,48(s0)
F:\SCHOOL\文件\智能车\全向组\RTTThreadCH32V103\camCoreWithRTOS\obj/../Libraries/rtthread_libraries/src/ipc.c:1630
            return -RT_ETIMEOUT;
    2696:	5579                	li	a0,-2
F:\SCHOOL\文件\智能车\全向组\RTTThreadCH32V103\camCoreWithRTOS\obj/../Libraries/rtthread_libraries/src/ipc.c:1712
    rt_hw_interrupt_enable(temp);

    RT_OBJECT_HOOK_CALL(rt_object_take_hook, (&(mb->parent.parent)));

    return RT_EOK;
}
    2698:	50f2                	lw	ra,60(sp)
    269a:	5462                	lw	s0,56(sp)
    269c:	54d2                	lw	s1,52(sp)
    269e:	5942                	lw	s2,48(sp)
    26a0:	59b2                	lw	s3,44(sp)
    26a2:	5a22                	lw	s4,40(sp)
    26a4:	5a92                	lw	s5,36(sp)
    26a6:	5b02                	lw	s6,32(sp)
    26a8:	4bf2                	lw	s7,28(sp)
    26aa:	4c62                	lw	s8,24(sp)
    26ac:	4cd2                	lw	s9,20(sp)
    26ae:	6121                	addi	sp,sp,64
    26b0:	8082                	ret
rt_list_insert_before():
F:\SCHOOL\文件\智能车\全向组\RTTThreadCH32V103\camCoreWithRTOS\Libraries\rtthread_libraries\include/rtservice.h:75
    l->prev->next = n;
    26b2:	4c9c                	lw	a5,24(s1)
    26b4:	0157a023          	sw	s5,0(a5)
F:\SCHOOL\文件\智能车\全向组\RTTThreadCH32V103\camCoreWithRTOS\Libraries\rtthread_libraries\include/rtservice.h:76
    n->prev = l->prev;
    26b8:	4c9c                	lw	a5,24(s1)
    26ba:	cc1c                	sw	a5,24(s0)
F:\SCHOOL\文件\智能车\全向组\RTTThreadCH32V103\camCoreWithRTOS\Libraries\rtthread_libraries\include/rtservice.h:78
    l->prev = n;
    26bc:	0154ac23          	sw	s5,24(s1)
F:\SCHOOL\文件\智能车\全向组\RTTThreadCH32V103\camCoreWithRTOS\Libraries\rtthread_libraries\include/rtservice.h:79
    n->next = l;
    26c0:	01442a23          	sw	s4,20(s0)
rt_mb_recv():
F:\SCHOOL\文件\智能车\全向组\RTTThreadCH32V103\camCoreWithRTOS\obj/../Libraries/rtthread_libraries/src/ipc.c:1640
        if (timeout > 0)
    26c4:	47b2                	lw	a5,12(sp)
    26c6:	08f04263          	bgtz	a5,274a <rt_mb_recv+0x10e>
F:\SCHOOL\文件\智能车\全向组\RTTThreadCH32V103\camCoreWithRTOS\obj/../Libraries/rtthread_libraries/src/ipc.c:1656
        rt_hw_interrupt_enable(temp);
    26ca:	854e                	mv	a0,s3
    26cc:	a7bfd0ef          	jal	ra,146 <rt_hw_interrupt_enable>
F:\SCHOOL\文件\智能车\全向组\RTTThreadCH32V103\camCoreWithRTOS\obj/../Libraries/rtthread_libraries/src/ipc.c:1659
        rt_schedule();
    26d0:	5e9000ef          	jal	ra,34b8 <rt_schedule>
F:\SCHOOL\文件\智能车\全向组\RTTThreadCH32V103\camCoreWithRTOS\obj/../Libraries/rtthread_libraries/src/ipc.c:1662
        if (thread->error != RT_EOK)
    26d4:	5808                	lw	a0,48(s0)
    26d6:	f169                	bnez	a0,2698 <rt_mb_recv+0x5c>
F:\SCHOOL\文件\智能车\全向组\RTTThreadCH32V103\camCoreWithRTOS\obj/../Libraries/rtthread_libraries/src/ipc.c:1669
        temp = rt_hw_interrupt_disable();
    26d8:	a69fd0ef          	jal	ra,140 <rt_hw_interrupt_disable>
    26dc:	89aa                	mv	s3,a0
F:\SCHOOL\文件\智能车\全向组\RTTThreadCH32V103\camCoreWithRTOS\obj/../Libraries/rtthread_libraries/src/ipc.c:1672
        if (timeout > 0)
    26de:	47b2                	lw	a5,12(sp)
    26e0:	08f04163          	bgtz	a5,2762 <rt_mb_recv+0x126>
F:\SCHOOL\文件\智能车\全向组\RTTThreadCH32V103\camCoreWithRTOS\obj/../Libraries/rtthread_libraries/src/ipc.c:1617
    while (mb->entry == 0)
    26e4:	0224d783          	lhu	a5,34(s1)
    26e8:	efc9                	bnez	a5,2782 <rt_mb_recv+0x146>
F:\SCHOOL\文件\智能车\全向组\RTTThreadCH32V103\camCoreWithRTOS\obj/../Libraries/rtthread_libraries/src/ipc.c:1620
        thread->error = RT_EOK;
    26ea:	02042823          	sw	zero,48(s0)
F:\SCHOOL\文件\智能车\全向组\RTTThreadCH32V103\camCoreWithRTOS\obj/../Libraries/rtthread_libraries/src/ipc.c:1623
        if (timeout == 0)
    26ee:	47b2                	lw	a5,12(sp)
    26f0:	dfd1                	beqz	a5,268c <rt_mb_recv+0x50>
F:\SCHOOL\文件\智能车\全向组\RTTThreadCH32V103\camCoreWithRTOS\obj/../Libraries/rtthread_libraries/src/ipc.c:1635
        rt_ipc_list_suspend(&(mb->parent.suspend_thread),
    26f2:	0094c903          	lbu	s2,9(s1)
rt_ipc_list_suspend():
F:\SCHOOL\文件\智能车\全向组\RTTThreadCH32V103\camCoreWithRTOS\obj/../Libraries/rtthread_libraries/src/ipc.c:83
    rt_thread_suspend(thread);
    26f6:	8522                	mv	a0,s0
    26f8:	18c010ef          	jal	ra,3884 <rt_thread_suspend>
F:\SCHOOL\文件\智能车\全向组\RTTThreadCH32V103\camCoreWithRTOS\obj/../Libraries/rtthread_libraries/src/ipc.c:85
    switch (flag)
    26fc:	fa090be3          	beqz	s2,26b2 <rt_mb_recv+0x76>
    2700:	fd6912e3          	bne	s2,s6,26c4 <rt_mb_recv+0x88>
F:\SCHOOL\文件\智能车\全向组\RTTThreadCH32V103\camCoreWithRTOS\obj/../Libraries/rtthread_libraries/src/ipc.c:97
            for (n = list->next; n != list; n = n->next)
    2704:	48dc                	lw	a5,20(s1)
    2706:	02fa0863          	beq	s4,a5,2736 <rt_mb_recv+0xfa>
F:\SCHOOL\文件\智能车\全向组\RTTThreadCH32V103\camCoreWithRTOS\obj/../Libraries/rtthread_libraries/src/ipc.c:102
                if (thread->current_priority < sthread->current_priority)
    270a:	03544683          	lbu	a3,53(s0)
    270e:	0217c703          	lbu	a4,33(a5)
    2712:	00e6e963          	bltu	a3,a4,2724 <rt_mb_recv+0xe8>
F:\SCHOOL\文件\智能车\全向组\RTTThreadCH32V103\camCoreWithRTOS\obj/../Libraries/rtthread_libraries/src/ipc.c:97
            for (n = list->next; n != list; n = n->next)
    2716:	439c                	lw	a5,0(a5)
    2718:	00fa0f63          	beq	s4,a5,2736 <rt_mb_recv+0xfa>
F:\SCHOOL\文件\智能车\全向组\RTTThreadCH32V103\camCoreWithRTOS\obj/../Libraries/rtthread_libraries/src/ipc.c:102
                if (thread->current_priority < sthread->current_priority)
    271c:	0217c703          	lbu	a4,33(a5)
    2720:	fee6fbe3          	bgeu	a3,a4,2716 <rt_mb_recv+0xda>
rt_list_insert_before():
F:\SCHOOL\文件\智能车\全向组\RTTThreadCH32V103\camCoreWithRTOS\Libraries\rtthread_libraries\include/rtservice.h:75
    l->prev->next = n;
    2724:	43d8                	lw	a4,4(a5)
    2726:	01572023          	sw	s5,0(a4)
F:\SCHOOL\文件\智能车\全向组\RTTThreadCH32V103\camCoreWithRTOS\Libraries\rtthread_libraries\include/rtservice.h:76
    n->prev = l->prev;
    272a:	43d8                	lw	a4,4(a5)
    272c:	cc18                	sw	a4,24(s0)
F:\SCHOOL\文件\智能车\全向组\RTTThreadCH32V103\camCoreWithRTOS\Libraries\rtthread_libraries\include/rtservice.h:78
    l->prev = n;
    272e:	0157a223          	sw	s5,4(a5)
F:\SCHOOL\文件\智能车\全向组\RTTThreadCH32V103\camCoreWithRTOS\Libraries\rtthread_libraries\include/rtservice.h:79
    n->next = l;
    2732:	c85c                	sw	a5,20(s0)
rt_ipc_list_suspend():
F:\SCHOOL\文件\智能车\全向组\RTTThreadCH32V103\camCoreWithRTOS\obj/../Libraries/rtthread_libraries/src/ipc.c:114
            if (n == list)
    2734:	bf41                	j	26c4 <rt_mb_recv+0x88>
rt_list_insert_before():
F:\SCHOOL\文件\智能车\全向组\RTTThreadCH32V103\camCoreWithRTOS\Libraries\rtthread_libraries\include/rtservice.h:75
    l->prev->next = n;
    2736:	4c9c                	lw	a5,24(s1)
    2738:	0157a023          	sw	s5,0(a5)
F:\SCHOOL\文件\智能车\全向组\RTTThreadCH32V103\camCoreWithRTOS\Libraries\rtthread_libraries\include/rtservice.h:76
    n->prev = l->prev;
    273c:	4c9c                	lw	a5,24(s1)
    273e:	cc1c                	sw	a5,24(s0)
F:\SCHOOL\文件\智能车\全向组\RTTThreadCH32V103\camCoreWithRTOS\Libraries\rtthread_libraries\include/rtservice.h:78
    l->prev = n;
    2740:	0154ac23          	sw	s5,24(s1)
F:\SCHOOL\文件\智能车\全向组\RTTThreadCH32V103\camCoreWithRTOS\Libraries\rtthread_libraries\include/rtservice.h:79
    n->next = l;
    2744:	01442a23          	sw	s4,20(s0)
    2748:	bfb5                	j	26c4 <rt_mb_recv+0x88>
rt_mb_recv():
F:\SCHOOL\文件\智能车\全向组\RTTThreadCH32V103\camCoreWithRTOS\obj/../Libraries/rtthread_libraries/src/ipc.c:1643
            tick_delta = rt_tick_get();
    274a:	917ff0ef          	jal	ra,2060 <rt_tick_get>
    274e:	8caa                	mv	s9,a0
F:\SCHOOL\文件\智能车\全向组\RTTThreadCH32V103\camCoreWithRTOS\obj/../Libraries/rtthread_libraries/src/ipc.c:1649
            rt_timer_control(&(thread->thread_timer),
    2750:	0070                	addi	a2,sp,12
    2752:	4581                	li	a1,0
    2754:	855e                	mv	a0,s7
    2756:	404010ef          	jal	ra,3b5a <rt_timer_control>
F:\SCHOOL\文件\智能车\全向组\RTTThreadCH32V103\camCoreWithRTOS\obj/../Libraries/rtthread_libraries/src/ipc.c:1652
            rt_timer_start(&(thread->thread_timer));
    275a:	855e                	mv	a0,s7
    275c:	320010ef          	jal	ra,3a7c <rt_timer_start>
    2760:	b7ad                	j	26ca <rt_mb_recv+0x8e>
F:\SCHOOL\文件\智能车\全向组\RTTThreadCH32V103\camCoreWithRTOS\obj/../Libraries/rtthread_libraries/src/ipc.c:1674
            tick_delta = rt_tick_get() - tick_delta;
    2762:	8ffff0ef          	jal	ra,2060 <rt_tick_get>
    2766:	41950733          	sub	a4,a0,s9
F:\SCHOOL\文件\智能车\全向组\RTTThreadCH32V103\camCoreWithRTOS\obj/../Libraries/rtthread_libraries/src/ipc.c:1675
            timeout -= tick_delta;
    276a:	47b2                	lw	a5,12(sp)
    276c:	97e6                	add	a5,a5,s9
    276e:	40a78533          	sub	a0,a5,a0
F:\SCHOOL\文件\智能车\全向组\RTTThreadCH32V103\camCoreWithRTOS\obj/../Libraries/rtthread_libraries/src/ipc.c:1676
            if (timeout < 0)
    2772:	00054563          	bltz	a0,277c <rt_mb_recv+0x140>
F:\SCHOOL\文件\智能车\全向组\RTTThreadCH32V103\camCoreWithRTOS\obj/../Libraries/rtthread_libraries/src/ipc.c:1675
            timeout -= tick_delta;
    2776:	c62a                	sw	a0,12(sp)
F:\SCHOOL\文件\智能车\全向组\RTTThreadCH32V103\camCoreWithRTOS\obj/../Libraries/rtthread_libraries/src/ipc.c:1674
            tick_delta = rt_tick_get() - tick_delta;
    2778:	8cba                	mv	s9,a4
    277a:	b7ad                	j	26e4 <rt_mb_recv+0xa8>
F:\SCHOOL\文件\智能车\全向组\RTTThreadCH32V103\camCoreWithRTOS\obj/../Libraries/rtthread_libraries/src/ipc.c:1677
                timeout = 0;
    277c:	c602                	sw	zero,12(sp)
F:\SCHOOL\文件\智能车\全向组\RTTThreadCH32V103\camCoreWithRTOS\obj/../Libraries/rtthread_libraries/src/ipc.c:1674
            tick_delta = rt_tick_get() - tick_delta;
    277e:	8cba                	mv	s9,a4
    2780:	b795                	j	26e4 <rt_mb_recv+0xa8>
F:\SCHOOL\文件\智能车\全向组\RTTThreadCH32V103\camCoreWithRTOS\obj/../Libraries/rtthread_libraries/src/ipc.c:1682
    *value = mb->msg_pool[mb->out_offset];
    2782:	0264d703          	lhu	a4,38(s1)
    2786:	4cdc                	lw	a5,28(s1)
    2788:	070a                	slli	a4,a4,0x2
    278a:	97ba                	add	a5,a5,a4
    278c:	439c                	lw	a5,0(a5)
    278e:	00fc2023          	sw	a5,0(s8)
F:\SCHOOL\文件\智能车\全向组\RTTThreadCH32V103\camCoreWithRTOS\obj/../Libraries/rtthread_libraries/src/ipc.c:1685
    ++ mb->out_offset;
    2792:	0264d783          	lhu	a5,38(s1)
    2796:	0785                	addi	a5,a5,1
    2798:	07c2                	slli	a5,a5,0x10
    279a:	83c1                	srli	a5,a5,0x10
    279c:	02f49323          	sh	a5,38(s1)
F:\SCHOOL\文件\智能车\全向组\RTTThreadCH32V103\camCoreWithRTOS\obj/../Libraries/rtthread_libraries/src/ipc.c:1686
    if (mb->out_offset >= mb->size)
    27a0:	0204d703          	lhu	a4,32(s1)
    27a4:	00e7e463          	bltu	a5,a4,27ac <rt_mb_recv+0x170>
F:\SCHOOL\文件\智能车\全向组\RTTThreadCH32V103\camCoreWithRTOS\obj/../Libraries/rtthread_libraries/src/ipc.c:1687
        mb->out_offset = 0;
    27a8:	02049323          	sh	zero,38(s1)
F:\SCHOOL\文件\智能车\全向组\RTTThreadCH32V103\camCoreWithRTOS\obj/../Libraries/rtthread_libraries/src/ipc.c:1689
    mb->entry --;
    27ac:	0224d783          	lhu	a5,34(s1)
    27b0:	17fd                	addi	a5,a5,-1
    27b2:	02f49123          	sh	a5,34(s1)
rt_list_isempty():
F:\SCHOOL\文件\智能车\全向组\RTTThreadCH32V103\camCoreWithRTOS\Libraries\rtthread_libraries\include/rtservice.h:100
    return l->next == l;
    27b6:	5488                	lw	a0,40(s1)
rt_mb_recv():
F:\SCHOOL\文件\智能车\全向组\RTTThreadCH32V103\camCoreWithRTOS\obj/../Libraries/rtthread_libraries/src/ipc.c:1692
    if (!rt_list_isempty(&(mb->suspend_sender_thread)))
    27b8:	02848493          	addi	s1,s1,40
    27bc:	00950c63          	beq	a0,s1,27d4 <rt_mb_recv+0x198>
rt_ipc_list_resume():
F:\SCHOOL\文件\智能车\全向组\RTTThreadCH32V103\camCoreWithRTOS\obj/../Libraries/rtthread_libraries/src/ipc.c:142
    rt_thread_resume(thread);
    27c0:	1531                	addi	a0,a0,-20
    27c2:	172010ef          	jal	ra,3934 <rt_thread_resume>
rt_mb_recv():
F:\SCHOOL\文件\智能车\全向组\RTTThreadCH32V103\camCoreWithRTOS\obj/../Libraries/rtthread_libraries/src/ipc.c:1697
        rt_hw_interrupt_enable(temp);
    27c6:	854e                	mv	a0,s3
    27c8:	97ffd0ef          	jal	ra,146 <rt_hw_interrupt_enable>
F:\SCHOOL\文件\智能车\全向组\RTTThreadCH32V103\camCoreWithRTOS\obj/../Libraries/rtthread_libraries/src/ipc.c:1701
        rt_schedule();
    27cc:	4ed000ef          	jal	ra,34b8 <rt_schedule>
F:\SCHOOL\文件\智能车\全向组\RTTThreadCH32V103\camCoreWithRTOS\obj/../Libraries/rtthread_libraries/src/ipc.c:1703
        return RT_EOK;
    27d0:	4501                	li	a0,0
    27d2:	b5d9                	j	2698 <rt_mb_recv+0x5c>
F:\SCHOOL\文件\智能车\全向组\RTTThreadCH32V103\camCoreWithRTOS\obj/../Libraries/rtthread_libraries/src/ipc.c:1707
    rt_hw_interrupt_enable(temp);
    27d4:	854e                	mv	a0,s3
    27d6:	971fd0ef          	jal	ra,146 <rt_hw_interrupt_enable>
F:\SCHOOL\文件\智能车\全向组\RTTThreadCH32V103\camCoreWithRTOS\obj/../Libraries/rtthread_libraries/src/ipc.c:1711
    return RT_EOK;
    27da:	4501                	li	a0,0
    27dc:	bd75                	j	2698 <rt_mb_recv+0x5c>

000027de <rt_interrupt_enter>:
rt_interrupt_enter():
F:\SCHOOL\文件\智能车\全向组\RTTThreadCH32V103\camCoreWithRTOS\obj/../Libraries/rtthread_libraries/src/irq.c:61
 * @note please don't invoke this routine in application
 *
 * @see rt_interrupt_leave
 */
void rt_interrupt_enter(void)
{
    27de:	1141                	addi	sp,sp,-16
    27e0:	c606                	sw	ra,12(sp)
F:\SCHOOL\文件\智能车\全向组\RTTThreadCH32V103\camCoreWithRTOS\obj/../Libraries/rtthread_libraries/src/irq.c:67
    rt_base_t level;

    RT_DEBUG_LOG(RT_DEBUG_IRQ, ("irq coming..., irq nest:%d\n",
                                rt_interrupt_nest));

    level = rt_hw_interrupt_disable();
    27e2:	95ffd0ef          	jal	ra,140 <rt_hw_interrupt_disable>
F:\SCHOOL\文件\智能车\全向组\RTTThreadCH32V103\camCoreWithRTOS\obj/../Libraries/rtthread_libraries/src/irq.c:68
    rt_interrupt_nest ++;
    27e6:	85018713          	addi	a4,gp,-1968 # 20000100 <rt_interrupt_nest>
    27ea:	00074783          	lbu	a5,0(a4)
    27ee:	0785                	addi	a5,a5,1
    27f0:	0ff7f793          	andi	a5,a5,255
    27f4:	00f70023          	sb	a5,0(a4)
F:\SCHOOL\文件\智能车\全向组\RTTThreadCH32V103\camCoreWithRTOS\obj/../Libraries/rtthread_libraries/src/irq.c:70
    RT_OBJECT_HOOK_CALL(rt_interrupt_enter_hook,());
    rt_hw_interrupt_enable(level);
    27f8:	94ffd0ef          	jal	ra,146 <rt_hw_interrupt_enable>
F:\SCHOOL\文件\智能车\全向组\RTTThreadCH32V103\camCoreWithRTOS\obj/../Libraries/rtthread_libraries/src/irq.c:71
}
    27fc:	40b2                	lw	ra,12(sp)
    27fe:	0141                	addi	sp,sp,16
    2800:	8082                	ret

00002802 <rt_interrupt_leave>:
rt_interrupt_leave():
F:\SCHOOL\文件\智能车\全向组\RTTThreadCH32V103\camCoreWithRTOS\obj/../Libraries/rtthread_libraries/src/irq.c:82
 * @note please don't invoke this routine in application
 *
 * @see rt_interrupt_enter
 */
void rt_interrupt_leave(void)
{
    2802:	1141                	addi	sp,sp,-16
    2804:	c606                	sw	ra,12(sp)
F:\SCHOOL\文件\智能车\全向组\RTTThreadCH32V103\camCoreWithRTOS\obj/../Libraries/rtthread_libraries/src/irq.c:88
    rt_base_t level;

    RT_DEBUG_LOG(RT_DEBUG_IRQ, ("irq leave, irq nest:%d\n",
                                rt_interrupt_nest));

    level = rt_hw_interrupt_disable();
    2806:	93bfd0ef          	jal	ra,140 <rt_hw_interrupt_disable>
F:\SCHOOL\文件\智能车\全向组\RTTThreadCH32V103\camCoreWithRTOS\obj/../Libraries/rtthread_libraries/src/irq.c:89
    rt_interrupt_nest --;
    280a:	85018713          	addi	a4,gp,-1968 # 20000100 <rt_interrupt_nest>
    280e:	00074783          	lbu	a5,0(a4)
    2812:	17fd                	addi	a5,a5,-1
    2814:	0ff7f793          	andi	a5,a5,255
    2818:	00f70023          	sb	a5,0(a4)
F:\SCHOOL\文件\智能车\全向组\RTTThreadCH32V103\camCoreWithRTOS\obj/../Libraries/rtthread_libraries/src/irq.c:91
    RT_OBJECT_HOOK_CALL(rt_interrupt_leave_hook,());
    rt_hw_interrupt_enable(level);
    281c:	92bfd0ef          	jal	ra,146 <rt_hw_interrupt_enable>
F:\SCHOOL\文件\智能车\全向组\RTTThreadCH32V103\camCoreWithRTOS\obj/../Libraries/rtthread_libraries/src/irq.c:92
}
    2820:	40b2                	lw	ra,12(sp)
    2822:	0141                	addi	sp,sp,16
    2824:	8082                	ret

00002826 <print_number>:
print_number():
F:\SCHOOL\文件\智能车\全向组\RTTThreadCH32V103\camCoreWithRTOS\obj/../Libraries/rtthread_libraries/src/kservice.c:629
#endif
                          int   base,
                          int   s,
                          int   type)
#endif
{
    2826:	1141                	addi	sp,sp,-16
F:\SCHOOL\文件\智能车\全向组\RTTThreadCH32V103\camCoreWithRTOS\obj/../Libraries/rtthread_libraries/src/kservice.c:645
    register int i;
    register int size;

    size = s;

    digits = (type & LARGE) ? large_digits : small_digits;
    2828:	04087893          	andi	a7,a6,64
    282c:	02089f63          	bnez	a7,286a <print_number+0x44>
    2830:	6f1d                	lui	t5,0x7
    2832:	e88f0f13          	addi	t5,t5,-376 # 6e88 <small_digits.2239>
F:\SCHOOL\文件\智能车\全向组\RTTThreadCH32V103\camCoreWithRTOS\obj/../Libraries/rtthread_libraries/src/kservice.c:646 (discriminator 4)
    if (type & LEFT)
    2836:	01087893          	andi	a7,a6,16
    283a:	02088c63          	beqz	a7,2872 <print_number+0x4c>
F:\SCHOOL\文件\智能车\全向组\RTTThreadCH32V103\camCoreWithRTOS\obj/../Libraries/rtthread_libraries/src/kservice.c:647
        type &= ~ZEROPAD;
    283e:	ffe87813          	andi	a6,a6,-2
F:\SCHOOL\文件\智能车\全向组\RTTThreadCH32V103\camCoreWithRTOS\obj/../Libraries/rtthread_libraries/src/kservice.c:649

    c = (type & ZEROPAD) ? '0' : ' ';
    2842:	02000293          	li	t0,32
F:\SCHOOL\文件\智能车\全向组\RTTThreadCH32V103\camCoreWithRTOS\obj/../Libraries/rtthread_libraries/src/kservice.c:653 (discriminator 4)

    /* get sign */
    sign = 0;
    if (type & SIGN)
    2846:	00287893          	andi	a7,a6,2
    284a:	04088463          	beqz	a7,2892 <print_number+0x6c>
F:\SCHOOL\文件\智能车\全向组\RTTThreadCH32V103\camCoreWithRTOS\obj/../Libraries/rtthread_libraries/src/kservice.c:655
    {
        if (num < 0)
    284e:	02064b63          	bltz	a2,2884 <print_number+0x5e>
F:\SCHOOL\文件\智能车\全向组\RTTThreadCH32V103\camCoreWithRTOS\obj/../Libraries/rtthread_libraries/src/kservice.c:660
        {
            sign = '-';
            num = -num;
        }
        else if (type & PLUS)
    2852:	00487893          	andi	a7,a6,4
F:\SCHOOL\文件\智能车\全向组\RTTThreadCH32V103\camCoreWithRTOS\obj/../Libraries/rtthread_libraries/src/kservice.c:661
            sign = '+';
    2856:	02b00f93          	li	t6,43
F:\SCHOOL\文件\智能车\全向组\RTTThreadCH32V103\camCoreWithRTOS\obj/../Libraries/rtthread_libraries/src/kservice.c:660
        else if (type & PLUS)
    285a:	02089d63          	bnez	a7,2894 <print_number+0x6e>
F:\SCHOOL\文件\智能车\全向组\RTTThreadCH32V103\camCoreWithRTOS\obj/../Libraries/rtthread_libraries/src/kservice.c:662
        else if (type & SPACE)
    285e:	00887f93          	andi	t6,a6,8
F:\SCHOOL\文件\智能车\全向组\RTTThreadCH32V103\camCoreWithRTOS\obj/../Libraries/rtthread_libraries/src/kservice.c:663
            sign = ' ';
    2862:	01f03fb3          	snez	t6,t6
    2866:	0f96                	slli	t6,t6,0x5
    2868:	a035                	j	2894 <print_number+0x6e>
F:\SCHOOL\文件\智能车\全向组\RTTThreadCH32V103\camCoreWithRTOS\obj/../Libraries/rtthread_libraries/src/kservice.c:645
    digits = (type & LARGE) ? large_digits : small_digits;
    286a:	6f1d                	lui	t5,0x7
    286c:	de4f0f13          	addi	t5,t5,-540 # 6de4 <large_digits.2240>
    2870:	b7d9                	j	2836 <print_number+0x10>
F:\SCHOOL\文件\智能车\全向组\RTTThreadCH32V103\camCoreWithRTOS\obj/../Libraries/rtthread_libraries/src/kservice.c:649
    c = (type & ZEROPAD) ? '0' : ' ';
    2872:	00187893          	andi	a7,a6,1
    2876:	03000293          	li	t0,48
    287a:	fc0896e3          	bnez	a7,2846 <print_number+0x20>
    287e:	02000293          	li	t0,32
    2882:	b7d1                	j	2846 <print_number+0x20>
F:\SCHOOL\文件\智能车\全向组\RTTThreadCH32V103\camCoreWithRTOS\obj/../Libraries/rtthread_libraries/src/kservice.c:658
            num = -num;
    2884:	40c00633          	neg	a2,a2
F:\SCHOOL\文件\智能车\全向组\RTTThreadCH32V103\camCoreWithRTOS\obj/../Libraries/rtthread_libraries/src/kservice.c:657
            sign = '-';
    2888:	02d00f93          	li	t6,45
F:\SCHOOL\文件\智能车\全向组\RTTThreadCH32V103\camCoreWithRTOS\obj/../Libraries/rtthread_libraries/src/kservice.c:676
        else if (base == 8)
            size--;
    }
#endif

    i = 0;
    288c:	4881                	li	a7,0
divide():
F:\SCHOOL\文件\智能车\全向组\RTTThreadCH32V103\camCoreWithRTOS\obj/../Libraries/rtthread_libraries/src/kservice.c:573
    if (base == 10)
    288e:	4ea9                	li	t4,10
    2890:	a881                	j	28e0 <print_number+0xba>
print_number():
F:\SCHOOL\文件\智能车\全向组\RTTThreadCH32V103\camCoreWithRTOS\obj/../Libraries/rtthread_libraries/src/kservice.c:652
    sign = 0;
    2892:	4f81                	li	t6,0
F:\SCHOOL\文件\智能车\全向组\RTTThreadCH32V103\camCoreWithRTOS\obj/../Libraries/rtthread_libraries/src/kservice.c:677
    if (num == 0)
    2894:	fe65                	bnez	a2,288c <print_number+0x66>
F:\SCHOOL\文件\智能车\全向组\RTTThreadCH32V103\camCoreWithRTOS\obj/../Libraries/rtthread_libraries/src/kservice.c:678
        tmp[i++] = '0';
    2896:	03000693          	li	a3,48
    289a:	00d10023          	sb	a3,0(sp)
    289e:	4885                	li	a7,1
F:\SCHOOL\文件\智能车\全向组\RTTThreadCH32V103\camCoreWithRTOS\obj/../Libraries/rtthread_libraries/src/kservice.c:686
        while (num != 0)
            tmp[i++] = digits[divide(&num, base)];
    }

#ifdef RT_PRINTF_PRECISION
    if (i > precision)
    28a0:	8e46                	mv	t3,a7
    28a2:	00f8d363          	bge	a7,a5,28a8 <print_number+0x82>
    28a6:	8e3e                	mv	t3,a5
F:\SCHOOL\文件\智能车\全向组\RTTThreadCH32V103\camCoreWithRTOS\obj/../Libraries/rtthread_libraries/src/kservice.c:688
        precision = i;
    size -= precision;
    28a8:	41c70733          	sub	a4,a4,t3
F:\SCHOOL\文件\智能车\全向组\RTTThreadCH32V103\camCoreWithRTOS\obj/../Libraries/rtthread_libraries/src/kservice.c:693
#else
    size -= i;
#endif

    if (!(type & (ZEROPAD | LEFT)))
    28ac:	01187693          	andi	a3,a6,17
    28b0:	e2bd                	bnez	a3,2916 <print_number+0xf0>
F:\SCHOOL\文件\智能车\全向组\RTTThreadCH32V103\camCoreWithRTOS\obj/../Libraries/rtthread_libraries/src/kservice.c:695
    {
        if ((sign) && (size > 0))
    28b2:	100f8863          	beqz	t6,29c2 <print_number+0x19c>
F:\SCHOOL\文件\智能车\全向组\RTTThreadCH32V103\camCoreWithRTOS\obj/../Libraries/rtthread_libraries/src/kservice.c:695 (discriminator 1)
    28b6:	0ee05e63          	blez	a4,29b2 <print_number+0x18c>
F:\SCHOOL\文件\智能车\全向组\RTTThreadCH32V103\camCoreWithRTOS\obj/../Libraries/rtthread_libraries/src/kservice.c:698
            size--;

        while (size-- > 0)
    28ba:	ffe70313          	addi	t1,a4,-2
    28be:	4685                	li	a3,1
    28c0:	10e6c563          	blt	a3,a4,29ca <print_number+0x1a4>
    28c4:	871a                	mv	a4,t1
    28c6:	a0fd                	j	29b4 <print_number+0x18e>
divide():
F:\SCHOOL\文件\智能车\全向组\RTTThreadCH32V103\camCoreWithRTOS\obj/../Libraries/rtthread_libraries/src/kservice.c:580
        res = (int)(((unsigned long)*n) % 16U);
    28c8:	00f67313          	andi	t1,a2,15
F:\SCHOOL\文件\智能车\全向组\RTTThreadCH32V103\camCoreWithRTOS\obj/../Libraries/rtthread_libraries/src/kservice.c:581
        *n = (long)(((unsigned long)*n) / 16U);
    28cc:	8211                	srli	a2,a2,0x4
print_number():
F:\SCHOOL\文件\智能车\全向组\RTTThreadCH32V103\camCoreWithRTOS\obj/../Libraries/rtthread_libraries/src/kservice.c:682
            tmp[i++] = digits[divide(&num, base)];
    28ce:	0885                	addi	a7,a7,1
    28d0:	01110e33          	add	t3,sp,a7
    28d4:	937a                	add	t1,t1,t5
    28d6:	00034303          	lbu	t1,0(t1)
    28da:	fe6e0fa3          	sb	t1,-1(t3)
F:\SCHOOL\文件\智能车\全向组\RTTThreadCH32V103\camCoreWithRTOS\obj/../Libraries/rtthread_libraries/src/kservice.c:681
        while (num != 0)
    28de:	d269                	beqz	a2,28a0 <print_number+0x7a>
divide():
F:\SCHOOL\文件\智能车\全向组\RTTThreadCH32V103\camCoreWithRTOS\obj/../Libraries/rtthread_libraries/src/kservice.c:573
    if (base == 10)
    28e0:	ffd694e3          	bne	a3,t4,28c8 <print_number+0xa2>
F:\SCHOOL\文件\智能车\全向组\RTTThreadCH32V103\camCoreWithRTOS\obj/../Libraries/rtthread_libraries/src/kservice.c:575
        res = (int)(((unsigned long)*n) % 10U);
    28e4:	03d67333          	remu	t1,a2,t4
F:\SCHOOL\文件\智能车\全向组\RTTThreadCH32V103\camCoreWithRTOS\obj/../Libraries/rtthread_libraries/src/kservice.c:576
        *n = (long)(((unsigned long)*n) / 10U);
    28e8:	03d65633          	divu	a2,a2,t4
    28ec:	b7cd                	j	28ce <print_number+0xa8>
print_number():
F:\SCHOOL\文件\智能车\全向组\RTTThreadCH32V103\camCoreWithRTOS\obj/../Libraries/rtthread_libraries/src/kservice.c:702
        {
            if (buf < end)
                *buf = ' ';
            ++ buf;
    28ee:	0705                	addi	a4,a4,1
    28f0:	40e606b3          	sub	a3,a2,a4
F:\SCHOOL\文件\智能车\全向组\RTTThreadCH32V103\camCoreWithRTOS\obj/../Libraries/rtthread_libraries/src/kservice.c:698
        while (size-- > 0)
    28f4:	00d05763          	blez	a3,2902 <print_number+0xdc>
F:\SCHOOL\文件\智能车\全向组\RTTThreadCH32V103\camCoreWithRTOS\obj/../Libraries/rtthread_libraries/src/kservice.c:700
            if (buf < end)
    28f8:	feb77be3          	bgeu	a4,a1,28ee <print_number+0xc8>
F:\SCHOOL\文件\智能车\全向组\RTTThreadCH32V103\camCoreWithRTOS\obj/../Libraries/rtthread_libraries/src/kservice.c:701
                *buf = ' ';
    28fc:	01d70023          	sb	t4,0(a4)
    2900:	b7fd                	j	28ee <print_number+0xc8>
    2902:	fff30713          	addi	a4,t1,-1
    2906:	fff34613          	not	a2,t1
    290a:	867d                	srai	a2,a2,0x1f
    290c:	00c376b3          	and	a3,t1,a2
    2910:	8f15                	sub	a4,a4,a3
    2912:	0685                	addi	a3,a3,1
    2914:	9536                	add	a0,a0,a3
F:\SCHOOL\文件\智能车\全向组\RTTThreadCH32V103\camCoreWithRTOS\obj/../Libraries/rtthread_libraries/src/kservice.c:706
        }
    }

    if (sign)
    2916:	080f9f63          	bnez	t6,29b4 <print_number+0x18e>
F:\SCHOOL\文件\智能车\全向组\RTTThreadCH32V103\camCoreWithRTOS\obj/../Libraries/rtthread_libraries/src/kservice.c:740
        }
    }
#endif

    /* no align to the left */
    if (!(type & LEFT))
    291a:	01087813          	andi	a6,a6,16
    291e:	02081263          	bnez	a6,2942 <print_number+0x11c>
F:\SCHOOL\文件\智能车\全向组\RTTThreadCH32V103\camCoreWithRTOS\obj/../Libraries/rtthread_libraries/src/kservice.c:742
    {
        while (size-- > 0)
    2922:	fff70693          	addi	a3,a4,-1
    2926:	04e05763          	blez	a4,2974 <print_number+0x14e>
    292a:	972a                	add	a4,a4,a0
    292c:	a021                	j	2934 <print_number+0x10e>
F:\SCHOOL\文件\智能车\全向组\RTTThreadCH32V103\camCoreWithRTOS\obj/../Libraries/rtthread_libraries/src/kservice.c:746
        {
            if (buf < end)
                *buf = c;
            ++ buf;
    292e:	0505                	addi	a0,a0,1
F:\SCHOOL\文件\智能车\全向组\RTTThreadCH32V103\camCoreWithRTOS\obj/../Libraries/rtthread_libraries/src/kservice.c:742
        while (size-- > 0)
    2930:	00e50763          	beq	a0,a4,293e <print_number+0x118>
F:\SCHOOL\文件\智能车\全向组\RTTThreadCH32V103\camCoreWithRTOS\obj/../Libraries/rtthread_libraries/src/kservice.c:744
            if (buf < end)
    2934:	feb57de3          	bgeu	a0,a1,292e <print_number+0x108>
F:\SCHOOL\文件\智能车\全向组\RTTThreadCH32V103\camCoreWithRTOS\obj/../Libraries/rtthread_libraries/src/kservice.c:745
                *buf = c;
    2938:	00550023          	sb	t0,0(a0)
    293c:	bfcd                	j	292e <print_number+0x108>
F:\SCHOOL\文件\智能车\全向组\RTTThreadCH32V103\camCoreWithRTOS\obj/../Libraries/rtthread_libraries/src/kservice.c:746
            ++ buf;
    293e:	853a                	mv	a0,a4
F:\SCHOOL\文件\智能车\全向组\RTTThreadCH32V103\camCoreWithRTOS\obj/../Libraries/rtthread_libraries/src/kservice.c:742
        while (size-- > 0)
    2940:	577d                	li	a4,-1
    2942:	411e06b3          	sub	a3,t3,a7
    2946:	96aa                	add	a3,a3,a0
F:\SCHOOL\文件\智能车\全向组\RTTThreadCH32V103\camCoreWithRTOS\obj/../Libraries/rtthread_libraries/src/kservice.c:754

#ifdef RT_PRINTF_PRECISION
    while (i < precision--)
    {
        if (buf < end)
            *buf = '0';
    2948:	03000613          	li	a2,48
F:\SCHOOL\文件\智能车\全向组\RTTThreadCH32V103\camCoreWithRTOS\obj/../Libraries/rtthread_libraries/src/kservice.c:751
    while (i < precision--)
    294c:	01c8cf63          	blt	a7,t3,296a <print_number+0x144>
    2950:	86aa                	mv	a3,a0
F:\SCHOOL\文件\智能车\全向组\RTTThreadCH32V103\camCoreWithRTOS\obj/../Libraries/rtthread_libraries/src/kservice.c:760
        ++ buf;
    }
#endif

    /* put number in the temporary buffer */
    while (i-- > 0 && (precision_bak != 0))
    2952:	03105f63          	blez	a7,2990 <print_number+0x16a>
    2956:	cf8d                	beqz	a5,2990 <print_number+0x16a>
    2958:	8346                	mv	t1,a7
    295a:	850a                	mv	a0,sp
    295c:	01150633          	add	a2,a0,a7
    2960:	87b6                	mv	a5,a3
    2962:	a839                	j	2980 <print_number+0x15a>
F:\SCHOOL\文件\智能车\全向组\RTTThreadCH32V103\camCoreWithRTOS\obj/../Libraries/rtthread_libraries/src/kservice.c:755
        ++ buf;
    2964:	0505                	addi	a0,a0,1
F:\SCHOOL\文件\智能车\全向组\RTTThreadCH32V103\camCoreWithRTOS\obj/../Libraries/rtthread_libraries/src/kservice.c:751
    while (i < precision--)
    2966:	fed506e3          	beq	a0,a3,2952 <print_number+0x12c>
F:\SCHOOL\文件\智能车\全向组\RTTThreadCH32V103\camCoreWithRTOS\obj/../Libraries/rtthread_libraries/src/kservice.c:753
        if (buf < end)
    296a:	feb57de3          	bgeu	a0,a1,2964 <print_number+0x13e>
F:\SCHOOL\文件\智能车\全向组\RTTThreadCH32V103\camCoreWithRTOS\obj/../Libraries/rtthread_libraries/src/kservice.c:754
            *buf = '0';
    296e:	00c50023          	sb	a2,0(a0)
    2972:	bfcd                	j	2964 <print_number+0x13e>
F:\SCHOOL\文件\智能车\全向组\RTTThreadCH32V103\camCoreWithRTOS\obj/../Libraries/rtthread_libraries/src/kservice.c:742
        while (size-- > 0)
    2974:	8736                	mv	a4,a3
    2976:	b7f1                	j	2942 <print_number+0x11c>
F:\SCHOOL\文件\智能车\全向组\RTTThreadCH32V103\camCoreWithRTOS\obj/../Libraries/rtthread_libraries/src/kservice.c:764
    {
        if (buf < end)
            *buf = tmp[i];
        ++ buf;
    2978:	0785                	addi	a5,a5,1
    297a:	167d                	addi	a2,a2,-1
F:\SCHOOL\文件\智能车\全向组\RTTThreadCH32V103\camCoreWithRTOS\obj/../Libraries/rtthread_libraries/src/kservice.c:760
    while (i-- > 0 && (precision_bak != 0))
    297c:	00a60963          	beq	a2,a0,298e <print_number+0x168>
F:\SCHOOL\文件\智能车\全向组\RTTThreadCH32V103\camCoreWithRTOS\obj/../Libraries/rtthread_libraries/src/kservice.c:762
        if (buf < end)
    2980:	feb7fce3          	bgeu	a5,a1,2978 <print_number+0x152>
F:\SCHOOL\文件\智能车\全向组\RTTThreadCH32V103\camCoreWithRTOS\obj/../Libraries/rtthread_libraries/src/kservice.c:763
            *buf = tmp[i];
    2984:	fff64803          	lbu	a6,-1(a2)
    2988:	01078023          	sb	a6,0(a5)
    298c:	b7f5                	j	2978 <print_number+0x152>
    298e:	969a                	add	a3,a3,t1
    2990:	00e68533          	add	a0,a3,a4
F:\SCHOOL\文件\智能车\全向组\RTTThreadCH32V103\camCoreWithRTOS\obj/../Libraries/rtthread_libraries/src/kservice.c:770
    }

    while (size-- > 0)
    {
        if (buf < end)
            *buf = ' ';
    2994:	02000793          	li	a5,32
F:\SCHOOL\文件\智能车\全向组\RTTThreadCH32V103\camCoreWithRTOS\obj/../Libraries/rtthread_libraries/src/kservice.c:767
    while (size-- > 0)
    2998:	00e04863          	bgtz	a4,29a8 <print_number+0x182>
    299c:	8536                	mv	a0,a3
F:\SCHOOL\文件\智能车\全向组\RTTThreadCH32V103\camCoreWithRTOS\obj/../Libraries/rtthread_libraries/src/kservice.c:775
        ++ buf;
    }

    return buf;
}
    299e:	0141                	addi	sp,sp,16
    29a0:	8082                	ret
F:\SCHOOL\文件\智能车\全向组\RTTThreadCH32V103\camCoreWithRTOS\obj/../Libraries/rtthread_libraries/src/kservice.c:771
        ++ buf;
    29a2:	0685                	addi	a3,a3,1
F:\SCHOOL\文件\智能车\全向组\RTTThreadCH32V103\camCoreWithRTOS\obj/../Libraries/rtthread_libraries/src/kservice.c:767
    while (size-- > 0)
    29a4:	fea68de3          	beq	a3,a0,299e <print_number+0x178>
F:\SCHOOL\文件\智能车\全向组\RTTThreadCH32V103\camCoreWithRTOS\obj/../Libraries/rtthread_libraries/src/kservice.c:769
        if (buf < end)
    29a8:	feb6fde3          	bgeu	a3,a1,29a2 <print_number+0x17c>
F:\SCHOOL\文件\智能车\全向组\RTTThreadCH32V103\camCoreWithRTOS\obj/../Libraries/rtthread_libraries/src/kservice.c:770
            *buf = ' ';
    29ac:	00f68023          	sb	a5,0(a3) # fffff000 <_eusrstack+0xdfffa000>
    29b0:	bfcd                	j	29a2 <print_number+0x17c>
F:\SCHOOL\文件\智能车\全向组\RTTThreadCH32V103\camCoreWithRTOS\obj/../Libraries/rtthread_libraries/src/kservice.c:698
        while (size-- > 0)
    29b2:	177d                	addi	a4,a4,-1
F:\SCHOOL\文件\智能车\全向组\RTTThreadCH32V103\camCoreWithRTOS\obj/../Libraries/rtthread_libraries/src/kservice.c:708
        if (buf < end)
    29b4:	00b57463          	bgeu	a0,a1,29bc <print_number+0x196>
F:\SCHOOL\文件\智能车\全向组\RTTThreadCH32V103\camCoreWithRTOS\obj/../Libraries/rtthread_libraries/src/kservice.c:710
            *buf = sign;
    29b8:	01f50023          	sb	t6,0(a0)
F:\SCHOOL\文件\智能车\全向组\RTTThreadCH32V103\camCoreWithRTOS\obj/../Libraries/rtthread_libraries/src/kservice.c:712
        -- size;
    29bc:	177d                	addi	a4,a4,-1
F:\SCHOOL\文件\智能车\全向组\RTTThreadCH32V103\camCoreWithRTOS\obj/../Libraries/rtthread_libraries/src/kservice.c:713
        ++ buf;
    29be:	0505                	addi	a0,a0,1
    29c0:	bfa9                	j	291a <print_number+0xf4>
F:\SCHOOL\文件\智能车\全向组\RTTThreadCH32V103\camCoreWithRTOS\obj/../Libraries/rtthread_libraries/src/kservice.c:698
        while (size-- > 0)
    29c2:	fff70313          	addi	t1,a4,-1
    29c6:	00e05963          	blez	a4,29d8 <print_number+0x1b2>
F:\SCHOOL\文件\智能车\全向组\RTTThreadCH32V103\camCoreWithRTOS\obj/../Libraries/rtthread_libraries/src/kservice.c:678
        tmp[i++] = '0';
    29ca:	872a                	mv	a4,a0
F:\SCHOOL\文件\智能车\全向组\RTTThreadCH32V103\camCoreWithRTOS\obj/../Libraries/rtthread_libraries/src/kservice.c:701
                *buf = ' ';
    29cc:	02000e93          	li	t4,32
    29d0:	00150613          	addi	a2,a0,1
    29d4:	961a                	add	a2,a2,t1
    29d6:	b70d                	j	28f8 <print_number+0xd2>
F:\SCHOOL\文件\智能车\全向组\RTTThreadCH32V103\camCoreWithRTOS\obj/../Libraries/rtthread_libraries/src/kservice.c:698
        while (size-- > 0)
    29d8:	871a                	mv	a4,t1
    29da:	b781                	j	291a <print_number+0xf4>

000029dc <rt_memset>:
rt_memset():
F:\SCHOOL\文件\智能车\全向组\RTTThreadCH32V103\camCoreWithRTOS\obj/../Libraries/rtthread_libraries/src/kservice.c:147
    if (!TOO_SMALL(count) && !UNALIGNED(s))
    29dc:	478d                	li	a5,3
    29de:	00c7f963          	bgeu	a5,a2,29f0 <rt_memset+0x14>
F:\SCHOOL\文件\智能车\全向组\RTTThreadCH32V103\camCoreWithRTOS\obj/../Libraries/rtthread_libraries/src/kservice.c:147 (discriminator 1)
    29e2:	00357793          	andi	a5,a0,3
    29e6:	c78d                	beqz	a5,2a10 <rt_memset+0x34>
F:\SCHOOL\文件\智能车\全向组\RTTThreadCH32V103\camCoreWithRTOS\obj/../Libraries/rtthread_libraries/src/kservice.c:186
    while (count--)
    29e8:	fff60713          	addi	a4,a2,-1
F:\SCHOOL\文件\智能车\全向组\RTTThreadCH32V103\camCoreWithRTOS\obj/../Libraries/rtthread_libraries/src/kservice.c:141
    char *m = (char *)s;
    29ec:	87aa                	mv	a5,a0
    29ee:	a029                	j	29f8 <rt_memset+0x1c>
    29f0:	87aa                	mv	a5,a0
F:\SCHOOL\文件\智能车\全向组\RTTThreadCH32V103\camCoreWithRTOS\obj/../Libraries/rtthread_libraries/src/kservice.c:186
    while (count--)
    29f2:	fff60713          	addi	a4,a2,-1
    29f6:	ce01                	beqz	a2,2a0e <rt_memset+0x32>
    29f8:	0705                	addi	a4,a4,1
    29fa:	973e                	add	a4,a4,a5
F:\SCHOOL\文件\智能车\全向组\RTTThreadCH32V103\camCoreWithRTOS\obj/../Libraries/rtthread_libraries/src/kservice.c:188
        *m++ = (char)d;
    29fc:	0785                	addi	a5,a5,1
    29fe:	feb78fa3          	sb	a1,-1(a5)
F:\SCHOOL\文件\智能车\全向组\RTTThreadCH32V103\camCoreWithRTOS\obj/../Libraries/rtthread_libraries/src/kservice.c:186
    while (count--)
    2a02:	fee79de3          	bne	a5,a4,29fc <rt_memset+0x20>
    2a06:	8082                	ret
F:\SCHOOL\文件\智能车\全向组\RTTThreadCH32V103\camCoreWithRTOS\obj/../Libraries/rtthread_libraries/src/kservice.c:172
            *aligned_addr++ = buffer;
    2a08:	87ba                	mv	a5,a4
F:\SCHOOL\文件\智能车\全向组\RTTThreadCH32V103\camCoreWithRTOS\obj/../Libraries/rtthread_libraries/src/kservice.c:173
            count -= 4 * LBLOCKSIZE;
    2a0a:	8642                	mv	a2,a6
    2a0c:	b7dd                	j	29f2 <rt_memset+0x16>
    2a0e:	8082                	ret
F:\SCHOOL\文件\智能车\全向组\RTTThreadCH32V103\camCoreWithRTOS\obj/../Libraries/rtthread_libraries/src/kservice.c:144
    unsigned int d = c & 0xff;  /* To avoid sign extension, copy C to an
    2a10:	0ff5f793          	andi	a5,a1,255
F:\SCHOOL\文件\智能车\全向组\RTTThreadCH32V103\camCoreWithRTOS\obj/../Libraries/rtthread_libraries/src/kservice.c:157
            buffer = (d << 8) | d;
    2a14:	00879693          	slli	a3,a5,0x8
    2a18:	8fd5                	or	a5,a5,a3
F:\SCHOOL\文件\智能车\全向组\RTTThreadCH32V103\camCoreWithRTOS\obj/../Libraries/rtthread_libraries/src/kservice.c:158
            buffer |= (buffer << 16);
    2a1a:	01079693          	slli	a3,a5,0x10
    2a1e:	8edd                	or	a3,a3,a5
F:\SCHOOL\文件\智能车\全向组\RTTThreadCH32V103\camCoreWithRTOS\obj/../Libraries/rtthread_libraries/src/kservice.c:167
        while (count >= LBLOCKSIZE * 4)
    2a20:	47bd                	li	a5,15
    2a22:	04c7f163          	bgeu	a5,a2,2a64 <rt_memset+0x88>
    2a26:	ff060793          	addi	a5,a2,-16
    2a2a:	9bc1                	andi	a5,a5,-16
    2a2c:	07c1                	addi	a5,a5,16
    2a2e:	97aa                	add	a5,a5,a0
F:\SCHOOL\文件\智能车\全向组\RTTThreadCH32V103\camCoreWithRTOS\obj/../Libraries/rtthread_libraries/src/kservice.c:150
        aligned_addr = (unsigned long *)s;
    2a30:	872a                	mv	a4,a0
F:\SCHOOL\文件\智能车\全向组\RTTThreadCH32V103\camCoreWithRTOS\obj/../Libraries/rtthread_libraries/src/kservice.c:169
            *aligned_addr++ = buffer;
    2a32:	c314                	sw	a3,0(a4)
F:\SCHOOL\文件\智能车\全向组\RTTThreadCH32V103\camCoreWithRTOS\obj/../Libraries/rtthread_libraries/src/kservice.c:170
            *aligned_addr++ = buffer;
    2a34:	c354                	sw	a3,4(a4)
F:\SCHOOL\文件\智能车\全向组\RTTThreadCH32V103\camCoreWithRTOS\obj/../Libraries/rtthread_libraries/src/kservice.c:171
            *aligned_addr++ = buffer;
    2a36:	c714                	sw	a3,8(a4)
F:\SCHOOL\文件\智能车\全向组\RTTThreadCH32V103\camCoreWithRTOS\obj/../Libraries/rtthread_libraries/src/kservice.c:172
            *aligned_addr++ = buffer;
    2a38:	0741                	addi	a4,a4,16
    2a3a:	fed72e23          	sw	a3,-4(a4)
F:\SCHOOL\文件\智能车\全向组\RTTThreadCH32V103\camCoreWithRTOS\obj/../Libraries/rtthread_libraries/src/kservice.c:167
        while (count >= LBLOCKSIZE * 4)
    2a3e:	fee79ae3          	bne	a5,a4,2a32 <rt_memset+0x56>
    2a42:	00f67813          	andi	a6,a2,15
F:\SCHOOL\文件\智能车\全向组\RTTThreadCH32V103\camCoreWithRTOS\obj/../Libraries/rtthread_libraries/src/kservice.c:176
        while (count >= LBLOCKSIZE)
    2a46:	8a31                	andi	a2,a2,12
    2a48:	d261                	beqz	a2,2a08 <rt_memset+0x2c>
    2a4a:	ffc80793          	addi	a5,a6,-4
    2a4e:	9bf1                	andi	a5,a5,-4
    2a50:	0791                	addi	a5,a5,4
    2a52:	97ba                	add	a5,a5,a4
F:\SCHOOL\文件\智能车\全向组\RTTThreadCH32V103\camCoreWithRTOS\obj/../Libraries/rtthread_libraries/src/kservice.c:178
            *aligned_addr++ = buffer;
    2a54:	0711                	addi	a4,a4,4
    2a56:	fed72e23          	sw	a3,-4(a4)
F:\SCHOOL\文件\智能车\全向组\RTTThreadCH32V103\camCoreWithRTOS\obj/../Libraries/rtthread_libraries/src/kservice.c:176
        while (count >= LBLOCKSIZE)
    2a5a:	fef71de3          	bne	a4,a5,2a54 <rt_memset+0x78>
    2a5e:	00387613          	andi	a2,a6,3
    2a62:	bf41                	j	29f2 <rt_memset+0x16>
F:\SCHOOL\文件\智能车\全向组\RTTThreadCH32V103\camCoreWithRTOS\obj/../Libraries/rtthread_libraries/src/kservice.c:150
        aligned_addr = (unsigned long *)s;
    2a64:	872a                	mv	a4,a0
F:\SCHOOL\文件\智能车\全向组\RTTThreadCH32V103\camCoreWithRTOS\obj/../Libraries/rtthread_libraries/src/kservice.c:167
        while (count >= LBLOCKSIZE * 4)
    2a66:	8832                	mv	a6,a2
    2a68:	b7cd                	j	2a4a <rt_memset+0x6e>

00002a6a <rt_memmove>:
rt_memmove():
F:\SCHOOL\文件\智能车\全向组\RTTThreadCH32V103\camCoreWithRTOS\obj/../Libraries/rtthread_libraries/src/kservice.c:297
    if (s < tmp && tmp < s + n)
    2a6a:	02a5e063          	bltu	a1,a0,2a8a <rt_memmove+0x20>
    2a6e:	00c506b3          	add	a3,a0,a2
F:\SCHOOL\文件\智能车\全向组\RTTThreadCH32V103\camCoreWithRTOS\obj/../Libraries/rtthread_libraries/src/kservice.c:307
        while (n--)
    2a72:	87aa                	mv	a5,a0
    2a74:	ca11                	beqz	a2,2a88 <rt_memmove+0x1e>
F:\SCHOOL\文件\智能车\全向组\RTTThreadCH32V103\camCoreWithRTOS\obj/../Libraries/rtthread_libraries/src/kservice.c:308
            *tmp++ = *s++;
    2a76:	0585                	addi	a1,a1,1
    2a78:	0785                	addi	a5,a5,1
    2a7a:	fff58703          	lb	a4,-1(a1)
    2a7e:	fee78fa3          	sb	a4,-1(a5)
F:\SCHOOL\文件\智能车\全向组\RTTThreadCH32V103\camCoreWithRTOS\obj/../Libraries/rtthread_libraries/src/kservice.c:307
        while (n--)
    2a82:	fed79ae3          	bne	a5,a3,2a76 <rt_memmove+0xc>
F:\SCHOOL\文件\智能车\全向组\RTTThreadCH32V103\camCoreWithRTOS\obj/../Libraries/rtthread_libraries/src/kservice.c:312
}
    2a86:	8082                	ret
    2a88:	8082                	ret
F:\SCHOOL\文件\智能车\全向组\RTTThreadCH32V103\camCoreWithRTOS\obj/../Libraries/rtthread_libraries/src/kservice.c:297 (discriminator 1)
    if (s < tmp && tmp < s + n)
    2a8a:	00c58733          	add	a4,a1,a2
    2a8e:	fee570e3          	bgeu	a0,a4,2a6e <rt_memmove+0x4>
F:\SCHOOL\文件\智能车\全向组\RTTThreadCH32V103\camCoreWithRTOS\obj/../Libraries/rtthread_libraries/src/kservice.c:299
        tmp += n;
    2a92:	00c507b3          	add	a5,a0,a2
F:\SCHOOL\文件\智能车\全向组\RTTThreadCH32V103\camCoreWithRTOS\obj/../Libraries/rtthread_libraries/src/kservice.c:302
        while (n--)
    2a96:	da65                	beqz	a2,2a86 <rt_memmove+0x1c>
F:\SCHOOL\文件\智能车\全向组\RTTThreadCH32V103\camCoreWithRTOS\obj/../Libraries/rtthread_libraries/src/kservice.c:303
            *(--tmp) = *(--s);
    2a98:	177d                	addi	a4,a4,-1
    2a9a:	17fd                	addi	a5,a5,-1
    2a9c:	00070683          	lb	a3,0(a4)
    2aa0:	00d78023          	sb	a3,0(a5)
F:\SCHOOL\文件\智能车\全向组\RTTThreadCH32V103\camCoreWithRTOS\obj/../Libraries/rtthread_libraries/src/kservice.c:302
        while (n--)
    2aa4:	fef51ae3          	bne	a0,a5,2a98 <rt_memmove+0x2e>
    2aa8:	8082                	ret

00002aaa <rt_strncpy>:
rt_strncpy():
F:\SCHOOL\文件\智能车\全向组\RTTThreadCH32V103\camCoreWithRTOS\obj/../Libraries/rtthread_libraries/src/kservice.c:403
    if (n != 0)
    2aaa:	ce09                	beqz	a2,2ac4 <rt_strncpy+0x1a>
F:\SCHOOL\文件\智能车\全向组\RTTThreadCH32V103\camCoreWithRTOS\obj/../Libraries/rtthread_libraries/src/kservice.c:405
        char *d = dst;
    2aac:	86aa                	mv	a3,a0
F:\SCHOOL\文件\智能车\全向组\RTTThreadCH32V103\camCoreWithRTOS\obj/../Libraries/rtthread_libraries/src/kservice.c:410
            if ((*d++ = *s++) == 0)
    2aae:	0585                	addi	a1,a1,1
    2ab0:	00168793          	addi	a5,a3,1
    2ab4:	fff58703          	lb	a4,-1(a1)
    2ab8:	fee78fa3          	sb	a4,-1(a5)
    2abc:	c709                	beqz	a4,2ac6 <rt_strncpy+0x1c>
F:\SCHOOL\文件\智能车\全向组\RTTThreadCH32V103\camCoreWithRTOS\obj/../Libraries/rtthread_libraries/src/kservice.c:417
        } while (--n != 0);
    2abe:	167d                	addi	a2,a2,-1
F:\SCHOOL\文件\智能车\全向组\RTTThreadCH32V103\camCoreWithRTOS\obj/../Libraries/rtthread_libraries/src/kservice.c:410
            if ((*d++ = *s++) == 0)
    2ac0:	86be                	mv	a3,a5
F:\SCHOOL\文件\智能车\全向组\RTTThreadCH32V103\camCoreWithRTOS\obj/../Libraries/rtthread_libraries/src/kservice.c:417
        } while (--n != 0);
    2ac2:	f675                	bnez	a2,2aae <rt_strncpy+0x4>
F:\SCHOOL\文件\智能车\全向组\RTTThreadCH32V103\camCoreWithRTOS\obj/../Libraries/rtthread_libraries/src/kservice.c:421
}
    2ac4:	8082                	ret
F:\SCHOOL\文件\智能车\全向组\RTTThreadCH32V103\camCoreWithRTOS\obj/../Libraries/rtthread_libraries/src/kservice.c:413
                while (--n != 0)
    2ac6:	fff60713          	addi	a4,a2,-1
    2aca:	df6d                	beqz	a4,2ac4 <rt_strncpy+0x1a>
    2acc:	9636                	add	a2,a2,a3
F:\SCHOOL\文件\智能车\全向组\RTTThreadCH32V103\camCoreWithRTOS\obj/../Libraries/rtthread_libraries/src/kservice.c:414
                    *d++ = 0;
    2ace:	0785                	addi	a5,a5,1
    2ad0:	fe078fa3          	sb	zero,-1(a5)
F:\SCHOOL\文件\智能车\全向组\RTTThreadCH32V103\camCoreWithRTOS\obj/../Libraries/rtthread_libraries/src/kservice.c:413
                while (--n != 0)
    2ad4:	fef61de3          	bne	a2,a5,2ace <rt_strncpy+0x24>
    2ad8:	8082                	ret

00002ada <rt_strlen>:
rt_strlen():
F:\SCHOOL\文件\智能车\全向组\RTTThreadCH32V103\camCoreWithRTOS\obj/../Libraries/rtthread_libraries/src/kservice.c:499
    for (sc = s; *sc != '\0'; ++sc) /* nothing */
    2ada:	00050783          	lb	a5,0(a0)
    2ade:	cb89                	beqz	a5,2af0 <rt_strlen+0x16>
    2ae0:	87aa                	mv	a5,a0
F:\SCHOOL\文件\智能车\全向组\RTTThreadCH32V103\camCoreWithRTOS\obj/../Libraries/rtthread_libraries/src/kservice.c:499 (discriminator 3)
    2ae2:	0785                	addi	a5,a5,1
    2ae4:	00078703          	lb	a4,0(a5)
    2ae8:	ff6d                	bnez	a4,2ae2 <rt_strlen+0x8>
F:\SCHOOL\文件\智能车\全向组\RTTThreadCH32V103\camCoreWithRTOS\obj/../Libraries/rtthread_libraries/src/kservice.c:503
}
    2aea:	40a78533          	sub	a0,a5,a0
    2aee:	8082                	ret
F:\SCHOOL\文件\智能车\全向组\RTTThreadCH32V103\camCoreWithRTOS\obj/../Libraries/rtthread_libraries/src/kservice.c:499
    for (sc = s; *sc != '\0'; ++sc) /* nothing */
    2af0:	87aa                	mv	a5,a0
    2af2:	bfe5                	j	2aea <rt_strlen+0x10>

00002af4 <rt_vsnprintf>:
rt_vsnprintf():
F:\SCHOOL\文件\智能车\全向组\RTTThreadCH32V103\camCoreWithRTOS\obj/../Libraries/rtthread_libraries/src/kservice.c:781

rt_int32_t rt_vsnprintf(char       *buf,
                        rt_size_t   size,
                        const char *fmt,
                        va_list     args)
{
    2af4:	715d                	addi	sp,sp,-80
    2af6:	c686                	sw	ra,76(sp)
    2af8:	c4a2                	sw	s0,72(sp)
    2afa:	c2a6                	sw	s1,68(sp)
    2afc:	c0ca                	sw	s2,64(sp)
    2afe:	de4e                	sw	s3,60(sp)
    2b00:	dc52                	sw	s4,56(sp)
    2b02:	da56                	sw	s5,52(sp)
    2b04:	d85a                	sw	s6,48(sp)
    2b06:	d65e                	sw	s7,44(sp)
    2b08:	d462                	sw	s8,40(sp)
    2b0a:	d266                	sw	s9,36(sp)
    2b0c:	d06a                	sw	s10,32(sp)
    2b0e:	ce6e                	sw	s11,28(sp)
    2b10:	8caa                	mv	s9,a0
    2b12:	8d2e                	mv	s10,a1
    2b14:	8c36                	mv	s8,a3
F:\SCHOOL\文件\智能车\全向组\RTTThreadCH32V103\camCoreWithRTOS\obj/../Libraries/rtthread_libraries/src/kservice.c:801
#ifdef RT_PRINTF_PRECISION
    int precision;      /* min. # of digits for integers and max for a string */
#endif

    str = buf;
    end = buf + size;
    2b16:	00b50ab3          	add	s5,a0,a1
F:\SCHOOL\文件\智能车\全向组\RTTThreadCH32V103\camCoreWithRTOS\obj/../Libraries/rtthread_libraries/src/kservice.c:804

    /* Make sure end is always >= buf */
    if (end < buf)
    2b1a:	00aaf563          	bgeu	s5,a0,2b24 <rt_vsnprintf+0x30>
F:\SCHOOL\文件\智能车\全向组\RTTThreadCH32V103\camCoreWithRTOS\obj/../Libraries/rtthread_libraries/src/kservice.c:807
    {
        end  = ((char *) - 1);
        size = end - buf;
    2b1e:	fff54d13          	not	s10,a0
F:\SCHOOL\文件\智能车\全向组\RTTThreadCH32V103\camCoreWithRTOS\obj/../Libraries/rtthread_libraries/src/kservice.c:806
        end  = ((char *) - 1);
    2b22:	5afd                	li	s5,-1
F:\SCHOOL\文件\智能车\全向组\RTTThreadCH32V103\camCoreWithRTOS\obj/../Libraries/rtthread_libraries/src/kservice.c:810 (discriminator 1)
    }

    for (; *fmt ; ++fmt)
    2b24:	00060783          	lb	a5,0(a2)
    2b28:	89e6                	mv	s3,s9
    2b2a:	36078263          	beqz	a5,2e8e <rt_vsnprintf+0x39a>
F:\SCHOOL\文件\智能车\全向组\RTTThreadCH32V103\camCoreWithRTOS\obj/../Libraries/rtthread_libraries/src/kservice.c:812
    {
        if (*fmt != '%')
    2b2e:	02500b93          	li	s7,37
F:\SCHOOL\文件\智能车\全向组\RTTThreadCH32V103\camCoreWithRTOS\obj/../Libraries/rtthread_libraries/src/kservice.c:828
        while (1)
        {
            /* skips the first '%' also */
            ++ fmt;
            if (*fmt == '-') flags |= LEFT;
            else if (*fmt == '+') flags |= PLUS;
    2b32:	02b00913          	li	s2,43
F:\SCHOOL\文件\智能车\全向组\RTTThreadCH32V103\camCoreWithRTOS\obj/../Libraries/rtthread_libraries/src/kservice.c:888
        }

        /* the default base */
        base = 10;

        switch (*fmt)
    2b36:	671d                	lui	a4,0x7
    2b38:	b9470d93          	addi	s11,a4,-1132 # 6b94 <UARTN+0x20>
F:\SCHOOL\文件\智能车\全向组\RTTThreadCH32V103\camCoreWithRTOS\obj/../Libraries/rtthread_libraries/src/kservice.c:1012
            num = va_arg(args, rt_uint32_t);
            if (flags & SIGN) num = (rt_int32_t)num;
        }
        else if (qualifier == 'h')
        {
            num = (rt_uint16_t)va_arg(args, rt_int32_t);
    2b3c:	6741                	lui	a4,0x10
    2b3e:	177d                	addi	a4,a4,-1
    2b40:	c43a                	sw	a4,8(sp)
    2b42:	a809                	j	2b54 <rt_vsnprintf+0x60>
F:\SCHOOL\文件\智能车\全向组\RTTThreadCH32V103\camCoreWithRTOS\obj/../Libraries/rtthread_libraries/src/kservice.c:816
            ++ str;
    2b44:	0985                	addi	s3,s3,1
F:\SCHOOL\文件\智能车\全向组\RTTThreadCH32V103\camCoreWithRTOS\obj/../Libraries/rtthread_libraries/src/kservice.c:817
            continue;
    2b46:	8432                	mv	s0,a2
F:\SCHOOL\文件\智能车\全向组\RTTThreadCH32V103\camCoreWithRTOS\obj/../Libraries/rtthread_libraries/src/kservice.c:810
    for (; *fmt ; ++fmt)
    2b48:	00140613          	addi	a2,s0,1
    2b4c:	00140783          	lb	a5,1(s0)
    2b50:	32078f63          	beqz	a5,2e8e <rt_vsnprintf+0x39a>
F:\SCHOOL\文件\智能车\全向组\RTTThreadCH32V103\camCoreWithRTOS\obj/../Libraries/rtthread_libraries/src/kservice.c:812
        if (*fmt != '%')
    2b54:	01778763          	beq	a5,s7,2b62 <rt_vsnprintf+0x6e>
F:\SCHOOL\文件\智能车\全向组\RTTThreadCH32V103\camCoreWithRTOS\obj/../Libraries/rtthread_libraries/src/kservice.c:814
            if (str < end)
    2b58:	ff59f6e3          	bgeu	s3,s5,2b44 <rt_vsnprintf+0x50>
F:\SCHOOL\文件\智能车\全向组\RTTThreadCH32V103\camCoreWithRTOS\obj/../Libraries/rtthread_libraries/src/kservice.c:815
                *str = *fmt;
    2b5c:	00f98023          	sb	a5,0(s3)
    2b60:	b7d5                	j	2b44 <rt_vsnprintf+0x50>
F:\SCHOOL\文件\智能车\全向组\RTTThreadCH32V103\camCoreWithRTOS\obj/../Libraries/rtthread_libraries/src/kservice.c:821
        flags = 0;
    2b62:	4481                	li	s1,0
F:\SCHOOL\文件\智能车\全向组\RTTThreadCH32V103\camCoreWithRTOS\obj/../Libraries/rtthread_libraries/src/kservice.c:827
            if (*fmt == '-') flags |= LEFT;
    2b64:	02d00713          	li	a4,45
F:\SCHOOL\文件\智能车\全向组\RTTThreadCH32V103\camCoreWithRTOS\obj/../Libraries/rtthread_libraries/src/kservice.c:829
            else if (*fmt == ' ') flags |= SPACE;
    2b68:	02000693          	li	a3,32
F:\SCHOOL\文件\智能车\全向组\RTTThreadCH32V103\camCoreWithRTOS\obj/../Libraries/rtthread_libraries/src/kservice.c:830
            else if (*fmt == '#') flags |= SPECIAL;
    2b6c:	02300593          	li	a1,35
F:\SCHOOL\文件\智能车\全向组\RTTThreadCH32V103\camCoreWithRTOS\obj/../Libraries/rtthread_libraries/src/kservice.c:831
            else if (*fmt == '0') flags |= ZEROPAD;
    2b70:	03000513          	li	a0,48
    2b74:	a021                	j	2b7c <rt_vsnprintf+0x88>
F:\SCHOOL\文件\智能车\全向组\RTTThreadCH32V103\camCoreWithRTOS\obj/../Libraries/rtthread_libraries/src/kservice.c:827 (discriminator 1)
            if (*fmt == '-') flags |= LEFT;
    2b76:	0104e493          	ori	s1,s1,16
F:\SCHOOL\文件\智能车\全向组\RTTThreadCH32V103\camCoreWithRTOS\obj/../Libraries/rtthread_libraries/src/kservice.c:826
            ++ fmt;
    2b7a:	8622                	mv	a2,s0
    2b7c:	00160413          	addi	s0,a2,1
F:\SCHOOL\文件\智能车\全向组\RTTThreadCH32V103\camCoreWithRTOS\obj/../Libraries/rtthread_libraries/src/kservice.c:827
            if (*fmt == '-') flags |= LEFT;
    2b80:	00160783          	lb	a5,1(a2)
    2b84:	fee789e3          	beq	a5,a4,2b76 <rt_vsnprintf+0x82>
F:\SCHOOL\文件\智能车\全向组\RTTThreadCH32V103\camCoreWithRTOS\obj/../Libraries/rtthread_libraries/src/kservice.c:828
            else if (*fmt == '+') flags |= PLUS;
    2b88:	01278b63          	beq	a5,s2,2b9e <rt_vsnprintf+0xaa>
F:\SCHOOL\文件\智能车\全向组\RTTThreadCH32V103\camCoreWithRTOS\obj/../Libraries/rtthread_libraries/src/kservice.c:829
            else if (*fmt == ' ') flags |= SPACE;
    2b8c:	00d78c63          	beq	a5,a3,2ba4 <rt_vsnprintf+0xb0>
F:\SCHOOL\文件\智能车\全向组\RTTThreadCH32V103\camCoreWithRTOS\obj/../Libraries/rtthread_libraries/src/kservice.c:830
            else if (*fmt == '#') flags |= SPECIAL;
    2b90:	00b78d63          	beq	a5,a1,2baa <rt_vsnprintf+0xb6>
F:\SCHOOL\文件\智能车\全向组\RTTThreadCH32V103\camCoreWithRTOS\obj/../Libraries/rtthread_libraries/src/kservice.c:831
            else if (*fmt == '0') flags |= ZEROPAD;
    2b94:	00a79e63          	bne	a5,a0,2bb0 <rt_vsnprintf+0xbc>
F:\SCHOOL\文件\智能车\全向组\RTTThreadCH32V103\camCoreWithRTOS\obj/../Libraries/rtthread_libraries/src/kservice.c:831 (discriminator 1)
    2b98:	0014e493          	ori	s1,s1,1
    2b9c:	bff9                	j	2b7a <rt_vsnprintf+0x86>
F:\SCHOOL\文件\智能车\全向组\RTTThreadCH32V103\camCoreWithRTOS\obj/../Libraries/rtthread_libraries/src/kservice.c:828 (discriminator 1)
            else if (*fmt == '+') flags |= PLUS;
    2b9e:	0044e493          	ori	s1,s1,4
    2ba2:	bfe1                	j	2b7a <rt_vsnprintf+0x86>
F:\SCHOOL\文件\智能车\全向组\RTTThreadCH32V103\camCoreWithRTOS\obj/../Libraries/rtthread_libraries/src/kservice.c:829 (discriminator 1)
            else if (*fmt == ' ') flags |= SPACE;
    2ba4:	0084e493          	ori	s1,s1,8
    2ba8:	bfc9                	j	2b7a <rt_vsnprintf+0x86>
F:\SCHOOL\文件\智能车\全向组\RTTThreadCH32V103\camCoreWithRTOS\obj/../Libraries/rtthread_libraries/src/kservice.c:830 (discriminator 1)
            else if (*fmt == '#') flags |= SPECIAL;
    2baa:	0204e493          	ori	s1,s1,32
    2bae:	b7f1                	j	2b7a <rt_vsnprintf+0x86>
F:\SCHOOL\文件\智能车\全向组\RTTThreadCH32V103\camCoreWithRTOS\obj/../Libraries/rtthread_libraries/src/kservice.c:837
        if (isdigit(*fmt)) field_width = skip_atoi(&fmt);
    2bb0:	873e                	mv	a4,a5
    2bb2:	fd078693          	addi	a3,a5,-48
    2bb6:	45a5                	li	a1,9
    2bb8:	04d5f663          	bgeu	a1,a3,2c04 <rt_vsnprintf+0x110>
F:\SCHOOL\文件\智能车\全向组\RTTThreadCH32V103\camCoreWithRTOS\obj/../Libraries/rtthread_libraries/src/kservice.c:838
        else if (*fmt == '*')
    2bbc:	02a00713          	li	a4,42
F:\SCHOOL\文件\智能车\全向组\RTTThreadCH32V103\camCoreWithRTOS\obj/../Libraries/rtthread_libraries/src/kservice.c:836
        field_width = -1;
    2bc0:	5a7d                	li	s4,-1
F:\SCHOOL\文件\智能车\全向组\RTTThreadCH32V103\camCoreWithRTOS\obj/../Libraries/rtthread_libraries/src/kservice.c:838
        else if (*fmt == '*')
    2bc2:	06e78263          	beq	a5,a4,2c26 <rt_vsnprintf+0x132>
F:\SCHOOL\文件\智能车\全向组\RTTThreadCH32V103\camCoreWithRTOS\obj/../Libraries/rtthread_libraries/src/kservice.c:853
        if (*fmt == '.')
    2bc6:	00040703          	lb	a4,0(s0)
    2bca:	02e00793          	li	a5,46
F:\SCHOOL\文件\智能车\全向组\RTTThreadCH32V103\camCoreWithRTOS\obj/../Libraries/rtthread_libraries/src/kservice.c:852
        precision = -1;
    2bce:	5b7d                	li	s6,-1
F:\SCHOOL\文件\智能车\全向组\RTTThreadCH32V103\camCoreWithRTOS\obj/../Libraries/rtthread_libraries/src/kservice.c:853
        if (*fmt == '.')
    2bd0:	06f70963          	beq	a4,a5,2c42 <rt_vsnprintf+0x14e>
F:\SCHOOL\文件\智能车\全向组\RTTThreadCH32V103\camCoreWithRTOS\obj/../Libraries/rtthread_libraries/src/kservice.c:871
        if (*fmt == 'h' || *fmt == 'l')
    2bd4:	00040783          	lb	a5,0(s0)
    2bd8:	ffb7f613          	andi	a2,a5,-5
    2bdc:	06800693          	li	a3,104
F:\SCHOOL\文件\智能车\全向组\RTTThreadCH32V103\camCoreWithRTOS\obj/../Libraries/rtthread_libraries/src/kservice.c:867
        qualifier = 0;
    2be0:	4701                	li	a4,0
F:\SCHOOL\文件\智能车\全向组\RTTThreadCH32V103\camCoreWithRTOS\obj/../Libraries/rtthread_libraries/src/kservice.c:871
        if (*fmt == 'h' || *fmt == 'l')
    2be2:	0ad60c63          	beq	a2,a3,2c9a <rt_vsnprintf+0x1a6>
F:\SCHOOL\文件\智能车\全向组\RTTThreadCH32V103\camCoreWithRTOS\obj/../Libraries/rtthread_libraries/src/kservice.c:888
        switch (*fmt)
    2be6:	00044783          	lbu	a5,0(s0)
    2bea:	fdb78793          	addi	a5,a5,-37
    2bee:	0ff7f613          	andi	a2,a5,255
    2bf2:	05300693          	li	a3,83
    2bf6:	20c6e863          	bltu	a3,a2,2e06 <rt_vsnprintf+0x312>
    2bfa:	00261793          	slli	a5,a2,0x2
    2bfe:	97ee                	add	a5,a5,s11
    2c00:	439c                	lw	a5,0(a5)
    2c02:	8782                	jr	a5
skip_atoi():
F:\SCHOOL\文件\智能车\全向组\RTTThreadCH32V103\camCoreWithRTOS\obj/../Libraries/rtthread_libraries/src/kservice.c:590
    register int i = 0;
    2c04:	4a01                	li	s4,0
F:\SCHOOL\文件\智能车\全向组\RTTThreadCH32V103\camCoreWithRTOS\obj/../Libraries/rtthread_libraries/src/kservice.c:591
    while (isdigit(**s))
    2c06:	46a5                	li	a3,9
F:\SCHOOL\文件\智能车\全向组\RTTThreadCH32V103\camCoreWithRTOS\obj/../Libraries/rtthread_libraries/src/kservice.c:592
        i = i * 10 + *((*s)++) - '0';
    2c08:	0405                	addi	s0,s0,1
    2c0a:	002a1793          	slli	a5,s4,0x2
    2c0e:	9a3e                	add	s4,s4,a5
    2c10:	0a06                	slli	s4,s4,0x1
    2c12:	9a3a                	add	s4,s4,a4
    2c14:	fd0a0a13          	addi	s4,s4,-48
F:\SCHOOL\文件\智能车\全向组\RTTThreadCH32V103\camCoreWithRTOS\obj/../Libraries/rtthread_libraries/src/kservice.c:591
    while (isdigit(**s))
    2c18:	00040703          	lb	a4,0(s0)
    2c1c:	fd070793          	addi	a5,a4,-48 # ffd0 <_data_lma+0x8a88>
    2c20:	fef6f4e3          	bgeu	a3,a5,2c08 <rt_vsnprintf+0x114>
    2c24:	b74d                	j	2bc6 <rt_vsnprintf+0xd2>
rt_vsnprintf():
F:\SCHOOL\文件\智能车\全向组\RTTThreadCH32V103\camCoreWithRTOS\obj/../Libraries/rtthread_libraries/src/kservice.c:840
            ++ fmt;
    2c26:	00260413          	addi	s0,a2,2
F:\SCHOOL\文件\智能车\全向组\RTTThreadCH32V103\camCoreWithRTOS\obj/../Libraries/rtthread_libraries/src/kservice.c:842
            field_width = va_arg(args, int);
    2c2a:	004c0793          	addi	a5,s8,4
    2c2e:	000c2a03          	lw	s4,0(s8)
    2c32:	8c3e                	mv	s8,a5
F:\SCHOOL\文件\智能车\全向组\RTTThreadCH32V103\camCoreWithRTOS\obj/../Libraries/rtthread_libraries/src/kservice.c:843
            if (field_width < 0)
    2c34:	f80a59e3          	bgez	s4,2bc6 <rt_vsnprintf+0xd2>
F:\SCHOOL\文件\智能车\全向组\RTTThreadCH32V103\camCoreWithRTOS\obj/../Libraries/rtthread_libraries/src/kservice.c:845
                field_width = -field_width;
    2c38:	41400a33          	neg	s4,s4
F:\SCHOOL\文件\智能车\全向组\RTTThreadCH32V103\camCoreWithRTOS\obj/../Libraries/rtthread_libraries/src/kservice.c:846
                flags |= LEFT;
    2c3c:	0104e493          	ori	s1,s1,16
    2c40:	b759                	j	2bc6 <rt_vsnprintf+0xd2>
F:\SCHOOL\文件\智能车\全向组\RTTThreadCH32V103\camCoreWithRTOS\obj/../Libraries/rtthread_libraries/src/kservice.c:855
            ++ fmt;
    2c42:	00140713          	addi	a4,s0,1
F:\SCHOOL\文件\智能车\全向组\RTTThreadCH32V103\camCoreWithRTOS\obj/../Libraries/rtthread_libraries/src/kservice.c:856
            if (isdigit(*fmt)) precision = skip_atoi(&fmt);
    2c46:	00140783          	lb	a5,1(s0)
    2c4a:	86be                	mv	a3,a5
    2c4c:	fd078593          	addi	a1,a5,-48
    2c50:	4625                	li	a2,9
    2c52:	00b67963          	bgeu	a2,a1,2c64 <rt_vsnprintf+0x170>
F:\SCHOOL\文件\智能车\全向组\RTTThreadCH32V103\camCoreWithRTOS\obj/../Libraries/rtthread_libraries/src/kservice.c:857
            else if (*fmt == '*')
    2c56:	02a00693          	li	a3,42
    2c5a:	02d78663          	beq	a5,a3,2c86 <rt_vsnprintf+0x192>
F:\SCHOOL\文件\智能车\全向组\RTTThreadCH32V103\camCoreWithRTOS\obj/../Libraries/rtthread_libraries/src/kservice.c:855
            ++ fmt;
    2c5e:	843a                	mv	s0,a4
F:\SCHOOL\文件\智能车\全向组\RTTThreadCH32V103\camCoreWithRTOS\obj/../Libraries/rtthread_libraries/src/kservice.c:863
            if (precision < 0) precision = 0;
    2c60:	4b01                	li	s6,0
    2c62:	bf8d                	j	2bd4 <rt_vsnprintf+0xe0>
skip_atoi():
F:\SCHOOL\文件\智能车\全向组\RTTThreadCH32V103\camCoreWithRTOS\obj/../Libraries/rtthread_libraries/src/kservice.c:590
    register int i = 0;
    2c64:	4b01                	li	s6,0
F:\SCHOOL\文件\智能车\全向组\RTTThreadCH32V103\camCoreWithRTOS\obj/../Libraries/rtthread_libraries/src/kservice.c:592
        i = i * 10 + *((*s)++) - '0';
    2c66:	0705                	addi	a4,a4,1
    2c68:	002b1793          	slli	a5,s6,0x2
    2c6c:	97da                	add	a5,a5,s6
    2c6e:	0786                	slli	a5,a5,0x1
    2c70:	97b6                	add	a5,a5,a3
    2c72:	fd078b13          	addi	s6,a5,-48
F:\SCHOOL\文件\智能车\全向组\RTTThreadCH32V103\camCoreWithRTOS\obj/../Libraries/rtthread_libraries/src/kservice.c:591
    while (isdigit(**s))
    2c76:	00070683          	lb	a3,0(a4)
    2c7a:	fd068793          	addi	a5,a3,-48
    2c7e:	fef674e3          	bgeu	a2,a5,2c66 <rt_vsnprintf+0x172>
F:\SCHOOL\文件\智能车\全向组\RTTThreadCH32V103\camCoreWithRTOS\obj/../Libraries/rtthread_libraries/src/kservice.c:592
        i = i * 10 + *((*s)++) - '0';
    2c82:	843a                	mv	s0,a4
    2c84:	a029                	j	2c8e <rt_vsnprintf+0x19a>
rt_vsnprintf():
F:\SCHOOL\文件\智能车\全向组\RTTThreadCH32V103\camCoreWithRTOS\obj/../Libraries/rtthread_libraries/src/kservice.c:859
                ++ fmt;
    2c86:	0409                	addi	s0,s0,2
F:\SCHOOL\文件\智能车\全向组\RTTThreadCH32V103\camCoreWithRTOS\obj/../Libraries/rtthread_libraries/src/kservice.c:861
                precision = va_arg(args, int);
    2c88:	000c2b03          	lw	s6,0(s8)
    2c8c:	0c11                	addi	s8,s8,4
F:\SCHOOL\文件\智能车\全向组\RTTThreadCH32V103\camCoreWithRTOS\obj/../Libraries/rtthread_libraries/src/kservice.c:863
            if (precision < 0) precision = 0;
    2c8e:	fffb4793          	not	a5,s6
    2c92:	87fd                	srai	a5,a5,0x1f
    2c94:	00fb7b33          	and	s6,s6,a5
    2c98:	bf35                	j	2bd4 <rt_vsnprintf+0xe0>
F:\SCHOOL\文件\智能车\全向组\RTTThreadCH32V103\camCoreWithRTOS\obj/../Libraries/rtthread_libraries/src/kservice.c:874
            qualifier = *fmt;
    2c9a:	0ff7f713          	andi	a4,a5,255
F:\SCHOOL\文件\智能车\全向组\RTTThreadCH32V103\camCoreWithRTOS\obj/../Libraries/rtthread_libraries/src/kservice.c:875
            ++ fmt;
    2c9e:	0405                	addi	s0,s0,1
    2ca0:	b799                	j	2be6 <rt_vsnprintf+0xf2>
F:\SCHOOL\文件\智能车\全向组\RTTThreadCH32V103\camCoreWithRTOS\obj/../Libraries/rtthread_libraries/src/kservice.c:975
            base = 16;
    2ca2:	46c1                	li	a3,16
    2ca4:	aa41                	j	2e34 <rt_vsnprintf+0x340>
F:\SCHOOL\文件\智能车\全向组\RTTThreadCH32V103\camCoreWithRTOS\obj/../Libraries/rtthread_libraries/src/kservice.c:891
            if (!(flags & LEFT))
    2ca6:	88c1                	andi	s1,s1,16
    2ca8:	c09d                	beqz	s1,2cce <rt_vsnprintf+0x1da>
F:\SCHOOL\文件\智能车\全向组\RTTThreadCH32V103\camCoreWithRTOS\obj/../Libraries/rtthread_libraries/src/kservice.c:901
            c = (rt_uint8_t)va_arg(args, int);
    2caa:	004c0693          	addi	a3,s8,4
F:\SCHOOL\文件\智能车\全向组\RTTThreadCH32V103\camCoreWithRTOS\obj/../Libraries/rtthread_libraries/src/kservice.c:902
            if (str < end) *str = c;
    2cae:	0159f663          	bgeu	s3,s5,2cba <rt_vsnprintf+0x1c6>
F:\SCHOOL\文件\智能车\全向组\RTTThreadCH32V103\camCoreWithRTOS\obj/../Libraries/rtthread_libraries/src/kservice.c:901 (discriminator 1)
            c = (rt_uint8_t)va_arg(args, int);
    2cb2:	000c2783          	lw	a5,0(s8)
    2cb6:	00f98023          	sb	a5,0(s3)
F:\SCHOOL\文件\智能车\全向组\RTTThreadCH32V103\camCoreWithRTOS\obj/../Libraries/rtthread_libraries/src/kservice.c:903
            ++ str;
    2cba:	00198793          	addi	a5,s3,1
F:\SCHOOL\文件\智能车\全向组\RTTThreadCH32V103\camCoreWithRTOS\obj/../Libraries/rtthread_libraries/src/kservice.c:906
            while (--field_width > 0)
    2cbe:	4705                	li	a4,1
    2cc0:	1d475163          	bge	a4,s4,2e82 <rt_vsnprintf+0x38e>
    2cc4:	8652                	mv	a2,s4
    2cc6:	9a4e                	add	s4,s4,s3
F:\SCHOOL\文件\智能车\全向组\RTTThreadCH32V103\camCoreWithRTOS\obj/../Libraries/rtthread_libraries/src/kservice.c:908
                if (str < end) *str = ' ';
    2cc8:	02000713          	li	a4,32
    2ccc:	a80d                	j	2cfe <rt_vsnprintf+0x20a>
F:\SCHOOL\文件\智能车\全向组\RTTThreadCH32V103\camCoreWithRTOS\obj/../Libraries/rtthread_libraries/src/kservice.c:893
                while (--field_width > 0)
    2cce:	fffa0793          	addi	a5,s4,-1
    2cd2:	02f05163          	blez	a5,2cf4 <rt_vsnprintf+0x200>
    2cd6:	97ce                	add	a5,a5,s3
F:\SCHOOL\文件\智能车\全向组\RTTThreadCH32V103\camCoreWithRTOS\obj/../Libraries/rtthread_libraries/src/kservice.c:895
                    if (str < end) *str = ' ';
    2cd8:	02000713          	li	a4,32
    2cdc:	a021                	j	2ce4 <rt_vsnprintf+0x1f0>
F:\SCHOOL\文件\智能车\全向组\RTTThreadCH32V103\camCoreWithRTOS\obj/../Libraries/rtthread_libraries/src/kservice.c:896
                    ++ str;
    2cde:	0985                	addi	s3,s3,1
F:\SCHOOL\文件\智能车\全向组\RTTThreadCH32V103\camCoreWithRTOS\obj/../Libraries/rtthread_libraries/src/kservice.c:893
                while (--field_width > 0)
    2ce0:	01378763          	beq	a5,s3,2cee <rt_vsnprintf+0x1fa>
F:\SCHOOL\文件\智能车\全向组\RTTThreadCH32V103\camCoreWithRTOS\obj/../Libraries/rtthread_libraries/src/kservice.c:895
                    if (str < end) *str = ' ';
    2ce4:	ff59fde3          	bgeu	s3,s5,2cde <rt_vsnprintf+0x1ea>
F:\SCHOOL\文件\智能车\全向组\RTTThreadCH32V103\camCoreWithRTOS\obj/../Libraries/rtthread_libraries/src/kservice.c:895 (discriminator 1)
    2ce8:	00e98023          	sb	a4,0(s3)
    2cec:	bfcd                	j	2cde <rt_vsnprintf+0x1ea>
F:\SCHOOL\文件\智能车\全向组\RTTThreadCH32V103\camCoreWithRTOS\obj/../Libraries/rtthread_libraries/src/kservice.c:896
                    ++ str;
    2cee:	89be                	mv	s3,a5
F:\SCHOOL\文件\智能车\全向组\RTTThreadCH32V103\camCoreWithRTOS\obj/../Libraries/rtthread_libraries/src/kservice.c:893
                while (--field_width > 0)
    2cf0:	4a01                	li	s4,0
    2cf2:	bf65                	j	2caa <rt_vsnprintf+0x1b6>
    2cf4:	8a3e                	mv	s4,a5
    2cf6:	bf55                	j	2caa <rt_vsnprintf+0x1b6>
F:\SCHOOL\文件\智能车\全向组\RTTThreadCH32V103\camCoreWithRTOS\obj/../Libraries/rtthread_libraries/src/kservice.c:909
                ++ str;
    2cf8:	0785                	addi	a5,a5,1
F:\SCHOOL\文件\智能车\全向组\RTTThreadCH32V103\camCoreWithRTOS\obj/../Libraries/rtthread_libraries/src/kservice.c:906
            while (--field_width > 0)
    2cfa:	01478763          	beq	a5,s4,2d08 <rt_vsnprintf+0x214>
F:\SCHOOL\文件\智能车\全向组\RTTThreadCH32V103\camCoreWithRTOS\obj/../Libraries/rtthread_libraries/src/kservice.c:908
                if (str < end) *str = ' ';
    2cfe:	ff57fde3          	bgeu	a5,s5,2cf8 <rt_vsnprintf+0x204>
F:\SCHOOL\文件\智能车\全向组\RTTThreadCH32V103\camCoreWithRTOS\obj/../Libraries/rtthread_libraries/src/kservice.c:908 (discriminator 1)
    2d02:	00e78023          	sb	a4,0(a5)
    2d06:	bfcd                	j	2cf8 <rt_vsnprintf+0x204>
    2d08:	99b2                	add	s3,s3,a2
F:\SCHOOL\文件\智能车\全向组\RTTThreadCH32V103\camCoreWithRTOS\obj/../Libraries/rtthread_libraries/src/kservice.c:901
            c = (rt_uint8_t)va_arg(args, int);
    2d0a:	8c36                	mv	s8,a3
    2d0c:	bd35                	j	2b48 <rt_vsnprintf+0x54>
F:\SCHOOL\文件\智能车\全向组\RTTThreadCH32V103\camCoreWithRTOS\obj/../Libraries/rtthread_libraries/src/kservice.c:914
            s = va_arg(args, char *);
    2d0e:	004c0793          	addi	a5,s8,4
    2d12:	c63e                	sw	a5,12(sp)
    2d14:	000c2c03          	lw	s8,0(s8)
F:\SCHOOL\文件\智能车\全向组\RTTThreadCH32V103\camCoreWithRTOS\obj/../Libraries/rtthread_libraries/src/kservice.c:915
            if (!s) s = "(NULL)";
    2d18:	020c0163          	beqz	s8,2d3a <rt_vsnprintf+0x246>
F:\SCHOOL\文件\智能车\全向组\RTTThreadCH32V103\camCoreWithRTOS\obj/../Libraries/rtthread_libraries/src/kservice.c:917
            len = rt_strlen(s);
    2d1c:	8562                	mv	a0,s8
    2d1e:	dbdff0ef          	jal	ra,2ada <rt_strlen>
F:\SCHOOL\文件\智能车\全向组\RTTThreadCH32V103\camCoreWithRTOS\obj/../Libraries/rtthread_libraries/src/kservice.c:919
            if (precision > 0 && len > precision) len = precision;
    2d22:	01605563          	blez	s6,2d2c <rt_vsnprintf+0x238>
    2d26:	00ab5363          	bge	s6,a0,2d2c <rt_vsnprintf+0x238>
    2d2a:	855a                	mv	a0,s6
F:\SCHOOL\文件\智能车\全向组\RTTThreadCH32V103\camCoreWithRTOS\obj/../Libraries/rtthread_libraries/src/kservice.c:922
            if (!(flags & LEFT))
    2d2c:	88c1                	andi	s1,s1,16
    2d2e:	c899                	beqz	s1,2d44 <rt_vsnprintf+0x250>
F:\SCHOOL\文件\智能车\全向组\RTTThreadCH32V103\camCoreWithRTOS\obj/../Libraries/rtthread_libraries/src/kservice.c:931
            for (i = 0; i < len; ++i)
    2d30:	06a05063          	blez	a0,2d90 <rt_vsnprintf+0x29c>
    2d34:	00a987b3          	add	a5,s3,a0
    2d38:	a0a9                	j	2d82 <rt_vsnprintf+0x28e>
F:\SCHOOL\文件\智能车\全向组\RTTThreadCH32V103\camCoreWithRTOS\obj/../Libraries/rtthread_libraries/src/kservice.c:915
            if (!s) s = "(NULL)";
    2d3a:	000077b7          	lui	a5,0x7
    2d3e:	e8078c13          	addi	s8,a5,-384 # 6e80 <large_digits.2240+0x9c>
    2d42:	bfe9                	j	2d1c <rt_vsnprintf+0x228>
F:\SCHOOL\文件\智能车\全向组\RTTThreadCH32V103\camCoreWithRTOS\obj/../Libraries/rtthread_libraries/src/kservice.c:924
                while (len < field_width--)
    2d44:	fffa0693          	addi	a3,s4,-1
    2d48:	03455763          	bge	a0,s4,2d76 <rt_vsnprintf+0x282>
    2d4c:	85d2                	mv	a1,s4
    2d4e:	872a                	mv	a4,a0
    2d50:	40aa07b3          	sub	a5,s4,a0
    2d54:	97ce                	add	a5,a5,s3
F:\SCHOOL\文件\智能车\全向组\RTTThreadCH32V103\camCoreWithRTOS\obj/../Libraries/rtthread_libraries/src/kservice.c:926
                    if (str < end) *str = ' ';
    2d56:	02000613          	li	a2,32
    2d5a:	a021                	j	2d62 <rt_vsnprintf+0x26e>
F:\SCHOOL\文件\智能车\全向组\RTTThreadCH32V103\camCoreWithRTOS\obj/../Libraries/rtthread_libraries/src/kservice.c:927
                    ++ str;
    2d5c:	0985                	addi	s3,s3,1
F:\SCHOOL\文件\智能车\全向组\RTTThreadCH32V103\camCoreWithRTOS\obj/../Libraries/rtthread_libraries/src/kservice.c:924
                while (len < field_width--)
    2d5e:	00f98763          	beq	s3,a5,2d6c <rt_vsnprintf+0x278>
F:\SCHOOL\文件\智能车\全向组\RTTThreadCH32V103\camCoreWithRTOS\obj/../Libraries/rtthread_libraries/src/kservice.c:926
                    if (str < end) *str = ' ';
    2d62:	ff59fde3          	bgeu	s3,s5,2d5c <rt_vsnprintf+0x268>
F:\SCHOOL\文件\智能车\全向组\RTTThreadCH32V103\camCoreWithRTOS\obj/../Libraries/rtthread_libraries/src/kservice.c:926 (discriminator 1)
    2d66:	00c98023          	sb	a2,0(s3)
    2d6a:	bfcd                	j	2d5c <rt_vsnprintf+0x268>
    2d6c:	40b70a33          	sub	s4,a4,a1
    2d70:	9a36                	add	s4,s4,a3
F:\SCHOOL\文件\智能车\全向组\RTTThreadCH32V103\camCoreWithRTOS\obj/../Libraries/rtthread_libraries/src/kservice.c:927
                    ++ str;
    2d72:	89be                	mv	s3,a5
    2d74:	bf75                	j	2d30 <rt_vsnprintf+0x23c>
F:\SCHOOL\文件\智能车\全向组\RTTThreadCH32V103\camCoreWithRTOS\obj/../Libraries/rtthread_libraries/src/kservice.c:924
                while (len < field_width--)
    2d76:	8a36                	mv	s4,a3
    2d78:	bf65                	j	2d30 <rt_vsnprintf+0x23c>
F:\SCHOOL\文件\智能车\全向组\RTTThreadCH32V103\camCoreWithRTOS\obj/../Libraries/rtthread_libraries/src/kservice.c:934 (discriminator 2)
                ++ str;
    2d7a:	0985                	addi	s3,s3,1
F:\SCHOOL\文件\智能车\全向组\RTTThreadCH32V103\camCoreWithRTOS\obj/../Libraries/rtthread_libraries/src/kservice.c:935 (discriminator 2)
                ++ s;
    2d7c:	0c05                	addi	s8,s8,1
F:\SCHOOL\文件\智能车\全向组\RTTThreadCH32V103\camCoreWithRTOS\obj/../Libraries/rtthread_libraries/src/kservice.c:931 (discriminator 2)
            for (i = 0; i < len; ++i)
    2d7e:	00f98a63          	beq	s3,a5,2d92 <rt_vsnprintf+0x29e>
F:\SCHOOL\文件\智能车\全向组\RTTThreadCH32V103\camCoreWithRTOS\obj/../Libraries/rtthread_libraries/src/kservice.c:933
                if (str < end) *str = *s;
    2d82:	ff59fce3          	bgeu	s3,s5,2d7a <rt_vsnprintf+0x286>
F:\SCHOOL\文件\智能车\全向组\RTTThreadCH32V103\camCoreWithRTOS\obj/../Libraries/rtthread_libraries/src/kservice.c:933 (discriminator 1)
    2d86:	000c0703          	lb	a4,0(s8)
    2d8a:	00e98023          	sb	a4,0(s3)
    2d8e:	b7f5                	j	2d7a <rt_vsnprintf+0x286>
F:\SCHOOL\文件\智能车\全向组\RTTThreadCH32V103\camCoreWithRTOS\obj/../Libraries/rtthread_libraries/src/kservice.c:931
            for (i = 0; i < len; ++i)
    2d90:	87ce                	mv	a5,s3
F:\SCHOOL\文件\智能车\全向组\RTTThreadCH32V103\camCoreWithRTOS\obj/../Libraries/rtthread_libraries/src/kservice.c:938
            while (len < field_width--)
    2d92:	0f455b63          	bge	a0,s4,2e88 <rt_vsnprintf+0x394>
    2d96:	40aa0533          	sub	a0,s4,a0
    2d9a:	00a789b3          	add	s3,a5,a0
F:\SCHOOL\文件\智能车\全向组\RTTThreadCH32V103\camCoreWithRTOS\obj/../Libraries/rtthread_libraries/src/kservice.c:940
                if (str < end) *str = ' ';
    2d9e:	02000713          	li	a4,32
    2da2:	a021                	j	2daa <rt_vsnprintf+0x2b6>
F:\SCHOOL\文件\智能车\全向组\RTTThreadCH32V103\camCoreWithRTOS\obj/../Libraries/rtthread_libraries/src/kservice.c:941
                ++ str;
    2da4:	0785                	addi	a5,a5,1
F:\SCHOOL\文件\智能车\全向组\RTTThreadCH32V103\camCoreWithRTOS\obj/../Libraries/rtthread_libraries/src/kservice.c:938
            while (len < field_width--)
    2da6:	01378763          	beq	a5,s3,2db4 <rt_vsnprintf+0x2c0>
F:\SCHOOL\文件\智能车\全向组\RTTThreadCH32V103\camCoreWithRTOS\obj/../Libraries/rtthread_libraries/src/kservice.c:940
                if (str < end) *str = ' ';
    2daa:	ff57fde3          	bgeu	a5,s5,2da4 <rt_vsnprintf+0x2b0>
F:\SCHOOL\文件\智能车\全向组\RTTThreadCH32V103\camCoreWithRTOS\obj/../Libraries/rtthread_libraries/src/kservice.c:940 (discriminator 1)
    2dae:	00e78023          	sb	a4,0(a5)
    2db2:	bfcd                	j	2da4 <rt_vsnprintf+0x2b0>
F:\SCHOOL\文件\智能车\全向组\RTTThreadCH32V103\camCoreWithRTOS\obj/../Libraries/rtthread_libraries/src/kservice.c:914
            s = va_arg(args, char *);
    2db4:	4c32                	lw	s8,12(sp)
    2db6:	bb49                	j	2b48 <rt_vsnprintf+0x54>
F:\SCHOOL\文件\智能车\全向组\RTTThreadCH32V103\camCoreWithRTOS\obj/../Libraries/rtthread_libraries/src/kservice.c:946
            if (field_width == -1)
    2db8:	57fd                	li	a5,-1
    2dba:	02fa0263          	beq	s4,a5,2dde <rt_vsnprintf+0x2ea>
F:\SCHOOL\文件\智能车\全向组\RTTThreadCH32V103\camCoreWithRTOS\obj/../Libraries/rtthread_libraries/src/kservice.c:953
                               (long)va_arg(args, void *),
    2dbe:	004c0793          	addi	a5,s8,4
    2dc2:	c63e                	sw	a5,12(sp)
F:\SCHOOL\文件\智能车\全向组\RTTThreadCH32V103\camCoreWithRTOS\obj/../Libraries/rtthread_libraries/src/kservice.c:952
            str = print_number(str, end,
    2dc4:	8826                	mv	a6,s1
    2dc6:	87da                	mv	a5,s6
    2dc8:	8752                	mv	a4,s4
    2dca:	46c1                	li	a3,16
    2dcc:	000c2603          	lw	a2,0(s8)
    2dd0:	85d6                	mv	a1,s5
    2dd2:	854e                	mv	a0,s3
    2dd4:	a53ff0ef          	jal	ra,2826 <print_number>
    2dd8:	89aa                	mv	s3,a0
F:\SCHOOL\文件\智能车\全向组\RTTThreadCH32V103\camCoreWithRTOS\obj/../Libraries/rtthread_libraries/src/kservice.c:953
                               (long)va_arg(args, void *),
    2dda:	4c32                	lw	s8,12(sp)
F:\SCHOOL\文件\智能车\全向组\RTTThreadCH32V103\camCoreWithRTOS\obj/../Libraries/rtthread_libraries/src/kservice.c:960
            continue;
    2ddc:	b3b5                	j	2b48 <rt_vsnprintf+0x54>
F:\SCHOOL\文件\智能车\全向组\RTTThreadCH32V103\camCoreWithRTOS\obj/../Libraries/rtthread_libraries/src/kservice.c:949
                flags |= ZEROPAD;
    2dde:	0014e493          	ori	s1,s1,1
F:\SCHOOL\文件\智能车\全向组\RTTThreadCH32V103\camCoreWithRTOS\obj/../Libraries/rtthread_libraries/src/kservice.c:948
                field_width = sizeof(void *) << 1;
    2de2:	4a21                	li	s4,8
    2de4:	bfe9                	j	2dbe <rt_vsnprintf+0x2ca>
F:\SCHOOL\文件\智能车\全向组\RTTThreadCH32V103\camCoreWithRTOS\obj/../Libraries/rtthread_libraries/src/kservice.c:963
            if (str < end) *str = '%';
    2de6:	0159f663          	bgeu	s3,s5,2df2 <rt_vsnprintf+0x2fe>
F:\SCHOOL\文件\智能车\全向组\RTTThreadCH32V103\camCoreWithRTOS\obj/../Libraries/rtthread_libraries/src/kservice.c:963 (discriminator 1)
    2dea:	02500793          	li	a5,37
    2dee:	00f98023          	sb	a5,0(s3)
F:\SCHOOL\文件\智能车\全向组\RTTThreadCH32V103\camCoreWithRTOS\obj/../Libraries/rtthread_libraries/src/kservice.c:964
            ++ str;
    2df2:	0985                	addi	s3,s3,1
F:\SCHOOL\文件\智能车\全向组\RTTThreadCH32V103\camCoreWithRTOS\obj/../Libraries/rtthread_libraries/src/kservice.c:965
            continue;
    2df4:	bb91                	j	2b48 <rt_vsnprintf+0x54>
F:\SCHOOL\文件\智能车\全向组\RTTThreadCH32V103\camCoreWithRTOS\obj/../Libraries/rtthread_libraries/src/kservice.c:973
            flags |= LARGE; // @suppress("No break at end of case")
    2df6:	0404e493          	ori	s1,s1,64
F:\SCHOOL\文件\智能车\全向组\RTTThreadCH32V103\camCoreWithRTOS\obj/../Libraries/rtthread_libraries/src/kservice.c:975
            base = 16;
    2dfa:	46c1                	li	a3,16
    2dfc:	a825                	j	2e34 <rt_vsnprintf+0x340>
F:\SCHOOL\文件\智能车\全向组\RTTThreadCH32V103\camCoreWithRTOS\obj/../Libraries/rtthread_libraries/src/kservice.c:980
            flags |= SIGN; // @suppress("No break at end of case")
    2dfe:	0024e493          	ori	s1,s1,2
F:\SCHOOL\文件\智能车\全向组\RTTThreadCH32V103\camCoreWithRTOS\obj/../Libraries/rtthread_libraries/src/kservice.c:886
        base = 10;
    2e02:	46a9                	li	a3,10
    2e04:	a805                	j	2e34 <rt_vsnprintf+0x340>
F:\SCHOOL\文件\智能车\全向组\RTTThreadCH32V103\camCoreWithRTOS\obj/../Libraries/rtthread_libraries/src/kservice.c:985
            if (str < end) *str = '%';
    2e06:	0159f663          	bgeu	s3,s5,2e12 <rt_vsnprintf+0x31e>
F:\SCHOOL\文件\智能车\全向组\RTTThreadCH32V103\camCoreWithRTOS\obj/../Libraries/rtthread_libraries/src/kservice.c:985 (discriminator 1)
    2e0a:	02500793          	li	a5,37
    2e0e:	00f98023          	sb	a5,0(s3)
F:\SCHOOL\文件\智能车\全向组\RTTThreadCH32V103\camCoreWithRTOS\obj/../Libraries/rtthread_libraries/src/kservice.c:986
            ++ str;
    2e12:	00198713          	addi	a4,s3,1
F:\SCHOOL\文件\智能车\全向组\RTTThreadCH32V103\camCoreWithRTOS\obj/../Libraries/rtthread_libraries/src/kservice.c:988
            if (*fmt)
    2e16:	00040783          	lb	a5,0(s0)
    2e1a:	c799                	beqz	a5,2e28 <rt_vsnprintf+0x334>
F:\SCHOOL\文件\智能车\全向组\RTTThreadCH32V103\camCoreWithRTOS\obj/../Libraries/rtthread_libraries/src/kservice.c:990
                if (str < end) *str = *fmt;
    2e1c:	01577463          	bgeu	a4,s5,2e24 <rt_vsnprintf+0x330>
F:\SCHOOL\文件\智能车\全向组\RTTThreadCH32V103\camCoreWithRTOS\obj/../Libraries/rtthread_libraries/src/kservice.c:990 (discriminator 1)
    2e20:	00f980a3          	sb	a5,1(s3)
F:\SCHOOL\文件\智能车\全向组\RTTThreadCH32V103\camCoreWithRTOS\obj/../Libraries/rtthread_libraries/src/kservice.c:991
                ++ str;
    2e24:	0989                	addi	s3,s3,2
    2e26:	b30d                	j	2b48 <rt_vsnprintf+0x54>
F:\SCHOOL\文件\智能车\全向组\RTTThreadCH32V103\camCoreWithRTOS\obj/../Libraries/rtthread_libraries/src/kservice.c:995
                -- fmt;
    2e28:	147d                	addi	s0,s0,-1
F:\SCHOOL\文件\智能车\全向组\RTTThreadCH32V103\camCoreWithRTOS\obj/../Libraries/rtthread_libraries/src/kservice.c:986
            ++ str;
    2e2a:	89ba                	mv	s3,a4
    2e2c:	bb31                	j	2b48 <rt_vsnprintf+0x54>
F:\SCHOOL\文件\智能车\全向组\RTTThreadCH32V103\camCoreWithRTOS\obj/../Libraries/rtthread_libraries/src/kservice.c:886
        base = 10;
    2e2e:	46a9                	li	a3,10
    2e30:	a011                	j	2e34 <rt_vsnprintf+0x340>
F:\SCHOOL\文件\智能车\全向组\RTTThreadCH32V103\camCoreWithRTOS\obj/../Libraries/rtthread_libraries/src/kservice.c:969
            base = 8;
    2e32:	46a1                	li	a3,8
F:\SCHOOL\文件\智能车\全向组\RTTThreadCH32V103\camCoreWithRTOS\obj/../Libraries/rtthread_libraries/src/kservice.c:1004
        if (qualifier == 'l')
    2e34:	06c00793          	li	a5,108
    2e38:	02f70263          	beq	a4,a5,2e5c <rt_vsnprintf+0x368>
F:\SCHOOL\文件\智能车\全向组\RTTThreadCH32V103\camCoreWithRTOS\obj/../Libraries/rtthread_libraries/src/kservice.c:1010
        else if (qualifier == 'h')
    2e3c:	06800793          	li	a5,104
    2e40:	02f70263          	beq	a4,a5,2e64 <rt_vsnprintf+0x370>
F:\SCHOOL\文件\智能车\全向组\RTTThreadCH32V103\camCoreWithRTOS\obj/../Libraries/rtthread_libraries/src/kservice.c:1017
            if (flags & SIGN) num = (rt_int16_t)num;
        }
        else
        {
            num = va_arg(args, rt_uint32_t);
    2e44:	000c2603          	lw	a2,0(s8)
    2e48:	0c11                	addi	s8,s8,4
F:\SCHOOL\文件\智能车\全向组\RTTThreadCH32V103\camCoreWithRTOS\obj/../Libraries/rtthread_libraries/src/kservice.c:1021
            if (flags & SIGN) num = (rt_int32_t)num;
        }
#ifdef RT_PRINTF_PRECISION
        str = print_number(str, end, num, base, field_width, precision, flags);
    2e4a:	8826                	mv	a6,s1
    2e4c:	87da                	mv	a5,s6
    2e4e:	8752                	mv	a4,s4
    2e50:	85d6                	mv	a1,s5
    2e52:	854e                	mv	a0,s3
    2e54:	9d3ff0ef          	jal	ra,2826 <print_number>
    2e58:	89aa                	mv	s3,a0
    2e5a:	b1fd                	j	2b48 <rt_vsnprintf+0x54>
F:\SCHOOL\文件\智能车\全向组\RTTThreadCH32V103\camCoreWithRTOS\obj/../Libraries/rtthread_libraries/src/kservice.c:1007
            num = va_arg(args, rt_uint32_t);
    2e5c:	000c2603          	lw	a2,0(s8)
    2e60:	0c11                	addi	s8,s8,4
    2e62:	b7e5                	j	2e4a <rt_vsnprintf+0x356>
F:\SCHOOL\文件\智能车\全向组\RTTThreadCH32V103\camCoreWithRTOS\obj/../Libraries/rtthread_libraries/src/kservice.c:1012
            num = (rt_uint16_t)va_arg(args, rt_int32_t);
    2e64:	004c0793          	addi	a5,s8,4
    2e68:	000c2603          	lw	a2,0(s8)
F:\SCHOOL\文件\智能车\全向组\RTTThreadCH32V103\camCoreWithRTOS\obj/../Libraries/rtthread_libraries/src/kservice.c:1013
            if (flags & SIGN) num = (rt_int16_t)num;
    2e6c:	0024f713          	andi	a4,s1,2
    2e70:	e709                	bnez	a4,2e7a <rt_vsnprintf+0x386>
F:\SCHOOL\文件\智能车\全向组\RTTThreadCH32V103\camCoreWithRTOS\obj/../Libraries/rtthread_libraries/src/kservice.c:1012
            num = (rt_uint16_t)va_arg(args, rt_int32_t);
    2e72:	4722                	lw	a4,8(sp)
    2e74:	8e79                	and	a2,a2,a4
    2e76:	8c3e                	mv	s8,a5
    2e78:	bfc9                	j	2e4a <rt_vsnprintf+0x356>
F:\SCHOOL\文件\智能车\全向组\RTTThreadCH32V103\camCoreWithRTOS\obj/../Libraries/rtthread_libraries/src/kservice.c:1013 (discriminator 1)
            if (flags & SIGN) num = (rt_int16_t)num;
    2e7a:	0642                	slli	a2,a2,0x10
    2e7c:	8641                	srai	a2,a2,0x10
F:\SCHOOL\文件\智能车\全向组\RTTThreadCH32V103\camCoreWithRTOS\obj/../Libraries/rtthread_libraries/src/kservice.c:1012 (discriminator 1)
            num = (rt_uint16_t)va_arg(args, rt_int32_t);
    2e7e:	8c3e                	mv	s8,a5
    2e80:	b7e9                	j	2e4a <rt_vsnprintf+0x356>
F:\SCHOOL\文件\智能车\全向组\RTTThreadCH32V103\camCoreWithRTOS\obj/../Libraries/rtthread_libraries/src/kservice.c:901
            c = (rt_uint8_t)va_arg(args, int);
    2e82:	8c36                	mv	s8,a3
F:\SCHOOL\文件\智能车\全向组\RTTThreadCH32V103\camCoreWithRTOS\obj/../Libraries/rtthread_libraries/src/kservice.c:903
            ++ str;
    2e84:	89be                	mv	s3,a5
    2e86:	b1c9                	j	2b48 <rt_vsnprintf+0x54>
F:\SCHOOL\文件\智能车\全向组\RTTThreadCH32V103\camCoreWithRTOS\obj/../Libraries/rtthread_libraries/src/kservice.c:914
            s = va_arg(args, char *);
    2e88:	4c32                	lw	s8,12(sp)
F:\SCHOOL\文件\智能车\全向组\RTTThreadCH32V103\camCoreWithRTOS\obj/../Libraries/rtthread_libraries/src/kservice.c:938
            while (len < field_width--)
    2e8a:	89be                	mv	s3,a5
    2e8c:	b975                	j	2b48 <rt_vsnprintf+0x54>
F:\SCHOOL\文件\智能车\全向组\RTTThreadCH32V103\camCoreWithRTOS\obj/../Libraries/rtthread_libraries/src/kservice.c:1027
#else
        str = print_number(str, end, num, base, field_width, flags);
#endif
    }

    if (size > 0)
    2e8e:	000d0663          	beqz	s10,2e9a <rt_vsnprintf+0x3a6>
F:\SCHOOL\文件\智能车\全向组\RTTThreadCH32V103\camCoreWithRTOS\obj/../Libraries/rtthread_libraries/src/kservice.c:1029
    {
        if (str < end) *str = '\0';
    2e92:	0359f563          	bgeu	s3,s5,2ebc <rt_vsnprintf+0x3c8>
F:\SCHOOL\文件\智能车\全向组\RTTThreadCH32V103\camCoreWithRTOS\obj/../Libraries/rtthread_libraries/src/kservice.c:1029 (discriminator 1)
    2e96:	00098023          	sb	zero,0(s3)
F:\SCHOOL\文件\智能车\全向组\RTTThreadCH32V103\camCoreWithRTOS\obj/../Libraries/rtthread_libraries/src/kservice.c:1040

    /* the trailing null byte doesn't count towards the total
    * ++str;
    */
    return str - buf;
}
    2e9a:	41998533          	sub	a0,s3,s9
    2e9e:	40b6                	lw	ra,76(sp)
    2ea0:	4426                	lw	s0,72(sp)
    2ea2:	4496                	lw	s1,68(sp)
    2ea4:	4906                	lw	s2,64(sp)
    2ea6:	59f2                	lw	s3,60(sp)
    2ea8:	5a62                	lw	s4,56(sp)
    2eaa:	5ad2                	lw	s5,52(sp)
    2eac:	5b42                	lw	s6,48(sp)
    2eae:	5bb2                	lw	s7,44(sp)
    2eb0:	5c22                	lw	s8,40(sp)
    2eb2:	5c92                	lw	s9,36(sp)
    2eb4:	5d02                	lw	s10,32(sp)
    2eb6:	4df2                	lw	s11,28(sp)
    2eb8:	6161                	addi	sp,sp,80
    2eba:	8082                	ret
F:\SCHOOL\文件\智能车\全向组\RTTThreadCH32V103\camCoreWithRTOS\obj/../Libraries/rtthread_libraries/src/kservice.c:1032
            end[-1] = '\0';
    2ebc:	fe0a8fa3          	sb	zero,-1(s5)
    2ec0:	bfe9                	j	2e9a <rt_vsnprintf+0x3a6>

00002ec2 <rt_kprintf>:
rt_kprintf():
F:\SCHOOL\文件\智能车\全向组\RTTThreadCH32V103\camCoreWithRTOS\obj/../Libraries/rtthread_libraries/src/kservice.c:1184
 * This function will print a formatted string on system console
 *
 * @param fmt the format
 */
void rt_kprintf(const char *fmt, ...)
{
    2ec2:	7139                	addi	sp,sp,-64
    2ec4:	ce06                	sw	ra,28(sp)
    2ec6:	cc22                	sw	s0,24(sp)
    2ec8:	d22e                	sw	a1,36(sp)
    2eca:	d432                	sw	a2,40(sp)
    2ecc:	d636                	sw	a3,44(sp)
    2ece:	d83a                	sw	a4,48(sp)
    2ed0:	da3e                	sw	a5,52(sp)
    2ed2:	dc42                	sw	a6,56(sp)
    2ed4:	de46                	sw	a7,60(sp)
F:\SCHOOL\文件\智能车\全向组\RTTThreadCH32V103\camCoreWithRTOS\obj/../Libraries/rtthread_libraries/src/kservice.c:1189
    va_list args;
    rt_size_t length;
    static char rt_log_buf[RT_CONSOLEBUF_SIZE];

    va_start(args, fmt);
    2ed6:	1054                	addi	a3,sp,36
    2ed8:	c636                	sw	a3,12(sp)
F:\SCHOOL\文件\智能车\全向组\RTTThreadCH32V103\camCoreWithRTOS\obj/../Libraries/rtthread_libraries/src/kservice.c:1195
    /* the return value of vsnprintf is the number of bytes that would be
     * written to buffer had if the size of the buffer been sufficiently
     * large excluding the terminating null byte. If the output string
     * would be larger than the rt_log_buf, we have to adjust the output
     * length. */
    length = rt_vsnprintf(rt_log_buf, sizeof(rt_log_buf) - 1, fmt, args);
    2eda:	862a                	mv	a2,a0
    2edc:	07f00593          	li	a1,127
    2ee0:	c4c18513          	addi	a0,gp,-948 # 200004fc <rt_log_buf.2341>
    2ee4:	c11ff0ef          	jal	ra,2af4 <rt_vsnprintf>
F:\SCHOOL\文件\智能车\全向组\RTTThreadCH32V103\camCoreWithRTOS\obj/../Libraries/rtthread_libraries/src/kservice.c:1212
        _console_device->open_flag |= RT_DEVICE_FLAG_STREAM;
        rt_device_write(_console_device, 0, rt_log_buf, length);
        _console_device->open_flag = old_flag;
    }
#else
    rt_hw_console_output(rt_log_buf);
    2ee8:	c4c18513          	addi	a0,gp,-948 # 200004fc <rt_log_buf.2341>
    2eec:	61f010ef          	jal	ra,4d0a <rt_hw_console_output>
F:\SCHOOL\文件\智能车\全向组\RTTThreadCH32V103\camCoreWithRTOS\obj/../Libraries/rtthread_libraries/src/kservice.c:1215
#endif
    va_end(args);
}
    2ef0:	40f2                	lw	ra,28(sp)
    2ef2:	4462                	lw	s0,24(sp)
    2ef4:	6121                	addi	sp,sp,64
    2ef6:	8082                	ret

00002ef8 <rt_show_version>:
rt_show_version():
F:\SCHOOL\文件\智能车\全向组\RTTThreadCH32V103\camCoreWithRTOS\obj/../Libraries/rtthread_libraries/src/kservice.c:536
{
    2ef8:	1141                	addi	sp,sp,-16
    2efa:	c606                	sw	ra,12(sp)
F:\SCHOOL\文件\智能车\全向组\RTTThreadCH32V103\camCoreWithRTOS\obj/../Libraries/rtthread_libraries/src/kservice.c:537
    rt_kprintf("\n \\ | /\n");
    2efc:	00007537          	lui	a0,0x7
    2f00:	df850513          	addi	a0,a0,-520 # 6df8 <large_digits.2240+0x14>
    2f04:	3f7d                	jal	2ec2 <rt_kprintf>
F:\SCHOOL\文件\智能车\全向组\RTTThreadCH32V103\camCoreWithRTOS\obj/../Libraries/rtthread_libraries/src/kservice.c:538
    rt_kprintf("- RT -     Thread Operating System\n");
    2f06:	00007537          	lui	a0,0x7
    2f0a:	e0450513          	addi	a0,a0,-508 # 6e04 <large_digits.2240+0x20>
    2f0e:	3f55                	jal	2ec2 <rt_kprintf>
F:\SCHOOL\文件\智能车\全向组\RTTThreadCH32V103\camCoreWithRTOS\obj/../Libraries/rtthread_libraries/src/kservice.c:539
    rt_kprintf(" / | \\     %d.%d.%d build %s\n",
    2f10:	00007737          	lui	a4,0x7
    2f14:	e2870713          	addi	a4,a4,-472 # 6e28 <large_digits.2240+0x44>
    2f18:	468d                	li	a3,3
    2f1a:	4605                	li	a2,1
    2f1c:	458d                	li	a1,3
    2f1e:	00007537          	lui	a0,0x7
    2f22:	e3450513          	addi	a0,a0,-460 # 6e34 <large_digits.2240+0x50>
    2f26:	3f71                	jal	2ec2 <rt_kprintf>
F:\SCHOOL\文件\智能车\全向组\RTTThreadCH32V103\camCoreWithRTOS\obj/../Libraries/rtthread_libraries/src/kservice.c:541
    rt_kprintf(" 2006 - 2019 Copyright by rt-thread team\n");
    2f28:	00007537          	lui	a0,0x7
    2f2c:	e5450513          	addi	a0,a0,-428 # 6e54 <large_digits.2240+0x70>
    2f30:	3f49                	jal	2ec2 <rt_kprintf>
F:\SCHOOL\文件\智能车\全向组\RTTThreadCH32V103\camCoreWithRTOS\obj/../Libraries/rtthread_libraries/src/kservice.c:542
}
    2f32:	40b2                	lw	ra,12(sp)
    2f34:	0141                	addi	sp,sp,16
    2f36:	8082                	ret

00002f38 <__rt_ffs>:
__rt_ffs():
F:\SCHOOL\文件\智能车\全向组\RTTThreadCH32V103\camCoreWithRTOS\obj/../Libraries/rtthread_libraries/src/kservice.c:1313
 * @return return the index of the first bit set. If value is 0, then this function
 * shall return 0.
 */
int __rt_ffs(int value)
{
    if (value == 0) return 0;
    2f38:	c50d                	beqz	a0,2f62 <__rt_ffs+0x2a>
F:\SCHOOL\文件\智能车\全向组\RTTThreadCH32V103\camCoreWithRTOS\obj/../Libraries/rtthread_libraries/src/kservice.c:1315

    if (value & 0xff)
    2f3a:	0ff57793          	andi	a5,a0,255
    2f3e:	e39d                	bnez	a5,2f64 <__rt_ffs+0x2c>
F:\SCHOOL\文件\智能车\全向组\RTTThreadCH32V103\camCoreWithRTOS\obj/../Libraries/rtthread_libraries/src/kservice.c:1318
        return __lowest_bit_bitmap[value & 0xff] + 1;

    if (value & 0xff00)
    2f40:	67c1                	lui	a5,0x10
    2f42:	f0078793          	addi	a5,a5,-256 # ff00 <_data_lma+0x89b8>
    2f46:	8fe9                	and	a5,a5,a0
    2f48:	e795                	bnez	a5,2f74 <__rt_ffs+0x3c>
F:\SCHOOL\文件\智能车\全向组\RTTThreadCH32V103\camCoreWithRTOS\obj/../Libraries/rtthread_libraries/src/kservice.c:1321
        return __lowest_bit_bitmap[(value & 0xff00) >> 8] + 9;

    if (value & 0xff0000)
    2f4a:	00ff07b7          	lui	a5,0xff0
    2f4e:	8fe9                	and	a5,a5,a0
    2f50:	ef8d                	bnez	a5,2f8a <__rt_ffs+0x52>
F:\SCHOOL\文件\智能车\全向组\RTTThreadCH32V103\camCoreWithRTOS\obj/../Libraries/rtthread_libraries/src/kservice.c:1324
        return __lowest_bit_bitmap[(value & 0xff0000) >> 16] + 17;

    return __lowest_bit_bitmap[(value & 0xff000000) >> 24] + 25;
    2f52:	8161                	srli	a0,a0,0x18
    2f54:	679d                	lui	a5,0x7
    2f56:	ce478793          	addi	a5,a5,-796 # 6ce4 <__lowest_bit_bitmap>
    2f5a:	953e                	add	a0,a0,a5
    2f5c:	00054503          	lbu	a0,0(a0)
    2f60:	0565                	addi	a0,a0,25
F:\SCHOOL\文件\智能车\全向组\RTTThreadCH32V103\camCoreWithRTOS\obj/../Libraries/rtthread_libraries/src/kservice.c:1325
}
    2f62:	8082                	ret
F:\SCHOOL\文件\智能车\全向组\RTTThreadCH32V103\camCoreWithRTOS\obj/../Libraries/rtthread_libraries/src/kservice.c:1316
        return __lowest_bit_bitmap[value & 0xff] + 1;
    2f64:	671d                	lui	a4,0x7
    2f66:	ce470713          	addi	a4,a4,-796 # 6ce4 <__lowest_bit_bitmap>
    2f6a:	97ba                	add	a5,a5,a4
    2f6c:	0007c503          	lbu	a0,0(a5)
    2f70:	0505                	addi	a0,a0,1
    2f72:	8082                	ret
F:\SCHOOL\文件\智能车\全向组\RTTThreadCH32V103\camCoreWithRTOS\obj/../Libraries/rtthread_libraries/src/kservice.c:1319
        return __lowest_bit_bitmap[(value & 0xff00) >> 8] + 9;
    2f74:	8521                	srai	a0,a0,0x8
    2f76:	0ff57513          	andi	a0,a0,255
    2f7a:	679d                	lui	a5,0x7
    2f7c:	ce478793          	addi	a5,a5,-796 # 6ce4 <__lowest_bit_bitmap>
    2f80:	953e                	add	a0,a0,a5
    2f82:	00054503          	lbu	a0,0(a0)
    2f86:	0525                	addi	a0,a0,9
    2f88:	8082                	ret
F:\SCHOOL\文件\智能车\全向组\RTTThreadCH32V103\camCoreWithRTOS\obj/../Libraries/rtthread_libraries/src/kservice.c:1322
        return __lowest_bit_bitmap[(value & 0xff0000) >> 16] + 17;
    2f8a:	8541                	srai	a0,a0,0x10
    2f8c:	0ff57513          	andi	a0,a0,255
    2f90:	679d                	lui	a5,0x7
    2f92:	ce478793          	addi	a5,a5,-796 # 6ce4 <__lowest_bit_bitmap>
    2f96:	953e                	add	a0,a0,a5
    2f98:	00054503          	lbu	a0,0(a0)
    2f9c:	0545                	addi	a0,a0,17
    2f9e:	8082                	ret

00002fa0 <plug_holes>:
plug_holes():
F:\SCHOOL\文件\智能车\全向组\RTTThreadCH32V103\camCoreWithRTOS\obj/../Libraries/rtthread_libraries/src/mem.c:153
    RT_ASSERT((rt_uint8_t *)mem >= heap_ptr);
    RT_ASSERT((rt_uint8_t *)mem < (rt_uint8_t *)heap_end);
    RT_ASSERT(mem->used == 0);

    /* plug hole forward */
    nmem = (struct heap_mem *)&heap_ptr[mem->next];
    2fa0:	8581a703          	lw	a4,-1960(gp) # 20000108 <heap_ptr>
    2fa4:	415c                	lw	a5,4(a0)
    2fa6:	97ba                	add	a5,a5,a4
F:\SCHOOL\文件\智能车\全向组\RTTThreadCH32V103\camCoreWithRTOS\obj/../Libraries/rtthread_libraries/src/mem.c:154
    if (mem != nmem &&
    2fa8:	02f50463          	beq	a0,a5,2fd0 <plug_holes+0x30>
F:\SCHOOL\文件\智能车\全向组\RTTThreadCH32V103\camCoreWithRTOS\obj/../Libraries/rtthread_libraries/src/mem.c:154 (discriminator 1)
    2fac:	0027d683          	lhu	a3,2(a5)
    2fb0:	e285                	bnez	a3,2fd0 <plug_holes+0x30>
F:\SCHOOL\文件\智能车\全向组\RTTThreadCH32V103\camCoreWithRTOS\obj/../Libraries/rtthread_libraries/src/mem.c:155
        nmem->used == 0 &&
    2fb2:	8541a683          	lw	a3,-1964(gp) # 20000104 <heap_end>
    2fb6:	00f68d63          	beq	a3,a5,2fd0 <plug_holes+0x30>
F:\SCHOOL\文件\智能车\全向组\RTTThreadCH32V103\camCoreWithRTOS\obj/../Libraries/rtthread_libraries/src/mem.c:161
        (rt_uint8_t *)nmem != (rt_uint8_t *)heap_end)
    {
        /* if mem->next is unused and not end of heap_ptr,
         * combine mem and mem->next
         */
        if (lfree == nmem)
    2fba:	85c1a683          	lw	a3,-1956(gp) # 2000010c <lfree>
    2fbe:	02f68b63          	beq	a3,a5,2ff4 <plug_holes+0x54>
F:\SCHOOL\文件\智能车\全向组\RTTThreadCH32V103\camCoreWithRTOS\obj/../Libraries/rtthread_libraries/src/mem.c:165
        {
            lfree = mem;
        }
        mem->next = nmem->next;
    2fc2:	43d4                	lw	a3,4(a5)
    2fc4:	c154                	sw	a3,4(a0)
F:\SCHOOL\文件\智能车\全向组\RTTThreadCH32V103\camCoreWithRTOS\obj/../Libraries/rtthread_libraries/src/mem.c:166
        ((struct heap_mem *)&heap_ptr[nmem->next])->prev = (rt_uint8_t *)mem - heap_ptr;
    2fc6:	43dc                	lw	a5,4(a5)
    2fc8:	97ba                	add	a5,a5,a4
    2fca:	40e506b3          	sub	a3,a0,a4
    2fce:	c794                	sw	a3,8(a5)
F:\SCHOOL\文件\智能车\全向组\RTTThreadCH32V103\camCoreWithRTOS\obj/../Libraries/rtthread_libraries/src/mem.c:170
    }

    /* plug hole backward */
    pmem = (struct heap_mem *)&heap_ptr[mem->prev];
    2fd0:	4514                	lw	a3,8(a0)
    2fd2:	00d707b3          	add	a5,a4,a3
F:\SCHOOL\文件\智能车\全向组\RTTThreadCH32V103\camCoreWithRTOS\obj/../Libraries/rtthread_libraries/src/mem.c:171
    if (pmem != mem && pmem->used == 0)
    2fd6:	00f50e63          	beq	a0,a5,2ff2 <plug_holes+0x52>
F:\SCHOOL\文件\智能车\全向组\RTTThreadCH32V103\camCoreWithRTOS\obj/../Libraries/rtthread_libraries/src/mem.c:171 (discriminator 1)
    2fda:	0027d603          	lhu	a2,2(a5)
    2fde:	ea11                	bnez	a2,2ff2 <plug_holes+0x52>
F:\SCHOOL\文件\智能车\全向组\RTTThreadCH32V103\camCoreWithRTOS\obj/../Libraries/rtthread_libraries/src/mem.c:174
    {
        /* if mem->prev is unused, combine mem and mem->prev */
        if (lfree == mem)
    2fe0:	85c1a603          	lw	a2,-1956(gp) # 2000010c <lfree>
    2fe4:	00a60b63          	beq	a2,a0,2ffa <plug_holes+0x5a>
F:\SCHOOL\文件\智能车\全向组\RTTThreadCH32V103\camCoreWithRTOS\obj/../Libraries/rtthread_libraries/src/mem.c:178
        {
            lfree = pmem;
        }
        pmem->next = mem->next;
    2fe8:	4150                	lw	a2,4(a0)
    2fea:	c3d0                	sw	a2,4(a5)
F:\SCHOOL\文件\智能车\全向组\RTTThreadCH32V103\camCoreWithRTOS\obj/../Libraries/rtthread_libraries/src/mem.c:179
        ((struct heap_mem *)&heap_ptr[mem->next])->prev = (rt_uint8_t *)pmem - heap_ptr;
    2fec:	415c                	lw	a5,4(a0)
    2fee:	973e                	add	a4,a4,a5
    2ff0:	c714                	sw	a3,8(a4)
F:\SCHOOL\文件\智能车\全向组\RTTThreadCH32V103\camCoreWithRTOS\obj/../Libraries/rtthread_libraries/src/mem.c:181
    }
}
    2ff2:	8082                	ret
F:\SCHOOL\文件\智能车\全向组\RTTThreadCH32V103\camCoreWithRTOS\obj/../Libraries/rtthread_libraries/src/mem.c:163
            lfree = mem;
    2ff4:	84a1ae23          	sw	a0,-1956(gp) # 2000010c <lfree>
    2ff8:	b7e9                	j	2fc2 <plug_holes+0x22>
F:\SCHOOL\文件\智能车\全向组\RTTThreadCH32V103\camCoreWithRTOS\obj/../Libraries/rtthread_libraries/src/mem.c:176
            lfree = pmem;
    2ffa:	84f1ae23          	sw	a5,-1956(gp) # 2000010c <lfree>
    2ffe:	b7ed                	j	2fe8 <plug_holes+0x48>

00003000 <list_mem>:
list_mem():
F:\SCHOOL\文件\智能车\全向组\RTTThreadCH32V103\camCoreWithRTOS\obj/../Libraries/rtthread_libraries/src/mem.c:616

#ifdef RT_USING_FINSH
#include <finsh.h>

void list_mem(void)
{
    3000:	1141                	addi	sp,sp,-16
    3002:	c606                	sw	ra,12(sp)
F:\SCHOOL\文件\智能车\全向组\RTTThreadCH32V103\camCoreWithRTOS\obj/../Libraries/rtthread_libraries/src/mem.c:617
    rt_kprintf("total memory: %d\n", mem_size_aligned);
    3004:	8641a583          	lw	a1,-1948(gp) # 20000114 <mem_size_aligned>
    3008:	00007537          	lui	a0,0x7
    300c:	ea850513          	addi	a0,a0,-344 # 6ea8 <__fsym_list_mem_name+0xc>
    3010:	3d4d                	jal	2ec2 <rt_kprintf>
F:\SCHOOL\文件\智能车\全向组\RTTThreadCH32V103\camCoreWithRTOS\obj/../Libraries/rtthread_libraries/src/mem.c:618
    rt_kprintf("used memory : %d\n", used_mem);
    3012:	8681a583          	lw	a1,-1944(gp) # 20000118 <used_mem>
    3016:	00007537          	lui	a0,0x7
    301a:	ebc50513          	addi	a0,a0,-324 # 6ebc <__fsym_list_mem_name+0x20>
    301e:	ea5ff0ef          	jal	ra,2ec2 <rt_kprintf>
F:\SCHOOL\文件\智能车\全向组\RTTThreadCH32V103\camCoreWithRTOS\obj/../Libraries/rtthread_libraries/src/mem.c:619
    rt_kprintf("maximum allocated memory: %d\n", max_mem);
    3022:	8601a583          	lw	a1,-1952(gp) # 20000110 <max_mem>
    3026:	00007537          	lui	a0,0x7
    302a:	ed050513          	addi	a0,a0,-304 # 6ed0 <__fsym_list_mem_name+0x34>
    302e:	e95ff0ef          	jal	ra,2ec2 <rt_kprintf>
F:\SCHOOL\文件\智能车\全向组\RTTThreadCH32V103\camCoreWithRTOS\obj/../Libraries/rtthread_libraries/src/mem.c:620
}
    3032:	40b2                	lw	ra,12(sp)
    3034:	0141                	addi	sp,sp,16
    3036:	8082                	ret

00003038 <rt_system_heap_init>:
rt_system_heap_init():
F:\SCHOOL\文件\智能车\全向组\RTTThreadCH32V103\camCoreWithRTOS\obj/../Libraries/rtthread_libraries/src/mem.c:192
{
    3038:	1141                	addi	sp,sp,-16
    303a:	c606                	sw	ra,12(sp)
    303c:	c422                	sw	s0,8(sp)
F:\SCHOOL\文件\智能车\全向组\RTTThreadCH32V103\camCoreWithRTOS\obj/../Libraries/rtthread_libraries/src/mem.c:195
    rt_uint32_t end_align = RT_ALIGN_DOWN((rt_uint32_t)end_addr, RT_ALIGN_SIZE);
    303e:	ffc5f713          	andi	a4,a1,-4
F:\SCHOOL\文件\智能车\全向组\RTTThreadCH32V103\camCoreWithRTOS\obj/../Libraries/rtthread_libraries/src/mem.c:200
    if ((end_align > (2 * SIZEOF_STRUCT_MEM)) &&
    3042:	46e1                	li	a3,24
    3044:	00e6f963          	bgeu	a3,a4,3056 <rt_system_heap_init+0x1e>
    3048:	00350793          	addi	a5,a0,3
    304c:	9bf1                	andi	a5,a5,-4
F:\SCHOOL\文件\智能车\全向组\RTTThreadCH32V103\camCoreWithRTOS\obj/../Libraries/rtthread_libraries/src/mem.c:201 (discriminator 1)
        ((end_align - 2 * SIZEOF_STRUCT_MEM) >= begin_align))
    304e:	fe870693          	addi	a3,a4,-24
F:\SCHOOL\文件\智能车\全向组\RTTThreadCH32V103\camCoreWithRTOS\obj/../Libraries/rtthread_libraries/src/mem.c:200 (discriminator 1)
    if ((end_align > (2 * SIZEOF_STRUCT_MEM)) &&
    3052:	00f6fe63          	bgeu	a3,a5,306e <rt_system_heap_init+0x36>
F:\SCHOOL\文件\智能车\全向组\RTTThreadCH32V103\camCoreWithRTOS\obj/../Libraries/rtthread_libraries/src/mem.c:208
        rt_kprintf("mem init, error begin address 0x%x, and end address 0x%x\n",
    3056:	862e                	mv	a2,a1
    3058:	85aa                	mv	a1,a0
    305a:	00007537          	lui	a0,0x7
    305e:	f4450513          	addi	a0,a0,-188 # 6f44 <__fsym_list_mem_name+0xa8>
    3062:	e61ff0ef          	jal	ra,2ec2 <rt_kprintf>
F:\SCHOOL\文件\智能车\全向组\RTTThreadCH32V103\camCoreWithRTOS\obj/../Libraries/rtthread_libraries/src/mem.c:244
}
    3066:	40b2                	lw	ra,12(sp)
    3068:	4422                	lw	s0,8(sp)
    306a:	0141                	addi	sp,sp,16
    306c:	8082                	ret
F:\SCHOOL\文件\智能车\全向组\RTTThreadCH32V103\camCoreWithRTOS\obj/../Libraries/rtthread_libraries/src/mem.c:204
        mem_size_aligned = end_align - begin_align - 2 * SIZEOF_STRUCT_MEM;
    306e:	8f1d                	sub	a4,a4,a5
    3070:	fe870613          	addi	a2,a4,-24
    3074:	86c1a223          	sw	a2,-1948(gp) # 20000114 <mem_size_aligned>
F:\SCHOOL\文件\智能车\全向组\RTTThreadCH32V103\camCoreWithRTOS\obj/../Libraries/rtthread_libraries/src/mem.c:215
    heap_ptr = (rt_uint8_t *)begin_align;
    3078:	85818413          	addi	s0,gp,-1960 # 20000108 <heap_ptr>
    307c:	c01c                	sw	a5,0(s0)
F:\SCHOOL\文件\智能车\全向组\RTTThreadCH32V103\camCoreWithRTOS\obj/../Libraries/rtthread_libraries/src/mem.c:222
    mem->magic = HEAP_MAGIC;
    307e:	6689                	lui	a3,0x2
    3080:	ea068693          	addi	a3,a3,-352 # 1ea0 <uart_gpio_init+0xa0>
    3084:	00d79023          	sh	a3,0(a5)
F:\SCHOOL\文件\智能车\全向组\RTTThreadCH32V103\camCoreWithRTOS\obj/../Libraries/rtthread_libraries/src/mem.c:223
    mem->next  = mem_size_aligned + SIZEOF_STRUCT_MEM;
    3088:	1751                	addi	a4,a4,-12
    308a:	c3d8                	sw	a4,4(a5)
F:\SCHOOL\文件\智能车\全向组\RTTThreadCH32V103\camCoreWithRTOS\obj/../Libraries/rtthread_libraries/src/mem.c:224
    mem->prev  = 0;
    308c:	0007a423          	sw	zero,8(a5)
F:\SCHOOL\文件\智能车\全向组\RTTThreadCH32V103\camCoreWithRTOS\obj/../Libraries/rtthread_libraries/src/mem.c:225
    mem->used  = 0;
    3090:	00079123          	sh	zero,2(a5)
F:\SCHOOL\文件\智能车\全向组\RTTThreadCH32V103\camCoreWithRTOS\obj/../Libraries/rtthread_libraries/src/mem.c:231
    heap_end        = (struct heap_mem *)&heap_ptr[mem->next];
    3094:	97ba                	add	a5,a5,a4
    3096:	84f1aa23          	sw	a5,-1964(gp) # 20000104 <heap_end>
F:\SCHOOL\文件\智能车\全向组\RTTThreadCH32V103\camCoreWithRTOS\obj/../Libraries/rtthread_libraries/src/mem.c:232
    heap_end->magic = HEAP_MAGIC;
    309a:	00d79023          	sh	a3,0(a5)
F:\SCHOOL\文件\智能车\全向组\RTTThreadCH32V103\camCoreWithRTOS\obj/../Libraries/rtthread_libraries/src/mem.c:233
    heap_end->used  = 1;
    309e:	4685                	li	a3,1
    30a0:	00d79123          	sh	a3,2(a5)
F:\SCHOOL\文件\智能车\全向组\RTTThreadCH32V103\camCoreWithRTOS\obj/../Libraries/rtthread_libraries/src/mem.c:234
    heap_end->next  = mem_size_aligned + SIZEOF_STRUCT_MEM;
    30a4:	c3d8                	sw	a4,4(a5)
F:\SCHOOL\文件\智能车\全向组\RTTThreadCH32V103\camCoreWithRTOS\obj/../Libraries/rtthread_libraries/src/mem.c:235
    heap_end->prev  = mem_size_aligned + SIZEOF_STRUCT_MEM;
    30a6:	c798                	sw	a4,8(a5)
F:\SCHOOL\文件\智能车\全向组\RTTThreadCH32V103\camCoreWithRTOS\obj/../Libraries/rtthread_libraries/src/mem.c:240
    rt_sem_init(&heap_sem, "heap", 1, RT_IPC_FLAG_FIFO);
    30a8:	4681                	li	a3,0
    30aa:	4605                	li	a2,1
    30ac:	000075b7          	lui	a1,0x7
    30b0:	f3c58593          	addi	a1,a1,-196 # 6f3c <__fsym_list_mem_name+0xa0>
    30b4:	ccc18513          	addi	a0,gp,-820 # 2000057c <heap_sem>
    30b8:	a04ff0ef          	jal	ra,22bc <rt_sem_init>
F:\SCHOOL\文件\智能车\全向组\RTTThreadCH32V103\camCoreWithRTOS\obj/../Libraries/rtthread_libraries/src/mem.c:243
    lfree = (struct heap_mem *)heap_ptr;
    30bc:	4018                	lw	a4,0(s0)
    30be:	84e1ae23          	sw	a4,-1956(gp) # 2000010c <lfree>
    30c2:	b755                	j	3066 <rt_system_heap_init+0x2e>

000030c4 <rt_malloc>:
rt_malloc():
F:\SCHOOL\文件\智能车\全向组\RTTThreadCH32V103\camCoreWithRTOS\obj/../Libraries/rtthread_libraries/src/mem.c:264
    if (size == 0)
    30c4:	12050463          	beqz	a0,31ec <rt_malloc+0x128>
F:\SCHOOL\文件\智能车\全向组\RTTThreadCH32V103\camCoreWithRTOS\obj/../Libraries/rtthread_libraries/src/mem.c:260
{
    30c8:	1141                	addi	sp,sp,-16
    30ca:	c606                	sw	ra,12(sp)
    30cc:	c422                	sw	s0,8(sp)
    30ce:	c226                	sw	s1,4(sp)
F:\SCHOOL\文件\智能车\全向组\RTTThreadCH32V103\camCoreWithRTOS\obj/../Libraries/rtthread_libraries/src/mem.c:269
    if (size != RT_ALIGN(size, RT_ALIGN_SIZE))
    30d0:	00350493          	addi	s1,a0,3
    30d4:	98f1                	andi	s1,s1,-4
F:\SCHOOL\文件\智能车\全向组\RTTThreadCH32V103\camCoreWithRTOS\obj/../Libraries/rtthread_libraries/src/mem.c:278
    if (size > mem_size_aligned)
    30d6:	8641a783          	lw	a5,-1948(gp) # 20000114 <mem_size_aligned>
    30da:	1097eb63          	bltu	a5,s1,31f0 <rt_malloc+0x12c>
F:\SCHOOL\文件\智能车\全向组\RTTThreadCH32V103\camCoreWithRTOS\obj/../Libraries/rtthread_libraries/src/mem.c:286
    if (size < MIN_SIZE_ALIGNED)
    30de:	47b1                	li	a5,12
    30e0:	00f4f363          	bgeu	s1,a5,30e6 <rt_malloc+0x22>
    30e4:	44b1                	li	s1,12
F:\SCHOOL\文件\智能车\全向组\RTTThreadCH32V103\camCoreWithRTOS\obj/../Libraries/rtthread_libraries/src/mem.c:290
    rt_sem_take(&heap_sem, RT_WAITING_FOREVER);
    30e6:	55fd                	li	a1,-1
    30e8:	ccc18513          	addi	a0,gp,-820 # 2000057c <heap_sem>
    30ec:	a06ff0ef          	jal	ra,22f2 <rt_sem_take>
F:\SCHOOL\文件\智能车\全向组\RTTThreadCH32V103\camCoreWithRTOS\obj/../Libraries/rtthread_libraries/src/mem.c:292
    for (ptr = (rt_uint8_t *)lfree - heap_ptr;
    30f0:	85c1a503          	lw	a0,-1956(gp) # 2000010c <lfree>
    30f4:	8581a683          	lw	a3,-1960(gp) # 20000108 <heap_ptr>
    30f8:	40d507b3          	sub	a5,a0,a3
F:\SCHOOL\文件\智能车\全向组\RTTThreadCH32V103\camCoreWithRTOS\obj/../Libraries/rtthread_libraries/src/mem.c:293
         ptr < mem_size_aligned - size;
    30fc:	8641a803          	lw	a6,-1948(gp) # 20000114 <mem_size_aligned>
    3100:	40980633          	sub	a2,a6,s1
F:\SCHOOL\文件\智能车\全向组\RTTThreadCH32V103\camCoreWithRTOS\obj/../Libraries/rtthread_libraries/src/mem.c:292
    for (ptr = (rt_uint8_t *)lfree - heap_ptr;
    3104:	06c7e263          	bltu	a5,a2,3168 <rt_malloc+0xa4>
F:\SCHOOL\文件\智能车\全向组\RTTThreadCH32V103\camCoreWithRTOS\obj/../Libraries/rtthread_libraries/src/mem.c:394
    rt_sem_release(&heap_sem);
    3108:	ccc18513          	addi	a0,gp,-820 # 2000057c <heap_sem>
    310c:	ad0ff0ef          	jal	ra,23dc <rt_sem_release>
F:\SCHOOL\文件\智能车\全向组\RTTThreadCH32V103\camCoreWithRTOS\obj/../Libraries/rtthread_libraries/src/mem.c:396
    return RT_NULL;
    3110:	4501                	li	a0,0
F:\SCHOOL\文件\智能车\全向组\RTTThreadCH32V103\camCoreWithRTOS\obj/../Libraries/rtthread_libraries/src/mem.c:397
}
    3112:	40b2                	lw	ra,12(sp)
    3114:	4422                	lw	s0,8(sp)
    3116:	4492                	lw	s1,4(sp)
    3118:	0141                	addi	sp,sp,16
    311a:	8082                	ret
F:\SCHOOL\文件\智能车\全向组\RTTThreadCH32V103\camCoreWithRTOS\obj/../Libraries/rtthread_libraries/src/mem.c:351
                mem->used = 1;
    311c:	4785                	li	a5,1
    311e:	00f41123          	sh	a5,2(s0)
F:\SCHOOL\文件\智能车\全向组\RTTThreadCH32V103\camCoreWithRTOS\obj/../Libraries/rtthread_libraries/src/mem.c:353
                used_mem += mem->next - ((rt_uint8_t *)mem - heap_ptr);
    3122:	86818793          	addi	a5,gp,-1944 # 20000118 <used_mem>
    3126:	4390                	lw	a2,0(a5)
    3128:	9732                	add	a4,a4,a2
    312a:	c398                	sw	a4,0(a5)
F:\SCHOOL\文件\智能车\全向组\RTTThreadCH32V103\camCoreWithRTOS\obj/../Libraries/rtthread_libraries/src/mem.c:354
                if (max_mem < used_mem)
    312c:	8601a783          	lw	a5,-1952(gp) # 20000110 <max_mem>
    3130:	0ae7f063          	bgeu	a5,a4,31d0 <rt_malloc+0x10c>
F:\SCHOOL\文件\智能车\全向组\RTTThreadCH32V103\camCoreWithRTOS\obj/../Libraries/rtthread_libraries/src/mem.c:355
                    max_mem = used_mem;
    3134:	86e1a023          	sw	a4,-1952(gp) # 20000110 <max_mem>
    3138:	a861                	j	31d0 <rt_malloc+0x10c>
F:\SCHOOL\文件\智能车\全向组\RTTThreadCH32V103\camCoreWithRTOS\obj/../Libraries/rtthread_libraries/src/mem.c:370
                while (lfree->used && lfree != heap_end)
    313a:	00255783          	lhu	a5,2(a0)
    313e:	c3c5                	beqz	a5,31de <rt_malloc+0x11a>
    3140:	8541a703          	lw	a4,-1964(gp) # 20000104 <heap_end>
    3144:	08e50d63          	beq	a0,a4,31de <rt_malloc+0x11a>
F:\SCHOOL\文件\智能车\全向组\RTTThreadCH32V103\camCoreWithRTOS\obj/../Libraries/rtthread_libraries/src/mem.c:371
                    lfree = (struct heap_mem *)&heap_ptr[lfree->next];
    3148:	4148                	lw	a0,4(a0)
    314a:	9536                	add	a0,a0,a3
F:\SCHOOL\文件\智能车\全向组\RTTThreadCH32V103\camCoreWithRTOS\obj/../Libraries/rtthread_libraries/src/mem.c:370
                while (lfree->used && lfree != heap_end)
    314c:	00255783          	lhu	a5,2(a0)
    3150:	c791                	beqz	a5,315c <rt_malloc+0x98>
F:\SCHOOL\文件\智能车\全向组\RTTThreadCH32V103\camCoreWithRTOS\obj/../Libraries/rtthread_libraries/src/mem.c:370 (discriminator 1)
    3152:	fea71be3          	bne	a4,a0,3148 <rt_malloc+0x84>
    3156:	84a1ae23          	sw	a0,-1956(gp) # 2000010c <lfree>
    315a:	a051                	j	31de <rt_malloc+0x11a>
    315c:	84a1ae23          	sw	a0,-1956(gp) # 2000010c <lfree>
    3160:	a8bd                	j	31de <rt_malloc+0x11a>
F:\SCHOOL\文件\智能车\全向组\RTTThreadCH32V103\camCoreWithRTOS\obj/../Libraries/rtthread_libraries/src/mem.c:294
         ptr = ((struct heap_mem *)&heap_ptr[ptr])->next)
    3162:	405c                	lw	a5,4(s0)
F:\SCHOOL\文件\智能车\全向组\RTTThreadCH32V103\camCoreWithRTOS\obj/../Libraries/rtthread_libraries/src/mem.c:292
    for (ptr = (rt_uint8_t *)lfree - heap_ptr;
    3164:	fac7f2e3          	bgeu	a5,a2,3108 <rt_malloc+0x44>
F:\SCHOOL\文件\智能车\全向组\RTTThreadCH32V103\camCoreWithRTOS\obj/../Libraries/rtthread_libraries/src/mem.c:296
        mem = (struct heap_mem *)&heap_ptr[ptr];
    3168:	00f68433          	add	s0,a3,a5
F:\SCHOOL\文件\智能车\全向组\RTTThreadCH32V103\camCoreWithRTOS\obj/../Libraries/rtthread_libraries/src/mem.c:298
        if ((!mem->used) && (mem->next - (ptr + SIZEOF_STRUCT_MEM)) >= size)
    316c:	00245703          	lhu	a4,2(s0)
    3170:	fb6d                	bnez	a4,3162 <rt_malloc+0x9e>
F:\SCHOOL\文件\智能车\全向组\RTTThreadCH32V103\camCoreWithRTOS\obj/../Libraries/rtthread_libraries/src/mem.c:298 (discriminator 1)
    3172:	4058                	lw	a4,4(s0)
    3174:	8f1d                	sub	a4,a4,a5
    3176:	ff470593          	addi	a1,a4,-12
    317a:	fe95e4e3          	bltu	a1,s1,3162 <rt_malloc+0x9e>
F:\SCHOOL\文件\智能车\全向组\RTTThreadCH32V103\camCoreWithRTOS\obj/../Libraries/rtthread_libraries/src/mem.c:304
                (size + SIZEOF_STRUCT_MEM + MIN_SIZE_ALIGNED))
    317e:	01848613          	addi	a2,s1,24
F:\SCHOOL\文件\智能车\全向组\RTTThreadCH32V103\camCoreWithRTOS\obj/../Libraries/rtthread_libraries/src/mem.c:303
            if (mem->next - (ptr + SIZEOF_STRUCT_MEM) >=
    3182:	f8c5ede3          	bltu	a1,a2,311c <rt_malloc+0x58>
F:\SCHOOL\文件\智能车\全向组\RTTThreadCH32V103\camCoreWithRTOS\obj/../Libraries/rtthread_libraries/src/mem.c:316
                ptr2 = ptr + SIZEOF_STRUCT_MEM + size;
    3186:	00c48613          	addi	a2,s1,12
    318a:	963e                	add	a2,a2,a5
F:\SCHOOL\文件\智能车\全向组\RTTThreadCH32V103\camCoreWithRTOS\obj/../Libraries/rtthread_libraries/src/mem.c:319
                mem2       = (struct heap_mem *)&heap_ptr[ptr2];
    318c:	00c68733          	add	a4,a3,a2
F:\SCHOOL\文件\智能车\全向组\RTTThreadCH32V103\camCoreWithRTOS\obj/../Libraries/rtthread_libraries/src/mem.c:320
                mem2->magic = HEAP_MAGIC;
    3190:	6589                	lui	a1,0x2
    3192:	ea058593          	addi	a1,a1,-352 # 1ea0 <uart_gpio_init+0xa0>
    3196:	00b71023          	sh	a1,0(a4)
F:\SCHOOL\文件\智能车\全向组\RTTThreadCH32V103\camCoreWithRTOS\obj/../Libraries/rtthread_libraries/src/mem.c:321
                mem2->used = 0;
    319a:	00071123          	sh	zero,2(a4)
F:\SCHOOL\文件\智能车\全向组\RTTThreadCH32V103\camCoreWithRTOS\obj/../Libraries/rtthread_libraries/src/mem.c:322
                mem2->next = mem->next;
    319e:	404c                	lw	a1,4(s0)
    31a0:	c34c                	sw	a1,4(a4)
F:\SCHOOL\文件\智能车\全向组\RTTThreadCH32V103\camCoreWithRTOS\obj/../Libraries/rtthread_libraries/src/mem.c:323
                mem2->prev = ptr;
    31a2:	c71c                	sw	a5,8(a4)
F:\SCHOOL\文件\智能车\全向组\RTTThreadCH32V103\camCoreWithRTOS\obj/../Libraries/rtthread_libraries/src/mem.c:329
                mem->next = ptr2;
    31a4:	c050                	sw	a2,4(s0)
F:\SCHOOL\文件\智能车\全向组\RTTThreadCH32V103\camCoreWithRTOS\obj/../Libraries/rtthread_libraries/src/mem.c:330
                mem->used = 1;
    31a6:	4785                	li	a5,1
    31a8:	00f41123          	sh	a5,2(s0)
F:\SCHOOL\文件\智能车\全向组\RTTThreadCH32V103\camCoreWithRTOS\obj/../Libraries/rtthread_libraries/src/mem.c:332
                if (mem2->next != mem_size_aligned + SIZEOF_STRUCT_MEM)
    31ac:	435c                	lw	a5,4(a4)
    31ae:	0831                	addi	a6,a6,12
    31b0:	01078463          	beq	a5,a6,31b8 <rt_malloc+0xf4>
F:\SCHOOL\文件\智能车\全向组\RTTThreadCH32V103\camCoreWithRTOS\obj/../Libraries/rtthread_libraries/src/mem.c:334
                    ((struct heap_mem *)&heap_ptr[mem2->next])->prev = ptr2;
    31b4:	97b6                	add	a5,a5,a3
    31b6:	c790                	sw	a2,8(a5)
F:\SCHOOL\文件\智能车\全向组\RTTThreadCH32V103\camCoreWithRTOS\obj/../Libraries/rtthread_libraries/src/mem.c:337
                used_mem += (size + SIZEOF_STRUCT_MEM);
    31b8:	86818713          	addi	a4,gp,-1944 # 20000118 <used_mem>
    31bc:	431c                	lw	a5,0(a4)
    31be:	07b1                	addi	a5,a5,12
    31c0:	94be                	add	s1,s1,a5
    31c2:	c304                	sw	s1,0(a4)
F:\SCHOOL\文件\智能车\全向组\RTTThreadCH32V103\camCoreWithRTOS\obj/../Libraries/rtthread_libraries/src/mem.c:338
                if (max_mem < used_mem)
    31c4:	8601a783          	lw	a5,-1952(gp) # 20000110 <max_mem>
    31c8:	0097f463          	bgeu	a5,s1,31d0 <rt_malloc+0x10c>
F:\SCHOOL\文件\智能车\全向组\RTTThreadCH32V103\camCoreWithRTOS\obj/../Libraries/rtthread_libraries/src/mem.c:339
                    max_mem = used_mem;
    31cc:	8691a023          	sw	s1,-1952(gp) # 20000110 <max_mem>
F:\SCHOOL\文件\智能车\全向组\RTTThreadCH32V103\camCoreWithRTOS\obj/../Libraries/rtthread_libraries/src/mem.c:359
            mem->magic = HEAP_MAGIC;
    31d0:	6789                	lui	a5,0x2
    31d2:	ea078793          	addi	a5,a5,-352 # 1ea0 <uart_gpio_init+0xa0>
    31d6:	00f41023          	sh	a5,0(s0)
F:\SCHOOL\文件\智能车\全向组\RTTThreadCH32V103\camCoreWithRTOS\obj/../Libraries/rtthread_libraries/src/mem.c:367
            if (mem == lfree)
    31da:	f68500e3          	beq	a0,s0,313a <rt_malloc+0x76>
F:\SCHOOL\文件\智能车\全向组\RTTThreadCH32V103\camCoreWithRTOS\obj/../Libraries/rtthread_libraries/src/mem.c:376
            rt_sem_release(&heap_sem);
    31de:	ccc18513          	addi	a0,gp,-820 # 2000057c <heap_sem>
    31e2:	9faff0ef          	jal	ra,23dc <rt_sem_release>
F:\SCHOOL\文件\智能车\全向组\RTTThreadCH32V103\camCoreWithRTOS\obj/../Libraries/rtthread_libraries/src/mem.c:390
            return (rt_uint8_t *)mem + SIZEOF_STRUCT_MEM;
    31e6:	00c40513          	addi	a0,s0,12
    31ea:	b725                	j	3112 <rt_malloc+0x4e>
F:\SCHOOL\文件\智能车\全向组\RTTThreadCH32V103\camCoreWithRTOS\obj/../Libraries/rtthread_libraries/src/mem.c:265
        return RT_NULL;
    31ec:	4501                	li	a0,0
F:\SCHOOL\文件\智能车\全向组\RTTThreadCH32V103\camCoreWithRTOS\obj/../Libraries/rtthread_libraries/src/mem.c:397
}
    31ee:	8082                	ret
F:\SCHOOL\文件\智能车\全向组\RTTThreadCH32V103\camCoreWithRTOS\obj/../Libraries/rtthread_libraries/src/mem.c:282
        return RT_NULL;
    31f0:	4501                	li	a0,0
    31f2:	b705                	j	3112 <rt_malloc+0x4e>

000031f4 <rt_calloc>:
rt_calloc():
F:\SCHOOL\文件\智能车\全向组\RTTThreadCH32V103\camCoreWithRTOS\obj/../Libraries/rtthread_libraries/src/mem.c:513
{
    31f4:	1141                	addi	sp,sp,-16
    31f6:	c606                	sw	ra,12(sp)
    31f8:	c422                	sw	s0,8(sp)
    31fa:	c226                	sw	s1,4(sp)
F:\SCHOOL\文件\智能车\全向组\RTTThreadCH32V103\camCoreWithRTOS\obj/../Libraries/rtthread_libraries/src/mem.c:517
    p = rt_malloc(count * size);
    31fc:	02b504b3          	mul	s1,a0,a1
    3200:	8526                	mv	a0,s1
    3202:	ec3ff0ef          	jal	ra,30c4 <rt_malloc>
    3206:	842a                	mv	s0,a0
F:\SCHOOL\文件\智能车\全向组\RTTThreadCH32V103\camCoreWithRTOS\obj/../Libraries/rtthread_libraries/src/mem.c:520
    if (p)
    3208:	c509                	beqz	a0,3212 <rt_calloc+0x1e>
F:\SCHOOL\文件\智能车\全向组\RTTThreadCH32V103\camCoreWithRTOS\obj/../Libraries/rtthread_libraries/src/mem.c:521
        rt_memset(p, 0, count * size);
    320a:	8626                	mv	a2,s1
    320c:	4581                	li	a1,0
    320e:	fceff0ef          	jal	ra,29dc <rt_memset>
F:\SCHOOL\文件\智能车\全向组\RTTThreadCH32V103\camCoreWithRTOS\obj/../Libraries/rtthread_libraries/src/mem.c:524
}
    3212:	8522                	mv	a0,s0
    3214:	40b2                	lw	ra,12(sp)
    3216:	4422                	lw	s0,8(sp)
    3218:	4492                	lw	s1,4(sp)
    321a:	0141                	addi	sp,sp,16
    321c:	8082                	ret

0000321e <rt_free>:
rt_free():
F:\SCHOOL\文件\智能车\全向组\RTTThreadCH32V103\camCoreWithRTOS\obj/../Libraries/rtthread_libraries/src/mem.c:537
    if (rmem == RT_NULL)
    321e:	c909                	beqz	a0,3230 <rt_free+0x12>
F:\SCHOOL\文件\智能车\全向组\RTTThreadCH32V103\camCoreWithRTOS\obj/../Libraries/rtthread_libraries/src/mem.c:548
    if ((rt_uint8_t *)rmem < (rt_uint8_t *)heap_ptr ||
    3220:	8581a783          	lw	a5,-1960(gp) # 20000108 <heap_ptr>
    3224:	00f56663          	bltu	a0,a5,3230 <rt_free+0x12>
F:\SCHOOL\文件\智能车\全向组\RTTThreadCH32V103\camCoreWithRTOS\obj/../Libraries/rtthread_libraries/src/mem.c:548 (discriminator 1)
    3228:	8541a783          	lw	a5,-1964(gp) # 20000104 <heap_end>
    322c:	00f56363          	bltu	a0,a5,3232 <rt_free+0x14>
    3230:	8082                	ret
F:\SCHOOL\文件\智能车\全向组\RTTThreadCH32V103\camCoreWithRTOS\obj/../Libraries/rtthread_libraries/src/mem.c:534
{
    3232:	1141                	addi	sp,sp,-16
    3234:	c606                	sw	ra,12(sp)
    3236:	c422                	sw	s0,8(sp)
    3238:	c226                	sw	s1,4(sp)
    323a:	842a                	mv	s0,a0
F:\SCHOOL\文件\智能车\全向组\RTTThreadCH32V103\camCoreWithRTOS\obj/../Libraries/rtthread_libraries/src/mem.c:557
    mem = (struct heap_mem *)((rt_uint8_t *)rmem - SIZEOF_STRUCT_MEM);
    323c:	ff450493          	addi	s1,a0,-12
F:\SCHOOL\文件\智能车\全向组\RTTThreadCH32V103\camCoreWithRTOS\obj/../Libraries/rtthread_libraries/src/mem.c:566
    rt_sem_take(&heap_sem, RT_WAITING_FOREVER);
    3240:	55fd                	li	a1,-1
    3242:	ccc18513          	addi	a0,gp,-820 # 2000057c <heap_sem>
    3246:	8acff0ef          	jal	ra,22f2 <rt_sem_take>
F:\SCHOOL\文件\智能车\全向组\RTTThreadCH32V103\camCoreWithRTOS\obj/../Libraries/rtthread_libraries/src/mem.c:569
    if (!mem->used || mem->magic != HEAP_MAGIC)
    324a:	ff645783          	lhu	a5,-10(s0)
    324e:	cb81                	beqz	a5,325e <rt_free+0x40>
F:\SCHOOL\文件\智能车\全向组\RTTThreadCH32V103\camCoreWithRTOS\obj/../Libraries/rtthread_libraries/src/mem.c:569 (discriminator 1)
    3250:	ff445703          	lhu	a4,-12(s0)
    3254:	6789                	lui	a5,0x2
    3256:	ea078793          	addi	a5,a5,-352 # 1ea0 <uart_gpio_init+0xa0>
    325a:	02f70363          	beq	a4,a5,3280 <rt_free+0x62>
F:\SCHOOL\文件\智能车\全向组\RTTThreadCH32V103\camCoreWithRTOS\obj/../Libraries/rtthread_libraries/src/mem.c:571
        rt_kprintf("to free a bad data block:\n");
    325e:	00007537          	lui	a0,0x7
    3262:	ef050513          	addi	a0,a0,-272 # 6ef0 <__fsym_list_mem_name+0x54>
    3266:	c5dff0ef          	jal	ra,2ec2 <rt_kprintf>
F:\SCHOOL\文件\智能车\全向组\RTTThreadCH32V103\camCoreWithRTOS\obj/../Libraries/rtthread_libraries/src/mem.c:572
        rt_kprintf("mem: 0x%08x, used flag: %d, magic code: 0x%04x\n", mem, mem->used, mem->magic);
    326a:	ff445683          	lhu	a3,-12(s0)
    326e:	ff645603          	lhu	a2,-10(s0)
    3272:	85a6                	mv	a1,s1
    3274:	00007537          	lui	a0,0x7
    3278:	f0c50513          	addi	a0,a0,-244 # 6f0c <__fsym_list_mem_name+0x70>
    327c:	c47ff0ef          	jal	ra,2ec2 <rt_kprintf>
F:\SCHOOL\文件\智能车\全向组\RTTThreadCH32V103\camCoreWithRTOS\obj/../Libraries/rtthread_libraries/src/mem.c:577
    mem->used  = 0;
    3280:	fe041b23          	sh	zero,-10(s0)
F:\SCHOOL\文件\智能车\全向组\RTTThreadCH32V103\camCoreWithRTOS\obj/../Libraries/rtthread_libraries/src/mem.c:578
    mem->magic = HEAP_MAGIC;
    3284:	6789                	lui	a5,0x2
    3286:	ea078793          	addi	a5,a5,-352 # 1ea0 <uart_gpio_init+0xa0>
    328a:	fef41a23          	sh	a5,-12(s0)
F:\SCHOOL\文件\智能车\全向组\RTTThreadCH32V103\camCoreWithRTOS\obj/../Libraries/rtthread_libraries/src/mem.c:583
    if (mem < lfree)
    328e:	85c1a783          	lw	a5,-1956(gp) # 2000010c <lfree>
    3292:	00f4f463          	bgeu	s1,a5,329a <rt_free+0x7c>
F:\SCHOOL\文件\智能车\全向组\RTTThreadCH32V103\camCoreWithRTOS\obj/../Libraries/rtthread_libraries/src/mem.c:586
        lfree = mem;
    3296:	8491ae23          	sw	s1,-1956(gp) # 2000010c <lfree>
F:\SCHOOL\文件\智能车\全向组\RTTThreadCH32V103\camCoreWithRTOS\obj/../Libraries/rtthread_libraries/src/mem.c:590
    used_mem -= (mem->next - ((rt_uint8_t *)mem - heap_ptr));
    329a:	86818713          	addi	a4,gp,-1944 # 20000118 <used_mem>
    329e:	431c                	lw	a5,0(a4)
    32a0:	ff842683          	lw	a3,-8(s0)
    32a4:	8f95                	sub	a5,a5,a3
    32a6:	8581a683          	lw	a3,-1960(gp) # 20000108 <heap_ptr>
    32aa:	40d486b3          	sub	a3,s1,a3
    32ae:	97b6                	add	a5,a5,a3
    32b0:	c31c                	sw	a5,0(a4)
F:\SCHOOL\文件\智能车\全向组\RTTThreadCH32V103\camCoreWithRTOS\obj/../Libraries/rtthread_libraries/src/mem.c:594
    plug_holes(mem);
    32b2:	8526                	mv	a0,s1
    32b4:	cedff0ef          	jal	ra,2fa0 <plug_holes>
F:\SCHOOL\文件\智能车\全向组\RTTThreadCH32V103\camCoreWithRTOS\obj/../Libraries/rtthread_libraries/src/mem.c:595
    rt_sem_release(&heap_sem);
    32b8:	ccc18513          	addi	a0,gp,-820 # 2000057c <heap_sem>
    32bc:	920ff0ef          	jal	ra,23dc <rt_sem_release>
F:\SCHOOL\文件\智能车\全向组\RTTThreadCH32V103\camCoreWithRTOS\obj/../Libraries/rtthread_libraries/src/mem.c:596
}
    32c0:	40b2                	lw	ra,12(sp)
    32c2:	4422                	lw	s0,8(sp)
    32c4:	4492                	lw	s1,4(sp)
    32c6:	0141                	addi	sp,sp,16
    32c8:	8082                	ret

000032ca <rt_object_get_information>:
rt_object_get_information():
F:\SCHOOL\文件\智能车\全向组\RTTThreadCH32V103\camCoreWithRTOS\obj/../Libraries/rtthread_libraries/src/object.c:220
 * @param type the type of object
 * @return the object type information or RT_NULL
 */
struct rt_object_information *
rt_object_get_information(enum rt_object_class_type type)
{
    32ca:	87aa                	mv	a5,a0
F:\SCHOOL\文件\智能车\全向组\RTTThreadCH32V103\camCoreWithRTOS\obj/../Libraries/rtthread_libraries/src/object.c:224
    int index;

    for (index = 0; index < RT_Object_Info_Unknown; index ++)
        if (rt_object_container[index].type == type) return &rt_object_container[index];
    32cc:	20000737          	lui	a4,0x20000
    32d0:	01072703          	lw	a4,16(a4) # 20000010 <rt_object_container>
    32d4:	02e50c63          	beq	a0,a4,330c <rt_object_get_information+0x42>
    32d8:	20000737          	lui	a4,0x20000
    32dc:	02072703          	lw	a4,32(a4) # 20000020 <rt_object_container+0x10>
    32e0:	02e50263          	beq	a0,a4,3304 <rt_object_get_information+0x3a>
    32e4:	20000737          	lui	a4,0x20000
    32e8:	03072703          	lw	a4,48(a4) # 20000030 <rt_object_container+0x20>
    32ec:	00e50e63          	beq	a0,a4,3308 <rt_object_get_information+0x3e>
    32f0:	20000737          	lui	a4,0x20000
    32f4:	04072703          	lw	a4,64(a4) # 20000040 <rt_object_container+0x30>
F:\SCHOOL\文件\智能车\全向组\RTTThreadCH32V103\camCoreWithRTOS\obj/../Libraries/rtthread_libraries/src/object.c:226

    return RT_NULL;
    32f8:	4501                	li	a0,0
F:\SCHOOL\文件\智能车\全向组\RTTThreadCH32V103\camCoreWithRTOS\obj/../Libraries/rtthread_libraries/src/object.c:224
        if (rt_object_container[index].type == type) return &rt_object_container[index];
    32fa:	00f70363          	beq	a4,a5,3300 <rt_object_get_information+0x36>
F:\SCHOOL\文件\智能车\全向组\RTTThreadCH32V103\camCoreWithRTOS\obj/../Libraries/rtthread_libraries/src/object.c:227
}
    32fe:	8082                	ret
F:\SCHOOL\文件\智能车\全向组\RTTThreadCH32V103\camCoreWithRTOS\obj/../Libraries/rtthread_libraries/src/object.c:223
    for (index = 0; index < RT_Object_Info_Unknown; index ++)
    3300:	450d                	li	a0,3
    3302:	a031                	j	330e <rt_object_get_information+0x44>
    3304:	4505                	li	a0,1
    3306:	a021                	j	330e <rt_object_get_information+0x44>
    3308:	4509                	li	a0,2
    330a:	a011                	j	330e <rt_object_get_information+0x44>
    330c:	4501                	li	a0,0
F:\SCHOOL\文件\智能车\全向组\RTTThreadCH32V103\camCoreWithRTOS\obj/../Libraries/rtthread_libraries/src/object.c:224 (discriminator 1)
        if (rt_object_container[index].type == type) return &rt_object_container[index];
    330e:	00451793          	slli	a5,a0,0x4
    3312:	20000537          	lui	a0,0x20000
    3316:	01050513          	addi	a0,a0,16 # 20000010 <rt_object_container>
    331a:	953e                	add	a0,a0,a5
    331c:	b7cd                	j	32fe <rt_object_get_information+0x34>

0000331e <rt_object_init>:
rt_object_init():
F:\SCHOOL\文件\智能车\全向组\RTTThreadCH32V103\camCoreWithRTOS\obj/../Libraries/rtthread_libraries/src/object.c:241
 * @param name the object name. In system, the object's name must be unique.
 */
void rt_object_init(struct rt_object         *object,
                    enum rt_object_class_type type,
                    const char               *name)
{
    331e:	1101                	addi	sp,sp,-32
    3320:	ce06                	sw	ra,28(sp)
    3322:	cc22                	sw	s0,24(sp)
    3324:	ca26                	sw	s1,20(sp)
    3326:	c84a                	sw	s2,16(sp)
    3328:	c64e                	sw	s3,12(sp)
    332a:	c452                	sw	s4,8(sp)
    332c:	84aa                	mv	s1,a0
    332e:	89ae                	mv	s3,a1
    3330:	8a32                	mv	s4,a2
F:\SCHOOL\文件\智能车\全向组\RTTThreadCH32V103\camCoreWithRTOS\obj/../Libraries/rtthread_libraries/src/object.c:250
#ifdef RT_USING_MODULE
    struct rt_dlmodule *module = dlmodule_self();
#endif

    /* get object information */
    information = rt_object_get_information(type);
    3332:	852e                	mv	a0,a1
    3334:	3f59                	jal	32ca <rt_object_get_information>
    3336:	892a                	mv	s2,a0
F:\SCHOOL\文件\智能车\全向组\RTTThreadCH32V103\camCoreWithRTOS\obj/../Libraries/rtthread_libraries/src/object.c:256
    RT_ASSERT(information != RT_NULL);

    /* check object type to avoid re-initialization */

    /* enter critical */
    rt_enter_critical();
    3338:	2c41                	jal	35c8 <rt_enter_critical>
F:\SCHOOL\文件\智能车\全向组\RTTThreadCH32V103\camCoreWithRTOS\obj/../Libraries/rtthread_libraries/src/object.c:258
    /* try to find object */
    for (node  = information->object_list.next;
    333a:	00492783          	lw	a5,4(s2)
F:\SCHOOL\文件\智能车\全向组\RTTThreadCH32V103\camCoreWithRTOS\obj/../Libraries/rtthread_libraries/src/object.c:259
            node != &(information->object_list);
    333e:	00490413          	addi	s0,s2,4
F:\SCHOOL\文件\智能车\全向组\RTTThreadCH32V103\camCoreWithRTOS\obj/../Libraries/rtthread_libraries/src/object.c:258
    for (node  = information->object_list.next;
    3342:	00878563          	beq	a5,s0,334c <rt_object_init+0x2e>
F:\SCHOOL\文件\智能车\全向组\RTTThreadCH32V103\camCoreWithRTOS\obj/../Libraries/rtthread_libraries/src/object.c:260
            node  = node->next)
    3346:	439c                	lw	a5,0(a5)
F:\SCHOOL\文件\智能车\全向组\RTTThreadCH32V103\camCoreWithRTOS\obj/../Libraries/rtthread_libraries/src/object.c:258
    for (node  = information->object_list.next;
    3348:	fe879fe3          	bne	a5,s0,3346 <rt_object_init+0x28>
F:\SCHOOL\文件\智能车\全向组\RTTThreadCH32V103\camCoreWithRTOS\obj/../Libraries/rtthread_libraries/src/object.c:268

        obj = rt_list_entry(node, struct rt_object, list);
        RT_ASSERT(obj != object);
    }
    /* leave critical */
    rt_exit_critical();
    334c:	2c71                	jal	35e8 <rt_exit_critical>
F:\SCHOOL\文件\智能车\全向组\RTTThreadCH32V103\camCoreWithRTOS\obj/../Libraries/rtthread_libraries/src/object.c:272

    /* initialize object's parameters */
    /* set object type to static */
    object->type = type | RT_Object_Class_Static;
    334e:	f809e993          	ori	s3,s3,-128
    3352:	01348423          	sb	s3,8(s1)
F:\SCHOOL\文件\智能车\全向组\RTTThreadCH32V103\camCoreWithRTOS\obj/../Libraries/rtthread_libraries/src/object.c:274
    /* copy name */
    rt_strncpy(object->name, name, RT_NAME_MAX);
    3356:	4621                	li	a2,8
    3358:	85d2                	mv	a1,s4
    335a:	8526                	mv	a0,s1
    335c:	f4eff0ef          	jal	ra,2aaa <rt_strncpy>
F:\SCHOOL\文件\智能车\全向组\RTTThreadCH32V103\camCoreWithRTOS\obj/../Libraries/rtthread_libraries/src/object.c:279

    RT_OBJECT_HOOK_CALL(rt_object_attach_hook, (object));

    /* lock interrupt */
    temp = rt_hw_interrupt_disable();
    3360:	de1fc0ef          	jal	ra,140 <rt_hw_interrupt_disable>
F:\SCHOOL\文件\智能车\全向组\RTTThreadCH32V103\camCoreWithRTOS\obj/../Libraries/rtthread_libraries/src/object.c:291
    }
    else
#endif
    {
        /* insert object into information object list */
        rt_list_insert_after(&(information->object_list), &(object->list));
    3364:	00c48793          	addi	a5,s1,12
rt_list_insert_after():
F:\SCHOOL\文件\智能车\全向组\RTTThreadCH32V103\camCoreWithRTOS\Libraries\rtthread_libraries\include/rtservice.h:60
    l->next->prev = n;
    3368:	00492703          	lw	a4,4(s2)
    336c:	c35c                	sw	a5,4(a4)
F:\SCHOOL\文件\智能车\全向组\RTTThreadCH32V103\camCoreWithRTOS\Libraries\rtthread_libraries\include/rtservice.h:61
    n->next = l->next;
    336e:	00492703          	lw	a4,4(s2)
    3372:	c4d8                	sw	a4,12(s1)
F:\SCHOOL\文件\智能车\全向组\RTTThreadCH32V103\camCoreWithRTOS\Libraries\rtthread_libraries\include/rtservice.h:63
    l->next = n;
    3374:	00f92223          	sw	a5,4(s2)
F:\SCHOOL\文件\智能车\全向组\RTTThreadCH32V103\camCoreWithRTOS\Libraries\rtthread_libraries\include/rtservice.h:64
    n->prev = l;
    3378:	c880                	sw	s0,16(s1)
rt_object_init():
F:\SCHOOL\文件\智能车\全向组\RTTThreadCH32V103\camCoreWithRTOS\obj/../Libraries/rtthread_libraries/src/object.c:295
    }

    /* unlock interrupt */
    rt_hw_interrupt_enable(temp);
    337a:	dcdfc0ef          	jal	ra,146 <rt_hw_interrupt_enable>
F:\SCHOOL\文件\智能车\全向组\RTTThreadCH32V103\camCoreWithRTOS\obj/../Libraries/rtthread_libraries/src/object.c:296
}
    337e:	40f2                	lw	ra,28(sp)
    3380:	4462                	lw	s0,24(sp)
    3382:	44d2                	lw	s1,20(sp)
    3384:	4942                	lw	s2,16(sp)
    3386:	49b2                	lw	s3,12(sp)
    3388:	4a22                	lw	s4,8(sp)
    338a:	6105                	addi	sp,sp,32
    338c:	8082                	ret

0000338e <rt_object_detach>:
rt_object_detach():
F:\SCHOOL\文件\智能车\全向组\RTTThreadCH32V103\camCoreWithRTOS\obj/../Libraries/rtthread_libraries/src/object.c:305
 * and the memory of static object is not freed.
 *
 * @param object the specified object to be detached.
 */
void rt_object_detach(rt_object_t object)
{
    338e:	1141                	addi	sp,sp,-16
    3390:	c606                	sw	ra,12(sp)
    3392:	c422                	sw	s0,8(sp)
    3394:	842a                	mv	s0,a0
F:\SCHOOL\文件\智能车\全向组\RTTThreadCH32V103\camCoreWithRTOS\obj/../Libraries/rtthread_libraries/src/object.c:314
    RT_ASSERT(object != RT_NULL);

    RT_OBJECT_HOOK_CALL(rt_object_detach_hook, (object));

    /* reset object type */
    object->type = 0;
    3396:	00050423          	sb	zero,8(a0)
F:\SCHOOL\文件\智能车\全向组\RTTThreadCH32V103\camCoreWithRTOS\obj/../Libraries/rtthread_libraries/src/object.c:317

    /* lock interrupt */
    temp = rt_hw_interrupt_disable();
    339a:	da7fc0ef          	jal	ra,140 <rt_hw_interrupt_disable>
F:\SCHOOL\文件\智能车\全向组\RTTThreadCH32V103\camCoreWithRTOS\obj/../Libraries/rtthread_libraries/src/object.c:320

    /* remove from old list */
    rt_list_remove(&(object->list));
    339e:	00c40793          	addi	a5,s0,12
rt_list_remove():
F:\SCHOOL\文件\智能车\全向组\RTTThreadCH32V103\camCoreWithRTOS\Libraries\rtthread_libraries\include/rtservice.h:88
    n->next->prev = n->prev;
    33a2:	4454                	lw	a3,12(s0)
    33a4:	4818                	lw	a4,16(s0)
    33a6:	c2d8                	sw	a4,4(a3)
F:\SCHOOL\文件\智能车\全向组\RTTThreadCH32V103\camCoreWithRTOS\Libraries\rtthread_libraries\include/rtservice.h:89
    n->prev->next = n->next;
    33a8:	4454                	lw	a3,12(s0)
    33aa:	c314                	sw	a3,0(a4)
F:\SCHOOL\文件\智能车\全向组\RTTThreadCH32V103\camCoreWithRTOS\Libraries\rtthread_libraries\include/rtservice.h:91
    n->next = n->prev = n;
    33ac:	c81c                	sw	a5,16(s0)
    33ae:	c45c                	sw	a5,12(s0)
rt_object_detach():
F:\SCHOOL\文件\智能车\全向组\RTTThreadCH32V103\camCoreWithRTOS\obj/../Libraries/rtthread_libraries/src/object.c:323

    /* unlock interrupt */
    rt_hw_interrupt_enable(temp);
    33b0:	d97fc0ef          	jal	ra,146 <rt_hw_interrupt_enable>
F:\SCHOOL\文件\智能车\全向组\RTTThreadCH32V103\camCoreWithRTOS\obj/../Libraries/rtthread_libraries/src/object.c:324
}
    33b4:	40b2                	lw	ra,12(sp)
    33b6:	4422                	lw	s0,8(sp)
    33b8:	0141                	addi	sp,sp,16
    33ba:	8082                	ret

000033bc <rt_object_allocate>:
rt_object_allocate():
F:\SCHOOL\文件\智能车\全向组\RTTThreadCH32V103\camCoreWithRTOS\obj/../Libraries/rtthread_libraries/src/object.c:336
 * @param name the object name. In system, the object's name must be unique.
 *
 * @return object
 */
rt_object_t rt_object_allocate(enum rt_object_class_type type, const char *name)
{
    33bc:	1101                	addi	sp,sp,-32
    33be:	ce06                	sw	ra,28(sp)
    33c0:	cc22                	sw	s0,24(sp)
    33c2:	ca26                	sw	s1,20(sp)
    33c4:	c84a                	sw	s2,16(sp)
    33c6:	c64e                	sw	s3,12(sp)
    33c8:	89aa                	mv	s3,a0
    33ca:	892e                	mv	s2,a1
F:\SCHOOL\文件\智能车\全向组\RTTThreadCH32V103\camCoreWithRTOS\obj/../Libraries/rtthread_libraries/src/object.c:347
#endif

    RT_DEBUG_NOT_IN_INTERRUPT;

    /* get object information */
    information = rt_object_get_information(type);
    33cc:	effff0ef          	jal	ra,32ca <rt_object_get_information>
    33d0:	84aa                	mv	s1,a0
F:\SCHOOL\文件\智能车\全向组\RTTThreadCH32V103\camCoreWithRTOS\obj/../Libraries/rtthread_libraries/src/object.c:350
    RT_ASSERT(information != RT_NULL);

    object = (struct rt_object *)RT_KERNEL_MALLOC(information->object_size);
    33d2:	4548                	lw	a0,12(a0)
    33d4:	cf1ff0ef          	jal	ra,30c4 <rt_malloc>
    33d8:	842a                	mv	s0,a0
F:\SCHOOL\文件\智能车\全向组\RTTThreadCH32V103\camCoreWithRTOS\obj/../Libraries/rtthread_libraries/src/object.c:351
    if (object == RT_NULL)
    33da:	c91d                	beqz	a0,3410 <rt_object_allocate+0x54>
F:\SCHOOL\文件\智能车\全向组\RTTThreadCH32V103\camCoreWithRTOS\obj/../Libraries/rtthread_libraries/src/object.c:358
        /* no memory can be allocated */
        return RT_NULL;
    }

    /* clean memory data of object */
    rt_memset(object, 0x0, information->object_size);
    33dc:	44d0                	lw	a2,12(s1)
    33de:	4581                	li	a1,0
    33e0:	dfcff0ef          	jal	ra,29dc <rt_memset>
F:\SCHOOL\文件\智能车\全向组\RTTThreadCH32V103\camCoreWithRTOS\obj/../Libraries/rtthread_libraries/src/object.c:363

    /* initialize object's parameters */

    /* set object type */
    object->type = type;
    33e4:	01340423          	sb	s3,8(s0)
F:\SCHOOL\文件\智能车\全向组\RTTThreadCH32V103\camCoreWithRTOS\obj/../Libraries/rtthread_libraries/src/object.c:366

    /* set object flag */
    object->flag = 0;
    33e8:	000404a3          	sb	zero,9(s0)
F:\SCHOOL\文件\智能车\全向组\RTTThreadCH32V103\camCoreWithRTOS\obj/../Libraries/rtthread_libraries/src/object.c:369

    /* copy name */
    rt_strncpy(object->name, name, RT_NAME_MAX);
    33ec:	4621                	li	a2,8
    33ee:	85ca                	mv	a1,s2
    33f0:	8522                	mv	a0,s0
    33f2:	eb8ff0ef          	jal	ra,2aaa <rt_strncpy>
F:\SCHOOL\文件\智能车\全向组\RTTThreadCH32V103\camCoreWithRTOS\obj/../Libraries/rtthread_libraries/src/object.c:374

    RT_OBJECT_HOOK_CALL(rt_object_attach_hook, (object));

    /* lock interrupt */
    temp = rt_hw_interrupt_disable();
    33f6:	d4bfc0ef          	jal	ra,140 <rt_hw_interrupt_disable>
F:\SCHOOL\文件\智能车\全向组\RTTThreadCH32V103\camCoreWithRTOS\obj/../Libraries/rtthread_libraries/src/object.c:386
    }
    else
#endif
    {
        /* insert object into information object list */
        rt_list_insert_after(&(information->object_list), &(object->list));
    33fa:	00c40793          	addi	a5,s0,12
rt_list_insert_after():
F:\SCHOOL\文件\智能车\全向组\RTTThreadCH32V103\camCoreWithRTOS\Libraries\rtthread_libraries\include/rtservice.h:60
    l->next->prev = n;
    33fe:	40d8                	lw	a4,4(s1)
    3400:	c35c                	sw	a5,4(a4)
F:\SCHOOL\文件\智能车\全向组\RTTThreadCH32V103\camCoreWithRTOS\Libraries\rtthread_libraries\include/rtservice.h:61
    n->next = l->next;
    3402:	40d8                	lw	a4,4(s1)
    3404:	c458                	sw	a4,12(s0)
F:\SCHOOL\文件\智能车\全向组\RTTThreadCH32V103\camCoreWithRTOS\Libraries\rtthread_libraries\include/rtservice.h:63
    l->next = n;
    3406:	c0dc                	sw	a5,4(s1)
rt_object_allocate():
F:\SCHOOL\文件\智能车\全向组\RTTThreadCH32V103\camCoreWithRTOS\obj/../Libraries/rtthread_libraries/src/object.c:386
    3408:	0491                	addi	s1,s1,4
rt_list_insert_after():
F:\SCHOOL\文件\智能车\全向组\RTTThreadCH32V103\camCoreWithRTOS\Libraries\rtthread_libraries\include/rtservice.h:64
    n->prev = l;
    340a:	c804                	sw	s1,16(s0)
rt_object_allocate():
F:\SCHOOL\文件\智能车\全向组\RTTThreadCH32V103\camCoreWithRTOS\obj/../Libraries/rtthread_libraries/src/object.c:390
    }

    /* unlock interrupt */
    rt_hw_interrupt_enable(temp);
    340c:	d3bfc0ef          	jal	ra,146 <rt_hw_interrupt_enable>
F:\SCHOOL\文件\智能车\全向组\RTTThreadCH32V103\camCoreWithRTOS\obj/../Libraries/rtthread_libraries/src/object.c:394

    /* return object */
    return object;
}
    3410:	8522                	mv	a0,s0
    3412:	40f2                	lw	ra,28(sp)
    3414:	4462                	lw	s0,24(sp)
    3416:	44d2                	lw	s1,20(sp)
    3418:	4942                	lw	s2,16(sp)
    341a:	49b2                	lw	s3,12(sp)
    341c:	6105                	addi	sp,sp,32
    341e:	8082                	ret

00003420 <rt_object_delete>:
rt_object_delete():
F:\SCHOOL\文件\智能车\全向组\RTTThreadCH32V103\camCoreWithRTOS\obj/../Libraries/rtthread_libraries/src/object.c:402
 * This function will delete an object and release object memory.
 *
 * @param object the specified object to be deleted.
 */
void rt_object_delete(rt_object_t object)
{
    3420:	1141                	addi	sp,sp,-16
    3422:	c606                	sw	ra,12(sp)
    3424:	c422                	sw	s0,8(sp)
    3426:	842a                	mv	s0,a0
F:\SCHOOL\文件\智能车\全向组\RTTThreadCH32V103\camCoreWithRTOS\obj/../Libraries/rtthread_libraries/src/object.c:412
    RT_ASSERT(!(object->type & RT_Object_Class_Static));

    RT_OBJECT_HOOK_CALL(rt_object_detach_hook, (object));

    /* reset object type */
    object->type = 0;
    3428:	00050423          	sb	zero,8(a0)
F:\SCHOOL\文件\智能车\全向组\RTTThreadCH32V103\camCoreWithRTOS\obj/../Libraries/rtthread_libraries/src/object.c:415

    /* lock interrupt */
    temp = rt_hw_interrupt_disable();
    342c:	d15fc0ef          	jal	ra,140 <rt_hw_interrupt_disable>
F:\SCHOOL\文件\智能车\全向组\RTTThreadCH32V103\camCoreWithRTOS\obj/../Libraries/rtthread_libraries/src/object.c:418

    /* remove from old list */
    rt_list_remove(&(object->list));
    3430:	00c40793          	addi	a5,s0,12
rt_list_remove():
F:\SCHOOL\文件\智能车\全向组\RTTThreadCH32V103\camCoreWithRTOS\Libraries\rtthread_libraries\include/rtservice.h:88
    n->next->prev = n->prev;
    3434:	4454                	lw	a3,12(s0)
    3436:	4818                	lw	a4,16(s0)
    3438:	c2d8                	sw	a4,4(a3)
F:\SCHOOL\文件\智能车\全向组\RTTThreadCH32V103\camCoreWithRTOS\Libraries\rtthread_libraries\include/rtservice.h:89
    n->prev->next = n->next;
    343a:	4454                	lw	a3,12(s0)
    343c:	c314                	sw	a3,0(a4)
F:\SCHOOL\文件\智能车\全向组\RTTThreadCH32V103\camCoreWithRTOS\Libraries\rtthread_libraries\include/rtservice.h:91
    n->next = n->prev = n;
    343e:	c81c                	sw	a5,16(s0)
    3440:	c45c                	sw	a5,12(s0)
rt_object_delete():
F:\SCHOOL\文件\智能车\全向组\RTTThreadCH32V103\camCoreWithRTOS\obj/../Libraries/rtthread_libraries/src/object.c:421

    /* unlock interrupt */
    rt_hw_interrupt_enable(temp);
    3442:	d05fc0ef          	jal	ra,146 <rt_hw_interrupt_enable>
F:\SCHOOL\文件\智能车\全向组\RTTThreadCH32V103\camCoreWithRTOS\obj/../Libraries/rtthread_libraries/src/object.c:424

    /* free the memory of object */
    RT_KERNEL_FREE(object);
    3446:	8522                	mv	a0,s0
    3448:	dd7ff0ef          	jal	ra,321e <rt_free>
F:\SCHOOL\文件\智能车\全向组\RTTThreadCH32V103\camCoreWithRTOS\obj/../Libraries/rtthread_libraries/src/object.c:425
}
    344c:	40b2                	lw	ra,12(sp)
    344e:	4422                	lw	s0,8(sp)
    3450:	0141                	addi	sp,sp,16
    3452:	8082                	ret

00003454 <rt_object_is_systemobject>:
rt_object_is_systemobject():
F:\SCHOOL\文件\智能车\全向组\RTTThreadCH32V103\camCoreWithRTOS\obj/../Libraries/rtthread_libraries/src/object.c:442
rt_bool_t rt_object_is_systemobject(rt_object_t object)
{
    /* object check */
    RT_ASSERT(object != RT_NULL);

    if (object->type & RT_Object_Class_Static)
    3454:	00850503          	lb	a0,8(a0)
F:\SCHOOL\文件\智能车\全向组\RTTThreadCH32V103\camCoreWithRTOS\obj/../Libraries/rtthread_libraries/src/object.c:446
        return RT_TRUE;

    return RT_FALSE;
}
    3458:	817d                	srli	a0,a0,0x1f
    345a:	8082                	ret

0000345c <rt_system_scheduler_init>:
rt_system_scheduler_init():
F:\SCHOOL\文件\智能车\全向组\RTTThreadCH32V103\camCoreWithRTOS\obj/../Libraries/rtthread_libraries/src/scheduler.c:122
 */
void rt_system_scheduler_init(void)
{
    register rt_base_t offset;

    rt_scheduler_lock_nest = 0;
    345c:	86019a23          	sh	zero,-1932(gp) # 20000124 <rt_scheduler_lock_nest>
F:\SCHOOL\文件\智能车\全向组\RTTThreadCH32V103\camCoreWithRTOS\obj/../Libraries/rtthread_libraries/src/scheduler.c:127

    RT_DEBUG_LOG(RT_DEBUG_SCHEDULER, ("start scheduler: max priority 0x%02x\n",
                                      RT_THREAD_PRIORITY_MAX));

    for (offset = 0; offset < RT_THREAD_PRIORITY_MAX; offset ++)
    3460:	cec18793          	addi	a5,gp,-788 # 2000059c <rt_thread_priority_table>
    3464:	04078713          	addi	a4,a5,64
rt_list_init():
F:\SCHOOL\文件\智能车\全向组\RTTThreadCH32V103\camCoreWithRTOS\Libraries\rtthread_libraries\include/rtservice.h:49 (discriminator 3)
    l->next = l->prev = l;
    3468:	c3dc                	sw	a5,4(a5)
    346a:	c39c                	sw	a5,0(a5)
    346c:	07a1                	addi	a5,a5,8
rt_system_scheduler_init():
F:\SCHOOL\文件\智能车\全向组\RTTThreadCH32V103\camCoreWithRTOS\obj/../Libraries/rtthread_libraries/src/scheduler.c:127 (discriminator 3)
    346e:	fee79de3          	bne	a5,a4,3468 <rt_system_scheduler_init+0xc>
F:\SCHOOL\文件\智能车\全向组\RTTThreadCH32V103\camCoreWithRTOS\obj/../Libraries/rtthread_libraries/src/scheduler.c:132
    {
        rt_list_init(&rt_thread_priority_table[offset]);
    }

    rt_current_priority = RT_THREAD_PRIORITY_MAX - 1;
    3472:	471d                	li	a4,7
    3474:	86e18623          	sb	a4,-1940(gp) # 2000011c <rt_current_priority>
F:\SCHOOL\文件\智能车\全向组\RTTThreadCH32V103\camCoreWithRTOS\obj/../Libraries/rtthread_libraries/src/scheduler.c:133
    rt_current_thread = RT_NULL;
    3478:	8601a823          	sw	zero,-1936(gp) # 20000120 <rt_current_thread>
F:\SCHOOL\文件\智能车\全向组\RTTThreadCH32V103\camCoreWithRTOS\obj/../Libraries/rtthread_libraries/src/scheduler.c:136

    /* initialize ready priority group */
    rt_thread_ready_priority_group = 0;
    347c:	8801a023          	sw	zero,-1920(gp) # 20000130 <rt_thread_ready_priority_group>
rt_list_init():
F:\SCHOOL\文件\智能车\全向组\RTTThreadCH32V103\camCoreWithRTOS\Libraries\rtthread_libraries\include/rtservice.h:49
    3480:	87818793          	addi	a5,gp,-1928 # 20000128 <rt_thread_defunct>
    3484:	c3dc                	sw	a5,4(a5)
    3486:	c39c                	sw	a5,0(a5)
rt_system_scheduler_init():
F:\SCHOOL\文件\智能车\全向组\RTTThreadCH32V103\camCoreWithRTOS\obj/../Libraries/rtthread_libraries/src/scheduler.c:145
    rt_memset(rt_thread_ready_table, 0, sizeof(rt_thread_ready_table));
#endif

    /* initialize thread defunct */
    rt_list_init(&rt_thread_defunct);
}
    3488:	8082                	ret

0000348a <rt_system_scheduler_start>:
rt_system_scheduler_start():
F:\SCHOOL\文件\智能车\全向组\RTTThreadCH32V103\camCoreWithRTOS\obj/../Libraries/rtthread_libraries/src/scheduler.c:153
 * @ingroup SystemInit
 * This function will startup scheduler. It will select one thread
 * with the highest priority level, then switch to it.
 */
void rt_system_scheduler_start(void)
{
    348a:	1141                	addi	sp,sp,-16
    348c:	c606                	sw	ra,12(sp)
F:\SCHOOL\文件\智能车\全向组\RTTThreadCH32V103\camCoreWithRTOS\obj/../Libraries/rtthread_libraries/src/scheduler.c:163
    register rt_ubase_t number;

    number = __rt_ffs(rt_thread_ready_priority_group) - 1;
    highest_ready_priority = (number << 3) + __rt_ffs(rt_thread_ready_table[number]) - 1;
#else
    highest_ready_priority = __rt_ffs(rt_thread_ready_priority_group) - 1;
    348e:	8801a503          	lw	a0,-1920(gp) # 20000130 <rt_thread_ready_priority_group>
    3492:	aa7ff0ef          	jal	ra,2f38 <__rt_ffs>
F:\SCHOOL\文件\智能车\全向组\RTTThreadCH32V103\camCoreWithRTOS\obj/../Libraries/rtthread_libraries/src/scheduler.c:167
#endif

    /* get switch to thread */
    to_thread = rt_list_entry(rt_thread_priority_table[highest_ready_priority].next,
    3496:	157d                	addi	a0,a0,-1
    3498:	00351793          	slli	a5,a0,0x3
    349c:	cec18513          	addi	a0,gp,-788 # 2000059c <rt_thread_priority_table>
    34a0:	953e                	add	a0,a0,a5
    34a2:	4108                	lw	a0,0(a0)
    34a4:	fec50713          	addi	a4,a0,-20
F:\SCHOOL\文件\智能车\全向组\RTTThreadCH32V103\camCoreWithRTOS\obj/../Libraries/rtthread_libraries/src/scheduler.c:171
                              struct rt_thread,
                              tlist);

    rt_current_thread = to_thread;
    34a8:	86e1a823          	sw	a4,-1936(gp) # 20000120 <rt_current_thread>
F:\SCHOOL\文件\智能车\全向组\RTTThreadCH32V103\camCoreWithRTOS\obj/../Libraries/rtthread_libraries/src/scheduler.c:174

    /* switch to new thread */
    rt_hw_context_switch_to((rt_uint32_t)&to_thread->sp);
    34ac:	0521                	addi	a0,a0,8
    34ae:	c9ffc0ef          	jal	ra,14c <rt_hw_context_switch_to>
F:\SCHOOL\文件\智能车\全向组\RTTThreadCH32V103\camCoreWithRTOS\obj/../Libraries/rtthread_libraries/src/scheduler.c:177

    /* never come back */
}
    34b2:	40b2                	lw	ra,12(sp)
    34b4:	0141                	addi	sp,sp,16
    34b6:	8082                	ret

000034b8 <rt_schedule>:
rt_schedule():
F:\SCHOOL\文件\智能车\全向组\RTTThreadCH32V103\camCoreWithRTOS\obj/../Libraries/rtthread_libraries/src/scheduler.c:190
/**
 * This function will perform one schedule. It will select one thread
 * with the highest priority level, then switch to it.
 */
void rt_schedule(void)
{
    34b8:	1141                	addi	sp,sp,-16
    34ba:	c606                	sw	ra,12(sp)
    34bc:	c422                	sw	s0,8(sp)
F:\SCHOOL\文件\智能车\全向组\RTTThreadCH32V103\camCoreWithRTOS\obj/../Libraries/rtthread_libraries/src/scheduler.c:196
    rt_base_t level;
    struct rt_thread *to_thread;
    struct rt_thread *from_thread;

    /* disable interrupt */
    level = rt_hw_interrupt_disable();
    34be:	c83fc0ef          	jal	ra,140 <rt_hw_interrupt_disable>
    34c2:	842a                	mv	s0,a0
F:\SCHOOL\文件\智能车\全向组\RTTThreadCH32V103\camCoreWithRTOS\obj/../Libraries/rtthread_libraries/src/scheduler.c:199

    /* check the scheduler is enabled or not */
    if (rt_scheduler_lock_nest == 0)
    34c4:	87419783          	lh	a5,-1932(gp) # 20000124 <rt_scheduler_lock_nest>
    34c8:	e3a1                	bnez	a5,3508 <rt_schedule+0x50>
F:\SCHOOL\文件\智能车\全向组\RTTThreadCH32V103\camCoreWithRTOS\obj/../Libraries/rtthread_libraries/src/scheduler.c:204
    {
        register rt_ubase_t highest_ready_priority;

#if RT_THREAD_PRIORITY_MAX <= 32
        highest_ready_priority = __rt_ffs(rt_thread_ready_priority_group) - 1;
    34ca:	8801a503          	lw	a0,-1920(gp) # 20000130 <rt_thread_ready_priority_group>
    34ce:	a6bff0ef          	jal	ra,2f38 <__rt_ffs>
    34d2:	157d                	addi	a0,a0,-1
F:\SCHOOL\文件\智能车\全向组\RTTThreadCH32V103\camCoreWithRTOS\obj/../Libraries/rtthread_libraries/src/scheduler.c:213
        number = __rt_ffs(rt_thread_ready_priority_group) - 1;
        highest_ready_priority = (number << 3) + __rt_ffs(rt_thread_ready_table[number]) - 1;
#endif

        /* get switch to thread */
        to_thread = rt_list_entry(rt_thread_priority_table[highest_ready_priority].next,
    34d4:	00351713          	slli	a4,a0,0x3
    34d8:	cec18793          	addi	a5,gp,-788 # 2000059c <rt_thread_priority_table>
    34dc:	97ba                	add	a5,a5,a4
    34de:	438c                	lw	a1,0(a5)
    34e0:	fec58793          	addi	a5,a1,-20
F:\SCHOOL\文件\智能车\全向组\RTTThreadCH32V103\camCoreWithRTOS\obj/../Libraries/rtthread_libraries/src/scheduler.c:218
                                  struct rt_thread,
                                  tlist);

        /* if the destination thread is not the same as current thread */
        if (to_thread != rt_current_thread)
    34e4:	8701a703          	lw	a4,-1936(gp) # 20000120 <rt_current_thread>
    34e8:	02f70063          	beq	a4,a5,3508 <rt_schedule+0x50>
F:\SCHOOL\文件\智能车\全向组\RTTThreadCH32V103\camCoreWithRTOS\obj/../Libraries/rtthread_libraries/src/scheduler.c:220
        {
            rt_current_priority = (rt_uint8_t)highest_ready_priority;
    34ec:	86a18623          	sb	a0,-1940(gp) # 2000011c <rt_current_priority>
F:\SCHOOL\文件\智能车\全向组\RTTThreadCH32V103\camCoreWithRTOS\obj/../Libraries/rtthread_libraries/src/scheduler.c:222
            from_thread         = rt_current_thread;
            rt_current_thread   = to_thread;
    34f0:	86f1a823          	sw	a5,-1936(gp) # 20000120 <rt_current_thread>
F:\SCHOOL\文件\智能车\全向组\RTTThreadCH32V103\camCoreWithRTOS\obj/../Libraries/rtthread_libraries/src/scheduler.c:239

#ifdef RT_USING_OVERFLOW_CHECK
            _rt_scheduler_stack_check(to_thread);
#endif

            if (rt_interrupt_nest == 0)
    34f4:	8501c783          	lbu	a5,-1968(gp) # 20000100 <rt_interrupt_nest>
    34f8:	0ff7f793          	andi	a5,a5,255
    34fc:	cf89                	beqz	a5,3516 <rt_schedule+0x5e>
F:\SCHOOL\文件\智能车\全向组\RTTThreadCH32V103\camCoreWithRTOS\obj/../Libraries/rtthread_libraries/src/scheduler.c:269
            }
            else
            {
                RT_DEBUG_LOG(RT_DEBUG_SCHEDULER, ("switch in interrupt\n"));

                rt_hw_context_switch_interrupt((rt_uint32_t)&from_thread->sp,
    34fe:	05a1                	addi	a1,a1,8
    3500:	01c70513          	addi	a0,a4,28
    3504:	780000ef          	jal	ra,3c84 <rt_hw_context_switch_interrupt>
F:\SCHOOL\文件\智能车\全向组\RTTThreadCH32V103\camCoreWithRTOS\obj/../Libraries/rtthread_libraries/src/scheduler.c:276
            }
        }
    }

    /* enable interrupt */
    rt_hw_interrupt_enable(level);
    3508:	8522                	mv	a0,s0
    350a:	c3dfc0ef          	jal	ra,146 <rt_hw_interrupt_enable>
F:\SCHOOL\文件\智能车\全向组\RTTThreadCH32V103\camCoreWithRTOS\obj/../Libraries/rtthread_libraries/src/scheduler.c:277
}
    350e:	40b2                	lw	ra,12(sp)
    3510:	4422                	lw	s0,8(sp)
    3512:	0141                	addi	sp,sp,16
    3514:	8082                	ret
F:\SCHOOL\文件\智能车\全向组\RTTThreadCH32V103\camCoreWithRTOS\obj/../Libraries/rtthread_libraries/src/scheduler.c:241
                rt_hw_context_switch((rt_uint32_t)&from_thread->sp,
    3516:	05a1                	addi	a1,a1,8
    3518:	01c70513          	addi	a0,a4,28
    351c:	754000ef          	jal	ra,3c70 <rt_hw_context_switch>
F:\SCHOOL\文件\智能车\全向组\RTTThreadCH32V103\camCoreWithRTOS\obj/../Libraries/rtthread_libraries/src/scheduler.c:260
                    rt_hw_interrupt_enable(level);
    3520:	8522                	mv	a0,s0
    3522:	c25fc0ef          	jal	ra,146 <rt_hw_interrupt_enable>
F:\SCHOOL\文件\智能车\全向组\RTTThreadCH32V103\camCoreWithRTOS\obj/../Libraries/rtthread_libraries/src/scheduler.c:263
                return ;
    3526:	b7e5                	j	350e <rt_schedule+0x56>

00003528 <rt_schedule_insert_thread>:
rt_schedule_insert_thread():
F:\SCHOOL\文件\智能车\全向组\RTTThreadCH32V103\camCoreWithRTOS\obj/../Libraries/rtthread_libraries/src/scheduler.c:287
 *
 * @param thread the thread to be inserted
 * @note Please do not invoke this function in user application.
 */
void rt_schedule_insert_thread(struct rt_thread *thread)
{
    3528:	1141                	addi	sp,sp,-16
    352a:	c606                	sw	ra,12(sp)
    352c:	c422                	sw	s0,8(sp)
    352e:	842a                	mv	s0,a0
F:\SCHOOL\文件\智能车\全向组\RTTThreadCH32V103\camCoreWithRTOS\obj/../Libraries/rtthread_libraries/src/scheduler.c:293
    register rt_base_t temp;

    RT_ASSERT(thread != RT_NULL);

    /* disable interrupt */
    temp = rt_hw_interrupt_disable();
    3530:	c11fc0ef          	jal	ra,140 <rt_hw_interrupt_disable>
F:\SCHOOL\文件\智能车\全向组\RTTThreadCH32V103\camCoreWithRTOS\obj/../Libraries/rtthread_libraries/src/scheduler.c:296

    /* change stat */
    thread->stat = RT_THREAD_READY | (thread->stat & ~RT_THREAD_STAT_MASK);
    3534:	03444783          	lbu	a5,52(s0)
    3538:	9bc1                	andi	a5,a5,-16
    353a:	0017e793          	ori	a5,a5,1
    353e:	02f40a23          	sb	a5,52(s0)
F:\SCHOOL\文件\智能车\全向组\RTTThreadCH32V103\camCoreWithRTOS\obj/../Libraries/rtthread_libraries/src/scheduler.c:299

    /* insert thread to ready list */
    rt_list_insert_before(&(rt_thread_priority_table[thread->current_priority]),
    3542:	03544783          	lbu	a5,53(s0)
    3546:	01440693          	addi	a3,s0,20
rt_list_insert_before():
F:\SCHOOL\文件\智能车\全向组\RTTThreadCH32V103\camCoreWithRTOS\Libraries\rtthread_libraries\include/rtservice.h:75
    l->prev->next = n;
    354a:	00379713          	slli	a4,a5,0x3
    354e:	cec18793          	addi	a5,gp,-788 # 2000059c <rt_thread_priority_table>
    3552:	97ba                	add	a5,a5,a4
    3554:	43d8                	lw	a4,4(a5)
    3556:	c314                	sw	a3,0(a4)
F:\SCHOOL\文件\智能车\全向组\RTTThreadCH32V103\camCoreWithRTOS\Libraries\rtthread_libraries\include/rtservice.h:76
    n->prev = l->prev;
    3558:	43d8                	lw	a4,4(a5)
    355a:	cc18                	sw	a4,24(s0)
F:\SCHOOL\文件\智能车\全向组\RTTThreadCH32V103\camCoreWithRTOS\Libraries\rtthread_libraries\include/rtservice.h:78
    l->prev = n;
    355c:	c3d4                	sw	a3,4(a5)
F:\SCHOOL\文件\智能车\全向组\RTTThreadCH32V103\camCoreWithRTOS\Libraries\rtthread_libraries\include/rtservice.h:79
    n->next = l;
    355e:	c85c                	sw	a5,20(s0)
rt_schedule_insert_thread():
F:\SCHOOL\文件\智能车\全向组\RTTThreadCH32V103\camCoreWithRTOS\obj/../Libraries/rtthread_libraries/src/scheduler.c:319
#endif

#if RT_THREAD_PRIORITY_MAX > 32
    rt_thread_ready_table[thread->number] |= thread->high_mask;
#endif
    rt_thread_ready_priority_group |= thread->number_mask;
    3560:	88018793          	addi	a5,gp,-1920 # 20000130 <rt_thread_ready_priority_group>
    3564:	5c18                	lw	a4,56(s0)
    3566:	4394                	lw	a3,0(a5)
    3568:	8f55                	or	a4,a4,a3
    356a:	c398                	sw	a4,0(a5)
F:\SCHOOL\文件\智能车\全向组\RTTThreadCH32V103\camCoreWithRTOS\obj/../Libraries/rtthread_libraries/src/scheduler.c:322

    /* enable interrupt */
    rt_hw_interrupt_enable(temp);
    356c:	bdbfc0ef          	jal	ra,146 <rt_hw_interrupt_enable>
F:\SCHOOL\文件\智能车\全向组\RTTThreadCH32V103\camCoreWithRTOS\obj/../Libraries/rtthread_libraries/src/scheduler.c:323
}
    3570:	40b2                	lw	ra,12(sp)
    3572:	4422                	lw	s0,8(sp)
    3574:	0141                	addi	sp,sp,16
    3576:	8082                	ret

00003578 <rt_schedule_remove_thread>:
rt_schedule_remove_thread():
F:\SCHOOL\文件\智能车\全向组\RTTThreadCH32V103\camCoreWithRTOS\obj/../Libraries/rtthread_libraries/src/scheduler.c:333
 * @param thread the thread to be removed
 *
 * @note Please do not invoke this function in user application.
 */
void rt_schedule_remove_thread(struct rt_thread *thread)
{
    3578:	1141                	addi	sp,sp,-16
    357a:	c606                	sw	ra,12(sp)
    357c:	c422                	sw	s0,8(sp)
    357e:	842a                	mv	s0,a0
F:\SCHOOL\文件\智能车\全向组\RTTThreadCH32V103\camCoreWithRTOS\obj/../Libraries/rtthread_libraries/src/scheduler.c:339
    register rt_base_t temp;

    RT_ASSERT(thread != RT_NULL);

    /* disable interrupt */
    temp = rt_hw_interrupt_disable();
    3580:	bc1fc0ef          	jal	ra,140 <rt_hw_interrupt_disable>
F:\SCHOOL\文件\智能车\全向组\RTTThreadCH32V103\camCoreWithRTOS\obj/../Libraries/rtthread_libraries/src/scheduler.c:356
                  thread->number_mask,
                  thread->high_mask));
#endif

    /* remove thread from ready list */
    rt_list_remove(&(thread->tlist));
    3584:	01440793          	addi	a5,s0,20
rt_list_remove():
F:\SCHOOL\文件\智能车\全向组\RTTThreadCH32V103\camCoreWithRTOS\Libraries\rtthread_libraries\include/rtservice.h:88
    n->next->prev = n->prev;
    3588:	4854                	lw	a3,20(s0)
    358a:	4c18                	lw	a4,24(s0)
    358c:	c2d8                	sw	a4,4(a3)
F:\SCHOOL\文件\智能车\全向组\RTTThreadCH32V103\camCoreWithRTOS\Libraries\rtthread_libraries\include/rtservice.h:89
    n->prev->next = n->next;
    358e:	4854                	lw	a3,20(s0)
    3590:	c314                	sw	a3,0(a4)
F:\SCHOOL\文件\智能车\全向组\RTTThreadCH32V103\camCoreWithRTOS\Libraries\rtthread_libraries\include/rtservice.h:91
    n->next = n->prev = n;
    3592:	cc1c                	sw	a5,24(s0)
    3594:	c85c                	sw	a5,20(s0)
rt_schedule_remove_thread():
F:\SCHOOL\文件\智能车\全向组\RTTThreadCH32V103\camCoreWithRTOS\obj/../Libraries/rtthread_libraries/src/scheduler.c:357
    if (rt_list_isempty(&(rt_thread_priority_table[thread->current_priority])))
    3596:	03544783          	lbu	a5,53(s0)
    359a:	00379713          	slli	a4,a5,0x3
    359e:	cec18793          	addi	a5,gp,-788 # 2000059c <rt_thread_priority_table>
    35a2:	97ba                	add	a5,a5,a4
    35a4:	4398                	lw	a4,0(a5)
    35a6:	00f70863          	beq	a4,a5,35b6 <rt_schedule_remove_thread+0x3e>
F:\SCHOOL\文件\智能车\全向组\RTTThreadCH32V103\camCoreWithRTOS\obj/../Libraries/rtthread_libraries/src/scheduler.c:371
        rt_thread_ready_priority_group &= ~thread->number_mask;
#endif
    }

    /* enable interrupt */
    rt_hw_interrupt_enable(temp);
    35aa:	b9dfc0ef          	jal	ra,146 <rt_hw_interrupt_enable>
F:\SCHOOL\文件\智能车\全向组\RTTThreadCH32V103\camCoreWithRTOS\obj/../Libraries/rtthread_libraries/src/scheduler.c:372
}
    35ae:	40b2                	lw	ra,12(sp)
    35b0:	4422                	lw	s0,8(sp)
    35b2:	0141                	addi	sp,sp,16
    35b4:	8082                	ret
F:\SCHOOL\文件\智能车\全向组\RTTThreadCH32V103\camCoreWithRTOS\obj/../Libraries/rtthread_libraries/src/scheduler.c:366
        rt_thread_ready_priority_group &= ~thread->number_mask;
    35b6:	88018713          	addi	a4,gp,-1920 # 20000130 <rt_thread_ready_priority_group>
    35ba:	5c1c                	lw	a5,56(s0)
    35bc:	fff7c793          	not	a5,a5
    35c0:	4314                	lw	a3,0(a4)
    35c2:	8ff5                	and	a5,a5,a3
    35c4:	c31c                	sw	a5,0(a4)
    35c6:	b7d5                	j	35aa <rt_schedule_remove_thread+0x32>

000035c8 <rt_enter_critical>:
rt_enter_critical():
F:\SCHOOL\文件\智能车\全向组\RTTThreadCH32V103\camCoreWithRTOS\obj/../Libraries/rtthread_libraries/src/scheduler.c:378

/**
 * This function will lock the thread scheduler.
 */
void rt_enter_critical(void)
{
    35c8:	1141                	addi	sp,sp,-16
    35ca:	c606                	sw	ra,12(sp)
F:\SCHOOL\文件\智能车\全向组\RTTThreadCH32V103\camCoreWithRTOS\obj/../Libraries/rtthread_libraries/src/scheduler.c:382
    register rt_base_t level;

    /* disable interrupt */
    level = rt_hw_interrupt_disable();
    35cc:	b75fc0ef          	jal	ra,140 <rt_hw_interrupt_disable>
F:\SCHOOL\文件\智能车\全向组\RTTThreadCH32V103\camCoreWithRTOS\obj/../Libraries/rtthread_libraries/src/scheduler.c:388

    /*
     * the maximal number of nest is RT_UINT16_MAX, which is big
     * enough and does not check here
     */
    rt_scheduler_lock_nest ++;
    35d0:	87418793          	addi	a5,gp,-1932 # 20000124 <rt_scheduler_lock_nest>
    35d4:	0007d703          	lhu	a4,0(a5)
    35d8:	0705                	addi	a4,a4,1
    35da:	00e79023          	sh	a4,0(a5)
F:\SCHOOL\文件\智能车\全向组\RTTThreadCH32V103\camCoreWithRTOS\obj/../Libraries/rtthread_libraries/src/scheduler.c:391

    /* enable interrupt */
    rt_hw_interrupt_enable(level);
    35de:	b69fc0ef          	jal	ra,146 <rt_hw_interrupt_enable>
F:\SCHOOL\文件\智能车\全向组\RTTThreadCH32V103\camCoreWithRTOS\obj/../Libraries/rtthread_libraries/src/scheduler.c:392
}
    35e2:	40b2                	lw	ra,12(sp)
    35e4:	0141                	addi	sp,sp,16
    35e6:	8082                	ret

000035e8 <rt_exit_critical>:
rt_exit_critical():
F:\SCHOOL\文件\智能车\全向组\RTTThreadCH32V103\camCoreWithRTOS\obj/../Libraries/rtthread_libraries/src/scheduler.c:399

/**
 * This function will unlock the thread scheduler.
 */
void rt_exit_critical(void)
{
    35e8:	1141                	addi	sp,sp,-16
    35ea:	c606                	sw	ra,12(sp)
F:\SCHOOL\文件\智能车\全向组\RTTThreadCH32V103\camCoreWithRTOS\obj/../Libraries/rtthread_libraries/src/scheduler.c:403
    register rt_base_t level;

    /* disable interrupt */
    level = rt_hw_interrupt_disable();
    35ec:	b55fc0ef          	jal	ra,140 <rt_hw_interrupt_disable>
F:\SCHOOL\文件\智能车\全向组\RTTThreadCH32V103\camCoreWithRTOS\obj/../Libraries/rtthread_libraries/src/scheduler.c:405

    rt_scheduler_lock_nest --;
    35f0:	87418713          	addi	a4,gp,-1932 # 20000124 <rt_scheduler_lock_nest>
    35f4:	00075783          	lhu	a5,0(a4)
    35f8:	17fd                	addi	a5,a5,-1
    35fa:	07c2                	slli	a5,a5,0x10
    35fc:	87c1                	srai	a5,a5,0x10
    35fe:	00f71023          	sh	a5,0(a4)
F:\SCHOOL\文件\智能车\全向组\RTTThreadCH32V103\camCoreWithRTOS\obj/../Libraries/rtthread_libraries/src/scheduler.c:406
    if (rt_scheduler_lock_nest <= 0)
    3602:	00f05763          	blez	a5,3610 <rt_exit_critical+0x28>
F:\SCHOOL\文件\智能车\全向组\RTTThreadCH32V103\camCoreWithRTOS\obj/../Libraries/rtthread_libraries/src/scheduler.c:421
        }
    }
    else
    {
        /* enable interrupt */
        rt_hw_interrupt_enable(level);
    3606:	b41fc0ef          	jal	ra,146 <rt_hw_interrupt_enable>
F:\SCHOOL\文件\智能车\全向组\RTTThreadCH32V103\camCoreWithRTOS\obj/../Libraries/rtthread_libraries/src/scheduler.c:423
    }
}
    360a:	40b2                	lw	ra,12(sp)
    360c:	0141                	addi	sp,sp,16
    360e:	8082                	ret
F:\SCHOOL\文件\智能车\全向组\RTTThreadCH32V103\camCoreWithRTOS\obj/../Libraries/rtthread_libraries/src/scheduler.c:408
        rt_scheduler_lock_nest = 0;
    3610:	86019a23          	sh	zero,-1932(gp) # 20000124 <rt_scheduler_lock_nest>
F:\SCHOOL\文件\智能车\全向组\RTTThreadCH32V103\camCoreWithRTOS\obj/../Libraries/rtthread_libraries/src/scheduler.c:410
        rt_hw_interrupt_enable(level);
    3614:	b33fc0ef          	jal	ra,146 <rt_hw_interrupt_enable>
F:\SCHOOL\文件\智能车\全向组\RTTThreadCH32V103\camCoreWithRTOS\obj/../Libraries/rtthread_libraries/src/scheduler.c:412
        if (rt_current_thread)
    3618:	8701a783          	lw	a5,-1936(gp) # 20000120 <rt_current_thread>
    361c:	d7fd                	beqz	a5,360a <rt_exit_critical+0x22>
F:\SCHOOL\文件\智能车\全向组\RTTThreadCH32V103\camCoreWithRTOS\obj/../Libraries/rtthread_libraries/src/scheduler.c:415
            rt_schedule();
    361e:	e9bff0ef          	jal	ra,34b8 <rt_schedule>
    3622:	b7e5                	j	360a <rt_exit_critical+0x22>

00003624 <rt_thread_exit>:
rt_thread_exit():
F:\SCHOOL\文件\智能车\全向组\RTTThreadCH32V103\camCoreWithRTOS\obj/../Libraries/rtthread_libraries/src/thread.c:82
}

#endif

void rt_thread_exit(void)
{
    3624:	1141                	addi	sp,sp,-16
    3626:	c606                	sw	ra,12(sp)
    3628:	c422                	sw	s0,8(sp)
    362a:	c226                	sw	s1,4(sp)
F:\SCHOOL\文件\智能车\全向组\RTTThreadCH32V103\camCoreWithRTOS\obj/../Libraries/rtthread_libraries/src/thread.c:87
    struct rt_thread *thread;
    register rt_base_t level;

    /* get current thread */
    thread = rt_current_thread;
    362c:	8701a403          	lw	s0,-1936(gp) # 20000120 <rt_current_thread>
F:\SCHOOL\文件\智能车\全向组\RTTThreadCH32V103\camCoreWithRTOS\obj/../Libraries/rtthread_libraries/src/thread.c:90

    /* disable interrupt */
    level = rt_hw_interrupt_disable();
    3630:	b11fc0ef          	jal	ra,140 <rt_hw_interrupt_disable>
    3634:	84aa                	mv	s1,a0
F:\SCHOOL\文件\智能车\全向组\RTTThreadCH32V103\camCoreWithRTOS\obj/../Libraries/rtthread_libraries/src/thread.c:93

    /* remove from schedule */
    rt_schedule_remove_thread(thread);
    3636:	8522                	mv	a0,s0
    3638:	f41ff0ef          	jal	ra,3578 <rt_schedule_remove_thread>
F:\SCHOOL\文件\智能车\全向组\RTTThreadCH32V103\camCoreWithRTOS\obj/../Libraries/rtthread_libraries/src/thread.c:95
    /* change stat */
    thread->stat = RT_THREAD_CLOSE;
    363c:	4791                	li	a5,4
    363e:	02f40a23          	sb	a5,52(s0)
F:\SCHOOL\文件\智能车\全向组\RTTThreadCH32V103\camCoreWithRTOS\obj/../Libraries/rtthread_libraries/src/thread.c:98

    /* remove it from timer list */
    rt_timer_detach(&thread->thread_timer);
    3642:	04440513          	addi	a0,s0,68
    3646:	2e75                	jal	3a02 <rt_timer_detach>
F:\SCHOOL\文件\智能车\全向组\RTTThreadCH32V103\camCoreWithRTOS\obj/../Libraries/rtthread_libraries/src/thread.c:100

    if ((rt_object_is_systemobject((rt_object_t)thread) == RT_TRUE) &&
    3648:	8522                	mv	a0,s0
    364a:	e0bff0ef          	jal	ra,3454 <rt_object_is_systemobject>
    364e:	4785                	li	a5,1
    3650:	02f50763          	beq	a0,a5,367e <rt_thread_exit+0x5a>
F:\SCHOOL\文件\智能车\全向组\RTTThreadCH32V103\camCoreWithRTOS\obj/../Libraries/rtthread_libraries/src/thread.c:108
        rt_object_detach((rt_object_t)thread);
    }
    else
    {
        /* insert to defunct thread list */
        rt_list_insert_after(&rt_thread_defunct, &(thread->tlist));
    3654:	01440713          	addi	a4,s0,20
rt_list_insert_after():
F:\SCHOOL\文件\智能车\全向组\RTTThreadCH32V103\camCoreWithRTOS\Libraries\rtthread_libraries\include/rtservice.h:60
    l->next->prev = n;
    3658:	8781a683          	lw	a3,-1928(gp) # 20000128 <rt_thread_defunct>
    365c:	c2d8                	sw	a4,4(a3)
F:\SCHOOL\文件\智能车\全向组\RTTThreadCH32V103\camCoreWithRTOS\Libraries\rtthread_libraries\include/rtservice.h:61
    n->next = l->next;
    365e:	c854                	sw	a3,20(s0)
F:\SCHOOL\文件\智能车\全向组\RTTThreadCH32V103\camCoreWithRTOS\Libraries\rtthread_libraries\include/rtservice.h:63
    l->next = n;
    3660:	86e1ac23          	sw	a4,-1928(gp) # 20000128 <rt_thread_defunct>
F:\SCHOOL\文件\智能车\全向组\RTTThreadCH32V103\camCoreWithRTOS\Libraries\rtthread_libraries\include/rtservice.h:64
    n->prev = l;
    3664:	87818793          	addi	a5,gp,-1928 # 20000128 <rt_thread_defunct>
    3668:	cc1c                	sw	a5,24(s0)
rt_thread_exit():
F:\SCHOOL\文件\智能车\全向组\RTTThreadCH32V103\camCoreWithRTOS\obj/../Libraries/rtthread_libraries/src/thread.c:112
    }

    /* enable interrupt */
    rt_hw_interrupt_enable(level);
    366a:	8526                	mv	a0,s1
    366c:	adbfc0ef          	jal	ra,146 <rt_hw_interrupt_enable>
F:\SCHOOL\文件\智能车\全向组\RTTThreadCH32V103\camCoreWithRTOS\obj/../Libraries/rtthread_libraries/src/thread.c:115

    /* switch to next task */
    rt_schedule();
    3670:	e49ff0ef          	jal	ra,34b8 <rt_schedule>
F:\SCHOOL\文件\智能车\全向组\RTTThreadCH32V103\camCoreWithRTOS\obj/../Libraries/rtthread_libraries/src/thread.c:116
}
    3674:	40b2                	lw	ra,12(sp)
    3676:	4422                	lw	s0,8(sp)
    3678:	4492                	lw	s1,4(sp)
    367a:	0141                	addi	sp,sp,16
    367c:	8082                	ret
F:\SCHOOL\文件\智能车\全向组\RTTThreadCH32V103\camCoreWithRTOS\obj/../Libraries/rtthread_libraries/src/thread.c:100 (discriminator 1)
    if ((rt_object_is_systemobject((rt_object_t)thread) == RT_TRUE) &&
    367e:	583c                	lw	a5,112(s0)
    3680:	fbf1                	bnez	a5,3654 <rt_thread_exit+0x30>
F:\SCHOOL\文件\智能车\全向组\RTTThreadCH32V103\camCoreWithRTOS\obj/../Libraries/rtthread_libraries/src/thread.c:103
        rt_object_detach((rt_object_t)thread);
    3682:	8522                	mv	a0,s0
    3684:	d0bff0ef          	jal	ra,338e <rt_object_detach>
    3688:	b7cd                	j	366a <rt_thread_exit+0x46>

0000368a <rt_thread_timeout>:
rt_thread_timeout():
F:\SCHOOL\文件\智能车\全向组\RTTThreadCH32V103\camCoreWithRTOS\obj/../Libraries/rtthread_libraries/src/thread.c:732
 * when thread is timeout to wait some resource.
 *
 * @param parameter the parameter of thread timeout function
 */
void rt_thread_timeout(void *parameter)
{
    368a:	1141                	addi	sp,sp,-16
    368c:	c606                	sw	ra,12(sp)
F:\SCHOOL\文件\智能车\全向组\RTTThreadCH32V103\camCoreWithRTOS\obj/../Libraries/rtthread_libraries/src/thread.c:743
    RT_ASSERT(thread != RT_NULL);
    RT_ASSERT((thread->stat & RT_THREAD_STAT_MASK) == RT_THREAD_SUSPEND);
    RT_ASSERT(rt_object_get_type((rt_object_t)thread) == RT_Object_Class_Thread);

    /* set error number */
    thread->error = -RT_ETIMEOUT;
    368e:	5779                	li	a4,-2
    3690:	d918                	sw	a4,48(a0)
F:\SCHOOL\文件\智能车\全向组\RTTThreadCH32V103\camCoreWithRTOS\obj/../Libraries/rtthread_libraries/src/thread.c:746

    /* remove from suspend list */
    rt_list_remove(&(thread->tlist));
    3692:	01450713          	addi	a4,a0,20
rt_list_remove():
F:\SCHOOL\文件\智能车\全向组\RTTThreadCH32V103\camCoreWithRTOS\Libraries\rtthread_libraries\include/rtservice.h:88
    n->next->prev = n->prev;
    3696:	4950                	lw	a2,20(a0)
    3698:	4d14                	lw	a3,24(a0)
    369a:	c254                	sw	a3,4(a2)
F:\SCHOOL\文件\智能车\全向组\RTTThreadCH32V103\camCoreWithRTOS\Libraries\rtthread_libraries\include/rtservice.h:89
    n->prev->next = n->next;
    369c:	4950                	lw	a2,20(a0)
    369e:	c290                	sw	a2,0(a3)
F:\SCHOOL\文件\智能车\全向组\RTTThreadCH32V103\camCoreWithRTOS\Libraries\rtthread_libraries\include/rtservice.h:91
    n->next = n->prev = n;
    36a0:	cd18                	sw	a4,24(a0)
    36a2:	c958                	sw	a4,20(a0)
rt_thread_timeout():
F:\SCHOOL\文件\智能车\全向组\RTTThreadCH32V103\camCoreWithRTOS\obj/../Libraries/rtthread_libraries/src/thread.c:749

    /* insert to schedule ready list */
    rt_schedule_insert_thread(thread);
    36a4:	e85ff0ef          	jal	ra,3528 <rt_schedule_insert_thread>
F:\SCHOOL\文件\智能车\全向组\RTTThreadCH32V103\camCoreWithRTOS\obj/../Libraries/rtthread_libraries/src/thread.c:752

    /* do schedule */
    rt_schedule();
    36a8:	e11ff0ef          	jal	ra,34b8 <rt_schedule>
F:\SCHOOL\文件\智能车\全向组\RTTThreadCH32V103\camCoreWithRTOS\obj/../Libraries/rtthread_libraries/src/thread.c:753
}
    36ac:	40b2                	lw	ra,12(sp)
    36ae:	0141                	addi	sp,sp,16
    36b0:	8082                	ret

000036b2 <rt_thread_init>:
rt_thread_init():
F:\SCHOOL\文件\智能车\全向组\RTTThreadCH32V103\camCoreWithRTOS\obj/../Libraries/rtthread_libraries/src/thread.c:228
{
    36b2:	1101                	addi	sp,sp,-32
    36b4:	ce06                	sw	ra,28(sp)
    36b6:	cc22                	sw	s0,24(sp)
    36b8:	ca26                	sw	s1,20(sp)
    36ba:	c84a                	sw	s2,16(sp)
    36bc:	c64e                	sw	s3,12(sp)
    36be:	c452                	sw	s4,8(sp)
    36c0:	c256                	sw	s5,4(sp)
    36c2:	c05a                	sw	s6,0(sp)
    36c4:	842a                	mv	s0,a0
    36c6:	8b32                	mv	s6,a2
    36c8:	8ab6                	mv	s5,a3
    36ca:	89ba                	mv	s3,a4
    36cc:	8a3e                	mv	s4,a5
    36ce:	8942                	mv	s2,a6
    36d0:	84c6                	mv	s1,a7
F:\SCHOOL\文件\智能车\全向组\RTTThreadCH32V103\camCoreWithRTOS\obj/../Libraries/rtthread_libraries/src/thread.c:234
    rt_object_init((rt_object_t)thread, RT_Object_Class_Thread, name);
    36d2:	862e                	mv	a2,a1
    36d4:	4585                	li	a1,1
    36d6:	c49ff0ef          	jal	ra,331e <rt_object_init>
_rt_thread_init():
F:\SCHOOL\文件\智能车\全向组\RTTThreadCH32V103\camCoreWithRTOS\obj/../Libraries/rtthread_libraries/src/thread.c:128
    rt_list_init(&(thread->tlist));
    36da:	01440793          	addi	a5,s0,20
rt_list_init():
F:\SCHOOL\文件\智能车\全向组\RTTThreadCH32V103\camCoreWithRTOS\Libraries\rtthread_libraries\include/rtservice.h:49
    l->next = l->prev = l;
    36de:	cc1c                	sw	a5,24(s0)
    36e0:	c85c                	sw	a5,20(s0)
_rt_thread_init():
F:\SCHOOL\文件\智能车\全向组\RTTThreadCH32V103\camCoreWithRTOS\obj/../Libraries/rtthread_libraries/src/thread.c:130
    thread->entry = (void *)entry;
    36e2:	03642023          	sw	s6,32(s0)
F:\SCHOOL\文件\智能车\全向组\RTTThreadCH32V103\camCoreWithRTOS\obj/../Libraries/rtthread_libraries/src/thread.c:131
    thread->parameter = parameter;
    36e6:	03542223          	sw	s5,36(s0)
F:\SCHOOL\文件\智能车\全向组\RTTThreadCH32V103\camCoreWithRTOS\obj/../Libraries/rtthread_libraries/src/thread.c:134
    thread->stack_addr = stack_start;
    36ea:	03342423          	sw	s3,40(s0)
F:\SCHOOL\文件\智能车\全向组\RTTThreadCH32V103\camCoreWithRTOS\obj/../Libraries/rtthread_libraries/src/thread.c:135
    thread->stack_size = stack_size;
    36ee:	03442623          	sw	s4,44(s0)
F:\SCHOOL\文件\智能车\全向组\RTTThreadCH32V103\camCoreWithRTOS\obj/../Libraries/rtthread_libraries/src/thread.c:138
    rt_memset(thread->stack_addr, '#', thread->stack_size);
    36f2:	8652                	mv	a2,s4
    36f4:	02300593          	li	a1,35
    36f8:	854e                	mv	a0,s3
    36fa:	ae2ff0ef          	jal	ra,29dc <rt_memset>
F:\SCHOOL\文件\智能车\全向组\RTTThreadCH32V103\camCoreWithRTOS\obj/../Libraries/rtthread_libraries/src/thread.c:145
                                          (void *)((char *)thread->stack_addr + thread->stack_size - 4),
    36fe:	545c                	lw	a5,44(s0)
    3700:	17f1                	addi	a5,a5,-4
    3702:	5410                	lw	a2,40(s0)
F:\SCHOOL\文件\智能车\全向组\RTTThreadCH32V103\camCoreWithRTOS\obj/../Libraries/rtthread_libraries/src/thread.c:144
    thread->sp = (void *)rt_hw_stack_init(thread->entry, thread->parameter,
    3704:	000036b7          	lui	a3,0x3
    3708:	62468693          	addi	a3,a3,1572 # 3624 <rt_thread_exit>
    370c:	963e                	add	a2,a2,a5
    370e:	504c                	lw	a1,36(s0)
    3710:	5008                	lw	a0,32(s0)
    3712:	2315                	jal	3c36 <rt_hw_stack_init>
    3714:	cc48                	sw	a0,28(s0)
F:\SCHOOL\文件\智能车\全向组\RTTThreadCH32V103\camCoreWithRTOS\obj/../Libraries/rtthread_libraries/src/thread.c:151
    thread->init_priority    = priority;
    3716:	03240b23          	sb	s2,54(s0)
F:\SCHOOL\文件\智能车\全向组\RTTThreadCH32V103\camCoreWithRTOS\obj/../Libraries/rtthread_libraries/src/thread.c:152
    thread->current_priority = priority;
    371a:	03240aa3          	sb	s2,53(s0)
F:\SCHOOL\文件\智能车\全向组\RTTThreadCH32V103\camCoreWithRTOS\obj/../Libraries/rtthread_libraries/src/thread.c:154
    thread->number_mask = 0;
    371e:	02042c23          	sw	zero,56(s0)
F:\SCHOOL\文件\智能车\全向组\RTTThreadCH32V103\camCoreWithRTOS\obj/../Libraries/rtthread_libraries/src/thread.c:161
    thread->init_tick      = tick;
    3722:	dc44                	sw	s1,60(s0)
F:\SCHOOL\文件\智能车\全向组\RTTThreadCH32V103\camCoreWithRTOS\obj/../Libraries/rtthread_libraries/src/thread.c:162
    thread->remaining_tick = tick;
    3724:	c024                	sw	s1,64(s0)
F:\SCHOOL\文件\智能车\全向组\RTTThreadCH32V103\camCoreWithRTOS\obj/../Libraries/rtthread_libraries/src/thread.c:165
    thread->error = RT_EOK;
    3726:	02042823          	sw	zero,48(s0)
F:\SCHOOL\文件\智能车\全向组\RTTThreadCH32V103\camCoreWithRTOS\obj/../Libraries/rtthread_libraries/src/thread.c:166
    thread->stat  = RT_THREAD_INIT;
    372a:	02040a23          	sb	zero,52(s0)
F:\SCHOOL\文件\智能车\全向组\RTTThreadCH32V103\camCoreWithRTOS\obj/../Libraries/rtthread_libraries/src/thread.c:169
    thread->cleanup   = 0;
    372e:	06042823          	sw	zero,112(s0)
F:\SCHOOL\文件\智能车\全向组\RTTThreadCH32V103\camCoreWithRTOS\obj/../Libraries/rtthread_libraries/src/thread.c:170
    thread->user_data = 0;
    3732:	06042a23          	sw	zero,116(s0)
F:\SCHOOL\文件\智能车\全向组\RTTThreadCH32V103\camCoreWithRTOS\obj/../Libraries/rtthread_libraries/src/thread.c:173
    rt_timer_init(&(thread->thread_timer),
    3736:	4781                	li	a5,0
    3738:	4701                	li	a4,0
    373a:	86a2                	mv	a3,s0
    373c:	00003637          	lui	a2,0x3
    3740:	68a60613          	addi	a2,a2,1674 # 368a <rt_thread_timeout>
    3744:	85a2                	mv	a1,s0
    3746:	04440513          	addi	a0,s0,68
    374a:	24ad                	jal	39b4 <rt_timer_init>
rt_thread_init():
F:\SCHOOL\文件\智能车\全向组\RTTThreadCH32V103\camCoreWithRTOS\obj/../Libraries/rtthread_libraries/src/thread.c:244
}
    374c:	4501                	li	a0,0
    374e:	40f2                	lw	ra,28(sp)
    3750:	4462                	lw	s0,24(sp)
    3752:	44d2                	lw	s1,20(sp)
    3754:	4942                	lw	s2,16(sp)
    3756:	49b2                	lw	s3,12(sp)
    3758:	4a22                	lw	s4,8(sp)
    375a:	4a92                	lw	s5,4(sp)
    375c:	4b02                	lw	s6,0(sp)
    375e:	6105                	addi	sp,sp,32
    3760:	8082                	ret

00003762 <rt_thread_self>:
rt_thread_self():
F:\SCHOOL\文件\智能车\全向组\RTTThreadCH32V103\camCoreWithRTOS\obj/../Libraries/rtthread_libraries/src/thread.c:255
}
    3762:	8701a503          	lw	a0,-1936(gp) # 20000120 <rt_current_thread>
    3766:	8082                	ret

00003768 <rt_thread_create>:
rt_thread_create():
F:\SCHOOL\文件\智能车\全向组\RTTThreadCH32V103\camCoreWithRTOS\obj/../Libraries/rtthread_libraries/src/thread.c:368
{
    3768:	1101                	addi	sp,sp,-32
    376a:	ce06                	sw	ra,28(sp)
    376c:	cc22                	sw	s0,24(sp)
    376e:	ca26                	sw	s1,20(sp)
    3770:	c84a                	sw	s2,16(sp)
    3772:	c64e                	sw	s3,12(sp)
    3774:	c452                	sw	s4,8(sp)
    3776:	c256                	sw	s5,4(sp)
    3778:	8aae                	mv	s5,a1
    377a:	8a32                	mv	s4,a2
    377c:	84b6                	mv	s1,a3
    377e:	89ba                	mv	s3,a4
    3780:	893e                	mv	s2,a5
F:\SCHOOL\文件\智能车\全向组\RTTThreadCH32V103\camCoreWithRTOS\obj/../Libraries/rtthread_libraries/src/thread.c:372
    thread = (struct rt_thread *)rt_object_allocate(RT_Object_Class_Thread,
    3782:	85aa                	mv	a1,a0
    3784:	4505                	li	a0,1
    3786:	c37ff0ef          	jal	ra,33bc <rt_object_allocate>
F:\SCHOOL\文件\智能车\全向组\RTTThreadCH32V103\camCoreWithRTOS\obj/../Libraries/rtthread_libraries/src/thread.c:374
    if (thread == RT_NULL)
    378a:	cd49                	beqz	a0,3824 <rt_thread_create+0xbc>
    378c:	842a                	mv	s0,a0
F:\SCHOOL\文件\智能车\全向组\RTTThreadCH32V103\camCoreWithRTOS\obj/../Libraries/rtthread_libraries/src/thread.c:377
    stack_start = (void *)RT_KERNEL_MALLOC(stack_size);
    378e:	8526                	mv	a0,s1
    3790:	935ff0ef          	jal	ra,30c4 <rt_malloc>
F:\SCHOOL\文件\智能车\全向组\RTTThreadCH32V103\camCoreWithRTOS\obj/../Libraries/rtthread_libraries/src/thread.c:378
    if (stack_start == RT_NULL)
    3794:	c159                	beqz	a0,381a <rt_thread_create+0xb2>
_rt_thread_init():
F:\SCHOOL\文件\智能车\全向组\RTTThreadCH32V103\camCoreWithRTOS\obj/../Libraries/rtthread_libraries/src/thread.c:128
    rt_list_init(&(thread->tlist));
    3796:	01440793          	addi	a5,s0,20
rt_list_init():
F:\SCHOOL\文件\智能车\全向组\RTTThreadCH32V103\camCoreWithRTOS\Libraries\rtthread_libraries\include/rtservice.h:49
    379a:	cc1c                	sw	a5,24(s0)
    379c:	c85c                	sw	a5,20(s0)
_rt_thread_init():
F:\SCHOOL\文件\智能车\全向组\RTTThreadCH32V103\camCoreWithRTOS\obj/../Libraries/rtthread_libraries/src/thread.c:130
    thread->entry = (void *)entry;
    379e:	03542023          	sw	s5,32(s0)
F:\SCHOOL\文件\智能车\全向组\RTTThreadCH32V103\camCoreWithRTOS\obj/../Libraries/rtthread_libraries/src/thread.c:131
    thread->parameter = parameter;
    37a2:	03442223          	sw	s4,36(s0)
F:\SCHOOL\文件\智能车\全向组\RTTThreadCH32V103\camCoreWithRTOS\obj/../Libraries/rtthread_libraries/src/thread.c:134
    thread->stack_addr = stack_start;
    37a6:	d408                	sw	a0,40(s0)
F:\SCHOOL\文件\智能车\全向组\RTTThreadCH32V103\camCoreWithRTOS\obj/../Libraries/rtthread_libraries/src/thread.c:135
    thread->stack_size = stack_size;
    37a8:	d444                	sw	s1,44(s0)
F:\SCHOOL\文件\智能车\全向组\RTTThreadCH32V103\camCoreWithRTOS\obj/../Libraries/rtthread_libraries/src/thread.c:138
    rt_memset(thread->stack_addr, '#', thread->stack_size);
    37aa:	8626                	mv	a2,s1
    37ac:	02300593          	li	a1,35
    37b0:	a2cff0ef          	jal	ra,29dc <rt_memset>
F:\SCHOOL\文件\智能车\全向组\RTTThreadCH32V103\camCoreWithRTOS\obj/../Libraries/rtthread_libraries/src/thread.c:145
                                          (void *)((char *)thread->stack_addr + thread->stack_size - 4),
    37b4:	545c                	lw	a5,44(s0)
    37b6:	17f1                	addi	a5,a5,-4
    37b8:	5410                	lw	a2,40(s0)
F:\SCHOOL\文件\智能车\全向组\RTTThreadCH32V103\camCoreWithRTOS\obj/../Libraries/rtthread_libraries/src/thread.c:144
    thread->sp = (void *)rt_hw_stack_init(thread->entry, thread->parameter,
    37ba:	000036b7          	lui	a3,0x3
    37be:	62468693          	addi	a3,a3,1572 # 3624 <rt_thread_exit>
    37c2:	963e                	add	a2,a2,a5
    37c4:	504c                	lw	a1,36(s0)
    37c6:	5008                	lw	a0,32(s0)
    37c8:	21bd                	jal	3c36 <rt_hw_stack_init>
    37ca:	cc48                	sw	a0,28(s0)
F:\SCHOOL\文件\智能车\全向组\RTTThreadCH32V103\camCoreWithRTOS\obj/../Libraries/rtthread_libraries/src/thread.c:151
    thread->init_priority    = priority;
    37cc:	03340b23          	sb	s3,54(s0)
F:\SCHOOL\文件\智能车\全向组\RTTThreadCH32V103\camCoreWithRTOS\obj/../Libraries/rtthread_libraries/src/thread.c:152
    thread->current_priority = priority;
    37d0:	03340aa3          	sb	s3,53(s0)
F:\SCHOOL\文件\智能车\全向组\RTTThreadCH32V103\camCoreWithRTOS\obj/../Libraries/rtthread_libraries/src/thread.c:154
    thread->number_mask = 0;
    37d4:	02042c23          	sw	zero,56(s0)
F:\SCHOOL\文件\智能车\全向组\RTTThreadCH32V103\camCoreWithRTOS\obj/../Libraries/rtthread_libraries/src/thread.c:161
    thread->init_tick      = tick;
    37d8:	03242e23          	sw	s2,60(s0)
F:\SCHOOL\文件\智能车\全向组\RTTThreadCH32V103\camCoreWithRTOS\obj/../Libraries/rtthread_libraries/src/thread.c:162
    thread->remaining_tick = tick;
    37dc:	05242023          	sw	s2,64(s0)
F:\SCHOOL\文件\智能车\全向组\RTTThreadCH32V103\camCoreWithRTOS\obj/../Libraries/rtthread_libraries/src/thread.c:165
    thread->error = RT_EOK;
    37e0:	02042823          	sw	zero,48(s0)
F:\SCHOOL\文件\智能车\全向组\RTTThreadCH32V103\camCoreWithRTOS\obj/../Libraries/rtthread_libraries/src/thread.c:166
    thread->stat  = RT_THREAD_INIT;
    37e4:	02040a23          	sb	zero,52(s0)
F:\SCHOOL\文件\智能车\全向组\RTTThreadCH32V103\camCoreWithRTOS\obj/../Libraries/rtthread_libraries/src/thread.c:169
    thread->cleanup   = 0;
    37e8:	06042823          	sw	zero,112(s0)
F:\SCHOOL\文件\智能车\全向组\RTTThreadCH32V103\camCoreWithRTOS\obj/../Libraries/rtthread_libraries/src/thread.c:170
    thread->user_data = 0;
    37ec:	06042a23          	sw	zero,116(s0)
F:\SCHOOL\文件\智能车\全向组\RTTThreadCH32V103\camCoreWithRTOS\obj/../Libraries/rtthread_libraries/src/thread.c:173
    rt_timer_init(&(thread->thread_timer),
    37f0:	4781                	li	a5,0
    37f2:	4701                	li	a4,0
    37f4:	86a2                	mv	a3,s0
    37f6:	00003637          	lui	a2,0x3
    37fa:	68a60613          	addi	a2,a2,1674 # 368a <rt_thread_timeout>
    37fe:	85a2                	mv	a1,s0
    3800:	04440513          	addi	a0,s0,68
    3804:	2a45                	jal	39b4 <rt_timer_init>
rt_thread_create():
F:\SCHOOL\文件\智能车\全向组\RTTThreadCH32V103\camCoreWithRTOS\obj/../Libraries/rtthread_libraries/src/thread.c:396
}
    3806:	8522                	mv	a0,s0
    3808:	40f2                	lw	ra,28(sp)
    380a:	4462                	lw	s0,24(sp)
    380c:	44d2                	lw	s1,20(sp)
    380e:	4942                	lw	s2,16(sp)
    3810:	49b2                	lw	s3,12(sp)
    3812:	4a22                	lw	s4,8(sp)
    3814:	4a92                	lw	s5,4(sp)
    3816:	6105                	addi	sp,sp,32
    3818:	8082                	ret
F:\SCHOOL\文件\智能车\全向组\RTTThreadCH32V103\camCoreWithRTOS\obj/../Libraries/rtthread_libraries/src/thread.c:381
        rt_object_delete((rt_object_t)thread);
    381a:	8522                	mv	a0,s0
    381c:	c05ff0ef          	jal	ra,3420 <rt_object_delete>
F:\SCHOOL\文件\智能车\全向组\RTTThreadCH32V103\camCoreWithRTOS\obj/../Libraries/rtthread_libraries/src/thread.c:383
        return RT_NULL;
    3820:	4401                	li	s0,0
    3822:	b7d5                	j	3806 <rt_thread_create+0x9e>
F:\SCHOOL\文件\智能车\全向组\RTTThreadCH32V103\camCoreWithRTOS\obj/../Libraries/rtthread_libraries/src/thread.c:375
        return RT_NULL;
    3824:	4401                	li	s0,0
    3826:	b7c5                	j	3806 <rt_thread_create+0x9e>

00003828 <rt_thread_yield>:
rt_thread_yield():
F:\SCHOOL\文件\智能车\全向组\RTTThreadCH32V103\camCoreWithRTOS\obj/../Libraries/rtthread_libraries/src/thread.c:450
{
    3828:	1141                	addi	sp,sp,-16
    382a:	c606                	sw	ra,12(sp)
F:\SCHOOL\文件\智能车\全向组\RTTThreadCH32V103\camCoreWithRTOS\obj/../Libraries/rtthread_libraries/src/thread.c:455
    level = rt_hw_interrupt_disable();
    382c:	915fc0ef          	jal	ra,140 <rt_hw_interrupt_disable>
F:\SCHOOL\文件\智能车\全向组\RTTThreadCH32V103\camCoreWithRTOS\obj/../Libraries/rtthread_libraries/src/thread.c:458
    thread = rt_current_thread;
    3830:	8701a783          	lw	a5,-1936(gp) # 20000120 <rt_current_thread>
F:\SCHOOL\文件\智能车\全向组\RTTThreadCH32V103\camCoreWithRTOS\obj/../Libraries/rtthread_libraries/src/thread.c:461
    if ((thread->stat & RT_THREAD_STAT_MASK) == RT_THREAD_READY &&
    3834:	0347c703          	lbu	a4,52(a5)
    3838:	8b3d                	andi	a4,a4,15
    383a:	4685                	li	a3,1
    383c:	00d71663          	bne	a4,a3,3848 <rt_thread_yield+0x20>
F:\SCHOOL\文件\智能车\全向组\RTTThreadCH32V103\camCoreWithRTOS\obj/../Libraries/rtthread_libraries/src/thread.c:462 (discriminator 1)
        thread->tlist.next != thread->tlist.prev)
    3840:	4bd4                	lw	a3,20(a5)
    3842:	4f98                	lw	a4,24(a5)
F:\SCHOOL\文件\智能车\全向组\RTTThreadCH32V103\camCoreWithRTOS\obj/../Libraries/rtthread_libraries/src/thread.c:461 (discriminator 1)
    if ((thread->stat & RT_THREAD_STAT_MASK) == RT_THREAD_READY &&
    3844:	00e69863          	bne	a3,a4,3854 <rt_thread_yield+0x2c>
F:\SCHOOL\文件\智能车\全向组\RTTThreadCH32V103\camCoreWithRTOS\obj/../Libraries/rtthread_libraries/src/thread.c:480
    rt_hw_interrupt_enable(level);
    3848:	8fffc0ef          	jal	ra,146 <rt_hw_interrupt_enable>
F:\SCHOOL\文件\智能车\全向组\RTTThreadCH32V103\camCoreWithRTOS\obj/../Libraries/rtthread_libraries/src/thread.c:483
}
    384c:	4501                	li	a0,0
    384e:	40b2                	lw	ra,12(sp)
    3850:	0141                	addi	sp,sp,16
    3852:	8082                	ret
F:\SCHOOL\文件\智能车\全向组\RTTThreadCH32V103\camCoreWithRTOS\obj/../Libraries/rtthread_libraries/src/thread.c:465
        rt_list_remove(&(thread->tlist));
    3854:	01478613          	addi	a2,a5,20
rt_list_remove():
F:\SCHOOL\文件\智能车\全向组\RTTThreadCH32V103\camCoreWithRTOS\Libraries\rtthread_libraries\include/rtservice.h:88
    n->next->prev = n->prev;
    3858:	c2d8                	sw	a4,4(a3)
F:\SCHOOL\文件\智能车\全向组\RTTThreadCH32V103\camCoreWithRTOS\Libraries\rtthread_libraries\include/rtservice.h:89
    n->prev->next = n->next;
    385a:	4bd4                	lw	a3,20(a5)
    385c:	c314                	sw	a3,0(a4)
F:\SCHOOL\文件\智能车\全向组\RTTThreadCH32V103\camCoreWithRTOS\Libraries\rtthread_libraries\include/rtservice.h:91
    n->next = n->prev = n;
    385e:	cf90                	sw	a2,24(a5)
    3860:	cbd0                	sw	a2,20(a5)
rt_thread_yield():
F:\SCHOOL\文件\智能车\全向组\RTTThreadCH32V103\camCoreWithRTOS\obj/../Libraries/rtthread_libraries/src/thread.c:468
        rt_list_insert_before(&(rt_thread_priority_table[thread->current_priority]),
    3862:	0357c683          	lbu	a3,53(a5)
rt_list_insert_before():
F:\SCHOOL\文件\智能车\全向组\RTTThreadCH32V103\camCoreWithRTOS\Libraries\rtthread_libraries\include/rtservice.h:75
    l->prev->next = n;
    3866:	068e                	slli	a3,a3,0x3
    3868:	cec18713          	addi	a4,gp,-788 # 2000059c <rt_thread_priority_table>
    386c:	9736                	add	a4,a4,a3
    386e:	4354                	lw	a3,4(a4)
    3870:	c290                	sw	a2,0(a3)
F:\SCHOOL\文件\智能车\全向组\RTTThreadCH32V103\camCoreWithRTOS\Libraries\rtthread_libraries\include/rtservice.h:76
    n->prev = l->prev;
    3872:	4354                	lw	a3,4(a4)
    3874:	cf94                	sw	a3,24(a5)
F:\SCHOOL\文件\智能车\全向组\RTTThreadCH32V103\camCoreWithRTOS\Libraries\rtthread_libraries\include/rtservice.h:78
    l->prev = n;
    3876:	c350                	sw	a2,4(a4)
F:\SCHOOL\文件\智能车\全向组\RTTThreadCH32V103\camCoreWithRTOS\Libraries\rtthread_libraries\include/rtservice.h:79
    n->next = l;
    3878:	cbd8                	sw	a4,20(a5)
rt_thread_yield():
F:\SCHOOL\文件\智能车\全向组\RTTThreadCH32V103\camCoreWithRTOS\obj/../Libraries/rtthread_libraries/src/thread.c:472
        rt_hw_interrupt_enable(level);
    387a:	8cdfc0ef          	jal	ra,146 <rt_hw_interrupt_enable>
F:\SCHOOL\文件\智能车\全向组\RTTThreadCH32V103\camCoreWithRTOS\obj/../Libraries/rtthread_libraries/src/thread.c:474
        rt_schedule();
    387e:	c3bff0ef          	jal	ra,34b8 <rt_schedule>
F:\SCHOOL\文件\智能车\全向组\RTTThreadCH32V103\camCoreWithRTOS\obj/../Libraries/rtthread_libraries/src/thread.c:476
        return RT_EOK;
    3882:	b7e9                	j	384c <rt_thread_yield+0x24>

00003884 <rt_thread_suspend>:
rt_thread_suspend():
F:\SCHOOL\文件\智能车\全向组\RTTThreadCH32V103\camCoreWithRTOS\obj/../Libraries/rtthread_libraries/src/thread.c:655
    if ((thread->stat & RT_THREAD_STAT_MASK) != RT_THREAD_READY)
    3884:	03454783          	lbu	a5,52(a0)
    3888:	8bbd                	andi	a5,a5,15
    388a:	4705                	li	a4,1
    388c:	04e79063          	bne	a5,a4,38cc <rt_thread_suspend+0x48>
F:\SCHOOL\文件\智能车\全向组\RTTThreadCH32V103\camCoreWithRTOS\obj/../Libraries/rtthread_libraries/src/thread.c:646
{
    3890:	1141                	addi	sp,sp,-16
    3892:	c606                	sw	ra,12(sp)
    3894:	c422                	sw	s0,8(sp)
    3896:	c226                	sw	s1,4(sp)
    3898:	842a                	mv	s0,a0
F:\SCHOOL\文件\智能车\全向组\RTTThreadCH32V103\camCoreWithRTOS\obj/../Libraries/rtthread_libraries/src/thread.c:664
    temp = rt_hw_interrupt_disable();
    389a:	8a7fc0ef          	jal	ra,140 <rt_hw_interrupt_disable>
    389e:	84aa                	mv	s1,a0
F:\SCHOOL\文件\智能车\全向组\RTTThreadCH32V103\camCoreWithRTOS\obj/../Libraries/rtthread_libraries/src/thread.c:667
    thread->stat = RT_THREAD_SUSPEND | (thread->stat & ~RT_THREAD_STAT_MASK);
    38a0:	03444783          	lbu	a5,52(s0)
    38a4:	9bc1                	andi	a5,a5,-16
    38a6:	0027e793          	ori	a5,a5,2
    38aa:	02f40a23          	sb	a5,52(s0)
F:\SCHOOL\文件\智能车\全向组\RTTThreadCH32V103\camCoreWithRTOS\obj/../Libraries/rtthread_libraries/src/thread.c:668
    rt_schedule_remove_thread(thread);
    38ae:	8522                	mv	a0,s0
    38b0:	cc9ff0ef          	jal	ra,3578 <rt_schedule_remove_thread>
F:\SCHOOL\文件\智能车\全向组\RTTThreadCH32V103\camCoreWithRTOS\obj/../Libraries/rtthread_libraries/src/thread.c:671
    rt_timer_stop(&(thread->thread_timer));
    38b4:	04440513          	addi	a0,s0,68
    38b8:	2485                	jal	3b18 <rt_timer_stop>
F:\SCHOOL\文件\智能车\全向组\RTTThreadCH32V103\camCoreWithRTOS\obj/../Libraries/rtthread_libraries/src/thread.c:674
    rt_hw_interrupt_enable(temp);
    38ba:	8526                	mv	a0,s1
    38bc:	88bfc0ef          	jal	ra,146 <rt_hw_interrupt_enable>
F:\SCHOOL\文件\智能车\全向组\RTTThreadCH32V103\camCoreWithRTOS\obj/../Libraries/rtthread_libraries/src/thread.c:677
    return RT_EOK;
    38c0:	4501                	li	a0,0
F:\SCHOOL\文件\智能车\全向组\RTTThreadCH32V103\camCoreWithRTOS\obj/../Libraries/rtthread_libraries/src/thread.c:678
}
    38c2:	40b2                	lw	ra,12(sp)
    38c4:	4422                	lw	s0,8(sp)
    38c6:	4492                	lw	s1,4(sp)
    38c8:	0141                	addi	sp,sp,16
    38ca:	8082                	ret
F:\SCHOOL\文件\智能车\全向组\RTTThreadCH32V103\camCoreWithRTOS\obj/../Libraries/rtthread_libraries/src/thread.c:660
        return -RT_ERROR;
    38cc:	557d                	li	a0,-1
F:\SCHOOL\文件\智能车\全向组\RTTThreadCH32V103\camCoreWithRTOS\obj/../Libraries/rtthread_libraries/src/thread.c:678
}
    38ce:	8082                	ret

000038d0 <rt_thread_sleep>:
rt_thread_sleep():
F:\SCHOOL\文件\智能车\全向组\RTTThreadCH32V103\camCoreWithRTOS\obj/../Libraries/rtthread_libraries/src/thread.c:494
{
    38d0:	1101                	addi	sp,sp,-32
    38d2:	ce06                	sw	ra,28(sp)
    38d4:	cc22                	sw	s0,24(sp)
    38d6:	ca26                	sw	s1,20(sp)
    38d8:	c84a                	sw	s2,16(sp)
    38da:	c62a                	sw	a0,12(sp)
F:\SCHOOL\文件\智能车\全向组\RTTThreadCH32V103\camCoreWithRTOS\obj/../Libraries/rtthread_libraries/src/thread.c:499
    temp = rt_hw_interrupt_disable();
    38dc:	865fc0ef          	jal	ra,140 <rt_hw_interrupt_disable>
    38e0:	892a                	mv	s2,a0
F:\SCHOOL\文件\智能车\全向组\RTTThreadCH32V103\camCoreWithRTOS\obj/../Libraries/rtthread_libraries/src/thread.c:501
    thread = rt_current_thread;
    38e2:	8701a403          	lw	s0,-1936(gp) # 20000120 <rt_current_thread>
F:\SCHOOL\文件\智能车\全向组\RTTThreadCH32V103\camCoreWithRTOS\obj/../Libraries/rtthread_libraries/src/thread.c:506
    rt_thread_suspend(thread);
    38e6:	8522                	mv	a0,s0
    38e8:	f9dff0ef          	jal	ra,3884 <rt_thread_suspend>
F:\SCHOOL\文件\智能车\全向组\RTTThreadCH32V103\camCoreWithRTOS\obj/../Libraries/rtthread_libraries/src/thread.c:509
    rt_timer_control(&(thread->thread_timer), RT_TIMER_CTRL_SET_TIME, &tick);
    38ec:	04440493          	addi	s1,s0,68
    38f0:	0070                	addi	a2,sp,12
    38f2:	4581                	li	a1,0
    38f4:	8526                	mv	a0,s1
    38f6:	2495                	jal	3b5a <rt_timer_control>
F:\SCHOOL\文件\智能车\全向组\RTTThreadCH32V103\camCoreWithRTOS\obj/../Libraries/rtthread_libraries/src/thread.c:510
    rt_timer_start(&(thread->thread_timer));
    38f8:	8526                	mv	a0,s1
    38fa:	2249                	jal	3a7c <rt_timer_start>
F:\SCHOOL\文件\智能车\全向组\RTTThreadCH32V103\camCoreWithRTOS\obj/../Libraries/rtthread_libraries/src/thread.c:513
    rt_hw_interrupt_enable(temp);
    38fc:	854a                	mv	a0,s2
    38fe:	849fc0ef          	jal	ra,146 <rt_hw_interrupt_enable>
F:\SCHOOL\文件\智能车\全向组\RTTThreadCH32V103\camCoreWithRTOS\obj/../Libraries/rtthread_libraries/src/thread.c:515
    rt_schedule();
    3902:	bb7ff0ef          	jal	ra,34b8 <rt_schedule>
F:\SCHOOL\文件\智能车\全向组\RTTThreadCH32V103\camCoreWithRTOS\obj/../Libraries/rtthread_libraries/src/thread.c:518
    if (thread->error == -RT_ETIMEOUT)
    3906:	5818                	lw	a4,48(s0)
    3908:	57f9                	li	a5,-2
    390a:	00f70963          	beq	a4,a5,391c <rt_thread_sleep+0x4c>
F:\SCHOOL\文件\智能车\全向组\RTTThreadCH32V103\camCoreWithRTOS\obj/../Libraries/rtthread_libraries/src/thread.c:522
}
    390e:	4501                	li	a0,0
    3910:	40f2                	lw	ra,28(sp)
    3912:	4462                	lw	s0,24(sp)
    3914:	44d2                	lw	s1,20(sp)
    3916:	4942                	lw	s2,16(sp)
    3918:	6105                	addi	sp,sp,32
    391a:	8082                	ret
F:\SCHOOL\文件\智能车\全向组\RTTThreadCH32V103\camCoreWithRTOS\obj/../Libraries/rtthread_libraries/src/thread.c:519
        thread->error = RT_EOK;
    391c:	02042823          	sw	zero,48(s0)
    3920:	b7fd                	j	390e <rt_thread_sleep+0x3e>

00003922 <rt_thread_mdelay>:
rt_thread_mdelay():
F:\SCHOOL\文件\智能车\全向组\RTTThreadCH32V103\camCoreWithRTOS\obj/../Libraries/rtthread_libraries/src/thread.c:545
{
    3922:	1141                	addi	sp,sp,-16
    3924:	c606                	sw	ra,12(sp)
F:\SCHOOL\文件\智能车\全向组\RTTThreadCH32V103\camCoreWithRTOS\obj/../Libraries/rtthread_libraries/src/thread.c:548
    tick = rt_tick_from_millisecond(ms);
    3926:	f6efe0ef          	jal	ra,2094 <rt_tick_from_millisecond>
F:\SCHOOL\文件\智能车\全向组\RTTThreadCH32V103\camCoreWithRTOS\obj/../Libraries/rtthread_libraries/src/thread.c:550
    return rt_thread_sleep(tick);
    392a:	fa7ff0ef          	jal	ra,38d0 <rt_thread_sleep>
F:\SCHOOL\文件\智能车\全向组\RTTThreadCH32V103\camCoreWithRTOS\obj/../Libraries/rtthread_libraries/src/thread.c:551
}
    392e:	40b2                	lw	ra,12(sp)
    3930:	0141                	addi	sp,sp,16
    3932:	8082                	ret

00003934 <rt_thread_resume>:
rt_thread_resume():
F:\SCHOOL\文件\智能车\全向组\RTTThreadCH32V103\camCoreWithRTOS\obj/../Libraries/rtthread_libraries/src/thread.c:698
    if ((thread->stat & RT_THREAD_STAT_MASK) != RT_THREAD_SUSPEND)
    3934:	03454783          	lbu	a5,52(a0)
    3938:	8bbd                	andi	a5,a5,15
    393a:	4709                	li	a4,2
    393c:	04e79263          	bne	a5,a4,3980 <rt_thread_resume+0x4c>
F:\SCHOOL\文件\智能车\全向组\RTTThreadCH32V103\camCoreWithRTOS\obj/../Libraries/rtthread_libraries/src/thread.c:689
{
    3940:	1141                	addi	sp,sp,-16
    3942:	c606                	sw	ra,12(sp)
    3944:	c422                	sw	s0,8(sp)
    3946:	c226                	sw	s1,4(sp)
    3948:	842a                	mv	s0,a0
F:\SCHOOL\文件\智能车\全向组\RTTThreadCH32V103\camCoreWithRTOS\obj/../Libraries/rtthread_libraries/src/thread.c:707
    temp = rt_hw_interrupt_disable();
    394a:	ff6fc0ef          	jal	ra,140 <rt_hw_interrupt_disable>
    394e:	84aa                	mv	s1,a0
F:\SCHOOL\文件\智能车\全向组\RTTThreadCH32V103\camCoreWithRTOS\obj/../Libraries/rtthread_libraries/src/thread.c:710
    rt_list_remove(&(thread->tlist));
    3950:	01440793          	addi	a5,s0,20
rt_list_remove():
F:\SCHOOL\文件\智能车\全向组\RTTThreadCH32V103\camCoreWithRTOS\Libraries\rtthread_libraries\include/rtservice.h:88
    n->next->prev = n->prev;
    3954:	4854                	lw	a3,20(s0)
    3956:	4c18                	lw	a4,24(s0)
    3958:	c2d8                	sw	a4,4(a3)
F:\SCHOOL\文件\智能车\全向组\RTTThreadCH32V103\camCoreWithRTOS\Libraries\rtthread_libraries\include/rtservice.h:89
    n->prev->next = n->next;
    395a:	4854                	lw	a3,20(s0)
    395c:	c314                	sw	a3,0(a4)
F:\SCHOOL\文件\智能车\全向组\RTTThreadCH32V103\camCoreWithRTOS\Libraries\rtthread_libraries\include/rtservice.h:91
    n->next = n->prev = n;
    395e:	cc1c                	sw	a5,24(s0)
    3960:	c85c                	sw	a5,20(s0)
rt_thread_resume():
F:\SCHOOL\文件\智能车\全向组\RTTThreadCH32V103\camCoreWithRTOS\obj/../Libraries/rtthread_libraries/src/thread.c:712
    rt_timer_stop(&thread->thread_timer);
    3962:	04440513          	addi	a0,s0,68
    3966:	2a4d                	jal	3b18 <rt_timer_stop>
F:\SCHOOL\文件\智能车\全向组\RTTThreadCH32V103\camCoreWithRTOS\obj/../Libraries/rtthread_libraries/src/thread.c:715
    rt_hw_interrupt_enable(temp);
    3968:	8526                	mv	a0,s1
    396a:	fdcfc0ef          	jal	ra,146 <rt_hw_interrupt_enable>
F:\SCHOOL\文件\智能车\全向组\RTTThreadCH32V103\camCoreWithRTOS\obj/../Libraries/rtthread_libraries/src/thread.c:718
    rt_schedule_insert_thread(thread);
    396e:	8522                	mv	a0,s0
    3970:	bb9ff0ef          	jal	ra,3528 <rt_schedule_insert_thread>
F:\SCHOOL\文件\智能车\全向组\RTTThreadCH32V103\camCoreWithRTOS\obj/../Libraries/rtthread_libraries/src/thread.c:721
    return RT_EOK;
    3974:	4501                	li	a0,0
F:\SCHOOL\文件\智能车\全向组\RTTThreadCH32V103\camCoreWithRTOS\obj/../Libraries/rtthread_libraries/src/thread.c:722
}
    3976:	40b2                	lw	ra,12(sp)
    3978:	4422                	lw	s0,8(sp)
    397a:	4492                	lw	s1,4(sp)
    397c:	0141                	addi	sp,sp,16
    397e:	8082                	ret
F:\SCHOOL\文件\智能车\全向组\RTTThreadCH32V103\camCoreWithRTOS\obj/../Libraries/rtthread_libraries/src/thread.c:703
        return -RT_ERROR;
    3980:	557d                	li	a0,-1
F:\SCHOOL\文件\智能车\全向组\RTTThreadCH32V103\camCoreWithRTOS\obj/../Libraries/rtthread_libraries/src/thread.c:722
}
    3982:	8082                	ret

00003984 <rt_thread_startup>:
rt_thread_startup():
F:\SCHOOL\文件\智能车\全向组\RTTThreadCH32V103\camCoreWithRTOS\obj/../Libraries/rtthread_libraries/src/thread.c:266
{
    3984:	1141                	addi	sp,sp,-16
    3986:	c606                	sw	ra,12(sp)
F:\SCHOOL\文件\智能车\全向组\RTTThreadCH32V103\camCoreWithRTOS\obj/../Libraries/rtthread_libraries/src/thread.c:273
    thread->current_priority = thread->init_priority;
    3988:	03654683          	lbu	a3,54(a0)
    398c:	02d50aa3          	sb	a3,53(a0)
F:\SCHOOL\文件\智能车\全向组\RTTThreadCH32V103\camCoreWithRTOS\obj/../Libraries/rtthread_libraries/src/thread.c:281
    thread->number_mask = 1L << thread->current_priority;
    3990:	4705                	li	a4,1
    3992:	00d71733          	sll	a4,a4,a3
    3996:	dd18                	sw	a4,56(a0)
F:\SCHOOL\文件\智能车\全向组\RTTThreadCH32V103\camCoreWithRTOS\obj/../Libraries/rtthread_libraries/src/thread.c:287
    thread->stat = RT_THREAD_SUSPEND;
    3998:	4709                	li	a4,2
    399a:	02e50a23          	sb	a4,52(a0)
F:\SCHOOL\文件\智能车\全向组\RTTThreadCH32V103\camCoreWithRTOS\obj/../Libraries/rtthread_libraries/src/thread.c:289
    rt_thread_resume(thread);
    399e:	f97ff0ef          	jal	ra,3934 <rt_thread_resume>
F:\SCHOOL\文件\智能车\全向组\RTTThreadCH32V103\camCoreWithRTOS\obj/../Libraries/rtthread_libraries/src/thread.c:290
    if (rt_thread_self() != RT_NULL)
    39a2:	8701a783          	lw	a5,-1936(gp) # 20000120 <rt_current_thread>
    39a6:	c399                	beqz	a5,39ac <rt_thread_startup+0x28>
F:\SCHOOL\文件\智能车\全向组\RTTThreadCH32V103\camCoreWithRTOS\obj/../Libraries/rtthread_libraries/src/thread.c:293
        rt_schedule();
    39a8:	b11ff0ef          	jal	ra,34b8 <rt_schedule>
F:\SCHOOL\文件\智能车\全向组\RTTThreadCH32V103\camCoreWithRTOS\obj/../Libraries/rtthread_libraries/src/thread.c:297
}
    39ac:	4501                	li	a0,0
    39ae:	40b2                	lw	ra,12(sp)
    39b0:	0141                	addi	sp,sp,16
    39b2:	8082                	ret

000039b4 <rt_timer_init>:
rt_timer_init():
F:\SCHOOL\文件\智能车\全向组\RTTThreadCH32V103\camCoreWithRTOS\obj/../Libraries/rtthread_libraries/src/timer.c:184
                   const char *name,
                   void (*timeout)(void *parameter),
                   void       *parameter,
                   rt_tick_t   time,
                   rt_uint8_t  flag)
{
    39b4:	1101                	addi	sp,sp,-32
    39b6:	ce06                	sw	ra,28(sp)
    39b8:	cc22                	sw	s0,24(sp)
    39ba:	ca26                	sw	s1,20(sp)
    39bc:	c84a                	sw	s2,16(sp)
    39be:	c64e                	sw	s3,12(sp)
    39c0:	c452                	sw	s4,8(sp)
    39c2:	842a                	mv	s0,a0
    39c4:	8a32                	mv	s4,a2
    39c6:	89b6                	mv	s3,a3
    39c8:	893a                	mv	s2,a4
    39ca:	84be                	mv	s1,a5
F:\SCHOOL\文件\智能车\全向组\RTTThreadCH32V103\camCoreWithRTOS\obj/../Libraries/rtthread_libraries/src/timer.c:189
    /* timer check */
    RT_ASSERT(timer != RT_NULL);

    /* timer object initialization */
    rt_object_init((rt_object_t)timer, RT_Object_Class_Timer, name);
    39cc:	862e                	mv	a2,a1
    39ce:	45a9                	li	a1,10
    39d0:	94fff0ef          	jal	ra,331e <rt_object_init>
_rt_timer_init():
F:\SCHOOL\文件\智能车\全向组\RTTThreadCH32V103\camCoreWithRTOS\obj/../Libraries/rtthread_libraries/src/timer.c:92
    timer->parent.flag &= ~RT_TIMER_FLAG_ACTIVATED;
    39d4:	98f9                	andi	s1,s1,-2
    39d6:	009404a3          	sb	s1,9(s0)
F:\SCHOOL\文件\智能车\全向组\RTTThreadCH32V103\camCoreWithRTOS\obj/../Libraries/rtthread_libraries/src/timer.c:94
    timer->timeout_func = timeout;
    39da:	01442e23          	sw	s4,28(s0)
F:\SCHOOL\文件\智能车\全向组\RTTThreadCH32V103\camCoreWithRTOS\obj/../Libraries/rtthread_libraries/src/timer.c:95
    timer->parameter    = parameter;
    39de:	03342023          	sw	s3,32(s0)
F:\SCHOOL\文件\智能车\全向组\RTTThreadCH32V103\camCoreWithRTOS\obj/../Libraries/rtthread_libraries/src/timer.c:97
    timer->timeout_tick = 0;
    39e2:	02042423          	sw	zero,40(s0)
F:\SCHOOL\文件\智能车\全向组\RTTThreadCH32V103\camCoreWithRTOS\obj/../Libraries/rtthread_libraries/src/timer.c:98
    timer->init_tick    = time;
    39e6:	03242223          	sw	s2,36(s0)
F:\SCHOOL\文件\智能车\全向组\RTTThreadCH32V103\camCoreWithRTOS\obj/../Libraries/rtthread_libraries/src/timer.c:103
        rt_list_init(&(timer->row[i]));
    39ea:	01440793          	addi	a5,s0,20
rt_list_init():
F:\SCHOOL\文件\智能车\全向组\RTTThreadCH32V103\camCoreWithRTOS\Libraries\rtthread_libraries\include/rtservice.h:49
    l->next = l->prev = l;
    39ee:	cc1c                	sw	a5,24(s0)
    39f0:	c85c                	sw	a5,20(s0)
rt_timer_init():
F:\SCHOOL\文件\智能车\全向组\RTTThreadCH32V103\camCoreWithRTOS\obj/../Libraries/rtthread_libraries/src/timer.c:192

    _rt_timer_init(timer, timeout, parameter, time, flag);
}
    39f2:	40f2                	lw	ra,28(sp)
    39f4:	4462                	lw	s0,24(sp)
    39f6:	44d2                	lw	s1,20(sp)
    39f8:	4942                	lw	s2,16(sp)
    39fa:	49b2                	lw	s3,12(sp)
    39fc:	4a22                	lw	s4,8(sp)
    39fe:	6105                	addi	sp,sp,32
    3a00:	8082                	ret

00003a02 <rt_timer_detach>:
rt_timer_detach():
F:\SCHOOL\文件\智能车\全向组\RTTThreadCH32V103\camCoreWithRTOS\obj/../Libraries/rtthread_libraries/src/timer.c:203
 * @param timer the static timer object
 *
 * @return the operation status, RT_EOK on OK; RT_ERROR on error
 */
rt_err_t rt_timer_detach(rt_timer_t timer)
{
    3a02:	1141                	addi	sp,sp,-16
    3a04:	c606                	sw	ra,12(sp)
    3a06:	c422                	sw	s0,8(sp)
    3a08:	842a                	mv	s0,a0
F:\SCHOOL\文件\智能车\全向组\RTTThreadCH32V103\camCoreWithRTOS\obj/../Libraries/rtthread_libraries/src/timer.c:212
    RT_ASSERT(timer != RT_NULL);
    RT_ASSERT(rt_object_get_type(&timer->parent) == RT_Object_Class_Timer);
    RT_ASSERT(rt_object_is_systemobject(&timer->parent));

    /* disable interrupt */
    level = rt_hw_interrupt_disable();
    3a0a:	f36fc0ef          	jal	ra,140 <rt_hw_interrupt_disable>
_rt_timer_remove():
F:\SCHOOL\文件\智能车\全向组\RTTThreadCH32V103\camCoreWithRTOS\obj/../Libraries/rtthread_libraries/src/timer.c:127
        rt_list_remove(&timer->row[i]);
    3a0e:	01440793          	addi	a5,s0,20
rt_list_remove():
F:\SCHOOL\文件\智能车\全向组\RTTThreadCH32V103\camCoreWithRTOS\Libraries\rtthread_libraries\include/rtservice.h:88
    n->next->prev = n->prev;
    3a12:	4854                	lw	a3,20(s0)
    3a14:	4c18                	lw	a4,24(s0)
    3a16:	c2d8                	sw	a4,4(a3)
F:\SCHOOL\文件\智能车\全向组\RTTThreadCH32V103\camCoreWithRTOS\Libraries\rtthread_libraries\include/rtservice.h:89
    n->prev->next = n->next;
    3a18:	4854                	lw	a3,20(s0)
    3a1a:	c314                	sw	a3,0(a4)
F:\SCHOOL\文件\智能车\全向组\RTTThreadCH32V103\camCoreWithRTOS\Libraries\rtthread_libraries\include/rtservice.h:91
    n->next = n->prev = n;
    3a1c:	cc1c                	sw	a5,24(s0)
    3a1e:	c85c                	sw	a5,20(s0)
rt_timer_detach():
F:\SCHOOL\文件\智能车\全向组\RTTThreadCH32V103\camCoreWithRTOS\obj/../Libraries/rtthread_libraries/src/timer.c:217

    _rt_timer_remove(timer);

    /* enable interrupt */
    rt_hw_interrupt_enable(level);
    3a20:	f26fc0ef          	jal	ra,146 <rt_hw_interrupt_enable>
F:\SCHOOL\文件\智能车\全向组\RTTThreadCH32V103\camCoreWithRTOS\obj/../Libraries/rtthread_libraries/src/timer.c:219

    rt_object_detach((rt_object_t)timer);
    3a24:	8522                	mv	a0,s0
    3a26:	969ff0ef          	jal	ra,338e <rt_object_detach>
F:\SCHOOL\文件\智能车\全向组\RTTThreadCH32V103\camCoreWithRTOS\obj/../Libraries/rtthread_libraries/src/timer.c:222

    return RT_EOK;
}
    3a2a:	4501                	li	a0,0
    3a2c:	40b2                	lw	ra,12(sp)
    3a2e:	4422                	lw	s0,8(sp)
    3a30:	0141                	addi	sp,sp,16
    3a32:	8082                	ret

00003a34 <rt_timer_create>:
rt_timer_create():
F:\SCHOOL\文件\智能车\全向组\RTTThreadCH32V103\camCoreWithRTOS\obj/../Libraries/rtthread_libraries/src/timer.c:242
rt_timer_t rt_timer_create(const char *name,
                           void (*timeout)(void *parameter),
                           void       *parameter,
                           rt_tick_t   time,
                           rt_uint8_t  flag)
{
    3a34:	1101                	addi	sp,sp,-32
    3a36:	ce06                	sw	ra,28(sp)
    3a38:	cc22                	sw	s0,24(sp)
    3a3a:	ca26                	sw	s1,20(sp)
    3a3c:	c84a                	sw	s2,16(sp)
    3a3e:	c64e                	sw	s3,12(sp)
    3a40:	89ae                	mv	s3,a1
    3a42:	8932                	mv	s2,a2
    3a44:	84b6                	mv	s1,a3
    3a46:	843a                	mv	s0,a4
F:\SCHOOL\文件\智能车\全向组\RTTThreadCH32V103\camCoreWithRTOS\obj/../Libraries/rtthread_libraries/src/timer.c:246
    struct rt_timer *timer;

    /* allocate a object */
    timer = (struct rt_timer *)rt_object_allocate(RT_Object_Class_Timer, name);
    3a48:	85aa                	mv	a1,a0
    3a4a:	4529                	li	a0,10
    3a4c:	971ff0ef          	jal	ra,33bc <rt_object_allocate>
F:\SCHOOL\文件\智能车\全向组\RTTThreadCH32V103\camCoreWithRTOS\obj/../Libraries/rtthread_libraries/src/timer.c:247
    if (timer == RT_NULL)
    3a50:	cd19                	beqz	a0,3a6e <rt_timer_create+0x3a>
_rt_timer_init():
F:\SCHOOL\文件\智能车\全向组\RTTThreadCH32V103\camCoreWithRTOS\obj/../Libraries/rtthread_libraries/src/timer.c:92
    timer->parent.flag &= ~RT_TIMER_FLAG_ACTIVATED;
    3a52:	9879                	andi	s0,s0,-2
    3a54:	008504a3          	sb	s0,9(a0)
F:\SCHOOL\文件\智能车\全向组\RTTThreadCH32V103\camCoreWithRTOS\obj/../Libraries/rtthread_libraries/src/timer.c:94
    timer->timeout_func = timeout;
    3a58:	01352e23          	sw	s3,28(a0)
F:\SCHOOL\文件\智能车\全向组\RTTThreadCH32V103\camCoreWithRTOS\obj/../Libraries/rtthread_libraries/src/timer.c:95
    timer->parameter    = parameter;
    3a5c:	03252023          	sw	s2,32(a0)
F:\SCHOOL\文件\智能车\全向组\RTTThreadCH32V103\camCoreWithRTOS\obj/../Libraries/rtthread_libraries/src/timer.c:97
    timer->timeout_tick = 0;
    3a60:	02052423          	sw	zero,40(a0)
F:\SCHOOL\文件\智能车\全向组\RTTThreadCH32V103\camCoreWithRTOS\obj/../Libraries/rtthread_libraries/src/timer.c:98
    timer->init_tick    = time;
    3a64:	d144                	sw	s1,36(a0)
F:\SCHOOL\文件\智能车\全向组\RTTThreadCH32V103\camCoreWithRTOS\obj/../Libraries/rtthread_libraries/src/timer.c:103
        rt_list_init(&(timer->row[i]));
    3a66:	01450793          	addi	a5,a0,20
rt_list_init():
F:\SCHOOL\文件\智能车\全向组\RTTThreadCH32V103\camCoreWithRTOS\Libraries\rtthread_libraries\include/rtservice.h:49
    l->next = l->prev = l;
    3a6a:	cd1c                	sw	a5,24(a0)
    3a6c:	c95c                	sw	a5,20(a0)
rt_timer_create():
F:\SCHOOL\文件\智能车\全向组\RTTThreadCH32V103\camCoreWithRTOS\obj/../Libraries/rtthread_libraries/src/timer.c:255
    }

    _rt_timer_init(timer, timeout, parameter, time, flag);

    return timer;
}
    3a6e:	40f2                	lw	ra,28(sp)
    3a70:	4462                	lw	s0,24(sp)
    3a72:	44d2                	lw	s1,20(sp)
    3a74:	4942                	lw	s2,16(sp)
    3a76:	49b2                	lw	s3,12(sp)
    3a78:	6105                	addi	sp,sp,32
    3a7a:	8082                	ret

00003a7c <rt_timer_start>:
rt_timer_start():
F:\SCHOOL\文件\智能车\全向组\RTTThreadCH32V103\camCoreWithRTOS\obj/../Libraries/rtthread_libraries/src/timer.c:297
 * @param timer the timer to be started
 *
 * @return the operation status, RT_EOK on OK, -RT_ERROR on error
 */
rt_err_t rt_timer_start(rt_timer_t timer)
{
    3a7c:	1141                	addi	sp,sp,-16
    3a7e:	c606                	sw	ra,12(sp)
    3a80:	c422                	sw	s0,8(sp)
    3a82:	c226                	sw	s1,4(sp)
    3a84:	842a                	mv	s0,a0
F:\SCHOOL\文件\智能车\全向组\RTTThreadCH32V103\camCoreWithRTOS\obj/../Libraries/rtthread_libraries/src/timer.c:310
    /* timer check */
    RT_ASSERT(timer != RT_NULL);
    RT_ASSERT(rt_object_get_type(&timer->parent) == RT_Object_Class_Timer);

    /* stop timer firstly */
    level = rt_hw_interrupt_disable();
    3a86:	ebafc0ef          	jal	ra,140 <rt_hw_interrupt_disable>
_rt_timer_remove():
F:\SCHOOL\文件\智能车\全向组\RTTThreadCH32V103\camCoreWithRTOS\obj/../Libraries/rtthread_libraries/src/timer.c:127
        rt_list_remove(&timer->row[i]);
    3a8a:	01440493          	addi	s1,s0,20
rt_list_remove():
F:\SCHOOL\文件\智能车\全向组\RTTThreadCH32V103\camCoreWithRTOS\Libraries\rtthread_libraries\include/rtservice.h:88
    n->next->prev = n->prev;
    3a8e:	4858                	lw	a4,20(s0)
    3a90:	4c1c                	lw	a5,24(s0)
    3a92:	c35c                	sw	a5,4(a4)
F:\SCHOOL\文件\智能车\全向组\RTTThreadCH32V103\camCoreWithRTOS\Libraries\rtthread_libraries\include/rtservice.h:89
    n->prev->next = n->next;
    3a94:	4858                	lw	a4,20(s0)
    3a96:	c398                	sw	a4,0(a5)
F:\SCHOOL\文件\智能车\全向组\RTTThreadCH32V103\camCoreWithRTOS\Libraries\rtthread_libraries\include/rtservice.h:91
    n->next = n->prev = n;
    3a98:	cc04                	sw	s1,24(s0)
    3a9a:	c844                	sw	s1,20(s0)
rt_timer_start():
F:\SCHOOL\文件\智能车\全向组\RTTThreadCH32V103\camCoreWithRTOS\obj/../Libraries/rtthread_libraries/src/timer.c:314
    /* remove timer from list */
    _rt_timer_remove(timer);
    /* change status of timer */
    timer->parent.flag &= ~RT_TIMER_FLAG_ACTIVATED;
    3a9c:	00944783          	lbu	a5,9(s0)
    3aa0:	9bf9                	andi	a5,a5,-2
    3aa2:	00f404a3          	sb	a5,9(s0)
F:\SCHOOL\文件\智能车\全向组\RTTThreadCH32V103\camCoreWithRTOS\obj/../Libraries/rtthread_libraries/src/timer.c:315
    rt_hw_interrupt_enable(level);
    3aa6:	ea0fc0ef          	jal	ra,146 <rt_hw_interrupt_enable>
F:\SCHOOL\文件\智能车\全向组\RTTThreadCH32V103\camCoreWithRTOS\obj/../Libraries/rtthread_libraries/src/timer.c:324
    /*
     * get timeout tick,
     * the max timeout tick shall not great than RT_TICK_MAX/2
     */
    RT_ASSERT(timer->init_tick < RT_TICK_MAX / 2);
    timer->timeout_tick = rt_tick_get() + timer->init_tick;
    3aaa:	db6fe0ef          	jal	ra,2060 <rt_tick_get>
    3aae:	505c                	lw	a5,36(s0)
    3ab0:	953e                	add	a0,a0,a5
    3ab2:	d408                	sw	a0,40(s0)
F:\SCHOOL\文件\智能车\全向组\RTTThreadCH32V103\camCoreWithRTOS\obj/../Libraries/rtthread_libraries/src/timer.c:327

    /* disable interrupt */
    level = rt_hw_interrupt_disable();
    3ab4:	e8cfc0ef          	jal	ra,140 <rt_hw_interrupt_disable>
F:\SCHOOL\文件\智能车\全向组\RTTThreadCH32V103\camCoreWithRTOS\obj/../Libraries/rtthread_libraries/src/timer.c:345
    }

    row_head[0]  = &timer_list[0];
    for (row_lvl = 0; row_lvl < RT_TIMER_SKIP_LIST_LEVEL; row_lvl++)
    {
        for (; row_head[row_lvl] != timer_list[row_lvl].prev;
    3ab8:	88818793          	addi	a5,gp,-1912 # 20000138 <rt_timer_list>
    3abc:	43cc                	lw	a1,4(a5)
    3abe:	88818713          	addi	a4,gp,-1912 # 20000138 <rt_timer_list>
F:\SCHOOL\文件\智能车\全向组\RTTThreadCH32V103\camCoreWithRTOS\obj/../Libraries/rtthread_libraries/src/timer.c:363
             */
            if ((t->timeout_tick - timer->timeout_tick) == 0)
            {
                continue;
            }
            else if ((t->timeout_tick - timer->timeout_tick) < RT_TICK_MAX / 2)
    3ac2:	80000837          	lui	a6,0x80000
    3ac6:	ffe84813          	xori	a6,a6,-2
    3aca:	a011                	j	3ace <rt_timer_start+0x52>
    3acc:	8736                	mv	a4,a3
F:\SCHOOL\文件\智能车\全向组\RTTThreadCH32V103\camCoreWithRTOS\obj/../Libraries/rtthread_libraries/src/timer.c:345
        for (; row_head[row_lvl] != timer_list[row_lvl].prev;
    3ace:	00e58c63          	beq	a1,a4,3ae6 <rt_timer_start+0x6a>
F:\SCHOOL\文件\智能车\全向组\RTTThreadCH32V103\camCoreWithRTOS\obj/../Libraries/rtthread_libraries/src/timer.c:349
            rt_list_t *p = row_head[row_lvl]->next;
    3ad2:	4314                	lw	a3,0(a4)
F:\SCHOOL\文件\智能车\全向组\RTTThreadCH32V103\camCoreWithRTOS\obj/../Libraries/rtthread_libraries/src/timer.c:359
            if ((t->timeout_tick - timer->timeout_tick) == 0)
    3ad4:	4adc                	lw	a5,20(a3)
    3ad6:	5410                	lw	a2,40(s0)
    3ad8:	fec78ae3          	beq	a5,a2,3acc <rt_timer_start+0x50>
F:\SCHOOL\文件\智能车\全向组\RTTThreadCH32V103\camCoreWithRTOS\obj/../Libraries/rtthread_libraries/src/timer.c:363
            else if ((t->timeout_tick - timer->timeout_tick) < RT_TICK_MAX / 2)
    3adc:	8f91                	sub	a5,a5,a2
    3ade:	00f87463          	bgeu	a6,a5,3ae6 <rt_timer_start+0x6a>
    3ae2:	8736                	mv	a4,a3
    3ae4:	b7ed                	j	3ace <rt_timer_start+0x52>
F:\SCHOOL\文件\智能车\全向组\RTTThreadCH32V103\camCoreWithRTOS\obj/../Libraries/rtthread_libraries/src/timer.c:376

    /* Interestingly, this super simple timer insert counter works very very
     * well on distributing the list height uniformly. By means of "very very
     * well", I mean it beats the randomness of timer->timeout_tick very easily
     * (actually, the timeout_tick is not random and easy to be attacked). */
    random_nr++;
    3ae6:	88418793          	addi	a5,gp,-1916 # 20000134 <random_nr.2125>
    3aea:	4394                	lw	a3,0(a5)
    3aec:	0685                	addi	a3,a3,1
    3aee:	c394                	sw	a3,0(a5)
rt_list_insert_after():
F:\SCHOOL\文件\智能车\全向组\RTTThreadCH32V103\camCoreWithRTOS\Libraries\rtthread_libraries\include/rtservice.h:60
    l->next->prev = n;
    3af0:	431c                	lw	a5,0(a4)
    3af2:	c3c4                	sw	s1,4(a5)
F:\SCHOOL\文件\智能车\全向组\RTTThreadCH32V103\camCoreWithRTOS\Libraries\rtthread_libraries\include/rtservice.h:61
    n->next = l->next;
    3af4:	431c                	lw	a5,0(a4)
    3af6:	c85c                	sw	a5,20(s0)
F:\SCHOOL\文件\智能车\全向组\RTTThreadCH32V103\camCoreWithRTOS\Libraries\rtthread_libraries\include/rtservice.h:63
    l->next = n;
    3af8:	c304                	sw	s1,0(a4)
F:\SCHOOL\文件\智能车\全向组\RTTThreadCH32V103\camCoreWithRTOS\Libraries\rtthread_libraries\include/rtservice.h:64
    n->prev = l;
    3afa:	cc18                	sw	a4,24(s0)
rt_timer_start():
F:\SCHOOL\文件\智能车\全向组\RTTThreadCH32V103\camCoreWithRTOS\obj/../Libraries/rtthread_libraries/src/timer.c:393
        /* Shift over the bits we have tested. Works well with 1 bit and 2
         * bits. */
        tst_nr >>= (RT_TIMER_SKIP_LIST_MASK + 1) >> 1;
    }

    timer->parent.flag |= RT_TIMER_FLAG_ACTIVATED;
    3afc:	00944783          	lbu	a5,9(s0)
    3b00:	0017e793          	ori	a5,a5,1
    3b04:	00f404a3          	sb	a5,9(s0)
F:\SCHOOL\文件\智能车\全向组\RTTThreadCH32V103\camCoreWithRTOS\obj/../Libraries/rtthread_libraries/src/timer.c:396

    /* enable interrupt */
    rt_hw_interrupt_enable(level);
    3b08:	e3efc0ef          	jal	ra,146 <rt_hw_interrupt_enable>
F:\SCHOOL\文件\智能车\全向组\RTTThreadCH32V103\camCoreWithRTOS\obj/../Libraries/rtthread_libraries/src/timer.c:412
        }
    }
#endif

    return RT_EOK;
}
    3b0c:	4501                	li	a0,0
    3b0e:	40b2                	lw	ra,12(sp)
    3b10:	4422                	lw	s0,8(sp)
    3b12:	4492                	lw	s1,4(sp)
    3b14:	0141                	addi	sp,sp,16
    3b16:	8082                	ret

00003b18 <rt_timer_stop>:
rt_timer_stop():
F:\SCHOOL\文件\智能车\全向组\RTTThreadCH32V103\camCoreWithRTOS\obj/../Libraries/rtthread_libraries/src/timer.c:430

    /* timer check */
    RT_ASSERT(timer != RT_NULL);
    RT_ASSERT(rt_object_get_type(&timer->parent) == RT_Object_Class_Timer);

    if (!(timer->parent.flag & RT_TIMER_FLAG_ACTIVATED))
    3b18:	00954783          	lbu	a5,9(a0)
    3b1c:	8b85                	andi	a5,a5,1
    3b1e:	e399                	bnez	a5,3b24 <rt_timer_stop+0xc>
F:\SCHOOL\文件\智能车\全向组\RTTThreadCH32V103\camCoreWithRTOS\obj/../Libraries/rtthread_libraries/src/timer.c:431
        return -RT_ERROR;
    3b20:	557d                	li	a0,-1
F:\SCHOOL\文件\智能车\全向组\RTTThreadCH32V103\camCoreWithRTOS\obj/../Libraries/rtthread_libraries/src/timer.c:447

    /* change stat */
    timer->parent.flag &= ~RT_TIMER_FLAG_ACTIVATED;

    return RT_EOK;
}
    3b22:	8082                	ret
F:\SCHOOL\文件\智能车\全向组\RTTThreadCH32V103\camCoreWithRTOS\obj/../Libraries/rtthread_libraries/src/timer.c:423
{
    3b24:	1141                	addi	sp,sp,-16
    3b26:	c606                	sw	ra,12(sp)
    3b28:	c422                	sw	s0,8(sp)
    3b2a:	842a                	mv	s0,a0
F:\SCHOOL\文件\智能车\全向组\RTTThreadCH32V103\camCoreWithRTOS\obj/../Libraries/rtthread_libraries/src/timer.c:436
    level = rt_hw_interrupt_disable();
    3b2c:	e14fc0ef          	jal	ra,140 <rt_hw_interrupt_disable>
_rt_timer_remove():
F:\SCHOOL\文件\智能车\全向组\RTTThreadCH32V103\camCoreWithRTOS\obj/../Libraries/rtthread_libraries/src/timer.c:127
        rt_list_remove(&timer->row[i]);
    3b30:	01440793          	addi	a5,s0,20
rt_list_remove():
F:\SCHOOL\文件\智能车\全向组\RTTThreadCH32V103\camCoreWithRTOS\Libraries\rtthread_libraries\include/rtservice.h:88
    n->next->prev = n->prev;
    3b34:	4854                	lw	a3,20(s0)
    3b36:	4c18                	lw	a4,24(s0)
    3b38:	c2d8                	sw	a4,4(a3)
F:\SCHOOL\文件\智能车\全向组\RTTThreadCH32V103\camCoreWithRTOS\Libraries\rtthread_libraries\include/rtservice.h:89
    n->prev->next = n->next;
    3b3a:	4854                	lw	a3,20(s0)
    3b3c:	c314                	sw	a3,0(a4)
F:\SCHOOL\文件\智能车\全向组\RTTThreadCH32V103\camCoreWithRTOS\Libraries\rtthread_libraries\include/rtservice.h:91
    n->next = n->prev = n;
    3b3e:	cc1c                	sw	a5,24(s0)
    3b40:	c85c                	sw	a5,20(s0)
rt_timer_stop():
F:\SCHOOL\文件\智能车\全向组\RTTThreadCH32V103\camCoreWithRTOS\obj/../Libraries/rtthread_libraries/src/timer.c:441
    rt_hw_interrupt_enable(level);
    3b42:	e04fc0ef          	jal	ra,146 <rt_hw_interrupt_enable>
F:\SCHOOL\文件\智能车\全向组\RTTThreadCH32V103\camCoreWithRTOS\obj/../Libraries/rtthread_libraries/src/timer.c:444
    timer->parent.flag &= ~RT_TIMER_FLAG_ACTIVATED;
    3b46:	00944783          	lbu	a5,9(s0)
    3b4a:	9bf9                	andi	a5,a5,-2
    3b4c:	00f404a3          	sb	a5,9(s0)
F:\SCHOOL\文件\智能车\全向组\RTTThreadCH32V103\camCoreWithRTOS\obj/../Libraries/rtthread_libraries/src/timer.c:446
    return RT_EOK;
    3b50:	4501                	li	a0,0
F:\SCHOOL\文件\智能车\全向组\RTTThreadCH32V103\camCoreWithRTOS\obj/../Libraries/rtthread_libraries/src/timer.c:447
}
    3b52:	40b2                	lw	ra,12(sp)
    3b54:	4422                	lw	s0,8(sp)
    3b56:	0141                	addi	sp,sp,16
    3b58:	8082                	ret

00003b5a <rt_timer_control>:
rt_timer_control():
F:\SCHOOL\文件\智能车\全向组\RTTThreadCH32V103\camCoreWithRTOS\obj/../Libraries/rtthread_libraries/src/timer.c:465
{
    /* timer check */
    RT_ASSERT(timer != RT_NULL);
    RT_ASSERT(rt_object_get_type(&timer->parent) == RT_Object_Class_Timer);

    switch (cmd)
    3b5a:	4785                	li	a5,1
    3b5c:	02f58563          	beq	a1,a5,3b86 <rt_timer_control+0x2c>
    3b60:	00b7df63          	bge	a5,a1,3b7e <rt_timer_control+0x24>
    3b64:	4789                	li	a5,2
    3b66:	02f58463          	beq	a1,a5,3b8e <rt_timer_control+0x34>
    3b6a:	478d                	li	a5,3
    3b6c:	00f59f63          	bne	a1,a5,3b8a <rt_timer_control+0x30>
F:\SCHOOL\文件\智能车\全向组\RTTThreadCH32V103\camCoreWithRTOS\obj/../Libraries/rtthread_libraries/src/timer.c:480
    case RT_TIMER_CTRL_SET_ONESHOT:
        timer->parent.flag &= ~RT_TIMER_FLAG_PERIODIC;
        break;

    case RT_TIMER_CTRL_SET_PERIODIC:
        timer->parent.flag |= RT_TIMER_FLAG_PERIODIC;
    3b70:	00954783          	lbu	a5,9(a0)
    3b74:	0027e793          	ori	a5,a5,2
    3b78:	00f504a3          	sb	a5,9(a0)
F:\SCHOOL\文件\智能车\全向组\RTTThreadCH32V103\camCoreWithRTOS\obj/../Libraries/rtthread_libraries/src/timer.c:481
        break;
    3b7c:	a039                	j	3b8a <rt_timer_control+0x30>
    3b7e:	e591                	bnez	a1,3b8a <rt_timer_control+0x30>
F:\SCHOOL\文件\智能车\全向组\RTTThreadCH32V103\camCoreWithRTOS\obj/../Libraries/rtthread_libraries/src/timer.c:472
        timer->init_tick = *(rt_tick_t *)arg;
    3b80:	421c                	lw	a5,0(a2)
    3b82:	d15c                	sw	a5,36(a0)
F:\SCHOOL\文件\智能车\全向组\RTTThreadCH32V103\camCoreWithRTOS\obj/../Libraries/rtthread_libraries/src/timer.c:473
        break;
    3b84:	a019                	j	3b8a <rt_timer_control+0x30>
F:\SCHOOL\文件\智能车\全向组\RTTThreadCH32V103\camCoreWithRTOS\obj/../Libraries/rtthread_libraries/src/timer.c:468
        *(rt_tick_t *)arg = timer->init_tick;
    3b86:	515c                	lw	a5,36(a0)
    3b88:	c21c                	sw	a5,0(a2)
F:\SCHOOL\文件\智能车\全向组\RTTThreadCH32V103\camCoreWithRTOS\obj/../Libraries/rtthread_libraries/src/timer.c:485
    }

    return RT_EOK;
}
    3b8a:	4501                	li	a0,0
    3b8c:	8082                	ret
F:\SCHOOL\文件\智能车\全向组\RTTThreadCH32V103\camCoreWithRTOS\obj/../Libraries/rtthread_libraries/src/timer.c:476
        timer->parent.flag &= ~RT_TIMER_FLAG_PERIODIC;
    3b8e:	00954783          	lbu	a5,9(a0)
    3b92:	9bf5                	andi	a5,a5,-3
    3b94:	00f504a3          	sb	a5,9(a0)
F:\SCHOOL\文件\智能车\全向组\RTTThreadCH32V103\camCoreWithRTOS\obj/../Libraries/rtthread_libraries/src/timer.c:477
        break;
    3b98:	bfcd                	j	3b8a <rt_timer_control+0x30>

00003b9a <rt_timer_check>:
rt_timer_check():
F:\SCHOOL\文件\智能车\全向组\RTTThreadCH32V103\camCoreWithRTOS\obj/../Libraries/rtthread_libraries/src/timer.c:495
 * corresponding timeout function will be invoked.
 *
 * @note this function shall be invoked in operating system timer interrupt.
 */
void rt_timer_check(void)
{
    3b9a:	1101                	addi	sp,sp,-32
    3b9c:	ce06                	sw	ra,28(sp)
    3b9e:	cc22                	sw	s0,24(sp)
    3ba0:	ca26                	sw	s1,20(sp)
    3ba2:	c84a                	sw	s2,16(sp)
    3ba4:	c64e                	sw	s3,12(sp)
    3ba6:	c452                	sw	s4,8(sp)
    3ba8:	c256                	sw	s5,4(sp)
F:\SCHOOL\文件\智能车\全向组\RTTThreadCH32V103\camCoreWithRTOS\obj/../Libraries/rtthread_libraries/src/timer.c:502
    rt_tick_t current_tick;
    register rt_base_t level;

    RT_DEBUG_LOG(RT_DEBUG_TIMER, ("timer check enter\n"));

    current_tick = rt_tick_get();
    3baa:	cb6fe0ef          	jal	ra,2060 <rt_tick_get>
    3bae:	8a2a                	mv	s4,a0
F:\SCHOOL\文件\智能车\全向组\RTTThreadCH32V103\camCoreWithRTOS\obj/../Libraries/rtthread_libraries/src/timer.c:505

    /* disable interrupt */
    level = rt_hw_interrupt_disable();
    3bb0:	d90fc0ef          	jal	ra,140 <rt_hw_interrupt_disable>
    3bb4:	89aa                	mv	s3,a0
rt_list_isempty():
F:\SCHOOL\文件\智能车\全向组\RTTThreadCH32V103\camCoreWithRTOS\Libraries\rtthread_libraries\include/rtservice.h:100
    return l->next == l;
    3bb6:	88818493          	addi	s1,gp,-1912 # 20000138 <rt_timer_list>
rt_timer_check():
F:\SCHOOL\文件\智能车\全向组\RTTThreadCH32V103\camCoreWithRTOS\obj/../Libraries/rtthread_libraries/src/timer.c:516

        /*
         * It supposes that the new tick shall less than the half duration of
         * tick max.
         */
        if ((current_tick - t->timeout_tick) < RT_TICK_MAX / 2)
    3bba:	800007b7          	lui	a5,0x80000
    3bbe:	ffe7c913          	xori	s2,a5,-2
F:\SCHOOL\文件\智能车\全向组\RTTThreadCH32V103\camCoreWithRTOS\obj/../Libraries/rtthread_libraries/src/timer.c:532
            current_tick = rt_tick_get();

            RT_OBJECT_HOOK_CALL(rt_timer_exit_hook, (t));
            RT_DEBUG_LOG(RT_DEBUG_TIMER, ("current tick: %d\n", current_tick));

            if ((t->parent.flag & RT_TIMER_FLAG_PERIODIC) &&
    3bc2:	4a8d                	li	s5,3
rt_list_isempty():
F:\SCHOOL\文件\智能车\全向组\RTTThreadCH32V103\camCoreWithRTOS\Libraries\rtthread_libraries\include/rtservice.h:100
    3bc4:	4080                	lw	s0,0(s1)
rt_timer_check():
F:\SCHOOL\文件\智能车\全向组\RTTThreadCH32V103\camCoreWithRTOS\obj/../Libraries/rtthread_libraries/src/timer.c:507
    while (!rt_list_isempty(&rt_timer_list[RT_TIMER_SKIP_LIST_LEVEL - 1]))
    3bc6:	00941e63          	bne	s0,s1,3be2 <rt_timer_check+0x48>
F:\SCHOOL\文件\智能车\全向组\RTTThreadCH32V103\camCoreWithRTOS\obj/../Libraries/rtthread_libraries/src/timer.c:550
        else
            break;
    }

    /* enable interrupt */
    rt_hw_interrupt_enable(level);
    3bca:	854e                	mv	a0,s3
    3bcc:	d7afc0ef          	jal	ra,146 <rt_hw_interrupt_enable>
F:\SCHOOL\文件\智能车\全向组\RTTThreadCH32V103\camCoreWithRTOS\obj/../Libraries/rtthread_libraries/src/timer.c:553

    RT_DEBUG_LOG(RT_DEBUG_TIMER, ("timer check leave\n"));
}
    3bd0:	40f2                	lw	ra,28(sp)
    3bd2:	4462                	lw	s0,24(sp)
    3bd4:	44d2                	lw	s1,20(sp)
    3bd6:	4942                	lw	s2,16(sp)
    3bd8:	49b2                	lw	s3,12(sp)
    3bda:	4a22                	lw	s4,8(sp)
    3bdc:	4a92                	lw	s5,4(sp)
    3bde:	6105                	addi	sp,sp,32
    3be0:	8082                	ret
F:\SCHOOL\文件\智能车\全向组\RTTThreadCH32V103\camCoreWithRTOS\obj/../Libraries/rtthread_libraries/src/timer.c:516
        if ((current_tick - t->timeout_tick) < RT_TICK_MAX / 2)
    3be2:	485c                	lw	a5,20(s0)
    3be4:	40fa0a33          	sub	s4,s4,a5
    3be8:	ff4961e3          	bltu	s2,s4,3bca <rt_timer_check+0x30>
rt_list_remove():
F:\SCHOOL\文件\智能车\全向组\RTTThreadCH32V103\camCoreWithRTOS\Libraries\rtthread_libraries\include/rtservice.h:88
    n->next->prev = n->prev;
    3bec:	4018                	lw	a4,0(s0)
    3bee:	405c                	lw	a5,4(s0)
    3bf0:	c35c                	sw	a5,4(a4)
F:\SCHOOL\文件\智能车\全向组\RTTThreadCH32V103\camCoreWithRTOS\Libraries\rtthread_libraries\include/rtservice.h:89
    n->prev->next = n->next;
    3bf2:	4018                	lw	a4,0(s0)
    3bf4:	c398                	sw	a4,0(a5)
F:\SCHOOL\文件\智能车\全向组\RTTThreadCH32V103\camCoreWithRTOS\Libraries\rtthread_libraries\include/rtservice.h:91
    n->next = n->prev = n;
    3bf6:	c040                	sw	s0,4(s0)
    3bf8:	c000                	sw	s0,0(s0)
rt_timer_check():
F:\SCHOOL\文件\智能车\全向组\RTTThreadCH32V103\camCoreWithRTOS\obj/../Libraries/rtthread_libraries/src/timer.c:524
            t->timeout_func(t->parameter);
    3bfa:	441c                	lw	a5,8(s0)
    3bfc:	4448                	lw	a0,12(s0)
    3bfe:	9782                	jalr	a5
F:\SCHOOL\文件\智能车\全向组\RTTThreadCH32V103\camCoreWithRTOS\obj/../Libraries/rtthread_libraries/src/timer.c:527
            current_tick = rt_tick_get();
    3c00:	c60fe0ef          	jal	ra,2060 <rt_tick_get>
    3c04:	8a2a                	mv	s4,a0
F:\SCHOOL\文件\智能车\全向组\RTTThreadCH32V103\camCoreWithRTOS\obj/../Libraries/rtthread_libraries/src/timer.c:532
            if ((t->parent.flag & RT_TIMER_FLAG_PERIODIC) &&
    3c06:	ff544783          	lbu	a5,-11(s0)
    3c0a:	0037f713          	andi	a4,a5,3
    3c0e:	01570663          	beq	a4,s5,3c1a <rt_timer_check+0x80>
F:\SCHOOL\文件\智能车\全向组\RTTThreadCH32V103\camCoreWithRTOS\obj/../Libraries/rtthread_libraries/src/timer.c:542
                t->parent.flag &= ~RT_TIMER_FLAG_ACTIVATED;
    3c12:	9bf9                	andi	a5,a5,-2
    3c14:	fef40aa3          	sb	a5,-11(s0)
    3c18:	b775                	j	3bc4 <rt_timer_check+0x2a>
F:\SCHOOL\文件\智能车\全向组\RTTThreadCH32V103\camCoreWithRTOS\obj/../Libraries/rtthread_libraries/src/timer.c:536
                t->parent.flag &= ~RT_TIMER_FLAG_ACTIVATED;
    3c1a:	9bf9                	andi	a5,a5,-2
    3c1c:	fef40aa3          	sb	a5,-11(s0)
F:\SCHOOL\文件\智能车\全向组\RTTThreadCH32V103\camCoreWithRTOS\obj/../Libraries/rtthread_libraries/src/timer.c:537
                rt_timer_start(t);
    3c20:	fec40513          	addi	a0,s0,-20
    3c24:	e59ff0ef          	jal	ra,3a7c <rt_timer_start>
    3c28:	bf71                	j	3bc4 <rt_timer_check+0x2a>

00003c2a <rt_system_timer_init>:
rt_list_init():
F:\SCHOOL\文件\智能车\全向组\RTTThreadCH32V103\camCoreWithRTOS\Libraries\rtthread_libraries\include/rtservice.h:49
    l->next = l->prev = l;
    3c2a:	88818793          	addi	a5,gp,-1912 # 20000138 <rt_timer_list>
    3c2e:	c3dc                	sw	a5,4(a5)
    3c30:	c39c                	sw	a5,0(a5)
rt_system_timer_init():
F:\SCHOOL\文件\智能车\全向组\RTTThreadCH32V103\camCoreWithRTOS\obj/../Libraries/rtthread_libraries/src/timer.c:687

    for (i = 0; i < sizeof(rt_timer_list) / sizeof(rt_timer_list[0]); i++)
    {
        rt_list_init(rt_timer_list + i);
    }
}
    3c32:	8082                	ret

00003c34 <rt_system_timer_thread_init>:
rt_system_timer_thread_init():
F:\SCHOOL\文件\智能车\全向组\RTTThreadCH32V103\camCoreWithRTOS\obj/../Libraries/rtthread_libraries/src/timer.c:719
                   10);

    /* startup */
    rt_thread_startup(&timer_thread);
#endif
}
    3c34:	8082                	ret

00003c36 <rt_hw_stack_init>:
rt_hw_stack_init():
F:\SCHOOL\文件\智能车\全向组\RTTThreadCH32V103\camCoreWithRTOS\obj/../Libraries/rtthread_libraries/libcpu/cpuport.c:73
 */
rt_uint8_t *rt_hw_stack_init(void       *tentry,
                             void       *parameter,
                             rt_uint8_t *stack_addr,
                             void       *texit)
{
    3c36:	882a                	mv	a6,a0
F:\SCHOOL\文件\智能车\全向组\RTTThreadCH32V103\camCoreWithRTOS\obj/../Libraries/rtthread_libraries/libcpu/cpuport.c:78
    struct rt_hw_stack_frame *frame;
    rt_uint8_t         *stk;
    int                i;

    stk  = stack_addr + sizeof(rt_ubase_t);
    3c38:	0611                	addi	a2,a2,4
F:\SCHOOL\文件\智能车\全向组\RTTThreadCH32V103\camCoreWithRTOS\obj/../Libraries/rtthread_libraries/libcpu/cpuport.c:79
    stk  = (rt_uint8_t *)RT_ALIGN_DOWN((rt_ubase_t)stk, REGBYTES);
    3c3a:	9a71                	andi	a2,a2,-4
F:\SCHOOL\文件\智能车\全向组\RTTThreadCH32V103\camCoreWithRTOS\obj/../Libraries/rtthread_libraries/libcpu/cpuport.c:80
    stk -= sizeof(struct rt_hw_stack_frame);
    3c3c:	f8060513          	addi	a0,a2,-128
F:\SCHOOL\文件\智能车\全向组\RTTThreadCH32V103\camCoreWithRTOS\obj/../Libraries/rtthread_libraries/libcpu/cpuport.c:84

    frame = (struct rt_hw_stack_frame *)stk;

    for (i = 0; i < sizeof(struct rt_hw_stack_frame) / sizeof(rt_ubase_t); i++)
    3c40:	87aa                	mv	a5,a0
F:\SCHOOL\文件\智能车\全向组\RTTThreadCH32V103\camCoreWithRTOS\obj/../Libraries/rtthread_libraries/libcpu/cpuport.c:86
    {
        ((rt_ubase_t *)frame)[i] = 0xdeadbeef;
    3c42:	deadc737          	lui	a4,0xdeadc
    3c46:	eef70713          	addi	a4,a4,-273 # deadbeef <_eusrstack+0xbead6eef>
F:\SCHOOL\文件\智能车\全向组\RTTThreadCH32V103\camCoreWithRTOS\obj/../Libraries/rtthread_libraries/libcpu/cpuport.c:86 (discriminator 3)
    3c4a:	c398                	sw	a4,0(a5)
    3c4c:	0791                	addi	a5,a5,4
F:\SCHOOL\文件\智能车\全向组\RTTThreadCH32V103\camCoreWithRTOS\obj/../Libraries/rtthread_libraries/libcpu/cpuport.c:84 (discriminator 3)
    for (i = 0; i < sizeof(struct rt_hw_stack_frame) / sizeof(rt_ubase_t); i++)
    3c4e:	fef61ee3          	bne	a2,a5,3c4a <rt_hw_stack_init+0x14>
F:\SCHOOL\文件\智能车\全向组\RTTThreadCH32V103\camCoreWithRTOS\obj/../Libraries/rtthread_libraries/libcpu/cpuport.c:89
    }

    frame->ra      = (rt_ubase_t)texit;
    3c52:	f8d62223          	sw	a3,-124(a2)
F:\SCHOOL\文件\智能车\全向组\RTTThreadCH32V103\camCoreWithRTOS\obj/../Libraries/rtthread_libraries/libcpu/cpuport.c:90
    frame->a0      = (rt_ubase_t)parameter;
    3c56:	fab62423          	sw	a1,-88(a2)
F:\SCHOOL\文件\智能车\全向组\RTTThreadCH32V103\camCoreWithRTOS\obj/../Libraries/rtthread_libraries/libcpu/cpuport.c:91
    frame->epc     = (rt_ubase_t)tentry;
    3c5a:	f9062023          	sw	a6,-128(a2)
F:\SCHOOL\文件\智能车\全向组\RTTThreadCH32V103\camCoreWithRTOS\obj/../Libraries/rtthread_libraries/libcpu/cpuport.c:94

    /* force to machine mode(MPP=11) and set MPIE to 1 */
    frame->mstatus = 0x00007880;
    3c5e:	67a1                	lui	a5,0x8
    3c60:	88078793          	addi	a5,a5,-1920 # 7880 <_data_lma+0x338>
    3c64:	f8f62423          	sw	a5,-120(a2)
F:\SCHOOL\文件\智能车\全向组\RTTThreadCH32V103\camCoreWithRTOS\obj/../Libraries/rtthread_libraries/libcpu/cpuport.c:97

    return stk;
}
    3c68:	8082                	ret

00003c6a <rt_hw_taskswitch>:
rt_hw_taskswitch():
F:\SCHOOL\文件\智能车\全向组\RTTThreadCH32V103\camCoreWithRTOS\obj/../Libraries/rtthread_libraries/libcpu/cpuport.c:101

void rt_hw_taskswitch(void)
{
    rt_thread_switch_interrupt_flag = 0;
    3c6a:	8801ac23          	sw	zero,-1896(gp) # 20000148 <rt_thread_switch_interrupt_flag>
F:\SCHOOL\文件\智能车\全向组\RTTThreadCH32V103\camCoreWithRTOS\obj/../Libraries/rtthread_libraries/libcpu/cpuport.c:103

}
    3c6e:	8082                	ret

00003c70 <rt_hw_context_switch>:
rt_hw_context_switch():
F:\SCHOOL\文件\智能车\全向组\RTTThreadCH32V103\camCoreWithRTOS\obj/../Libraries/rtthread_libraries/libcpu/cpuport.c:113
 * @param from thread sp of from thread
 * @param to thread sp of to thread
 */
void rt_hw_context_switch(rt_ubase_t from, rt_ubase_t to)
{
    rt_interrupt_from_thread = from;
    3c70:	88a1a823          	sw	a0,-1904(gp) # 20000140 <rt_interrupt_from_thread>
F:\SCHOOL\文件\智能车\全向组\RTTThreadCH32V103\camCoreWithRTOS\obj/../Libraries/rtthread_libraries/libcpu/cpuport.c:114
    rt_interrupt_to_thread = to;
    3c74:	88b1aa23          	sw	a1,-1900(gp) # 20000144 <rt_interrupt_to_thread>
F:\SCHOOL\文件\智能车\全向组\RTTThreadCH32V103\camCoreWithRTOS\obj/../Libraries/rtthread_libraries/libcpu/cpuport.c:115
    NVIC->IPSR[((uint32_t)(Software_IRQn) >> 5)] = (1 << ((uint32_t)(Software_IRQn) & 0x1F));
    3c78:	e000e7b7          	lui	a5,0xe000e
    3c7c:	6711                	lui	a4,0x4
    3c7e:	20e7a023          	sw	a4,512(a5) # e000e200 <_eusrstack+0xc0009200>
F:\SCHOOL\文件\智能车\全向组\RTTThreadCH32V103\camCoreWithRTOS\obj/../Libraries/rtthread_libraries/libcpu/cpuport.c:116
}
    3c82:	8082                	ret

00003c84 <rt_hw_context_switch_interrupt>:
rt_hw_context_switch_interrupt():
F:\SCHOOL\文件\智能车\全向组\RTTThreadCH32V103\camCoreWithRTOS\obj/../Libraries/rtthread_libraries/libcpu/cpuport.c:128
 * #endif
 */
#ifndef RT_USING_SMP
void rt_hw_context_switch_interrupt(rt_ubase_t from, rt_ubase_t to)
{
    if (rt_thread_switch_interrupt_flag == 0)
    3c84:	8981a783          	lw	a5,-1896(gp) # 20000148 <rt_thread_switch_interrupt_flag>
    3c88:	e399                	bnez	a5,3c8e <rt_hw_context_switch_interrupt+0xa>
F:\SCHOOL\文件\智能车\全向组\RTTThreadCH32V103\camCoreWithRTOS\obj/../Libraries/rtthread_libraries/libcpu/cpuport.c:129
        rt_interrupt_from_thread = from;
    3c8a:	88a1a823          	sw	a0,-1904(gp) # 20000140 <rt_interrupt_from_thread>
F:\SCHOOL\文件\智能车\全向组\RTTThreadCH32V103\camCoreWithRTOS\obj/../Libraries/rtthread_libraries/libcpu/cpuport.c:131

    rt_interrupt_to_thread = to;
    3c8e:	88b1aa23          	sw	a1,-1900(gp) # 20000144 <rt_interrupt_to_thread>
F:\SCHOOL\文件\智能车\全向组\RTTThreadCH32V103\camCoreWithRTOS\obj/../Libraries/rtthread_libraries/libcpu/cpuport.c:132
    rt_thread_switch_interrupt_flag = 1;
    3c92:	4705                	li	a4,1
    3c94:	88e1ac23          	sw	a4,-1896(gp) # 20000148 <rt_thread_switch_interrupt_flag>
F:\SCHOOL\文件\智能车\全向组\RTTThreadCH32V103\camCoreWithRTOS\obj/../Libraries/rtthread_libraries/libcpu/cpuport.c:134
    //NVIC_SetPendingIRQ(Software_IRQn);
    NVIC->IPSR[((uint32_t)(Software_IRQn) >> 5)] = (1 << ((uint32_t)(Software_IRQn) & 0x1F));
    3c98:	e000e7b7          	lui	a5,0xe000e
    3c9c:	6711                	lui	a4,0x4
    3c9e:	20e7a023          	sw	a4,512(a5) # e000e200 <_eusrstack+0xc0009200>
F:\SCHOOL\文件\智能车\全向组\RTTThreadCH32V103\camCoreWithRTOS\obj/../Libraries/rtthread_libraries/libcpu/cpuport.c:136
    return ;
}
    3ca2:	8082                	ret

00003ca4 <hello>:
hello():
F:\SCHOOL\文件\智能车\全向组\RTTThreadCH32V103\camCoreWithRTOS\obj/../Libraries/rtthread_libraries/components/finsh/cmd.c:44
#include "finsh.h"

#define LIST_FIND_OBJ_NR 8

long hello(void)
{
    3ca4:	1141                	addi	sp,sp,-16
    3ca6:	c606                	sw	ra,12(sp)
F:\SCHOOL\文件\智能车\全向组\RTTThreadCH32V103\camCoreWithRTOS\obj/../Libraries/rtthread_libraries/components/finsh/cmd.c:45
    rt_kprintf("Hello RT-Thread!\n");
    3ca8:	00007537          	lui	a0,0x7
    3cac:	01050513          	addi	a0,a0,16 # 7010 <__fsym_list_timer_name+0xc>
    3cb0:	a12ff0ef          	jal	ra,2ec2 <rt_kprintf>
F:\SCHOOL\文件\智能车\全向组\RTTThreadCH32V103\camCoreWithRTOS\obj/../Libraries/rtthread_libraries/components/finsh/cmd.c:48

    return 0;
}
    3cb4:	4501                	li	a0,0
    3cb6:	40b2                	lw	ra,12(sp)
    3cb8:	0141                	addi	sp,sp,16
    3cba:	8082                	ret

00003cbc <show_wait_queue>:
show_wait_queue():
F:\SCHOOL\文件\智能车\全向组\RTTThreadCH32V103\camCoreWithRTOS\obj/../Libraries/rtthread_libraries/components/finsh/cmd.c:253
}
FINSH_FUNCTION_EXPORT(list_thread, list thread);
MSH_CMD_EXPORT(list_thread, list thread);

static void show_wait_queue(struct rt_list_node *list)
{
    3cbc:	1101                	addi	sp,sp,-32
    3cbe:	ce06                	sw	ra,28(sp)
    3cc0:	cc22                	sw	s0,24(sp)
    3cc2:	ca26                	sw	s1,20(sp)
    3cc4:	c84a                	sw	s2,16(sp)
    3cc6:	c64e                	sw	s3,12(sp)
F:\SCHOOL\文件\智能车\全向组\RTTThreadCH32V103\camCoreWithRTOS\obj/../Libraries/rtthread_libraries/components/finsh/cmd.c:257
    struct rt_thread *thread;
    struct rt_list_node *node;

    for (node = list->next; node != list; node = node->next)
    3cc8:	4100                	lw	s0,0(a0)
    3cca:	02850863          	beq	a0,s0,3cfa <show_wait_queue+0x3e>
    3cce:	84aa                	mv	s1,a0
F:\SCHOOL\文件\智能车\全向组\RTTThreadCH32V103\camCoreWithRTOS\obj/../Libraries/rtthread_libraries/components/finsh/cmd.c:260
    {
        thread = rt_list_entry(node, struct rt_thread, tlist);
        rt_kprintf("%s", thread->name);
    3cd0:	00007937          	lui	s2,0x7
F:\SCHOOL\文件\智能车\全向组\RTTThreadCH32V103\camCoreWithRTOS\obj/../Libraries/rtthread_libraries/components/finsh/cmd.c:263

        if (node->next != list)
            rt_kprintf("/");
    3cd4:	000079b7          	lui	s3,0x7
    3cd8:	a801                	j	3ce8 <show_wait_queue+0x2c>
    3cda:	2bc98513          	addi	a0,s3,700 # 72bc <__fsym_list_timer_name+0x2b8>
    3cde:	9e4ff0ef          	jal	ra,2ec2 <rt_kprintf>
F:\SCHOOL\文件\智能车\全向组\RTTThreadCH32V103\camCoreWithRTOS\obj/../Libraries/rtthread_libraries/components/finsh/cmd.c:257
    for (node = list->next; node != list; node = node->next)
    3ce2:	4000                	lw	s0,0(s0)
    3ce4:	00848b63          	beq	s1,s0,3cfa <show_wait_queue+0x3e>
F:\SCHOOL\文件\智能车\全向组\RTTThreadCH32V103\camCoreWithRTOS\obj/../Libraries/rtthread_libraries/components/finsh/cmd.c:260
        rt_kprintf("%s", thread->name);
    3ce8:	fec40593          	addi	a1,s0,-20
    3cec:	2b890513          	addi	a0,s2,696 # 72b8 <__fsym_list_timer_name+0x2b4>
    3cf0:	9d2ff0ef          	jal	ra,2ec2 <rt_kprintf>
F:\SCHOOL\文件\智能车\全向组\RTTThreadCH32V103\camCoreWithRTOS\obj/../Libraries/rtthread_libraries/components/finsh/cmd.c:262
        if (node->next != list)
    3cf4:	401c                	lw	a5,0(s0)
    3cf6:	fe9792e3          	bne	a5,s1,3cda <show_wait_queue+0x1e>
F:\SCHOOL\文件\智能车\全向组\RTTThreadCH32V103\camCoreWithRTOS\obj/../Libraries/rtthread_libraries/components/finsh/cmd.c:265
    }
}
    3cfa:	40f2                	lw	ra,28(sp)
    3cfc:	4462                	lw	s0,24(sp)
    3cfe:	44d2                	lw	s1,20(sp)
    3d00:	4942                	lw	s2,16(sp)
    3d02:	49b2                	lw	s3,12(sp)
    3d04:	6105                	addi	sp,sp,32
    3d06:	8082                	ret

00003d08 <version>:
version():
F:\SCHOOL\文件\智能车\全向组\RTTThreadCH32V103\camCoreWithRTOS\obj/../Libraries/rtthread_libraries/components/finsh/cmd.c:53
{
    3d08:	1141                	addi	sp,sp,-16
    3d0a:	c606                	sw	ra,12(sp)
F:\SCHOOL\文件\智能车\全向组\RTTThreadCH32V103\camCoreWithRTOS\obj/../Libraries/rtthread_libraries/components/finsh/cmd.c:54
    rt_show_version();
    3d0c:	9ecff0ef          	jal	ra,2ef8 <rt_show_version>
F:\SCHOOL\文件\智能车\全向组\RTTThreadCH32V103\camCoreWithRTOS\obj/../Libraries/rtthread_libraries/components/finsh/cmd.c:57
}
    3d10:	4501                	li	a0,0
    3d12:	40b2                	lw	ra,12(sp)
    3d14:	0141                	addi	sp,sp,16
    3d16:	8082                	ret

00003d18 <list_get_next>:
list_get_next():
F:\SCHOOL\文件\智能车\全向组\RTTThreadCH32V103\camCoreWithRTOS\obj/../Libraries/rtthread_libraries/components/finsh/cmd.c:91
{
    3d18:	1101                	addi	sp,sp,-32
    3d1a:	ce06                	sw	ra,28(sp)
    3d1c:	cc22                	sw	s0,24(sp)
    3d1e:	ca26                	sw	s1,20(sp)
    3d20:	c84a                	sw	s2,16(sp)
    3d22:	c64e                	sw	s3,12(sp)
F:\SCHOOL\文件\智能车\全向组\RTTThreadCH32V103\camCoreWithRTOS\obj/../Libraries/rtthread_libraries/components/finsh/cmd.c:98
    arg->nr_out = 0;
    3d24:	0005a823          	sw	zero,16(a1)
F:\SCHOOL\文件\智能车\全向组\RTTThreadCH32V103\camCoreWithRTOS\obj/../Libraries/rtthread_libraries/components/finsh/cmd.c:100
    if (!arg->nr || !arg->type)
    3d28:	45dc                	lw	a5,12(a1)
    3d2a:	c3bd                	beqz	a5,3d90 <list_get_next+0x78>
F:\SCHOOL\文件\智能车\全向组\RTTThreadCH32V103\camCoreWithRTOS\obj/../Libraries/rtthread_libraries/components/finsh/cmd.c:100 (discriminator 1)
    3d2c:	0085c783          	lbu	a5,8(a1)
    3d30:	c3b5                	beqz	a5,3d94 <list_get_next+0x7c>
    3d32:	892e                	mv	s2,a1
    3d34:	842a                	mv	s0,a0
F:\SCHOOL\文件\智能车\全向组\RTTThreadCH32V103\camCoreWithRTOS\obj/../Libraries/rtthread_libraries/components/finsh/cmd.c:105
    list = arg->list;
    3d36:	0005a983          	lw	s3,0(a1)
F:\SCHOOL\文件\智能车\全向组\RTTThreadCH32V103\camCoreWithRTOS\obj/../Libraries/rtthread_libraries/components/finsh/cmd.c:107
    if (!current) /* find first */
    3d3a:	cd39                	beqz	a0,3d98 <list_get_next+0x80>
F:\SCHOOL\文件\智能车\全向组\RTTThreadCH32V103\camCoreWithRTOS\obj/../Libraries/rtthread_libraries/components/finsh/cmd.c:117
    level = rt_hw_interrupt_disable();
    3d3c:	c04fc0ef          	jal	ra,140 <rt_hw_interrupt_disable>
F:\SCHOOL\文件\智能车\全向组\RTTThreadCH32V103\camCoreWithRTOS\obj/../Libraries/rtthread_libraries/components/finsh/cmd.c:124
        if ((obj->type & ~RT_Object_Class_Static) != arg->type)
    3d40:	ffc44783          	lbu	a5,-4(s0)
    3d44:	f7f7f793          	andi	a5,a5,-129
    3d48:	00894703          	lbu	a4,8(s2)
    3d4c:	02e79163          	bne	a5,a4,3d6e <list_get_next+0x56>
F:\SCHOOL\文件\智能车\全向组\RTTThreadCH32V103\camCoreWithRTOS\obj/../Libraries/rtthread_libraries/components/finsh/cmd.c:132
    array = arg->array;
    3d50:	00492783          	lw	a5,4(s2)
F:\SCHOOL\文件\智能车\全向组\RTTThreadCH32V103\camCoreWithRTOS\obj/../Libraries/rtthread_libraries/components/finsh/cmd.c:131
    nr = 0;
    3d54:	4481                	li	s1,0
F:\SCHOOL\文件\智能车\全向组\RTTThreadCH32V103\camCoreWithRTOS\obj/../Libraries/rtthread_libraries/components/finsh/cmd.c:135
        node = node->next;
    3d56:	4000                	lw	s0,0(s0)
F:\SCHOOL\文件\智能车\全向组\RTTThreadCH32V103\camCoreWithRTOS\obj/../Libraries/rtthread_libraries/components/finsh/cmd.c:137
        if (node == list)
    3d58:	00898f63          	beq	s3,s0,3d76 <list_get_next+0x5e>
F:\SCHOOL\文件\智能车\全向组\RTTThreadCH32V103\camCoreWithRTOS\obj/../Libraries/rtthread_libraries/components/finsh/cmd.c:142
        nr++;
    3d5c:	0485                	addi	s1,s1,1
F:\SCHOOL\文件\智能车\全向组\RTTThreadCH32V103\camCoreWithRTOS\obj/../Libraries/rtthread_libraries/components/finsh/cmd.c:143
        *array++ = node;
    3d5e:	0791                	addi	a5,a5,4
    3d60:	fe87ae23          	sw	s0,-4(a5)
F:\SCHOOL\文件\智能车\全向组\RTTThreadCH32V103\camCoreWithRTOS\obj/../Libraries/rtthread_libraries/components/finsh/cmd.c:144
        if (nr == arg->nr)
    3d64:	00c92703          	lw	a4,12(s2)
    3d68:	fe9717e3          	bne	a4,s1,3d56 <list_get_next+0x3e>
    3d6c:	a031                	j	3d78 <list_get_next+0x60>
F:\SCHOOL\文件\智能车\全向组\RTTThreadCH32V103\camCoreWithRTOS\obj/../Libraries/rtthread_libraries/components/finsh/cmd.c:126
            rt_hw_interrupt_enable(level);
    3d6e:	bd8fc0ef          	jal	ra,146 <rt_hw_interrupt_enable>
F:\SCHOOL\文件\智能车\全向组\RTTThreadCH32V103\camCoreWithRTOS\obj/../Libraries/rtthread_libraries/components/finsh/cmd.c:127
            return (rt_list_t *)RT_NULL;
    3d72:	4401                	li	s0,0
    3d74:	a031                	j	3d80 <list_get_next+0x68>
F:\SCHOOL\文件\智能车\全向组\RTTThreadCH32V103\camCoreWithRTOS\obj/../Libraries/rtthread_libraries/components/finsh/cmd.c:139
            node = (rt_list_t *)RT_NULL;
    3d76:	4401                	li	s0,0
F:\SCHOOL\文件\智能车\全向组\RTTThreadCH32V103\camCoreWithRTOS\obj/../Libraries/rtthread_libraries/components/finsh/cmd.c:150
    rt_hw_interrupt_enable(level);
    3d78:	bcefc0ef          	jal	ra,146 <rt_hw_interrupt_enable>
F:\SCHOOL\文件\智能车\全向组\RTTThreadCH32V103\camCoreWithRTOS\obj/../Libraries/rtthread_libraries/components/finsh/cmd.c:151
    arg->nr_out = nr;
    3d7c:	00992823          	sw	s1,16(s2)
F:\SCHOOL\文件\智能车\全向组\RTTThreadCH32V103\camCoreWithRTOS\obj/../Libraries/rtthread_libraries/components/finsh/cmd.c:153
}
    3d80:	8522                	mv	a0,s0
    3d82:	40f2                	lw	ra,28(sp)
    3d84:	4462                	lw	s0,24(sp)
    3d86:	44d2                	lw	s1,20(sp)
    3d88:	4942                	lw	s2,16(sp)
    3d8a:	49b2                	lw	s3,12(sp)
    3d8c:	6105                	addi	sp,sp,32
    3d8e:	8082                	ret
F:\SCHOOL\文件\智能车\全向组\RTTThreadCH32V103\camCoreWithRTOS\obj/../Libraries/rtthread_libraries/components/finsh/cmd.c:102
        return (rt_list_t *)RT_NULL;
    3d90:	4401                	li	s0,0
    3d92:	b7fd                	j	3d80 <list_get_next+0x68>
    3d94:	4401                	li	s0,0
    3d96:	b7ed                	j	3d80 <list_get_next+0x68>
F:\SCHOOL\文件\智能车\全向组\RTTThreadCH32V103\camCoreWithRTOS\obj/../Libraries/rtthread_libraries/components/finsh/cmd.c:117
    level = rt_hw_interrupt_disable();
    3d98:	ba8fc0ef          	jal	ra,140 <rt_hw_interrupt_disable>
F:\SCHOOL\文件\智能车\全向组\RTTThreadCH32V103\camCoreWithRTOS\obj/../Libraries/rtthread_libraries/components/finsh/cmd.c:109
        node = list;
    3d9c:	844e                	mv	s0,s3
    3d9e:	bf4d                	j	3d50 <list_get_next+0x38>

00003da0 <list_thread>:
list_thread():
F:\SCHOOL\文件\智能车\全向组\RTTThreadCH32V103\camCoreWithRTOS\obj/../Libraries/rtthread_libraries/components/finsh/cmd.c:156
{
    3da0:	7151                	addi	sp,sp,-240
    3da2:	d786                	sw	ra,236(sp)
    3da4:	d5a2                	sw	s0,232(sp)
    3da6:	d3a6                	sw	s1,228(sp)
    3da8:	d1ca                	sw	s2,224(sp)
    3daa:	cfce                	sw	s3,220(sp)
    3dac:	cdd2                	sw	s4,216(sp)
    3dae:	cbd6                	sw	s5,212(sp)
    3db0:	c9da                	sw	s6,208(sp)
    3db2:	c7de                	sw	s7,204(sp)
    3db4:	c5e2                	sw	s8,200(sp)
    3db6:	c3e6                	sw	s9,196(sp)
    3db8:	c1ea                	sw	s10,192(sp)
    3dba:	df6e                	sw	s11,188(sp)
list_find_init():
F:\SCHOOL\文件\智能车\全向组\RTTThreadCH32V103\camCoreWithRTOS\obj/../Libraries/rtthread_libraries/components/finsh/cmd.c:80
    info = rt_object_get_information((enum rt_object_class_type)type);
    3dbc:	4505                	li	a0,1
    3dbe:	d0cff0ef          	jal	ra,32ca <rt_object_get_information>
F:\SCHOOL\文件\智能车\全向组\RTTThreadCH32V103\camCoreWithRTOS\obj/../Libraries/rtthread_libraries/components/finsh/cmd.c:81
    list = &info->object_list;
    3dc2:	0511                	addi	a0,a0,4
F:\SCHOOL\文件\智能车\全向组\RTTThreadCH32V103\camCoreWithRTOS\obj/../Libraries/rtthread_libraries/components/finsh/cmd.c:83
    p->list = list;
    3dc4:	cf2a                	sw	a0,156(sp)
F:\SCHOOL\文件\智能车\全向组\RTTThreadCH32V103\camCoreWithRTOS\obj/../Libraries/rtthread_libraries/components/finsh/cmd.c:84
    p->type = type;
    3dc6:	4785                	li	a5,1
    3dc8:	0af10223          	sb	a5,164(sp)
F:\SCHOOL\文件\智能车\全向组\RTTThreadCH32V103\camCoreWithRTOS\obj/../Libraries/rtthread_libraries/components/finsh/cmd.c:85
    p->array = array;
    3dcc:	18fc                	addi	a5,sp,124
    3dce:	d13e                	sw	a5,160(sp)
F:\SCHOOL\文件\智能车\全向组\RTTThreadCH32V103\camCoreWithRTOS\obj/../Libraries/rtthread_libraries/components/finsh/cmd.c:86
    p->nr = nr;
    3dd0:	47a1                	li	a5,8
    3dd2:	d53e                	sw	a5,168(sp)
F:\SCHOOL\文件\智能车\全向组\RTTThreadCH32V103\camCoreWithRTOS\obj/../Libraries/rtthread_libraries/components/finsh/cmd.c:87
    p->nr_out = 0;
    3dd4:	d702                	sw	zero,172(sp)
list_thread():
F:\SCHOOL\文件\智能车\全向组\RTTThreadCH32V103\camCoreWithRTOS\obj/../Libraries/rtthread_libraries/components/finsh/cmd.c:172
    rt_kprintf("%-*.s pri  status      sp     stack size max used left tick  error\n", maxlen, item_title); object_split(maxlen);
    3dd6:	00007637          	lui	a2,0x7
    3dda:	11860613          	addi	a2,a2,280 # 7118 <__fsym_list_timer_name+0x114>
    3dde:	45a1                	li	a1,8
    3de0:	00007537          	lui	a0,0x7
    3de4:	12050513          	addi	a0,a0,288 # 7120 <__fsym_list_timer_name+0x11c>
    3de8:	8daff0ef          	jal	ra,2ec2 <rt_kprintf>
    3dec:	4421                	li	s0,8
object_split():
F:\SCHOOL\文件\智能车\全向组\RTTThreadCH32V103\camCoreWithRTOS\obj/../Libraries/rtthread_libraries/components/finsh/cmd.c:63
    while (len--) rt_kprintf("-");
    3dee:	000074b7          	lui	s1,0x7
    3df2:	16448513          	addi	a0,s1,356 # 7164 <__fsym_list_timer_name+0x160>
    3df6:	8ccff0ef          	jal	ra,2ec2 <rt_kprintf>
    3dfa:	147d                	addi	s0,s0,-1
    3dfc:	f87d                	bnez	s0,3df2 <list_thread+0x52>
list_thread():
F:\SCHOOL\文件\智能车\全向组\RTTThreadCH32V103\camCoreWithRTOS\obj/../Libraries/rtthread_libraries/components/finsh/cmd.c:173
    rt_kprintf(     " ---  ------- ---------- ----------  ------  ---------- ---\n");
    3dfe:	00007537          	lui	a0,0x7
    3e02:	16850513          	addi	a0,a0,360 # 7168 <__fsym_list_timer_name+0x164>
    3e06:	8bcff0ef          	jal	ra,2ec2 <rt_kprintf>
F:\SCHOOL\文件\智能车\全向组\RTTThreadCH32V103\camCoreWithRTOS\obj/../Libraries/rtthread_libraries/components/finsh/cmd.c:160
    rt_list_t *next = (rt_list_t*)RT_NULL;
    3e0a:	4a81                	li	s5,0
F:\SCHOOL\文件\智能车\全向组\RTTThreadCH32V103\camCoreWithRTOS\obj/../Libraries/rtthread_libraries/components/finsh/cmd.c:210
                    rt_kprintf("%-*.*s %3d ", maxlen, RT_NAME_MAX, thread->name, thread->current_priority);
    3e0c:	00007bb7          	lui	s7,0x7
F:\SCHOOL\文件\智能车\全向组\RTTThreadCH32V103\camCoreWithRTOS\obj/../Libraries/rtthread_libraries/components/finsh/cmd.c:233
                    rt_kprintf(" 0x%08x 0x%08x    %02d%%   0x%08x %03d\n",
    3e10:	00007b37          	lui	s6,0x7
F:\SCHOOL\文件\智能车\全向组\RTTThreadCH32V103\camCoreWithRTOS\obj/../Libraries/rtthread_libraries/components/finsh/cmd.c:216
                    else if (stat == RT_THREAD_CLOSE)   rt_kprintf(" close  ");
    3e14:	00007db7          	lui	s11,0x7
    3e18:	a8d5                	j	3f0c <list_thread+0x16c>
F:\SCHOOL\文件\智能车\全向组\RTTThreadCH32V103\camCoreWithRTOS\obj/../Libraries/rtthread_libraries/components/finsh/cmd.c:186
                obj = rt_list_entry(obj_list[i], struct rt_object, list);
    3e1a:	ff440a13          	addi	s4,s0,-12
F:\SCHOOL\文件\智能车\全向组\RTTThreadCH32V103\camCoreWithRTOS\obj/../Libraries/rtthread_libraries/components/finsh/cmd.c:195
                memcpy(&thread_info, obj, sizeof thread_info);
    3e1e:	07800613          	li	a2,120
    3e22:	85d2                	mv	a1,s4
    3e24:	0048                	addi	a0,sp,4
    3e26:	2d2010ef          	jal	ra,50f8 <memcpy>
F:\SCHOOL\文件\智能车\全向组\RTTThreadCH32V103\camCoreWithRTOS\obj/../Libraries/rtthread_libraries/components/finsh/cmd.c:196
                rt_hw_interrupt_enable(level);
    3e2a:	854e                	mv	a0,s3
    3e2c:	b1afc0ef          	jal	ra,146 <rt_hw_interrupt_enable>
F:\SCHOOL\文件\智能车\全向组\RTTThreadCH32V103\camCoreWithRTOS\obj/../Libraries/rtthread_libraries/components/finsh/cmd.c:210
                    rt_kprintf("%-*.*s %3d ", maxlen, RT_NAME_MAX, thread->name, thread->current_priority);
    3e30:	02944703          	lbu	a4,41(s0)
    3e34:	86d2                	mv	a3,s4
    3e36:	4621                	li	a2,8
    3e38:	45a1                	li	a1,8
    3e3a:	1a8b8513          	addi	a0,s7,424 # 71a8 <__fsym_list_timer_name+0x1a4>
    3e3e:	884ff0ef          	jal	ra,2ec2 <rt_kprintf>
F:\SCHOOL\文件\智能车\全向组\RTTThreadCH32V103\camCoreWithRTOS\obj/../Libraries/rtthread_libraries/components/finsh/cmd.c:212
                    stat = (thread->stat & RT_THREAD_STAT_MASK);
    3e42:	02844783          	lbu	a5,40(s0)
    3e46:	8bbd                	andi	a5,a5,15
F:\SCHOOL\文件\智能车\全向组\RTTThreadCH32V103\camCoreWithRTOS\obj/../Libraries/rtthread_libraries/components/finsh/cmd.c:213
                    if (stat == RT_THREAD_READY)        rt_kprintf(" ready  ");
    3e48:	4705                	li	a4,1
    3e4a:	08e78263          	beq	a5,a4,3ece <list_thread+0x12e>
F:\SCHOOL\文件\智能车\全向组\RTTThreadCH32V103\camCoreWithRTOS\obj/../Libraries/rtthread_libraries/components/finsh/cmd.c:214
                    else if (stat == RT_THREAD_SUSPEND) rt_kprintf(" suspend");
    3e4e:	4709                	li	a4,2
    3e50:	08e78463          	beq	a5,a4,3ed8 <list_thread+0x138>
F:\SCHOOL\文件\智能车\全向组\RTTThreadCH32V103\camCoreWithRTOS\obj/../Libraries/rtthread_libraries/components/finsh/cmd.c:215
                    else if (stat == RT_THREAD_INIT)    rt_kprintf(" init   ");
    3e54:	c7d9                	beqz	a5,3ee2 <list_thread+0x142>
F:\SCHOOL\文件\智能车\全向组\RTTThreadCH32V103\camCoreWithRTOS\obj/../Libraries/rtthread_libraries/components/finsh/cmd.c:216
                    else if (stat == RT_THREAD_CLOSE)   rt_kprintf(" close  ");
    3e56:	4711                	li	a4,4
    3e58:	08e78a63          	beq	a5,a4,3eec <list_thread+0x14c>
F:\SCHOOL\文件\智能车\全向组\RTTThreadCH32V103\camCoreWithRTOS\obj/../Libraries/rtthread_libraries/components/finsh/cmd.c:217
                    else if (stat == RT_THREAD_RUNNING) rt_kprintf(" running");
    3e5c:	470d                	li	a4,3
    3e5e:	08e78c63          	beq	a5,a4,3ef6 <list_thread+0x156>
F:\SCHOOL\文件\智能车\全向组\RTTThreadCH32V103\camCoreWithRTOS\obj/../Libraries/rtthread_libraries/components/finsh/cmd.c:230
                    ptr = (rt_uint8_t *)thread->stack_addr;
    3e62:	4c4c                	lw	a1,28(s0)
F:\SCHOOL\文件\智能车\全向组\RTTThreadCH32V103\camCoreWithRTOS\obj/../Libraries/rtthread_libraries/components/finsh/cmd.c:231
                    while (*ptr == '#')ptr ++;
    3e64:	0005c703          	lbu	a4,0(a1)
    3e68:	02300793          	li	a5,35
    3e6c:	08f71c63          	bne	a4,a5,3f04 <list_thread+0x164>
F:\SCHOOL\文件\智能车\全向组\RTTThreadCH32V103\camCoreWithRTOS\obj/../Libraries/rtthread_libraries/components/finsh/cmd.c:230
                    ptr = (rt_uint8_t *)thread->stack_addr;
    3e70:	86ae                	mv	a3,a1
F:\SCHOOL\文件\智能车\全向组\RTTThreadCH32V103\camCoreWithRTOS\obj/../Libraries/rtthread_libraries/components/finsh/cmd.c:231
                    while (*ptr == '#')ptr ++;
    3e72:	02300713          	li	a4,35
F:\SCHOOL\文件\智能车\全向组\RTTThreadCH32V103\camCoreWithRTOS\obj/../Libraries/rtthread_libraries/components/finsh/cmd.c:231 (discriminator 2)
    3e76:	0685                	addi	a3,a3,1
    3e78:	0006c783          	lbu	a5,0(a3)
    3e7c:	fee78de3          	beq	a5,a4,3e76 <list_thread+0xd6>
F:\SCHOOL\文件\智能车\全向组\RTTThreadCH32V103\camCoreWithRTOS\obj/../Libraries/rtthread_libraries/components/finsh/cmd.c:234
                            thread->stack_size + ((rt_ubase_t)thread->stack_addr - (rt_ubase_t)thread->sp),
    3e80:	5010                	lw	a2,32(s0)
    3e82:	95b2                	add	a1,a1,a2
F:\SCHOOL\文件\智能车\全向组\RTTThreadCH32V103\camCoreWithRTOS\obj/../Libraries/rtthread_libraries/components/finsh/cmd.c:236
                            (thread->stack_size - ((rt_ubase_t) ptr - (rt_ubase_t) thread->stack_addr)) * 100
    3e84:	40d586b3          	sub	a3,a1,a3
    3e88:	06400793          	li	a5,100
    3e8c:	02f686b3          	mul	a3,a3,a5
F:\SCHOOL\文件\智能车\全向组\RTTThreadCH32V103\camCoreWithRTOS\obj/../Libraries/rtthread_libraries/components/finsh/cmd.c:233
                    rt_kprintf(" 0x%08x 0x%08x    %02d%%   0x%08x %03d\n",
    3e90:	4808                	lw	a0,16(s0)
    3e92:	505c                	lw	a5,36(s0)
    3e94:	5858                	lw	a4,52(s0)
    3e96:	02c6d6b3          	divu	a3,a3,a2
    3e9a:	8d89                	sub	a1,a1,a0
    3e9c:	1f0b0513          	addi	a0,s6,496 # 71f0 <__fsym_list_timer_name+0x1ec>
    3ea0:	822ff0ef          	jal	ra,2ec2 <rt_kprintf>
F:\SCHOOL\文件\智能车\全向组\RTTThreadCH32V103\camCoreWithRTOS\obj/../Libraries/rtthread_libraries/components/finsh/cmd.c:181 (discriminator 2)
            for (i = 0; i < find_arg.nr_out; i++)
    3ea4:	0485                	addi	s1,s1,1
    3ea6:	0911                	addi	s2,s2,4
    3ea8:	57ba                	lw	a5,172(sp)
    3eaa:	04f4df63          	bge	s1,a5,3f08 <list_thread+0x168>
F:\SCHOOL\文件\智能车\全向组\RTTThreadCH32V103\camCoreWithRTOS\obj/../Libraries/rtthread_libraries/components/finsh/cmd.c:186
                obj = rt_list_entry(obj_list[i], struct rt_object, list);
    3eae:	00092403          	lw	s0,0(s2)
F:\SCHOOL\文件\智能车\全向组\RTTThreadCH32V103\camCoreWithRTOS\obj/../Libraries/rtthread_libraries/components/finsh/cmd.c:187
                level = rt_hw_interrupt_disable();
    3eb2:	a8efc0ef          	jal	ra,140 <rt_hw_interrupt_disable>
    3eb6:	89aa                	mv	s3,a0
F:\SCHOOL\文件\智能车\全向组\RTTThreadCH32V103\camCoreWithRTOS\obj/../Libraries/rtthread_libraries/components/finsh/cmd.c:189
                if ((obj->type & ~RT_Object_Class_Static) != find_arg.type)
    3eb8:	ffc44783          	lbu	a5,-4(s0)
    3ebc:	f7f7f793          	andi	a5,a5,-129
    3ec0:	0a414703          	lbu	a4,164(sp)
    3ec4:	f4e78be3          	beq	a5,a4,3e1a <list_thread+0x7a>
F:\SCHOOL\文件\智能车\全向组\RTTThreadCH32V103\camCoreWithRTOS\obj/../Libraries/rtthread_libraries/components/finsh/cmd.c:191
                    rt_hw_interrupt_enable(level);
    3ec8:	a7efc0ef          	jal	ra,146 <rt_hw_interrupt_enable>
F:\SCHOOL\文件\智能车\全向组\RTTThreadCH32V103\camCoreWithRTOS\obj/../Libraries/rtthread_libraries/components/finsh/cmd.c:192
                    continue;
    3ecc:	bfe1                	j	3ea4 <list_thread+0x104>
F:\SCHOOL\文件\智能车\全向组\RTTThreadCH32V103\camCoreWithRTOS\obj/../Libraries/rtthread_libraries/components/finsh/cmd.c:213 (discriminator 1)
                    if (stat == RT_THREAD_READY)        rt_kprintf(" ready  ");
    3ece:	1b4c8513          	addi	a0,s9,436
    3ed2:	ff1fe0ef          	jal	ra,2ec2 <rt_kprintf>
    3ed6:	b771                	j	3e62 <list_thread+0xc2>
F:\SCHOOL\文件\智能车\全向组\RTTThreadCH32V103\camCoreWithRTOS\obj/../Libraries/rtthread_libraries/components/finsh/cmd.c:214 (discriminator 1)
                    else if (stat == RT_THREAD_SUSPEND) rt_kprintf(" suspend");
    3ed8:	1c0d0513          	addi	a0,s10,448
    3edc:	fe7fe0ef          	jal	ra,2ec2 <rt_kprintf>
    3ee0:	b749                	j	3e62 <list_thread+0xc2>
F:\SCHOOL\文件\智能车\全向组\RTTThreadCH32V103\camCoreWithRTOS\obj/../Libraries/rtthread_libraries/components/finsh/cmd.c:215 (discriminator 1)
                    else if (stat == RT_THREAD_INIT)    rt_kprintf(" init   ");
    3ee2:	1ccc0513          	addi	a0,s8,460
    3ee6:	fddfe0ef          	jal	ra,2ec2 <rt_kprintf>
    3eea:	bfa5                	j	3e62 <list_thread+0xc2>
F:\SCHOOL\文件\智能车\全向组\RTTThreadCH32V103\camCoreWithRTOS\obj/../Libraries/rtthread_libraries/components/finsh/cmd.c:216 (discriminator 1)
                    else if (stat == RT_THREAD_CLOSE)   rt_kprintf(" close  ");
    3eec:	1d8d8513          	addi	a0,s11,472 # 71d8 <__fsym_list_timer_name+0x1d4>
    3ef0:	fd3fe0ef          	jal	ra,2ec2 <rt_kprintf>
    3ef4:	b7bd                	j	3e62 <list_thread+0xc2>
F:\SCHOOL\文件\智能车\全向组\RTTThreadCH32V103\camCoreWithRTOS\obj/../Libraries/rtthread_libraries/components/finsh/cmd.c:217 (discriminator 1)
                    else if (stat == RT_THREAD_RUNNING) rt_kprintf(" running");
    3ef6:	000077b7          	lui	a5,0x7
    3efa:	1e478513          	addi	a0,a5,484 # 71e4 <__fsym_list_timer_name+0x1e0>
    3efe:	fc5fe0ef          	jal	ra,2ec2 <rt_kprintf>
    3f02:	b785                	j	3e62 <list_thread+0xc2>
F:\SCHOOL\文件\智能车\全向组\RTTThreadCH32V103\camCoreWithRTOS\obj/../Libraries/rtthread_libraries/components/finsh/cmd.c:230
                    ptr = (rt_uint8_t *)thread->stack_addr;
    3f04:	86ae                	mv	a3,a1
    3f06:	bfad                	j	3e80 <list_thread+0xe0>
F:\SCHOOL\文件\智能车\全向组\RTTThreadCH32V103\camCoreWithRTOS\obj/../Libraries/rtthread_libraries/components/finsh/cmd.c:245
    while (next != (rt_list_t*)RT_NULL);
    3f08:	020a8463          	beqz	s5,3f30 <list_thread+0x190>
F:\SCHOOL\文件\智能车\全向组\RTTThreadCH32V103\camCoreWithRTOS\obj/../Libraries/rtthread_libraries/components/finsh/cmd.c:178
        next = list_get_next(next, &find_arg);
    3f0c:	096c                	addi	a1,sp,156
    3f0e:	8556                	mv	a0,s5
    3f10:	e09ff0ef          	jal	ra,3d18 <list_get_next>
    3f14:	8aaa                	mv	s5,a0
F:\SCHOOL\文件\智能车\全向组\RTTThreadCH32V103\camCoreWithRTOS\obj/../Libraries/rtthread_libraries/components/finsh/cmd.c:181
            for (i = 0; i < find_arg.nr_out; i++)
    3f16:	57ba                	lw	a5,172(sp)
    3f18:	fef058e3          	blez	a5,3f08 <list_thread+0x168>
    3f1c:	07c10913          	addi	s2,sp,124
    3f20:	4481                	li	s1,0
F:\SCHOOL\文件\智能车\全向组\RTTThreadCH32V103\camCoreWithRTOS\obj/../Libraries/rtthread_libraries/components/finsh/cmd.c:215
                    else if (stat == RT_THREAD_INIT)    rt_kprintf(" init   ");
    3f22:	00007c37          	lui	s8,0x7
F:\SCHOOL\文件\智能车\全向组\RTTThreadCH32V103\camCoreWithRTOS\obj/../Libraries/rtthread_libraries/components/finsh/cmd.c:214
                    else if (stat == RT_THREAD_SUSPEND) rt_kprintf(" suspend");
    3f26:	00007d37          	lui	s10,0x7
F:\SCHOOL\文件\智能车\全向组\RTTThreadCH32V103\camCoreWithRTOS\obj/../Libraries/rtthread_libraries/components/finsh/cmd.c:213
                    if (stat == RT_THREAD_READY)        rt_kprintf(" ready  ");
    3f2a:	00007cb7          	lui	s9,0x7
    3f2e:	b741                	j	3eae <list_thread+0x10e>
F:\SCHOOL\文件\智能车\全向组\RTTThreadCH32V103\camCoreWithRTOS\obj/../Libraries/rtthread_libraries/components/finsh/cmd.c:248
}
    3f30:	4501                	li	a0,0
    3f32:	50be                	lw	ra,236(sp)
    3f34:	542e                	lw	s0,232(sp)
    3f36:	549e                	lw	s1,228(sp)
    3f38:	590e                	lw	s2,224(sp)
    3f3a:	49fe                	lw	s3,220(sp)
    3f3c:	4a6e                	lw	s4,216(sp)
    3f3e:	4ade                	lw	s5,212(sp)
    3f40:	4b4e                	lw	s6,208(sp)
    3f42:	4bbe                	lw	s7,204(sp)
    3f44:	4c2e                	lw	s8,200(sp)
    3f46:	4c9e                	lw	s9,196(sp)
    3f48:	4d0e                	lw	s10,192(sp)
    3f4a:	5dfa                	lw	s11,188(sp)
    3f4c:	616d                	addi	sp,sp,240
    3f4e:	8082                	ret

00003f50 <list>:
list():
F:\SCHOOL\文件\智能车\全向组\RTTThreadCH32V103\camCoreWithRTOS\obj/../Libraries/rtthread_libraries/components/finsh/cmd.c:874
FINSH_FUNCTION_EXPORT(list_device, list device in system);
MSH_CMD_EXPORT(list_device, list device in system);
#endif

long list(void)
{
    3f50:	1101                	addi	sp,sp,-32
    3f52:	ce06                	sw	ra,28(sp)
    3f54:	cc22                	sw	s0,24(sp)
    3f56:	ca26                	sw	s1,20(sp)
    3f58:	c84a                	sw	s2,16(sp)
    3f5a:	c64e                	sw	s3,12(sp)
    3f5c:	c452                	sw	s4,8(sp)
F:\SCHOOL\文件\智能车\全向组\RTTThreadCH32V103\camCoreWithRTOS\obj/../Libraries/rtthread_libraries/components/finsh/cmd.c:880
#ifndef FINSH_USING_MSH_ONLY
    struct finsh_syscall_item *syscall_item;
    struct finsh_sysvar_item *sysvar_item;
#endif

    rt_kprintf("--Function List:\n");
    3f5e:	00007537          	lui	a0,0x7
    3f62:	02450513          	addi	a0,a0,36 # 7024 <__fsym_list_timer_name+0x20>
    3f66:	f5dfe0ef          	jal	ra,2ec2 <rt_kprintf>
F:\SCHOOL\文件\智能车\全向组\RTTThreadCH32V103\camCoreWithRTOS\obj/../Libraries/rtthread_libraries/components/finsh/cmd.c:883
    {
        struct finsh_syscall *index;
        for (index = _syscall_table_begin;
    3f6a:	89c1a403          	lw	s0,-1892(gp) # 2000014c <_syscall_table_begin>
    3f6e:	8a01a783          	lw	a5,-1888(gp) # 20000150 <_syscall_table_end>
    3f72:	02f47a63          	bgeu	s0,a5,3fa6 <list+0x56>
F:\SCHOOL\文件\智能车\全向组\RTTThreadCH32V103\camCoreWithRTOS\obj/../Libraries/rtthread_libraries/components/finsh/cmd.c:888
                index < _syscall_table_end;
                FINSH_NEXT_SYSCALL(index))
        {
            /* skip the internal command */
            if (strncmp((char *)index->name, "__", 2) == 0) continue;
    3f76:	000079b7          	lui	s3,0x7
F:\SCHOOL\文件\智能车\全向组\RTTThreadCH32V103\camCoreWithRTOS\obj/../Libraries/rtthread_libraries/components/finsh/cmd.c:893

#ifdef FINSH_USING_DESCRIPTION
            rt_kprintf("%-16s -- %s\n", index->name, index->desc);
#else
            rt_kprintf("%s\n", index->name);
    3f7a:	00007a37          	lui	s4,0x7
F:\SCHOOL\文件\智能车\全向组\RTTThreadCH32V103\camCoreWithRTOS\obj/../Libraries/rtthread_libraries/components/finsh/cmd.c:884
                index < _syscall_table_end;
    3f7e:	a031                	j	3f8a <list+0x3a>
F:\SCHOOL\文件\智能车\全向组\RTTThreadCH32V103\camCoreWithRTOS\obj/../Libraries/rtthread_libraries/components/finsh/cmd.c:885
                FINSH_NEXT_SYSCALL(index))
    3f80:	0421                	addi	s0,s0,8
F:\SCHOOL\文件\智能车\全向组\RTTThreadCH32V103\camCoreWithRTOS\obj/../Libraries/rtthread_libraries/components/finsh/cmd.c:883
        for (index = _syscall_table_begin;
    3f82:	8a01a783          	lw	a5,-1888(gp) # 20000150 <_syscall_table_end>
    3f86:	02f47063          	bgeu	s0,a5,3fa6 <list+0x56>
F:\SCHOOL\文件\智能车\全向组\RTTThreadCH32V103\camCoreWithRTOS\obj/../Libraries/rtthread_libraries/components/finsh/cmd.c:888
            if (strncmp((char *)index->name, "__", 2) == 0) continue;
    3f8a:	4004                	lw	s1,0(s0)
    3f8c:	4609                	li	a2,2
    3f8e:	03898593          	addi	a1,s3,56 # 7038 <__fsym_list_timer_name+0x34>
    3f92:	8526                	mv	a0,s1
    3f94:	131010ef          	jal	ra,58c4 <strncmp>
    3f98:	d565                	beqz	a0,3f80 <list+0x30>
F:\SCHOOL\文件\智能车\全向组\RTTThreadCH32V103\camCoreWithRTOS\obj/../Libraries/rtthread_libraries/components/finsh/cmd.c:893
            rt_kprintf("%s\n", index->name);
    3f9a:	85a6                	mv	a1,s1
    3f9c:	03ca0513          	addi	a0,s4,60 # 703c <__fsym_list_timer_name+0x38>
    3fa0:	f23fe0ef          	jal	ra,2ec2 <rt_kprintf>
    3fa4:	bff1                	j	3f80 <list+0x30>
F:\SCHOOL\文件\智能车\全向组\RTTThreadCH32V103\camCoreWithRTOS\obj/../Libraries/rtthread_libraries/components/finsh/cmd.c:931
        sysvar_item = sysvar_item->next;
    }
#endif

    return 0;
}
    3fa6:	4501                	li	a0,0
    3fa8:	40f2                	lw	ra,28(sp)
    3faa:	4462                	lw	s0,24(sp)
    3fac:	44d2                	lw	s1,20(sp)
    3fae:	4942                	lw	s2,16(sp)
    3fb0:	49b2                	lw	s3,12(sp)
    3fb2:	4a22                	lw	s4,8(sp)
    3fb4:	6105                	addi	sp,sp,32
    3fb6:	8082                	ret

00003fb8 <list_timer>:
list_timer():
F:\SCHOOL\文件\智能车\全向组\RTTThreadCH32V103\camCoreWithRTOS\obj/../Libraries/rtthread_libraries/components/finsh/cmd.c:733
{
    3fb8:	711d                	addi	sp,sp,-96
    3fba:	ce86                	sw	ra,92(sp)
    3fbc:	cca2                	sw	s0,88(sp)
    3fbe:	caa6                	sw	s1,84(sp)
    3fc0:	c8ca                	sw	s2,80(sp)
    3fc2:	c6ce                	sw	s3,76(sp)
    3fc4:	c4d2                	sw	s4,72(sp)
    3fc6:	c2d6                	sw	s5,68(sp)
    3fc8:	c0da                	sw	s6,64(sp)
list_find_init():
F:\SCHOOL\文件\智能车\全向组\RTTThreadCH32V103\camCoreWithRTOS\obj/../Libraries/rtthread_libraries/components/finsh/cmd.c:80
    info = rt_object_get_information((enum rt_object_class_type)type);
    3fca:	4529                	li	a0,10
    3fcc:	afeff0ef          	jal	ra,32ca <rt_object_get_information>
F:\SCHOOL\文件\智能车\全向组\RTTThreadCH32V103\camCoreWithRTOS\obj/../Libraries/rtthread_libraries/components/finsh/cmd.c:81
    list = &info->object_list;
    3fd0:	0511                	addi	a0,a0,4
F:\SCHOOL\文件\智能车\全向组\RTTThreadCH32V103\camCoreWithRTOS\obj/../Libraries/rtthread_libraries/components/finsh/cmd.c:83
    p->list = list;
    3fd2:	d62a                	sw	a0,44(sp)
F:\SCHOOL\文件\智能车\全向组\RTTThreadCH32V103\camCoreWithRTOS\obj/../Libraries/rtthread_libraries/components/finsh/cmd.c:84
    p->type = type;
    3fd4:	47a9                	li	a5,10
    3fd6:	02f10a23          	sb	a5,52(sp)
F:\SCHOOL\文件\智能车\全向组\RTTThreadCH32V103\camCoreWithRTOS\obj/../Libraries/rtthread_libraries/components/finsh/cmd.c:85
    p->array = array;
    3fda:	007c                	addi	a5,sp,12
    3fdc:	d83e                	sw	a5,48(sp)
F:\SCHOOL\文件\智能车\全向组\RTTThreadCH32V103\camCoreWithRTOS\obj/../Libraries/rtthread_libraries/components/finsh/cmd.c:86
    p->nr = nr;
    3fde:	47a1                	li	a5,8
    3fe0:	dc3e                	sw	a5,56(sp)
F:\SCHOOL\文件\智能车\全向组\RTTThreadCH32V103\camCoreWithRTOS\obj/../Libraries/rtthread_libraries/components/finsh/cmd.c:87
    p->nr_out = 0;
    3fe2:	de02                	sw	zero,60(sp)
list_timer():
F:\SCHOOL\文件\智能车\全向组\RTTThreadCH32V103\camCoreWithRTOS\obj/../Libraries/rtthread_libraries/components/finsh/cmd.c:746
    rt_kprintf("%-*.s  periodic   timeout       flag\n", maxlen, item_title); object_split(maxlen);
    3fe4:	00007637          	lui	a2,0x7
    3fe8:	21860613          	addi	a2,a2,536 # 7218 <__fsym_list_timer_name+0x214>
    3fec:	45a1                	li	a1,8
    3fee:	00007537          	lui	a0,0x7
    3ff2:	22050513          	addi	a0,a0,544 # 7220 <__fsym_list_timer_name+0x21c>
    3ff6:	ecdfe0ef          	jal	ra,2ec2 <rt_kprintf>
    3ffa:	4421                	li	s0,8
object_split():
F:\SCHOOL\文件\智能车\全向组\RTTThreadCH32V103\camCoreWithRTOS\obj/../Libraries/rtthread_libraries/components/finsh/cmd.c:63
    while (len--) rt_kprintf("-");
    3ffc:	000074b7          	lui	s1,0x7
    4000:	16448513          	addi	a0,s1,356 # 7164 <__fsym_list_timer_name+0x160>
    4004:	ebffe0ef          	jal	ra,2ec2 <rt_kprintf>
    4008:	147d                	addi	s0,s0,-1
    400a:	f87d                	bnez	s0,4000 <list_timer+0x48>
list_timer():
F:\SCHOOL\文件\智能车\全向组\RTTThreadCH32V103\camCoreWithRTOS\obj/../Libraries/rtthread_libraries/components/finsh/cmd.c:747
    rt_kprintf(     " ---------- ---------- -----------\n");
    400c:	00007537          	lui	a0,0x7
    4010:	24850513          	addi	a0,a0,584 # 7248 <__fsym_list_timer_name+0x244>
    4014:	eaffe0ef          	jal	ra,2ec2 <rt_kprintf>
F:\SCHOOL\文件\智能车\全向组\RTTThreadCH32V103\camCoreWithRTOS\obj/../Libraries/rtthread_libraries/components/finsh/cmd.c:737
    rt_list_t *next = (rt_list_t*)RT_NULL;
    4018:	4a01                	li	s4,0
F:\SCHOOL\文件\智能车\全向组\RTTThreadCH32V103\camCoreWithRTOS\obj/../Libraries/rtthread_libraries/components/finsh/cmd.c:768
                rt_kprintf("%-*.*s 0x%08x 0x%08x ",
    401a:	000079b7          	lui	s3,0x7
F:\SCHOOL\文件\智能车\全向组\RTTThreadCH32V103\camCoreWithRTOS\obj/../Libraries/rtthread_libraries/components/finsh/cmd.c:776
                    rt_kprintf("deactivated\n");
    401e:	00007b37          	lui	s6,0x7
F:\SCHOOL\文件\智能车\全向组\RTTThreadCH32V103\camCoreWithRTOS\obj/../Libraries/rtthread_libraries/components/finsh/cmd.c:774
                    rt_kprintf("activated\n");
    4022:	00007ab7          	lui	s5,0x7
    4026:	a085                	j	4086 <list_timer+0xce>
F:\SCHOOL\文件\智能车\全向组\RTTThreadCH32V103\camCoreWithRTOS\obj/../Libraries/rtthread_libraries/components/finsh/cmd.c:761
                    rt_hw_interrupt_enable(level);
    4028:	91efc0ef          	jal	ra,146 <rt_hw_interrupt_enable>
F:\SCHOOL\文件\智能车\全向组\RTTThreadCH32V103\camCoreWithRTOS\obj/../Libraries/rtthread_libraries/components/finsh/cmd.c:752 (discriminator 2)
            for (i = 0; i < find_arg.nr_out; i++)
    402c:	0485                	addi	s1,s1,1
    402e:	0911                	addi	s2,s2,4
    4030:	57f2                	lw	a5,60(sp)
    4032:	04f4d863          	bge	s1,a5,4082 <list_timer+0xca>
F:\SCHOOL\文件\智能车\全向组\RTTThreadCH32V103\camCoreWithRTOS\obj/../Libraries/rtthread_libraries/components/finsh/cmd.c:757
                obj = rt_list_entry(obj_list[i], struct rt_object, list);
    4036:	00092403          	lw	s0,0(s2)
F:\SCHOOL\文件\智能车\全向组\RTTThreadCH32V103\camCoreWithRTOS\obj/../Libraries/rtthread_libraries/components/finsh/cmd.c:758
                level = rt_hw_interrupt_disable();
    403a:	906fc0ef          	jal	ra,140 <rt_hw_interrupt_disable>
F:\SCHOOL\文件\智能车\全向组\RTTThreadCH32V103\camCoreWithRTOS\obj/../Libraries/rtthread_libraries/components/finsh/cmd.c:759
                if ((obj->type & ~RT_Object_Class_Static) != find_arg.type)
    403e:	ffc44783          	lbu	a5,-4(s0)
    4042:	f7f7f793          	andi	a5,a5,-129
    4046:	03414703          	lbu	a4,52(sp)
    404a:	fce79fe3          	bne	a5,a4,4028 <list_timer+0x70>
F:\SCHOOL\文件\智能车\全向组\RTTThreadCH32V103\camCoreWithRTOS\obj/../Libraries/rtthread_libraries/components/finsh/cmd.c:765
                rt_hw_interrupt_enable(level);
    404e:	8f8fc0ef          	jal	ra,146 <rt_hw_interrupt_enable>
F:\SCHOOL\文件\智能车\全向组\RTTThreadCH32V103\camCoreWithRTOS\obj/../Libraries/rtthread_libraries/components/finsh/cmd.c:768
                rt_kprintf("%-*.*s 0x%08x 0x%08x ",
    4052:	4c5c                	lw	a5,28(s0)
    4054:	4c18                	lw	a4,24(s0)
    4056:	ff440693          	addi	a3,s0,-12
    405a:	4621                	li	a2,8
    405c:	45a1                	li	a1,8
    405e:	26c98513          	addi	a0,s3,620 # 726c <__fsym_list_timer_name+0x268>
    4062:	e61fe0ef          	jal	ra,2ec2 <rt_kprintf>
F:\SCHOOL\文件\智能车\全向组\RTTThreadCH32V103\camCoreWithRTOS\obj/../Libraries/rtthread_libraries/components/finsh/cmd.c:773
                if (timer->parent.flag & RT_TIMER_FLAG_ACTIVATED)
    4066:	ffd44783          	lbu	a5,-3(s0)
    406a:	8b85                	andi	a5,a5,1
    406c:	c791                	beqz	a5,4078 <list_timer+0xc0>
F:\SCHOOL\文件\智能车\全向组\RTTThreadCH32V103\camCoreWithRTOS\obj/../Libraries/rtthread_libraries/components/finsh/cmd.c:774
                    rt_kprintf("activated\n");
    406e:	284a8513          	addi	a0,s5,644 # 7284 <__fsym_list_timer_name+0x280>
    4072:	e51fe0ef          	jal	ra,2ec2 <rt_kprintf>
    4076:	bf5d                	j	402c <list_timer+0x74>
F:\SCHOOL\文件\智能车\全向组\RTTThreadCH32V103\camCoreWithRTOS\obj/../Libraries/rtthread_libraries/components/finsh/cmd.c:776
                    rt_kprintf("deactivated\n");
    4078:	290b0513          	addi	a0,s6,656 # 7290 <__fsym_list_timer_name+0x28c>
    407c:	e47fe0ef          	jal	ra,2ec2 <rt_kprintf>
    4080:	b775                	j	402c <list_timer+0x74>
F:\SCHOOL\文件\智能车\全向组\RTTThreadCH32V103\camCoreWithRTOS\obj/../Libraries/rtthread_libraries/components/finsh/cmd.c:781
    while (next != (rt_list_t*)RT_NULL);
    4082:	000a0e63          	beqz	s4,409e <list_timer+0xe6>
F:\SCHOOL\文件\智能车\全向组\RTTThreadCH32V103\camCoreWithRTOS\obj/../Libraries/rtthread_libraries/components/finsh/cmd.c:749
        next = list_get_next(next, &find_arg);
    4086:	106c                	addi	a1,sp,44
    4088:	8552                	mv	a0,s4
    408a:	c8fff0ef          	jal	ra,3d18 <list_get_next>
    408e:	8a2a                	mv	s4,a0
F:\SCHOOL\文件\智能车\全向组\RTTThreadCH32V103\camCoreWithRTOS\obj/../Libraries/rtthread_libraries/components/finsh/cmd.c:752
            for (i = 0; i < find_arg.nr_out; i++)
    4090:	57f2                	lw	a5,60(sp)
    4092:	fef058e3          	blez	a5,4082 <list_timer+0xca>
    4096:	00c10913          	addi	s2,sp,12
    409a:	4481                	li	s1,0
    409c:	bf69                	j	4036 <list_timer+0x7e>
F:\SCHOOL\文件\智能车\全向组\RTTThreadCH32V103\camCoreWithRTOS\obj/../Libraries/rtthread_libraries/components/finsh/cmd.c:783
    rt_kprintf("current tick:0x%08x\n", rt_tick_get());
    409e:	fc3fd0ef          	jal	ra,2060 <rt_tick_get>
    40a2:	85aa                	mv	a1,a0
    40a4:	00007537          	lui	a0,0x7
    40a8:	2a050513          	addi	a0,a0,672 # 72a0 <__fsym_list_timer_name+0x29c>
    40ac:	e17fe0ef          	jal	ra,2ec2 <rt_kprintf>
F:\SCHOOL\文件\智能车\全向组\RTTThreadCH32V103\camCoreWithRTOS\obj/../Libraries/rtthread_libraries/components/finsh/cmd.c:786
}
    40b0:	4501                	li	a0,0
    40b2:	40f6                	lw	ra,92(sp)
    40b4:	4466                	lw	s0,88(sp)
    40b6:	44d6                	lw	s1,84(sp)
    40b8:	4946                	lw	s2,80(sp)
    40ba:	49b6                	lw	s3,76(sp)
    40bc:	4a26                	lw	s4,72(sp)
    40be:	4a96                	lw	s5,68(sp)
    40c0:	4b06                	lw	s6,64(sp)
    40c2:	6125                	addi	sp,sp,96
    40c4:	8082                	ret

000040c6 <list_mailbox>:
list_mailbox():
F:\SCHOOL\文件\智能车\全向组\RTTThreadCH32V103\camCoreWithRTOS\obj/../Libraries/rtthread_libraries/components/finsh/cmd.c:459
{
    40c6:	7159                	addi	sp,sp,-112
    40c8:	d686                	sw	ra,108(sp)
    40ca:	d4a2                	sw	s0,104(sp)
    40cc:	d2a6                	sw	s1,100(sp)
    40ce:	d0ca                	sw	s2,96(sp)
    40d0:	cece                	sw	s3,92(sp)
    40d2:	ccd2                	sw	s4,88(sp)
    40d4:	cad6                	sw	s5,84(sp)
    40d6:	c8da                	sw	s6,80(sp)
    40d8:	c6de                	sw	s7,76(sp)
list_find_init():
F:\SCHOOL\文件\智能车\全向组\RTTThreadCH32V103\camCoreWithRTOS\obj/../Libraries/rtthread_libraries/components/finsh/cmd.c:80
    info = rt_object_get_information((enum rt_object_class_type)type);
    40da:	4515                	li	a0,5
    40dc:	9eeff0ef          	jal	ra,32ca <rt_object_get_information>
F:\SCHOOL\文件\智能车\全向组\RTTThreadCH32V103\camCoreWithRTOS\obj/../Libraries/rtthread_libraries/components/finsh/cmd.c:81
    list = &info->object_list;
    40e0:	0511                	addi	a0,a0,4
F:\SCHOOL\文件\智能车\全向组\RTTThreadCH32V103\camCoreWithRTOS\obj/../Libraries/rtthread_libraries/components/finsh/cmd.c:83
    p->list = list;
    40e2:	d62a                	sw	a0,44(sp)
F:\SCHOOL\文件\智能车\全向组\RTTThreadCH32V103\camCoreWithRTOS\obj/../Libraries/rtthread_libraries/components/finsh/cmd.c:84
    p->type = type;
    40e4:	4795                	li	a5,5
    40e6:	02f10a23          	sb	a5,52(sp)
F:\SCHOOL\文件\智能车\全向组\RTTThreadCH32V103\camCoreWithRTOS\obj/../Libraries/rtthread_libraries/components/finsh/cmd.c:85
    p->array = array;
    40ea:	007c                	addi	a5,sp,12
    40ec:	d83e                	sw	a5,48(sp)
F:\SCHOOL\文件\智能车\全向组\RTTThreadCH32V103\camCoreWithRTOS\obj/../Libraries/rtthread_libraries/components/finsh/cmd.c:86
    p->nr = nr;
    40ee:	47a1                	li	a5,8
    40f0:	dc3e                	sw	a5,56(sp)
F:\SCHOOL\文件\智能车\全向组\RTTThreadCH32V103\camCoreWithRTOS\obj/../Libraries/rtthread_libraries/components/finsh/cmd.c:87
    p->nr_out = 0;
    40f2:	de02                	sw	zero,60(sp)
list_mailbox():
F:\SCHOOL\文件\智能车\全向组\RTTThreadCH32V103\camCoreWithRTOS\obj/../Libraries/rtthread_libraries/components/finsh/cmd.c:472
    rt_kprintf("%-*.s entry size suspend thread\n", maxlen, item_title); object_split(maxlen);
    40f4:	00007637          	lui	a2,0x7
    40f8:	04060613          	addi	a2,a2,64 # 7040 <__fsym_list_timer_name+0x3c>
    40fc:	45a1                	li	a1,8
    40fe:	00007537          	lui	a0,0x7
    4102:	04850513          	addi	a0,a0,72 # 7048 <__fsym_list_timer_name+0x44>
    4106:	dbdfe0ef          	jal	ra,2ec2 <rt_kprintf>
    410a:	4421                	li	s0,8
object_split():
F:\SCHOOL\文件\智能车\全向组\RTTThreadCH32V103\camCoreWithRTOS\obj/../Libraries/rtthread_libraries/components/finsh/cmd.c:63
    while (len--) rt_kprintf("-");
    410c:	000074b7          	lui	s1,0x7
    4110:	16448513          	addi	a0,s1,356 # 7164 <__fsym_list_timer_name+0x160>
    4114:	daffe0ef          	jal	ra,2ec2 <rt_kprintf>
    4118:	147d                	addi	s0,s0,-1
    411a:	f87d                	bnez	s0,4110 <list_mailbox+0x4a>
list_mailbox():
F:\SCHOOL\文件\智能车\全向组\RTTThreadCH32V103\camCoreWithRTOS\obj/../Libraries/rtthread_libraries/components/finsh/cmd.c:473
    rt_kprintf(     " ----  ---- --------------\n");
    411c:	00007537          	lui	a0,0x7
    4120:	06c50513          	addi	a0,a0,108 # 706c <__fsym_list_timer_name+0x68>
    4124:	d9ffe0ef          	jal	ra,2ec2 <rt_kprintf>
F:\SCHOOL\文件\智能车\全向组\RTTThreadCH32V103\camCoreWithRTOS\obj/../Libraries/rtthread_libraries/components/finsh/cmd.c:463
    rt_list_t *next = (rt_list_t*)RT_NULL;
    4128:	4a01                	li	s4,0
F:\SCHOOL\文件\智能车\全向组\RTTThreadCH32V103\camCoreWithRTOS\obj/../Libraries/rtthread_libraries/components/finsh/cmd.c:509
                    rt_kprintf("%-*.*s %04d  %04d %d\n",
    412a:	00007bb7          	lui	s7,0x7
F:\SCHOOL\文件\智能车\全向组\RTTThreadCH32V103\camCoreWithRTOS\obj/../Libraries/rtthread_libraries/components/finsh/cmd.c:498
                    rt_kprintf("%-*.*s %04d  %04d %d:",
    412e:	00007b37          	lui	s6,0x7
F:\SCHOOL\文件\智能车\全向组\RTTThreadCH32V103\camCoreWithRTOS\obj/../Libraries/rtthread_libraries/components/finsh/cmd.c:505
                    rt_kprintf("\n");
    4132:	00007ab7          	lui	s5,0x7
    4136:	a061                	j	41be <list_mailbox+0xf8>
F:\SCHOOL\文件\智能车\全向组\RTTThreadCH32V103\camCoreWithRTOS\obj/../Libraries/rtthread_libraries/components/finsh/cmd.c:489
                    rt_hw_interrupt_enable(level);
    4138:	80efc0ef          	jal	ra,146 <rt_hw_interrupt_enable>
F:\SCHOOL\文件\智能车\全向组\RTTThreadCH32V103\camCoreWithRTOS\obj/../Libraries/rtthread_libraries/components/finsh/cmd.c:480 (discriminator 2)
            for (i = 0; i < find_arg.nr_out; i++)
    413c:	0905                	addi	s2,s2,1
    413e:	0991                	addi	s3,s3,4
    4140:	57f2                	lw	a5,60(sp)
    4142:	06f95c63          	bge	s2,a5,41ba <list_mailbox+0xf4>
F:\SCHOOL\文件\智能车\全向组\RTTThreadCH32V103\camCoreWithRTOS\obj/../Libraries/rtthread_libraries/components/finsh/cmd.c:485
                obj = rt_list_entry(obj_list[i], struct rt_object, list);
    4146:	0009a403          	lw	s0,0(s3)
F:\SCHOOL\文件\智能车\全向组\RTTThreadCH32V103\camCoreWithRTOS\obj/../Libraries/rtthread_libraries/components/finsh/cmd.c:486
                level = rt_hw_interrupt_disable();
    414a:	ff7fb0ef          	jal	ra,140 <rt_hw_interrupt_disable>
F:\SCHOOL\文件\智能车\全向组\RTTThreadCH32V103\camCoreWithRTOS\obj/../Libraries/rtthread_libraries/components/finsh/cmd.c:487
                if ((obj->type & ~RT_Object_Class_Static) != find_arg.type)
    414e:	ffc44783          	lbu	a5,-4(s0)
    4152:	f7f7f793          	andi	a5,a5,-129
    4156:	03414703          	lbu	a4,52(sp)
    415a:	fce79fe3          	bne	a5,a4,4138 <list_mailbox+0x72>
F:\SCHOOL\文件\智能车\全向组\RTTThreadCH32V103\camCoreWithRTOS\obj/../Libraries/rtthread_libraries/components/finsh/cmd.c:493
                rt_hw_interrupt_enable(level);
    415e:	fe9fb0ef          	jal	ra,146 <rt_hw_interrupt_enable>
F:\SCHOOL\文件\智能车\全向组\RTTThreadCH32V103\camCoreWithRTOS\obj/../Libraries/rtthread_libraries/components/finsh/cmd.c:496
                if (!rt_list_isempty(&m->parent.suspend_thread))
    4162:	00840493          	addi	s1,s0,8
rt_list_isempty():
F:\SCHOOL\文件\智能车\全向组\RTTThreadCH32V103\camCoreWithRTOS\Libraries\rtthread_libraries\include/rtservice.h:100
    return l->next == l;
    4166:	4410                	lw	a2,8(s0)
list_mailbox():
F:\SCHOOL\文件\智能车\全向组\RTTThreadCH32V103\camCoreWithRTOS\obj/../Libraries/rtthread_libraries/components/finsh/cmd.c:496
    4168:	02c48b63          	beq	s1,a2,419e <list_mailbox+0xd8>
F:\SCHOOL\文件\智能车\全向组\RTTThreadCH32V103\camCoreWithRTOS\obj/../Libraries/rtthread_libraries/components/finsh/cmd.c:500
                            m->parent.parent.name,
    416c:	ff440693          	addi	a3,s0,-12
F:\SCHOOL\文件\智能车\全向组\RTTThreadCH32V103\camCoreWithRTOS\obj/../Libraries/rtthread_libraries/components/finsh/cmd.c:498
                    rt_kprintf("%-*.*s %04d  %04d %d:",
    4170:	01645703          	lhu	a4,22(s0)
    4174:	01445783          	lhu	a5,20(s0)
rt_list_len():
F:\SCHOOL\文件\智能车\全向组\RTTThreadCH32V103\camCoreWithRTOS\Libraries\rtthread_libraries\include/rtservice.h:109
 * @brief get the list length
 * @param l the list to get.
 */
rt_inline unsigned int rt_list_len(const rt_list_t *l)
{
    unsigned int len = 0;
    4178:	4801                	li	a6,0
F:\SCHOOL\文件\智能车\全向组\RTTThreadCH32V103\camCoreWithRTOS\Libraries\rtthread_libraries\include/rtservice.h:114
    const rt_list_t *p = l;
    while (p->next != l)
    {
        p = p->next;
        len ++;
    417a:	0805                	addi	a6,a6,1
F:\SCHOOL\文件\智能车\全向组\RTTThreadCH32V103\camCoreWithRTOS\Libraries\rtthread_libraries\include/rtservice.h:111
    while (p->next != l)
    417c:	4210                	lw	a2,0(a2)
    417e:	fec49ee3          	bne	s1,a2,417a <list_mailbox+0xb4>
list_mailbox():
F:\SCHOOL\文件\智能车\全向组\RTTThreadCH32V103\camCoreWithRTOS\obj/../Libraries/rtthread_libraries/components/finsh/cmd.c:498
    4182:	4621                	li	a2,8
    4184:	45a1                	li	a1,8
    4186:	088b0513          	addi	a0,s6,136 # 7088 <__fsym_list_timer_name+0x84>
    418a:	d39fe0ef          	jal	ra,2ec2 <rt_kprintf>
F:\SCHOOL\文件\智能车\全向组\RTTThreadCH32V103\camCoreWithRTOS\obj/../Libraries/rtthread_libraries/components/finsh/cmd.c:504
                    show_wait_queue(&(m->parent.suspend_thread));
    418e:	8526                	mv	a0,s1
    4190:	b2dff0ef          	jal	ra,3cbc <show_wait_queue>
F:\SCHOOL\文件\智能车\全向组\RTTThreadCH32V103\camCoreWithRTOS\obj/../Libraries/rtthread_libraries/components/finsh/cmd.c:505
                    rt_kprintf("\n");
    4194:	020a8513          	addi	a0,s5,32 # 7020 <__fsym_list_timer_name+0x1c>
    4198:	d2bfe0ef          	jal	ra,2ec2 <rt_kprintf>
    419c:	b745                	j	413c <list_mailbox+0x76>
F:\SCHOOL\文件\智能车\全向组\RTTThreadCH32V103\camCoreWithRTOS\obj/../Libraries/rtthread_libraries/components/finsh/cmd.c:509
                    rt_kprintf("%-*.*s %04d  %04d %d\n",
    419e:	4801                	li	a6,0
    41a0:	01445783          	lhu	a5,20(s0)
    41a4:	01645703          	lhu	a4,22(s0)
    41a8:	ff440693          	addi	a3,s0,-12
    41ac:	4621                	li	a2,8
    41ae:	45a1                	li	a1,8
    41b0:	0a0b8513          	addi	a0,s7,160 # 70a0 <__fsym_list_timer_name+0x9c>
    41b4:	d0ffe0ef          	jal	ra,2ec2 <rt_kprintf>
    41b8:	b751                	j	413c <list_mailbox+0x76>
F:\SCHOOL\文件\智能车\全向组\RTTThreadCH32V103\camCoreWithRTOS\obj/../Libraries/rtthread_libraries/components/finsh/cmd.c:520
    while (next != (rt_list_t*)RT_NULL);
    41ba:	000a0e63          	beqz	s4,41d6 <list_mailbox+0x110>
F:\SCHOOL\文件\智能车\全向组\RTTThreadCH32V103\camCoreWithRTOS\obj/../Libraries/rtthread_libraries/components/finsh/cmd.c:477
        next = list_get_next(next, &find_arg);
    41be:	106c                	addi	a1,sp,44
    41c0:	8552                	mv	a0,s4
    41c2:	b57ff0ef          	jal	ra,3d18 <list_get_next>
    41c6:	8a2a                	mv	s4,a0
F:\SCHOOL\文件\智能车\全向组\RTTThreadCH32V103\camCoreWithRTOS\obj/../Libraries/rtthread_libraries/components/finsh/cmd.c:480
            for (i = 0; i < find_arg.nr_out; i++)
    41c8:	57f2                	lw	a5,60(sp)
    41ca:	fef058e3          	blez	a5,41ba <list_mailbox+0xf4>
    41ce:	00c10993          	addi	s3,sp,12
    41d2:	4901                	li	s2,0
    41d4:	bf8d                	j	4146 <list_mailbox+0x80>
F:\SCHOOL\文件\智能车\全向组\RTTThreadCH32V103\camCoreWithRTOS\obj/../Libraries/rtthread_libraries/components/finsh/cmd.c:523
}
    41d6:	4501                	li	a0,0
    41d8:	50b6                	lw	ra,108(sp)
    41da:	5426                	lw	s0,104(sp)
    41dc:	5496                	lw	s1,100(sp)
    41de:	5906                	lw	s2,96(sp)
    41e0:	49f6                	lw	s3,92(sp)
    41e2:	4a66                	lw	s4,88(sp)
    41e4:	4ad6                	lw	s5,84(sp)
    41e6:	4b46                	lw	s6,80(sp)
    41e8:	4bb6                	lw	s7,76(sp)
    41ea:	6165                	addi	sp,sp,112
    41ec:	8082                	ret

000041ee <list_sem>:
list_sem():
F:\SCHOOL\文件\智能车\全向组\RTTThreadCH32V103\camCoreWithRTOS\obj/../Libraries/rtthread_libraries/components/finsh/cmd.c:269
{
    41ee:	7159                	addi	sp,sp,-112
    41f0:	d686                	sw	ra,108(sp)
    41f2:	d4a2                	sw	s0,104(sp)
    41f4:	d2a6                	sw	s1,100(sp)
    41f6:	d0ca                	sw	s2,96(sp)
    41f8:	cece                	sw	s3,92(sp)
    41fa:	ccd2                	sw	s4,88(sp)
    41fc:	cad6                	sw	s5,84(sp)
    41fe:	c8da                	sw	s6,80(sp)
    4200:	c6de                	sw	s7,76(sp)
list_find_init():
F:\SCHOOL\文件\智能车\全向组\RTTThreadCH32V103\camCoreWithRTOS\obj/../Libraries/rtthread_libraries/components/finsh/cmd.c:80
    info = rt_object_get_information((enum rt_object_class_type)type);
    4202:	4509                	li	a0,2
    4204:	8c6ff0ef          	jal	ra,32ca <rt_object_get_information>
F:\SCHOOL\文件\智能车\全向组\RTTThreadCH32V103\camCoreWithRTOS\obj/../Libraries/rtthread_libraries/components/finsh/cmd.c:81
    list = &info->object_list;
    4208:	0511                	addi	a0,a0,4
F:\SCHOOL\文件\智能车\全向组\RTTThreadCH32V103\camCoreWithRTOS\obj/../Libraries/rtthread_libraries/components/finsh/cmd.c:83
    p->list = list;
    420a:	d62a                	sw	a0,44(sp)
F:\SCHOOL\文件\智能车\全向组\RTTThreadCH32V103\camCoreWithRTOS\obj/../Libraries/rtthread_libraries/components/finsh/cmd.c:84
    p->type = type;
    420c:	4789                	li	a5,2
    420e:	02f10a23          	sb	a5,52(sp)
F:\SCHOOL\文件\智能车\全向组\RTTThreadCH32V103\camCoreWithRTOS\obj/../Libraries/rtthread_libraries/components/finsh/cmd.c:85
    p->array = array;
    4212:	007c                	addi	a5,sp,12
    4214:	d83e                	sw	a5,48(sp)
F:\SCHOOL\文件\智能车\全向组\RTTThreadCH32V103\camCoreWithRTOS\obj/../Libraries/rtthread_libraries/components/finsh/cmd.c:86
    p->nr = nr;
    4216:	47a1                	li	a5,8
    4218:	dc3e                	sw	a5,56(sp)
F:\SCHOOL\文件\智能车\全向组\RTTThreadCH32V103\camCoreWithRTOS\obj/../Libraries/rtthread_libraries/components/finsh/cmd.c:87
    p->nr_out = 0;
    421a:	de02                	sw	zero,60(sp)
list_sem():
F:\SCHOOL\文件\智能车\全向组\RTTThreadCH32V103\camCoreWithRTOS\obj/../Libraries/rtthread_libraries/components/finsh/cmd.c:282
    rt_kprintf("%-*.s v   suspend thread\n", maxlen, item_title); object_split(maxlen);
    421c:	00007637          	lui	a2,0x7
    4220:	0b860613          	addi	a2,a2,184 # 70b8 <__fsym_list_timer_name+0xb4>
    4224:	45a1                	li	a1,8
    4226:	00007537          	lui	a0,0x7
    422a:	0c450513          	addi	a0,a0,196 # 70c4 <__fsym_list_timer_name+0xc0>
    422e:	c95fe0ef          	jal	ra,2ec2 <rt_kprintf>
    4232:	4421                	li	s0,8
object_split():
F:\SCHOOL\文件\智能车\全向组\RTTThreadCH32V103\camCoreWithRTOS\obj/../Libraries/rtthread_libraries/components/finsh/cmd.c:63
    while (len--) rt_kprintf("-");
    4234:	000074b7          	lui	s1,0x7
    4238:	16448513          	addi	a0,s1,356 # 7164 <__fsym_list_timer_name+0x160>
    423c:	c87fe0ef          	jal	ra,2ec2 <rt_kprintf>
    4240:	147d                	addi	s0,s0,-1
    4242:	f87d                	bnez	s0,4238 <list_sem+0x4a>
list_sem():
F:\SCHOOL\文件\智能车\全向组\RTTThreadCH32V103\camCoreWithRTOS\obj/../Libraries/rtthread_libraries/components/finsh/cmd.c:283
    rt_kprintf(     " --- --------------\n");
    4244:	00007537          	lui	a0,0x7
    4248:	0e050513          	addi	a0,a0,224 # 70e0 <__fsym_list_timer_name+0xdc>
    424c:	c77fe0ef          	jal	ra,2ec2 <rt_kprintf>
F:\SCHOOL\文件\智能车\全向组\RTTThreadCH32V103\camCoreWithRTOS\obj/../Libraries/rtthread_libraries/components/finsh/cmd.c:273
    rt_list_t *next = (rt_list_t*)RT_NULL;
    4250:	4a01                	li	s4,0
F:\SCHOOL\文件\智能车\全向组\RTTThreadCH32V103\camCoreWithRTOS\obj/../Libraries/rtthread_libraries/components/finsh/cmd.c:317
                    rt_kprintf("%-*.*s %03d %d\n",
    4252:	00007bb7          	lui	s7,0x7
F:\SCHOOL\文件\智能车\全向组\RTTThreadCH32V103\camCoreWithRTOS\obj/../Libraries/rtthread_libraries/components/finsh/cmd.c:307
                    rt_kprintf("%-*.*s %03d %d:",
    4256:	00007b37          	lui	s6,0x7
F:\SCHOOL\文件\智能车\全向组\RTTThreadCH32V103\camCoreWithRTOS\obj/../Libraries/rtthread_libraries/components/finsh/cmd.c:313
                    rt_kprintf("\n");
    425a:	00007ab7          	lui	s5,0x7
    425e:	a041                	j	42de <list_sem+0xf0>
F:\SCHOOL\文件\智能车\全向组\RTTThreadCH32V103\camCoreWithRTOS\obj/../Libraries/rtthread_libraries/components/finsh/cmd.c:299
                    rt_hw_interrupt_enable(level);
    4260:	ee7fb0ef          	jal	ra,146 <rt_hw_interrupt_enable>
F:\SCHOOL\文件\智能车\全向组\RTTThreadCH32V103\camCoreWithRTOS\obj/../Libraries/rtthread_libraries/components/finsh/cmd.c:290 (discriminator 2)
            for (i = 0; i < find_arg.nr_out; i++)
    4264:	0905                	addi	s2,s2,1
    4266:	0991                	addi	s3,s3,4
    4268:	57f2                	lw	a5,60(sp)
    426a:	06f95863          	bge	s2,a5,42da <list_sem+0xec>
F:\SCHOOL\文件\智能车\全向组\RTTThreadCH32V103\camCoreWithRTOS\obj/../Libraries/rtthread_libraries/components/finsh/cmd.c:295
                obj = rt_list_entry(obj_list[i], struct rt_object, list);
    426e:	0009a483          	lw	s1,0(s3)
F:\SCHOOL\文件\智能车\全向组\RTTThreadCH32V103\camCoreWithRTOS\obj/../Libraries/rtthread_libraries/components/finsh/cmd.c:296
                level = rt_hw_interrupt_disable();
    4272:	ecffb0ef          	jal	ra,140 <rt_hw_interrupt_disable>
F:\SCHOOL\文件\智能车\全向组\RTTThreadCH32V103\camCoreWithRTOS\obj/../Libraries/rtthread_libraries/components/finsh/cmd.c:297
                if ((obj->type & ~RT_Object_Class_Static) != find_arg.type)
    4276:	ffc4c783          	lbu	a5,-4(s1)
    427a:	f7f7f793          	andi	a5,a5,-129
    427e:	03414703          	lbu	a4,52(sp)
    4282:	fce79fe3          	bne	a5,a4,4260 <list_sem+0x72>
F:\SCHOOL\文件\智能车\全向组\RTTThreadCH32V103\camCoreWithRTOS\obj/../Libraries/rtthread_libraries/components/finsh/cmd.c:302
                rt_hw_interrupt_enable(level);
    4286:	ec1fb0ef          	jal	ra,146 <rt_hw_interrupt_enable>
F:\SCHOOL\文件\智能车\全向组\RTTThreadCH32V103\camCoreWithRTOS\obj/../Libraries/rtthread_libraries/components/finsh/cmd.c:305
                if (!rt_list_isempty(&sem->parent.suspend_thread))
    428a:	00848413          	addi	s0,s1,8
rt_list_isempty():
F:\SCHOOL\文件\智能车\全向组\RTTThreadCH32V103\camCoreWithRTOS\Libraries\rtthread_libraries\include/rtservice.h:100
    return l->next == l;
    428e:	4490                	lw	a2,8(s1)
list_sem():
F:\SCHOOL\文件\智能车\全向组\RTTThreadCH32V103\camCoreWithRTOS\obj/../Libraries/rtthread_libraries/components/finsh/cmd.c:305
    4290:	02c40963          	beq	s0,a2,42c2 <list_sem+0xd4>
F:\SCHOOL\文件\智能车\全向组\RTTThreadCH32V103\camCoreWithRTOS\obj/../Libraries/rtthread_libraries/components/finsh/cmd.c:309
                            sem->parent.parent.name,
    4294:	ff448693          	addi	a3,s1,-12
F:\SCHOOL\文件\智能车\全向组\RTTThreadCH32V103\camCoreWithRTOS\obj/../Libraries/rtthread_libraries/components/finsh/cmd.c:307
                    rt_kprintf("%-*.*s %03d %d:",
    4298:	0104d703          	lhu	a4,16(s1)
rt_list_len():
F:\SCHOOL\文件\智能车\全向组\RTTThreadCH32V103\camCoreWithRTOS\Libraries\rtthread_libraries\include/rtservice.h:109
    unsigned int len = 0;
    429c:	4781                	li	a5,0
F:\SCHOOL\文件\智能车\全向组\RTTThreadCH32V103\camCoreWithRTOS\Libraries\rtthread_libraries\include/rtservice.h:114
        len ++;
    429e:	0785                	addi	a5,a5,1
F:\SCHOOL\文件\智能车\全向组\RTTThreadCH32V103\camCoreWithRTOS\Libraries\rtthread_libraries\include/rtservice.h:111
    while (p->next != l)
    42a0:	4210                	lw	a2,0(a2)
    42a2:	fec41ee3          	bne	s0,a2,429e <list_sem+0xb0>
list_sem():
F:\SCHOOL\文件\智能车\全向组\RTTThreadCH32V103\camCoreWithRTOS\obj/../Libraries/rtthread_libraries/components/finsh/cmd.c:307
    42a6:	4621                	li	a2,8
    42a8:	45a1                	li	a1,8
    42aa:	0f8b0513          	addi	a0,s6,248 # 70f8 <__fsym_list_timer_name+0xf4>
    42ae:	c15fe0ef          	jal	ra,2ec2 <rt_kprintf>
F:\SCHOOL\文件\智能车\全向组\RTTThreadCH32V103\camCoreWithRTOS\obj/../Libraries/rtthread_libraries/components/finsh/cmd.c:312
                    show_wait_queue(&(sem->parent.suspend_thread));
    42b2:	8522                	mv	a0,s0
    42b4:	a09ff0ef          	jal	ra,3cbc <show_wait_queue>
F:\SCHOOL\文件\智能车\全向组\RTTThreadCH32V103\camCoreWithRTOS\obj/../Libraries/rtthread_libraries/components/finsh/cmd.c:313
                    rt_kprintf("\n");
    42b8:	020a8513          	addi	a0,s5,32 # 7020 <__fsym_list_timer_name+0x1c>
    42bc:	c07fe0ef          	jal	ra,2ec2 <rt_kprintf>
    42c0:	b755                	j	4264 <list_sem+0x76>
F:\SCHOOL\文件\智能车\全向组\RTTThreadCH32V103\camCoreWithRTOS\obj/../Libraries/rtthread_libraries/components/finsh/cmd.c:317
                    rt_kprintf("%-*.*s %03d %d\n",
    42c2:	4781                	li	a5,0
    42c4:	0104d703          	lhu	a4,16(s1)
    42c8:	ff448693          	addi	a3,s1,-12
    42cc:	4621                	li	a2,8
    42ce:	45a1                	li	a1,8
    42d0:	108b8513          	addi	a0,s7,264 # 7108 <__fsym_list_timer_name+0x104>
    42d4:	beffe0ef          	jal	ra,2ec2 <rt_kprintf>
    42d8:	b771                	j	4264 <list_sem+0x76>
F:\SCHOOL\文件\智能车\全向组\RTTThreadCH32V103\camCoreWithRTOS\obj/../Libraries/rtthread_libraries/components/finsh/cmd.c:326
    while (next != (rt_list_t*)RT_NULL);
    42da:	000a0e63          	beqz	s4,42f6 <list_sem+0x108>
F:\SCHOOL\文件\智能车\全向组\RTTThreadCH32V103\camCoreWithRTOS\obj/../Libraries/rtthread_libraries/components/finsh/cmd.c:287
        next = list_get_next(next, &find_arg);
    42de:	106c                	addi	a1,sp,44
    42e0:	8552                	mv	a0,s4
    42e2:	a37ff0ef          	jal	ra,3d18 <list_get_next>
    42e6:	8a2a                	mv	s4,a0
F:\SCHOOL\文件\智能车\全向组\RTTThreadCH32V103\camCoreWithRTOS\obj/../Libraries/rtthread_libraries/components/finsh/cmd.c:290
            for (i = 0; i < find_arg.nr_out; i++)
    42e8:	57f2                	lw	a5,60(sp)
    42ea:	fef058e3          	blez	a5,42da <list_sem+0xec>
    42ee:	00c10993          	addi	s3,sp,12
    42f2:	4901                	li	s2,0
    42f4:	bfad                	j	426e <list_sem+0x80>
F:\SCHOOL\文件\智能车\全向组\RTTThreadCH32V103\camCoreWithRTOS\obj/../Libraries/rtthread_libraries/components/finsh/cmd.c:329
}
    42f6:	4501                	li	a0,0
    42f8:	50b6                	lw	ra,108(sp)
    42fa:	5426                	lw	s0,104(sp)
    42fc:	5496                	lw	s1,100(sp)
    42fe:	5906                	lw	s2,96(sp)
    4300:	49f6                	lw	s3,92(sp)
    4302:	4a66                	lw	s4,88(sp)
    4304:	4ad6                	lw	s5,84(sp)
    4306:	4b46                	lw	s6,80(sp)
    4308:	4bb6                	lw	s7,76(sp)
    430a:	6165                	addi	sp,sp,112
    430c:	8082                	ret

0000430e <msh_help>:
msh_help():
F:\SCHOOL\文件\智能车\全向组\RTTThreadCH32V103\camCoreWithRTOS\obj/../Libraries/rtthread_libraries/components/finsh/msh.c:69
}
FINSH_FUNCTION_EXPORT_ALIAS(msh_enter, msh, use module shell);
#endif

int msh_help(int argc, char **argv)
{
    430e:	1101                	addi	sp,sp,-32
    4310:	ce06                	sw	ra,28(sp)
    4312:	cc22                	sw	s0,24(sp)
    4314:	ca26                	sw	s1,20(sp)
    4316:	c84a                	sw	s2,16(sp)
    4318:	c64e                	sw	s3,12(sp)
    431a:	c452                	sw	s4,8(sp)
F:\SCHOOL\文件\智能车\全向组\RTTThreadCH32V103\camCoreWithRTOS\obj/../Libraries/rtthread_libraries/components/finsh/msh.c:70
    rt_kprintf("RT-Thread shell commands:\n");
    431c:	00007537          	lui	a0,0x7
    4320:	31c50513          	addi	a0,a0,796 # 731c <__fsym___cmd_ps_name+0x44>
    4324:	b9ffe0ef          	jal	ra,2ec2 <rt_kprintf>
F:\SCHOOL\文件\智能车\全向组\RTTThreadCH32V103\camCoreWithRTOS\obj/../Libraries/rtthread_libraries/components/finsh/msh.c:74
    {
        struct finsh_syscall *index;

        for (index = _syscall_table_begin;
    4328:	89c1a403          	lw	s0,-1892(gp) # 2000014c <_syscall_table_begin>
    432c:	8a01a783          	lw	a5,-1888(gp) # 20000150 <_syscall_table_end>
    4330:	02f47b63          	bgeu	s0,a5,4366 <msh_help+0x58>
F:\SCHOOL\文件\智能车\全向组\RTTThreadCH32V103\camCoreWithRTOS\obj/../Libraries/rtthread_libraries/components/finsh/msh.c:78
                index < _syscall_table_end;
                FINSH_NEXT_SYSCALL(index))
        {
            if (strncmp(index->name, "__cmd_", 6) != 0) continue;
    4334:	000079b7          	lui	s3,0x7
F:\SCHOOL\文件\智能车\全向组\RTTThreadCH32V103\camCoreWithRTOS\obj/../Libraries/rtthread_libraries/components/finsh/msh.c:82
#if defined(FINSH_USING_DESCRIPTION) && defined(FINSH_USING_SYMTAB)
            rt_kprintf("%-16s - %s\n", &index->name[6], index->desc);
#else
            rt_kprintf("%s ", &index->name[6]);
    4338:	00007a37          	lui	s4,0x7
F:\SCHOOL\文件\智能车\全向组\RTTThreadCH32V103\camCoreWithRTOS\obj/../Libraries/rtthread_libraries/components/finsh/msh.c:75
                index < _syscall_table_end;
    433c:	a031                	j	4348 <msh_help+0x3a>
F:\SCHOOL\文件\智能车\全向组\RTTThreadCH32V103\camCoreWithRTOS\obj/../Libraries/rtthread_libraries/components/finsh/msh.c:76
                FINSH_NEXT_SYSCALL(index))
    433e:	0421                	addi	s0,s0,8
F:\SCHOOL\文件\智能车\全向组\RTTThreadCH32V103\camCoreWithRTOS\obj/../Libraries/rtthread_libraries/components/finsh/msh.c:74
        for (index = _syscall_table_begin;
    4340:	8a01a783          	lw	a5,-1888(gp) # 20000150 <_syscall_table_end>
    4344:	02f47163          	bgeu	s0,a5,4366 <msh_help+0x58>
F:\SCHOOL\文件\智能车\全向组\RTTThreadCH32V103\camCoreWithRTOS\obj/../Libraries/rtthread_libraries/components/finsh/msh.c:78
            if (strncmp(index->name, "__cmd_", 6) != 0) continue;
    4348:	4004                	lw	s1,0(s0)
    434a:	4619                	li	a2,6
    434c:	33898593          	addi	a1,s3,824 # 7338 <__fsym___cmd_ps_name+0x60>
    4350:	8526                	mv	a0,s1
    4352:	572010ef          	jal	ra,58c4 <strncmp>
    4356:	f565                	bnez	a0,433e <msh_help+0x30>
F:\SCHOOL\文件\智能车\全向组\RTTThreadCH32V103\camCoreWithRTOS\obj/../Libraries/rtthread_libraries/components/finsh/msh.c:82
            rt_kprintf("%s ", &index->name[6]);
    4358:	00648593          	addi	a1,s1,6
    435c:	340a0513          	addi	a0,s4,832 # 7340 <__fsym___cmd_ps_name+0x68>
    4360:	b63fe0ef          	jal	ra,2ec2 <rt_kprintf>
    4364:	bfe9                	j	433e <msh_help+0x30>
F:\SCHOOL\文件\智能车\全向组\RTTThreadCH32V103\camCoreWithRTOS\obj/../Libraries/rtthread_libraries/components/finsh/msh.c:86
#endif
        }
    }
    rt_kprintf("\n");
    4366:	00007537          	lui	a0,0x7
    436a:	02050513          	addi	a0,a0,32 # 7020 <__fsym_list_timer_name+0x1c>
    436e:	b55fe0ef          	jal	ra,2ec2 <rt_kprintf>
F:\SCHOOL\文件\智能车\全向组\RTTThreadCH32V103\camCoreWithRTOS\obj/../Libraries/rtthread_libraries/components/finsh/msh.c:89

    return 0;
}
    4372:	4501                	li	a0,0
    4374:	40f2                	lw	ra,28(sp)
    4376:	4462                	lw	s0,24(sp)
    4378:	44d2                	lw	s1,20(sp)
    437a:	4942                	lw	s2,16(sp)
    437c:	49b2                	lw	s3,12(sp)
    437e:	4a22                	lw	s4,8(sp)
    4380:	6105                	addi	sp,sp,32
    4382:	8082                	ret

00004384 <cmd_ps>:
cmd_ps():
F:\SCHOOL\文件\智能车\全向组\RTTThreadCH32V103\camCoreWithRTOS\obj/../Libraries/rtthread_libraries/components/finsh/msh.c:93
FINSH_FUNCTION_EXPORT_ALIAS(msh_help, __cmd_help, RT-Thread shell help.);

int cmd_ps(int argc, char **argv)
{
    4384:	1141                	addi	sp,sp,-16
    4386:	c606                	sw	ra,12(sp)
F:\SCHOOL\文件\智能车\全向组\RTTThreadCH32V103\camCoreWithRTOS\obj/../Libraries/rtthread_libraries/components/finsh/msh.c:102
#ifdef RT_USING_MODULE
    if ((argc == 2) && (strcmp(argv[1], "-m") == 0))
        list_module();
    else
#endif
        list_thread();
    4388:	a19ff0ef          	jal	ra,3da0 <list_thread>
F:\SCHOOL\文件\智能车\全向组\RTTThreadCH32V103\camCoreWithRTOS\obj/../Libraries/rtthread_libraries/components/finsh/msh.c:104
    return 0;
}
    438c:	4501                	li	a0,0
    438e:	40b2                	lw	ra,12(sp)
    4390:	0141                	addi	sp,sp,16
    4392:	8082                	ret

00004394 <cmd_free>:
cmd_free():
F:\SCHOOL\文件\智能车\全向组\RTTThreadCH32V103\camCoreWithRTOS\obj/../Libraries/rtthread_libraries/components/finsh/msh.c:109
FINSH_FUNCTION_EXPORT_ALIAS(cmd_ps, __cmd_ps, List threads in the system.);

#ifdef RT_USING_HEAP
int cmd_free(int argc, char **argv)
{
    4394:	1141                	addi	sp,sp,-16
    4396:	c606                	sw	ra,12(sp)
F:\SCHOOL\文件\智能车\全向组\RTTThreadCH32V103\camCoreWithRTOS\obj/../Libraries/rtthread_libraries/components/finsh/msh.c:116
    extern void list_memheap(void);

#ifdef RT_USING_MEMHEAP_AS_HEAP
    list_memheap();
#else
    list_mem();
    4398:	c69fe0ef          	jal	ra,3000 <list_mem>
F:\SCHOOL\文件\智能车\全向组\RTTThreadCH32V103\camCoreWithRTOS\obj/../Libraries/rtthread_libraries/components/finsh/msh.c:119
#endif
    return 0;
}
    439c:	4501                	li	a0,0
    439e:	40b2                	lw	ra,12(sp)
    43a0:	0141                	addi	sp,sp,16
    43a2:	8082                	ret

000043a4 <msh_is_used>:
msh_is_used():
F:\SCHOOL\文件\智能车\全向组\RTTThreadCH32V103\camCoreWithRTOS\obj/../Libraries/rtthread_libraries/components/finsh/msh.c:39
}
    43a4:	4505                	li	a0,1
    43a6:	8082                	ret

000043a8 <msh_exec>:
msh_exec():
F:\SCHOOL\文件\智能车\全向组\RTTThreadCH32V103\camCoreWithRTOS\obj/../Libraries/rtthread_libraries/components/finsh/msh.c:373
    return 0;
}
#endif

int msh_exec(char *cmd, rt_size_t length)
{
    43a8:	715d                	addi	sp,sp,-80
    43aa:	c686                	sw	ra,76(sp)
    43ac:	c4a2                	sw	s0,72(sp)
    43ae:	c2a6                	sw	s1,68(sp)
    43b0:	c0ca                	sw	s2,64(sp)
    43b2:	de4e                	sw	s3,60(sp)
    43b4:	dc52                	sw	s4,56(sp)
    43b6:	da56                	sw	s5,52(sp)
    43b8:	d85a                	sw	s6,48(sp)
    43ba:	d65e                	sw	s7,44(sp)
F:\SCHOOL\文件\智能车\全向组\RTTThreadCH32V103\camCoreWithRTOS\obj/../Libraries/rtthread_libraries/components/finsh/msh.c:377
    int cmd_ret;

    /* strim the beginning of command */
    while (*cmd  == ' ' || *cmd == '\t')
    43bc:	842a                	mv	s0,a0
    43be:	95aa                	add	a1,a1,a0
    43c0:	02000713          	li	a4,32
    43c4:	46a5                	li	a3,9
    43c6:	a011                	j	43ca <msh_exec+0x22>
F:\SCHOOL\文件\智能车\全向组\RTTThreadCH32V103\camCoreWithRTOS\obj/../Libraries/rtthread_libraries/components/finsh/msh.c:379
    {
        cmd++;
    43c8:	0405                	addi	s0,s0,1
F:\SCHOOL\文件\智能车\全向组\RTTThreadCH32V103\camCoreWithRTOS\obj/../Libraries/rtthread_libraries/components/finsh/msh.c:380
        length--;
    43ca:	408584b3          	sub	s1,a1,s0
F:\SCHOOL\文件\智能车\全向组\RTTThreadCH32V103\camCoreWithRTOS\obj/../Libraries/rtthread_libraries/components/finsh/msh.c:377
    while (*cmd  == ' ' || *cmd == '\t')
    43ce:	00040783          	lb	a5,0(s0)
    43d2:	fee78be3          	beq	a5,a4,43c8 <msh_exec+0x20>
F:\SCHOOL\文件\智能车\全向组\RTTThreadCH32V103\camCoreWithRTOS\obj/../Libraries/rtthread_libraries/components/finsh/msh.c:377 (discriminator 1)
    43d6:	fed789e3          	beq	a5,a3,43c8 <msh_exec+0x20>
F:\SCHOOL\文件\智能车\全向组\RTTThreadCH32V103\camCoreWithRTOS\obj/../Libraries/rtthread_libraries/components/finsh/msh.c:384
    }

    if (length == 0)
        return 0;
    43da:	4501                	li	a0,0
F:\SCHOOL\文件\智能车\全向组\RTTThreadCH32V103\camCoreWithRTOS\obj/../Libraries/rtthread_libraries/components/finsh/msh.c:383
    if (length == 0)
    43dc:	ec81                	bnez	s1,43f4 <msh_exec+0x4c>
F:\SCHOOL\文件\智能车\全向组\RTTThreadCH32V103\camCoreWithRTOS\obj/../Libraries/rtthread_libraries/components/finsh/msh.c:429
        }
        *tcmd = '\0';
    }
    rt_kprintf("%s: command not found.\n", cmd);
    return -1;
}
    43de:	40b6                	lw	ra,76(sp)
    43e0:	4426                	lw	s0,72(sp)
    43e2:	4496                	lw	s1,68(sp)
    43e4:	4906                	lw	s2,64(sp)
    43e6:	59f2                	lw	s3,60(sp)
    43e8:	5a62                	lw	s4,56(sp)
    43ea:	5ad2                	lw	s5,52(sp)
    43ec:	5b42                	lw	s6,48(sp)
    43ee:	5bb2                	lw	s7,44(sp)
    43f0:	6161                	addi	sp,sp,80
    43f2:	8082                	ret
_msh_exec_cmd():
F:\SCHOOL\文件\智能车\全向组\RTTThreadCH32V103\camCoreWithRTOS\obj/../Libraries/rtthread_libraries/components/finsh/msh.c:306
    rt_size_t cmd0_size = 0;
    43f4:	4a81                	li	s5,0
F:\SCHOOL\文件\智能车\全向组\RTTThreadCH32V103\camCoreWithRTOS\obj/../Libraries/rtthread_libraries/components/finsh/msh.c:314
    while ((cmd[cmd0_size] != ' ' && cmd[cmd0_size] != '\t') && cmd0_size < length)
    43f6:	02000713          	li	a4,32
    43fa:	46a5                	li	a3,9
    43fc:	a011                	j	4400 <msh_exec+0x58>
F:\SCHOOL\文件\智能车\全向组\RTTThreadCH32V103\camCoreWithRTOS\obj/../Libraries/rtthread_libraries/components/finsh/msh.c:315
        cmd0_size ++;
    43fe:	8ad2                	mv	s5,s4
    4400:	001a8a13          	addi	s4,s5,1
F:\SCHOOL\文件\智能车\全向组\RTTThreadCH32V103\camCoreWithRTOS\obj/../Libraries/rtthread_libraries/components/finsh/msh.c:314
    while ((cmd[cmd0_size] != ' ' && cmd[cmd0_size] != '\t') && cmd0_size < length)
    4404:	014407b3          	add	a5,s0,s4
    4408:	00078783          	lb	a5,0(a5)
    440c:	00e78863          	beq	a5,a4,441c <msh_exec+0x74>
    4410:	00d78663          	beq	a5,a3,441c <msh_exec+0x74>
    4414:	fe9a15e3          	bne	s4,s1,43fe <msh_exec+0x56>
F:\SCHOOL\文件\智能车\全向组\RTTThreadCH32V103\camCoreWithRTOS\obj/../Libraries/rtthread_libraries/components/finsh/msh.c:315
        cmd0_size ++;
    4418:	8a26                	mv	s4,s1
    441a:	a019                	j	4420 <msh_exec+0x78>
F:\SCHOOL\文件\智能车\全向组\RTTThreadCH32V103\camCoreWithRTOS\obj/../Libraries/rtthread_libraries/components/finsh/msh.c:316
    if (cmd0_size == 0)
    441c:	140a0163          	beqz	s4,455e <msh_exec+0x1b6>
msh_get_cmd():
F:\SCHOOL\文件\智能车\全向组\RTTThreadCH32V103\camCoreWithRTOS\obj/../Libraries/rtthread_libraries/components/finsh/msh.c:198
    for (index = _syscall_table_begin;
    4420:	89c1a903          	lw	s2,-1892(gp) # 2000014c <_syscall_table_begin>
F:\SCHOOL\文件\智能车\全向组\RTTThreadCH32V103\camCoreWithRTOS\obj/../Libraries/rtthread_libraries/components/finsh/msh.c:199
            index < _syscall_table_end;
    4424:	8a01ab03          	lw	s6,-1888(gp) # 20000150 <_syscall_table_end>
F:\SCHOOL\文件\智能车\全向组\RTTThreadCH32V103\camCoreWithRTOS\obj/../Libraries/rtthread_libraries/components/finsh/msh.c:198
    for (index = _syscall_table_begin;
    4428:	13697b63          	bgeu	s2,s6,455e <msh_exec+0x1b6>
F:\SCHOOL\文件\智能车\全向组\RTTThreadCH32V103\camCoreWithRTOS\obj/../Libraries/rtthread_libraries/components/finsh/msh.c:202
        if (strncmp(index->name, "__cmd_", 6) != 0) continue;
    442c:	00007bb7          	lui	s7,0x7
    4430:	a021                	j	4438 <msh_exec+0x90>
F:\SCHOOL\文件\智能车\全向组\RTTThreadCH32V103\camCoreWithRTOS\obj/../Libraries/rtthread_libraries/components/finsh/msh.c:200
            FINSH_NEXT_SYSCALL(index))
    4432:	0921                	addi	s2,s2,8
F:\SCHOOL\文件\智能车\全向组\RTTThreadCH32V103\camCoreWithRTOS\obj/../Libraries/rtthread_libraries/components/finsh/msh.c:198
    for (index = _syscall_table_begin;
    4434:	13697563          	bgeu	s2,s6,455e <msh_exec+0x1b6>
F:\SCHOOL\文件\智能车\全向组\RTTThreadCH32V103\camCoreWithRTOS\obj/../Libraries/rtthread_libraries/components/finsh/msh.c:202
        if (strncmp(index->name, "__cmd_", 6) != 0) continue;
    4438:	00092983          	lw	s3,0(s2)
    443c:	4619                	li	a2,6
    443e:	338b8593          	addi	a1,s7,824 # 7338 <__fsym___cmd_ps_name+0x60>
    4442:	854e                	mv	a0,s3
    4444:	480010ef          	jal	ra,58c4 <strncmp>
    4448:	f56d                	bnez	a0,4432 <msh_exec+0x8a>
F:\SCHOOL\文件\智能车\全向组\RTTThreadCH32V103\camCoreWithRTOS\obj/../Libraries/rtthread_libraries/components/finsh/msh.c:204
        if (strncmp(&index->name[6], cmd, size) == 0 &&
    444a:	8652                	mv	a2,s4
    444c:	85a2                	mv	a1,s0
    444e:	00698513          	addi	a0,s3,6
    4452:	472010ef          	jal	ra,58c4 <strncmp>
    4456:	fd71                	bnez	a0,4432 <msh_exec+0x8a>
F:\SCHOOL\文件\智能车\全向组\RTTThreadCH32V103\camCoreWithRTOS\obj/../Libraries/rtthread_libraries/components/finsh/msh.c:205
                index->name[6 + size] == '\0')
    4458:	99d6                	add	s3,s3,s5
F:\SCHOOL\文件\智能车\全向组\RTTThreadCH32V103\camCoreWithRTOS\obj/../Libraries/rtthread_libraries/components/finsh/msh.c:204
        if (strncmp(&index->name[6], cmd, size) == 0 &&
    445a:	00798783          	lb	a5,7(s3)
    445e:	fbf1                	bnez	a5,4432 <msh_exec+0x8a>
F:\SCHOOL\文件\智能车\全向组\RTTThreadCH32V103\camCoreWithRTOS\obj/../Libraries/rtthread_libraries/components/finsh/msh.c:207
            cmd_func = (cmd_function_t)index->func;
    4460:	00492a03          	lw	s4,4(s2)
_msh_exec_cmd():
F:\SCHOOL\文件\智能车\全向组\RTTThreadCH32V103\camCoreWithRTOS\obj/../Libraries/rtthread_libraries/components/finsh/msh.c:320
    if (cmd_func == RT_NULL)
    4464:	0e0a0d63          	beqz	s4,455e <msh_exec+0x1b6>
F:\SCHOOL\文件\智能车\全向组\RTTThreadCH32V103\camCoreWithRTOS\obj/../Libraries/rtthread_libraries/components/finsh/msh.c:324
    memset(argv, 0x00, sizeof(argv));
    4468:	c002                	sw	zero,0(sp)
    446a:	c202                	sw	zero,4(sp)
    446c:	c402                	sw	zero,8(sp)
    446e:	c602                	sw	zero,12(sp)
    4470:	c802                	sw	zero,16(sp)
    4472:	ca02                	sw	zero,20(sp)
    4474:	cc02                	sw	zero,24(sp)
    4476:	ce02                	sw	zero,28(sp)
msh_split():
F:\SCHOOL\文件\智能车\全向组\RTTThreadCH32V103\camCoreWithRTOS\obj/../Libraries/rtthread_libraries/components/finsh/msh.c:133
    while (position < length)
    4478:	898a                	mv	s3,sp
_msh_exec_cmd():
F:\SCHOOL\文件\智能车\全向组\RTTThreadCH32V103\camCoreWithRTOS\obj/../Libraries/rtthread_libraries/components/finsh/msh.c:324
    memset(argv, 0x00, sizeof(argv));
    447a:	8e0a                	mv	t3,sp
    447c:	8722                	mv	a4,s0
    447e:	4901                	li	s2,0
msh_split():
F:\SCHOOL\文件\智能车\全向组\RTTThreadCH32V103\camCoreWithRTOS\obj/../Libraries/rtthread_libraries/components/finsh/msh.c:131
    position = 0; argc = 0;
    4480:	4601                	li	a2,0
F:\SCHOOL\文件\智能车\全向组\RTTThreadCH32V103\camCoreWithRTOS\obj/../Libraries/rtthread_libraries/components/finsh/msh.c:136
        while ((*ptr == ' ' || *ptr == '\t') && position < length)
    4482:	02000813          	li	a6,32
    4486:	48a5                	li	a7,9
F:\SCHOOL\文件\智能车\全向组\RTTThreadCH32V103\camCoreWithRTOS\obj/../Libraries/rtthread_libraries/components/finsh/msh.c:142
        if(argc >= FINSH_ARG_MAX)
    4488:	4fa1                	li	t6,8
F:\SCHOOL\文件\智能车\全向组\RTTThreadCH32V103\camCoreWithRTOS\obj/../Libraries/rtthread_libraries/components/finsh/msh.c:156
        if (*ptr == '"')
    448a:	02200e93          	li	t4,34
F:\SCHOOL\文件\智能车\全向组\RTTThreadCH32V103\camCoreWithRTOS\obj/../Libraries/rtthread_libraries/components/finsh/msh.c:164
                if (*ptr == '\\')
    448e:	05c00f13          	li	t5,92
    4492:	a039                	j	44a0 <msh_exec+0xf8>
F:\SCHOOL\文件\智能车\全向组\RTTThreadCH32V103\camCoreWithRTOS\obj/../Libraries/rtthread_libraries/components/finsh/msh.c:136
        while ((*ptr == ' ' || *ptr == '\t') && position < length)
    4494:	0e967c63          	bgeu	a2,s1,458c <msh_exec+0x1e4>
F:\SCHOOL\文件\智能车\全向组\RTTThreadCH32V103\camCoreWithRTOS\obj/../Libraries/rtthread_libraries/components/finsh/msh.c:138
            *ptr = '\0';
    4498:	00070023          	sb	zero,0(a4) # 4000 <list_timer+0x48>
F:\SCHOOL\文件\智能车\全向组\RTTThreadCH32V103\camCoreWithRTOS\obj/../Libraries/rtthread_libraries/components/finsh/msh.c:139
            ptr ++; position ++;
    449c:	0705                	addi	a4,a4,1
    449e:	0605                	addi	a2,a2,1
F:\SCHOOL\文件\智能车\全向组\RTTThreadCH32V103\camCoreWithRTOS\obj/../Libraries/rtthread_libraries/components/finsh/msh.c:136
        while ((*ptr == ' ' || *ptr == '\t') && position < length)
    44a0:	00070783          	lb	a5,0(a4)
    44a4:	ff0788e3          	beq	a5,a6,4494 <msh_exec+0xec>
    44a8:	ff1786e3          	beq	a5,a7,4494 <msh_exec+0xec>
F:\SCHOOL\文件\智能车\全向组\RTTThreadCH32V103\camCoreWithRTOS\obj/../Libraries/rtthread_libraries/components/finsh/msh.c:142
        if(argc >= FINSH_ARG_MAX)
    44ac:	03f90d63          	beq	s2,t6,44e6 <msh_exec+0x13e>
F:\SCHOOL\文件\智能车\全向组\RTTThreadCH32V103\camCoreWithRTOS\obj/../Libraries/rtthread_libraries/components/finsh/msh.c:153
        if (position >= length) break;
    44b0:	0a967463          	bgeu	a2,s1,4558 <msh_exec+0x1b0>
F:\SCHOOL\文件\智能车\全向组\RTTThreadCH32V103\camCoreWithRTOS\obj/../Libraries/rtthread_libraries/components/finsh/msh.c:156
        if (*ptr == '"')
    44b4:	03d78b63          	beq	a5,t4,44ea <msh_exec+0x142>
F:\SCHOOL\文件\智能车\全向组\RTTThreadCH32V103\camCoreWithRTOS\obj/../Libraries/rtthread_libraries/components/finsh/msh.c:180
            argv[argc] = ptr;
    44b8:	00ee2023          	sw	a4,0(t3)
F:\SCHOOL\文件\智能车\全向组\RTTThreadCH32V103\camCoreWithRTOS\obj/../Libraries/rtthread_libraries/components/finsh/msh.c:181
            argc ++;
    44bc:	00190513          	addi	a0,s2,1
F:\SCHOOL\文件\智能车\全向组\RTTThreadCH32V103\camCoreWithRTOS\obj/../Libraries/rtthread_libraries/components/finsh/msh.c:182
            while ((*ptr != ' ' && *ptr != '\t') && position < length)
    44c0:	40c48333          	sub	t1,s1,a2
    44c4:	933a                	add	t1,t1,a4
F:\SCHOOL\文件\智能车\全向组\RTTThreadCH32V103\camCoreWithRTOS\obj/../Libraries/rtthread_libraries/components/finsh/msh.c:180
            argv[argc] = ptr;
    44c6:	87ba                	mv	a5,a4
F:\SCHOOL\文件\智能车\全向组\RTTThreadCH32V103\camCoreWithRTOS\obj/../Libraries/rtthread_libraries/components/finsh/msh.c:184
                ptr ++; position ++;
    44c8:	0785                	addi	a5,a5,1
    44ca:	00c786b3          	add	a3,a5,a2
    44ce:	8e99                	sub	a3,a3,a4
F:\SCHOOL\文件\智能车\全向组\RTTThreadCH32V103\camCoreWithRTOS\obj/../Libraries/rtthread_libraries/components/finsh/msh.c:182
            while ((*ptr != ' ' && *ptr != '\t') && position < length)
    44d0:	00078583          	lb	a1,0(a5)
    44d4:	07058b63          	beq	a1,a6,454a <msh_exec+0x1a2>
    44d8:	07158963          	beq	a1,a7,454a <msh_exec+0x1a2>
    44dc:	fe6796e3          	bne	a5,t1,44c8 <msh_exec+0x120>
_msh_exec_cmd():
F:\SCHOOL\文件\智能车\全向组\RTTThreadCH32V103\camCoreWithRTOS\obj/../Libraries/rtthread_libraries/components/finsh/msh.c:330
    *retp = cmd_func(argc, argv);
    44e0:	858a                	mv	a1,sp
    44e2:	9a02                	jalr	s4
F:\SCHOOL\文件\智能车\全向组\RTTThreadCH32V103\camCoreWithRTOS\obj/../Libraries/rtthread_libraries/components/finsh/msh.c:331
    return 0;
    44e4:	bded                	j	43de <msh_exec+0x36>
msh_split():
F:\SCHOOL\文件\智能车\全向组\RTTThreadCH32V103\camCoreWithRTOS\obj/../Libraries/rtthread_libraries/components/finsh/msh.c:142
        if(argc >= FINSH_ARG_MAX)
    44e6:	4921                	li	s2,8
    44e8:	a06d                	j	4592 <msh_exec+0x1ea>
F:\SCHOOL\文件\智能车\全向组\RTTThreadCH32V103\camCoreWithRTOS\obj/../Libraries/rtthread_libraries/components/finsh/msh.c:158
            ptr ++; position ++;
    44ea:	00170793          	addi	a5,a4,1
    44ee:	00160693          	addi	a3,a2,1
F:\SCHOOL\文件\智能车\全向组\RTTThreadCH32V103\camCoreWithRTOS\obj/../Libraries/rtthread_libraries/components/finsh/msh.c:159
            argv[argc] = ptr; argc ++;
    44f2:	00fe2023          	sw	a5,0(t3)
    44f6:	00190513          	addi	a0,s2,1
F:\SCHOOL\文件\智能车\全向组\RTTThreadCH32V103\camCoreWithRTOS\obj/../Libraries/rtthread_libraries/components/finsh/msh.c:162
            while (*ptr != '"' && position < length)
    44fa:	00170703          	lb	a4,1(a4)
    44fe:	03d70d63          	beq	a4,t4,4538 <msh_exec+0x190>
    4502:	0096ef63          	bltu	a3,s1,4520 <msh_exec+0x178>
    4506:	bfe9                	j	44e0 <msh_exec+0x138>
F:\SCHOOL\文件\智能车\全向组\RTTThreadCH32V103\camCoreWithRTOS\obj/../Libraries/rtthread_libraries/components/finsh/msh.c:168
                        ptr ++; position ++;
    4508:	00178613          	addi	a2,a5,1
    450c:	0685                	addi	a3,a3,1
F:\SCHOOL\文件\智能车\全向组\RTTThreadCH32V103\camCoreWithRTOS\obj/../Libraries/rtthread_libraries/components/finsh/msh.c:171
                ptr ++; position ++;
    450e:	00160793          	addi	a5,a2,1
    4512:	0685                	addi	a3,a3,1
F:\SCHOOL\文件\智能车\全向组\RTTThreadCH32V103\camCoreWithRTOS\obj/../Libraries/rtthread_libraries/components/finsh/msh.c:162
            while (*ptr != '"' && position < length)
    4514:	00160703          	lb	a4,1(a2)
    4518:	03d70063          	beq	a4,t4,4538 <msh_exec+0x190>
    451c:	fc96f2e3          	bgeu	a3,s1,44e0 <msh_exec+0x138>
F:\SCHOOL\文件\智能车\全向组\RTTThreadCH32V103\camCoreWithRTOS\obj/../Libraries/rtthread_libraries/components/finsh/msh.c:164
                if (*ptr == '\\')
    4520:	863e                	mv	a2,a5
    4522:	ffe716e3          	bne	a4,t5,450e <msh_exec+0x166>
F:\SCHOOL\文件\智能车\全向组\RTTThreadCH32V103\camCoreWithRTOS\obj/../Libraries/rtthread_libraries/components/finsh/msh.c:166
                    if (*(ptr + 1) == '"')
    4526:	00178703          	lb	a4,1(a5)
    452a:	fdd70fe3          	beq	a4,t4,4508 <msh_exec+0x160>
F:\SCHOOL\文件\智能车\全向组\RTTThreadCH32V103\camCoreWithRTOS\obj/../Libraries/rtthread_libraries/components/finsh/msh.c:171
                ptr ++; position ++;
    452e:	0685                	addi	a3,a3,1
F:\SCHOOL\文件\智能车\全向组\RTTThreadCH32V103\camCoreWithRTOS\obj/../Libraries/rtthread_libraries/components/finsh/msh.c:162
            while (*ptr != '"' && position < length)
    4530:	00178703          	lb	a4,1(a5)
F:\SCHOOL\文件\智能车\全向组\RTTThreadCH32V103\camCoreWithRTOS\obj/../Libraries/rtthread_libraries/components/finsh/msh.c:171
                ptr ++; position ++;
    4534:	0785                	addi	a5,a5,1
    4536:	b7dd                	j	451c <msh_exec+0x174>
F:\SCHOOL\文件\智能车\全向组\RTTThreadCH32V103\camCoreWithRTOS\obj/../Libraries/rtthread_libraries/components/finsh/msh.c:173
            if (position >= length) break;
    4538:	fa96f4e3          	bgeu	a3,s1,44e0 <msh_exec+0x138>
F:\SCHOOL\文件\智能车\全向组\RTTThreadCH32V103\camCoreWithRTOS\obj/../Libraries/rtthread_libraries/components/finsh/msh.c:176
            *ptr = '\0'; ptr ++; position ++;
    453c:	00078023          	sb	zero,0(a5)
    4540:	0785                	addi	a5,a5,1
    4542:	0685                	addi	a3,a3,1
F:\SCHOOL\文件\智能车\全向组\RTTThreadCH32V103\camCoreWithRTOS\obj/../Libraries/rtthread_libraries/components/finsh/msh.c:133
    while (position < length)
    4544:	0096e563          	bltu	a3,s1,454e <msh_exec+0x1a6>
    4548:	bf61                	j	44e0 <msh_exec+0x138>
F:\SCHOOL\文件\智能车\全向组\RTTThreadCH32V103\camCoreWithRTOS\obj/../Libraries/rtthread_libraries/components/finsh/msh.c:186
            if (position >= length) break;
    454a:	f896fbe3          	bgeu	a3,s1,44e0 <msh_exec+0x138>
    454e:	0905                	addi	s2,s2,1
    4550:	0e11                	addi	t3,t3,4
F:\SCHOOL\文件\智能车\全向组\RTTThreadCH32V103\camCoreWithRTOS\obj/../Libraries/rtthread_libraries/components/finsh/msh.c:180
            argv[argc] = ptr;
    4552:	873e                	mv	a4,a5
    4554:	8636                	mv	a2,a3
    4556:	b7a9                	j	44a0 <msh_exec+0xf8>
F:\SCHOOL\文件\智能车\全向组\RTTThreadCH32V103\camCoreWithRTOS\obj/../Libraries/rtthread_libraries/components/finsh/msh.c:190
    return argc;
    4558:	854a                	mv	a0,s2
_msh_exec_cmd():
F:\SCHOOL\文件\智能车\全向组\RTTThreadCH32V103\camCoreWithRTOS\obj/../Libraries/rtthread_libraries/components/finsh/msh.c:326
    if (argc == 0)
    455a:	f80913e3          	bnez	s2,44e0 <msh_exec+0x138>
msh_exec():
F:\SCHOOL\文件\智能车\全向组\RTTThreadCH32V103\camCoreWithRTOS\obj/../Libraries/rtthread_libraries/components/finsh/msh.c:421
        while (*tcmd != ' ' && *tcmd != '\0')
    455e:	00040783          	lb	a5,0(s0)
    4562:	fdf7f793          	andi	a5,a5,-33
    4566:	8722                	mv	a4,s0
    4568:	c799                	beqz	a5,4576 <msh_exec+0x1ce>
F:\SCHOOL\文件\智能车\全向组\RTTThreadCH32V103\camCoreWithRTOS\obj/../Libraries/rtthread_libraries/components/finsh/msh.c:423
            tcmd++;
    456a:	0705                	addi	a4,a4,1
F:\SCHOOL\文件\智能车\全向组\RTTThreadCH32V103\camCoreWithRTOS\obj/../Libraries/rtthread_libraries/components/finsh/msh.c:421
        while (*tcmd != ' ' && *tcmd != '\0')
    456c:	00070783          	lb	a5,0(a4)
    4570:	fdf7f793          	andi	a5,a5,-33
    4574:	fbfd                	bnez	a5,456a <msh_exec+0x1c2>
F:\SCHOOL\文件\智能车\全向组\RTTThreadCH32V103\camCoreWithRTOS\obj/../Libraries/rtthread_libraries/components/finsh/msh.c:425
        *tcmd = '\0';
    4576:	00070023          	sb	zero,0(a4)
F:\SCHOOL\文件\智能车\全向组\RTTThreadCH32V103\camCoreWithRTOS\obj/../Libraries/rtthread_libraries/components/finsh/msh.c:427
    rt_kprintf("%s: command not found.\n", cmd);
    457a:	85a2                	mv	a1,s0
    457c:	00007537          	lui	a0,0x7
    4580:	30450513          	addi	a0,a0,772 # 7304 <__fsym___cmd_ps_name+0x2c>
    4584:	93ffe0ef          	jal	ra,2ec2 <rt_kprintf>
F:\SCHOOL\文件\智能车\全向组\RTTThreadCH32V103\camCoreWithRTOS\obj/../Libraries/rtthread_libraries/components/finsh/msh.c:428
    return -1;
    4588:	557d                	li	a0,-1
    458a:	bd91                	j	43de <msh_exec+0x36>
_msh_exec_cmd():
F:\SCHOOL\文件\智能车\全向组\RTTThreadCH32V103\camCoreWithRTOS\obj/../Libraries/rtthread_libraries/components/finsh/msh.c:142
        if(argc >= FINSH_ARG_MAX)
    458c:	479d                	li	a5,7
    458e:	fd27f5e3          	bgeu	a5,s2,4558 <msh_exec+0x1b0>
F:\SCHOOL\文件\智能车\全向组\RTTThreadCH32V103\camCoreWithRTOS\obj/../Libraries/rtthread_libraries/components/finsh/msh.c:144
            rt_kprintf("Too many args ! We only Use:\n");
    4592:	00007537          	lui	a0,0x7
    4596:	2e450513          	addi	a0,a0,740 # 72e4 <__fsym___cmd_ps_name+0xc>
    459a:	929fe0ef          	jal	ra,2ec2 <rt_kprintf>
F:\SCHOOL\文件\智能车\全向组\RTTThreadCH32V103\camCoreWithRTOS\obj/../Libraries/rtthread_libraries/components/finsh/msh.c:145
            for(i = 0; i < argc; i++)
    459e:	4401                	li	s0,0
F:\SCHOOL\文件\智能车\全向组\RTTThreadCH32V103\camCoreWithRTOS\obj/../Libraries/rtthread_libraries/components/finsh/msh.c:147
                rt_kprintf("%s ", argv[i]);
    45a0:	000074b7          	lui	s1,0x7
    45a4:	0009a583          	lw	a1,0(s3)
    45a8:	34048513          	addi	a0,s1,832 # 7340 <__fsym___cmd_ps_name+0x68>
    45ac:	917fe0ef          	jal	ra,2ec2 <rt_kprintf>
F:\SCHOOL\文件\智能车\全向组\RTTThreadCH32V103\camCoreWithRTOS\obj/../Libraries/rtthread_libraries/components/finsh/msh.c:145
            for(i = 0; i < argc; i++)
    45b0:	0405                	addi	s0,s0,1
    45b2:	0991                	addi	s3,s3,4
    45b4:	ff2468e3          	bltu	s0,s2,45a4 <msh_exec+0x1fc>
F:\SCHOOL\文件\智能车\全向组\RTTThreadCH32V103\camCoreWithRTOS\obj/../Libraries/rtthread_libraries/components/finsh/msh.c:149
            rt_kprintf("\n");
    45b8:	00007537          	lui	a0,0x7
    45bc:	02050513          	addi	a0,a0,32 # 7020 <__fsym_list_timer_name+0x1c>
    45c0:	903fe0ef          	jal	ra,2ec2 <rt_kprintf>
    45c4:	854a                	mv	a0,s2
    45c6:	bf29                	j	44e0 <msh_exec+0x138>

000045c8 <msh_auto_complete>:
msh_auto_complete():
F:\SCHOOL\文件\智能车\全向组\RTTThreadCH32V103\camCoreWithRTOS\obj/../Libraries/rtthread_libraries/components/finsh/msh.c:568
    rt_free(full_path);
}
#endif

void msh_auto_complete(char *prefix)
{
    45c8:	7179                	addi	sp,sp,-48
    45ca:	d606                	sw	ra,44(sp)
    45cc:	d422                	sw	s0,40(sp)
    45ce:	d226                	sw	s1,36(sp)
    45d0:	d04a                	sw	s2,32(sp)
    45d2:	ce4e                	sw	s3,28(sp)
    45d4:	cc52                	sw	s4,24(sp)
    45d6:	ca56                	sw	s5,20(sp)
    45d8:	c85a                	sw	s6,16(sp)
    45da:	c65e                	sw	s7,12(sp)
    45dc:	c462                	sw	s8,8(sp)
F:\SCHOOL\文件\智能车\全向组\RTTThreadCH32V103\camCoreWithRTOS\obj/../Libraries/rtthread_libraries/components/finsh/msh.c:576
    struct finsh_syscall *index;

    min_length = 0;
    name_ptr = RT_NULL;

    if (*prefix == '\0')
    45de:	00050783          	lb	a5,0(a0)
    45e2:	cf99                	beqz	a5,4600 <msh_auto_complete+0x38>
    45e4:	892a                	mv	s2,a0
F:\SCHOOL\文件\智能车\全向组\RTTThreadCH32V103\camCoreWithRTOS\obj/../Libraries/rtthread_libraries/components/finsh/msh.c:612
    }
#endif

    /* checks in internal command */
    {
        for (index = _syscall_table_begin; index < _syscall_table_end; FINSH_NEXT_SYSCALL(index))
    45e6:	89c1a403          	lw	s0,-1892(gp) # 2000014c <_syscall_table_begin>
    45ea:	8a01a783          	lw	a5,-1888(gp) # 20000150 <_syscall_table_end>
    45ee:	0af47963          	bgeu	s0,a5,46a0 <msh_auto_complete+0xd8>
F:\SCHOOL\文件\智能车\全向组\RTTThreadCH32V103\camCoreWithRTOS\obj/../Libraries/rtthread_libraries/components/finsh/msh.c:574
    name_ptr = RT_NULL;
    45f2:	4981                	li	s3,0
F:\SCHOOL\文件\智能车\全向组\RTTThreadCH32V103\camCoreWithRTOS\obj/../Libraries/rtthread_libraries/components/finsh/msh.c:573
    min_length = 0;
    45f4:	4a01                	li	s4,0
F:\SCHOOL\文件\智能车\全向组\RTTThreadCH32V103\camCoreWithRTOS\obj/../Libraries/rtthread_libraries/components/finsh/msh.c:615
        {
            /* skip finsh shell function */
            if (strncmp(index->name, "__cmd_", 6) != 0) continue;
    45f6:	00007b37          	lui	s6,0x7
F:\SCHOOL\文件\智能车\全向组\RTTThreadCH32V103\camCoreWithRTOS\obj/../Libraries/rtthread_libraries/components/finsh/msh.c:632

                length = str_common(name_ptr, cmd_name);
                if (length < min_length)
                    min_length = length;

                rt_kprintf("%s\n", cmd_name);
    45fa:	00007bb7          	lui	s7,0x7
F:\SCHOOL\文件\智能车\全向组\RTTThreadCH32V103\camCoreWithRTOS\obj/../Libraries/rtthread_libraries/components/finsh/msh.c:612
        for (index = _syscall_table_begin; index < _syscall_table_end; FINSH_NEXT_SYSCALL(index))
    45fe:	a035                	j	462a <msh_auto_complete+0x62>
F:\SCHOOL\文件\智能车\全向组\RTTThreadCH32V103\camCoreWithRTOS\obj/../Libraries/rtthread_libraries/components/finsh/msh.c:578
        msh_help(0, RT_NULL);
    4600:	4581                	li	a1,0
    4602:	4501                	li	a0,0
    4604:	d0bff0ef          	jal	ra,430e <msh_help>
F:\SCHOOL\文件\智能车\全向组\RTTThreadCH32V103\camCoreWithRTOS\obj/../Libraries/rtthread_libraries/components/finsh/msh.c:579
        return;
    4608:	a861                	j	46a0 <msh_auto_complete+0xd8>
str_common():
F:\SCHOOL\文件\智能车\全向组\RTTThreadCH32V103\camCoreWithRTOS\obj/../Libraries/rtthread_libraries/components/finsh/msh.c:433
    const char *str = str1;
    460a:	87ce                	mv	a5,s3
F:\SCHOOL\文件\智能车\全向组\RTTThreadCH32V103\camCoreWithRTOS\obj/../Libraries/rtthread_libraries/components/finsh/msh.c:441
    return (str - str1);
    460c:	413787b3          	sub	a5,a5,s3
    4610:	0147d363          	bge	a5,s4,4616 <msh_auto_complete+0x4e>
    4614:	8a3e                	mv	s4,a5
msh_auto_complete():
F:\SCHOOL\文件\智能车\全向组\RTTThreadCH32V103\camCoreWithRTOS\obj/../Libraries/rtthread_libraries/components/finsh/msh.c:632
                rt_kprintf("%s\n", cmd_name);
    4616:	85a6                	mv	a1,s1
    4618:	03cb8513          	addi	a0,s7,60 # 703c <__fsym_list_timer_name+0x38>
    461c:	8a7fe0ef          	jal	ra,2ec2 <rt_kprintf>
F:\SCHOOL\文件\智能车\全向组\RTTThreadCH32V103\camCoreWithRTOS\obj/../Libraries/rtthread_libraries/components/finsh/msh.c:612 (discriminator 2)
        for (index = _syscall_table_begin; index < _syscall_table_end; FINSH_NEXT_SYSCALL(index))
    4620:	0421                	addi	s0,s0,8
    4622:	8a01a783          	lw	a5,-1888(gp) # 20000150 <_syscall_table_end>
    4626:	06f47663          	bgeu	s0,a5,4692 <msh_auto_complete+0xca>
F:\SCHOOL\文件\智能车\全向组\RTTThreadCH32V103\camCoreWithRTOS\obj/../Libraries/rtthread_libraries/components/finsh/msh.c:615
            if (strncmp(index->name, "__cmd_", 6) != 0) continue;
    462a:	00042c03          	lw	s8,0(s0)
    462e:	4619                	li	a2,6
    4630:	338b0593          	addi	a1,s6,824 # 7338 <__fsym___cmd_ps_name+0x60>
    4634:	8562                	mv	a0,s8
    4636:	28e010ef          	jal	ra,58c4 <strncmp>
    463a:	f17d                	bnez	a0,4620 <msh_auto_complete+0x58>
F:\SCHOOL\文件\智能车\全向组\RTTThreadCH32V103\camCoreWithRTOS\obj/../Libraries/rtthread_libraries/components/finsh/msh.c:617
            cmd_name = (const char *) &index->name[6];
    463c:	006c0493          	addi	s1,s8,6 # 7006 <__fsym_list_timer_name+0x2>
F:\SCHOOL\文件\智能车\全向组\RTTThreadCH32V103\camCoreWithRTOS\obj/../Libraries/rtthread_libraries/components/finsh/msh.c:618
            if (strncmp(prefix, cmd_name, strlen(prefix)) == 0)
    4640:	854a                	mv	a0,s2
    4642:	270010ef          	jal	ra,58b2 <strlen>
    4646:	862a                	mv	a2,a0
    4648:	85a6                	mv	a1,s1
    464a:	854a                	mv	a0,s2
    464c:	278010ef          	jal	ra,58c4 <strncmp>
    4650:	f961                	bnez	a0,4620 <msh_auto_complete+0x58>
F:\SCHOOL\文件\智能车\全向组\RTTThreadCH32V103\camCoreWithRTOS\obj/../Libraries/rtthread_libraries/components/finsh/msh.c:620
                if (min_length == 0)
    4652:	000a1763          	bnez	s4,4660 <msh_auto_complete+0x98>
F:\SCHOOL\文件\智能车\全向组\RTTThreadCH32V103\camCoreWithRTOS\obj/../Libraries/rtthread_libraries/components/finsh/msh.c:625
                    min_length = strlen(name_ptr);
    4656:	8526                	mv	a0,s1
    4658:	25a010ef          	jal	ra,58b2 <strlen>
    465c:	8a2a                	mv	s4,a0
F:\SCHOOL\文件\智能车\全向组\RTTThreadCH32V103\camCoreWithRTOS\obj/../Libraries/rtthread_libraries/components/finsh/msh.c:623
                    name_ptr = cmd_name;
    465e:	89a6                	mv	s3,s1
str_common():
F:\SCHOOL\文件\智能车\全向组\RTTThreadCH32V103\camCoreWithRTOS\obj/../Libraries/rtthread_libraries/components/finsh/msh.c:435
    while ((*str != 0) && (*str2 != 0) && (*str == *str2))
    4660:	00098783          	lb	a5,0(s3)
    4664:	d3dd                	beqz	a5,460a <msh_auto_complete+0x42>
    4666:	006c0703          	lb	a4,6(s8)
    466a:	c305                	beqz	a4,468a <msh_auto_complete+0xc2>
    466c:	02e79163          	bne	a5,a4,468e <msh_auto_complete+0xc6>
    4670:	8726                	mv	a4,s1
F:\SCHOOL\文件\智能车\全向组\RTTThreadCH32V103\camCoreWithRTOS\obj/../Libraries/rtthread_libraries/components/finsh/msh.c:433
    const char *str = str1;
    4672:	87ce                	mv	a5,s3
F:\SCHOOL\文件\智能车\全向组\RTTThreadCH32V103\camCoreWithRTOS\obj/../Libraries/rtthread_libraries/components/finsh/msh.c:437
        str ++;
    4674:	0785                	addi	a5,a5,1
F:\SCHOOL\文件\智能车\全向组\RTTThreadCH32V103\camCoreWithRTOS\obj/../Libraries/rtthread_libraries/components/finsh/msh.c:438
        str2 ++;
    4676:	0705                	addi	a4,a4,1
F:\SCHOOL\文件\智能车\全向组\RTTThreadCH32V103\camCoreWithRTOS\obj/../Libraries/rtthread_libraries/components/finsh/msh.c:435
    while ((*str != 0) && (*str2 != 0) && (*str == *str2))
    4678:	00078603          	lb	a2,0(a5)
    467c:	da41                	beqz	a2,460c <msh_auto_complete+0x44>
    467e:	00070683          	lb	a3,0(a4)
    4682:	d6c9                	beqz	a3,460c <msh_auto_complete+0x44>
    4684:	fed608e3          	beq	a2,a3,4674 <msh_auto_complete+0xac>
    4688:	b751                	j	460c <msh_auto_complete+0x44>
F:\SCHOOL\文件\智能车\全向组\RTTThreadCH32V103\camCoreWithRTOS\obj/../Libraries/rtthread_libraries/components/finsh/msh.c:433
    const char *str = str1;
    468a:	87ce                	mv	a5,s3
    468c:	b741                	j	460c <msh_auto_complete+0x44>
    468e:	87ce                	mv	a5,s3
    4690:	bfb5                	j	460c <msh_auto_complete+0x44>
msh_auto_complete():
F:\SCHOOL\文件\智能车\全向组\RTTThreadCH32V103\camCoreWithRTOS\obj/../Libraries/rtthread_libraries/components/finsh/msh.c:638
            }
        }
    }

    /* auto complete string */
    if (name_ptr != NULL)
    4692:	00098763          	beqz	s3,46a0 <msh_auto_complete+0xd8>
F:\SCHOOL\文件\智能车\全向组\RTTThreadCH32V103\camCoreWithRTOS\obj/../Libraries/rtthread_libraries/components/finsh/msh.c:640
    {
        rt_strncpy(prefix, name_ptr, min_length);
    4696:	8652                	mv	a2,s4
    4698:	85ce                	mv	a1,s3
    469a:	854a                	mv	a0,s2
    469c:	c0efe0ef          	jal	ra,2aaa <rt_strncpy>
F:\SCHOOL\文件\智能车\全向组\RTTThreadCH32V103\camCoreWithRTOS\obj/../Libraries/rtthread_libraries/components/finsh/msh.c:644
    }

    return ;
}
    46a0:	50b2                	lw	ra,44(sp)
    46a2:	5422                	lw	s0,40(sp)
    46a4:	5492                	lw	s1,36(sp)
    46a6:	5902                	lw	s2,32(sp)
    46a8:	49f2                	lw	s3,28(sp)
    46aa:	4a62                	lw	s4,24(sp)
    46ac:	4ad2                	lw	s5,20(sp)
    46ae:	4b42                	lw	s6,16(sp)
    46b0:	4bb2                	lw	s7,12(sp)
    46b2:	4c22                	lw	s8,8(sp)
    46b4:	6145                	addi	sp,sp,48
    46b6:	8082                	ret

000046b8 <finsh_system_init>:
finsh_system_init():
F:\SCHOOL\文件\智能车\全向组\RTTThreadCH32V103\camCoreWithRTOS\obj/../Libraries/rtthread_libraries/components/finsh/shell.c:815
 * @ingroup finsh
 *
 * This function will initialize finsh shell
 */
int finsh_system_init(void)
{
    46b8:	1141                	addi	sp,sp,-16
    46ba:	c606                	sw	ra,12(sp)
    46bc:	c422                	sw	s0,8(sp)
    46be:	c226                	sw	s1,4(sp)
finsh_system_function_init():
F:\SCHOOL\文件\智能车\全向组\RTTThreadCH32V103\camCoreWithRTOS\obj/../Libraries/rtthread_libraries/components/finsh/shell.c:765
    _syscall_table_begin = (struct finsh_syscall *) begin;
    46c0:	679d                	lui	a5,0x7
    46c2:	4c478793          	addi	a5,a5,1220 # 74c4 <__fsym_list_mem>
    46c6:	88f1ae23          	sw	a5,-1892(gp) # 2000014c <_syscall_table_begin>
F:\SCHOOL\文件\智能车\全向组\RTTThreadCH32V103\camCoreWithRTOS\obj/../Libraries/rtthread_libraries/components/finsh/shell.c:766
    _syscall_table_end = (struct finsh_syscall *) end;
    46ca:	679d                	lui	a5,0x7
    46cc:	54478793          	addi	a5,a5,1348 # 7544 <__fsymtab_end>
    46d0:	8af1a023          	sw	a5,-1888(gp) # 20000150 <_syscall_table_end>
finsh_system_var_init():
F:\SCHOOL\文件\智能车\全向组\RTTThreadCH32V103\camCoreWithRTOS\obj/../Libraries/rtthread_libraries/components/finsh/shell.c:771
    _sysvar_table_begin = (struct finsh_sysvar *) begin;
    46d4:	679d                	lui	a5,0x7
    46d6:	54478793          	addi	a5,a5,1348 # 7544 <__fsymtab_end>
    46da:	8af1a223          	sw	a5,-1884(gp) # 20000154 <_sysvar_table_begin>
F:\SCHOOL\文件\智能车\全向组\RTTThreadCH32V103\camCoreWithRTOS\obj/../Libraries/rtthread_libraries/components/finsh/shell.c:772
    _sysvar_table_end = (struct finsh_sysvar *) end;
    46de:	679d                	lui	a5,0x7
    46e0:	54478793          	addi	a5,a5,1348 # 7544 <__fsymtab_end>
    46e4:	8af1a423          	sw	a5,-1880(gp) # 20000158 <_sysvar_table_end>
finsh_system_init():
F:\SCHOOL\文件\智能车\全向组\RTTThreadCH32V103\camCoreWithRTOS\obj/../Libraries/rtthread_libraries/components/finsh/shell.c:868
#endif
#endif

#ifdef RT_USING_HEAP
    /* create or set shell structure */
    shell = (struct finsh_shell *)rt_calloc(1, sizeof(struct finsh_shell));
    46e8:	07c00593          	li	a1,124
    46ec:	4505                	li	a0,1
    46ee:	b07fe0ef          	jal	ra,31f4 <rt_calloc>
    46f2:	8aa1a823          	sw	a0,-1872(gp) # 20000160 <shell>
F:\SCHOOL\文件\智能车\全向组\RTTThreadCH32V103\camCoreWithRTOS\obj/../Libraries/rtthread_libraries/components/finsh/shell.c:869
    if (shell == RT_NULL)
    46f6:	cd31                	beqz	a0,4752 <finsh_system_init+0x9a>
F:\SCHOOL\文件\智能车\全向组\RTTThreadCH32V103\camCoreWithRTOS\obj/../Libraries/rtthread_libraries/components/finsh/shell.c:874
    {
        rt_kprintf("no memory for shell\n");
        return -1;
    }
    tid = rt_thread_create(FINSH_THREAD_NAME,
    46f8:	47a9                	li	a5,10
    46fa:	4719                	li	a4,6
    46fc:	60000693          	li	a3,1536
    4700:	4601                	li	a2,0
    4702:	000045b7          	lui	a1,0x4
    4706:	7ee58593          	addi	a1,a1,2030 # 47ee <finsh_thread_entry>
    470a:	00007537          	lui	a0,0x7
    470e:	35c50513          	addi	a0,a0,860 # 735c <__fsym___cmd_ps_name+0x84>
    4712:	856ff0ef          	jal	ra,3768 <rt_thread_create>
    4716:	84aa                	mv	s1,a0
F:\SCHOOL\文件\智能车\全向组\RTTThreadCH32V103\camCoreWithRTOS\obj/../Libraries/rtthread_libraries/components/finsh/shell.c:887
                            finsh_thread_entry, RT_NULL,
                            &finsh_thread_stack[0], sizeof(finsh_thread_stack),
                            FINSH_THREAD_PRIORITY, 10);
#endif /* RT_USING_HEAP */

    rt_sem_init(&(shell->rx_sem), "shrx", 0, 0);
    4718:	8b018413          	addi	s0,gp,-1872 # 20000160 <shell>
    471c:	4681                	li	a3,0
    471e:	4601                	li	a2,0
    4720:	000075b7          	lui	a1,0x7
    4724:	36458593          	addi	a1,a1,868 # 7364 <__fsym___cmd_ps_name+0x8c>
    4728:	4008                	lw	a0,0(s0)
    472a:	b93fd0ef          	jal	ra,22bc <rt_sem_init>
finsh_set_prompt_mode():
F:\SCHOOL\文件\智能车\全向组\RTTThreadCH32V103\camCoreWithRTOS\obj/../Libraries/rtthread_libraries/components/finsh/shell.c:164
    shell->prompt_mode = prompt_mode;
    472e:	4018                	lw	a4,0(s0)
    4730:	02474783          	lbu	a5,36(a4)
    4734:	0027e793          	ori	a5,a5,2
    4738:	02f70223          	sb	a5,36(a4)
finsh_system_init():
F:\SCHOOL\文件\智能车\全向组\RTTThreadCH32V103\camCoreWithRTOS\obj/../Libraries/rtthread_libraries/components/finsh/shell.c:892
    finsh_set_prompt_mode(1);

    if (tid != NULL && result == RT_EOK)
        rt_thread_startup(tid);
    return 0;
    473c:	4501                	li	a0,0
F:\SCHOOL\文件\智能车\全向组\RTTThreadCH32V103\camCoreWithRTOS\obj/../Libraries/rtthread_libraries/components/finsh/shell.c:890
    if (tid != NULL && result == RT_EOK)
    473e:	c489                	beqz	s1,4748 <finsh_system_init+0x90>
F:\SCHOOL\文件\智能车\全向组\RTTThreadCH32V103\camCoreWithRTOS\obj/../Libraries/rtthread_libraries/components/finsh/shell.c:891
        rt_thread_startup(tid);
    4740:	8526                	mv	a0,s1
    4742:	a42ff0ef          	jal	ra,3984 <rt_thread_startup>
F:\SCHOOL\文件\智能车\全向组\RTTThreadCH32V103\camCoreWithRTOS\obj/../Libraries/rtthread_libraries/components/finsh/shell.c:892
    return 0;
    4746:	4501                	li	a0,0
F:\SCHOOL\文件\智能车\全向组\RTTThreadCH32V103\camCoreWithRTOS\obj/../Libraries/rtthread_libraries/components/finsh/shell.c:893
}
    4748:	40b2                	lw	ra,12(sp)
    474a:	4422                	lw	s0,8(sp)
    474c:	4492                	lw	s1,4(sp)
    474e:	0141                	addi	sp,sp,16
    4750:	8082                	ret
F:\SCHOOL\文件\智能车\全向组\RTTThreadCH32V103\camCoreWithRTOS\obj/../Libraries/rtthread_libraries/components/finsh/shell.c:871
        rt_kprintf("no memory for shell\n");
    4752:	00007537          	lui	a0,0x7
    4756:	34450513          	addi	a0,a0,836 # 7344 <__fsym___cmd_ps_name+0x6c>
    475a:	f68fe0ef          	jal	ra,2ec2 <rt_kprintf>
F:\SCHOOL\文件\智能车\全向组\RTTThreadCH32V103\camCoreWithRTOS\obj/../Libraries/rtthread_libraries/components/finsh/shell.c:872
        return -1;
    475e:	557d                	li	a0,-1
    4760:	b7e5                	j	4748 <finsh_system_init+0x90>

00004762 <finsh_get_prompt>:
finsh_get_prompt():
F:\SCHOOL\文件\智能车\全向组\RTTThreadCH32V103\camCoreWithRTOS\obj/../Libraries/rtthread_libraries/components/finsh/shell.c:111
    if (!shell->prompt_mode)
    4762:	8b01a783          	lw	a5,-1872(gp) # 20000160 <shell>
    4766:	0247c783          	lbu	a5,36(a5)
    476a:	8b89                	andi	a5,a5,2
    476c:	c39d                	beqz	a5,4792 <finsh_get_prompt+0x30>
F:\SCHOOL\文件\智能车\全向组\RTTThreadCH32V103\camCoreWithRTOS\obj/../Libraries/rtthread_libraries/components/finsh/shell.c:105
{
    476e:	1141                	addi	sp,sp,-16
    4770:	c606                	sw	ra,12(sp)
    4772:	c422                	sw	s0,8(sp)
F:\SCHOOL\文件\智能车\全向组\RTTThreadCH32V103\camCoreWithRTOS\obj/../Libraries/rtthread_libraries/components/finsh/shell.c:117
    if(finsh_prompt_custom)
    4774:	8ac1a583          	lw	a1,-1876(gp) # 2000015c <finsh_prompt_custom>
    4778:	c195                	beqz	a1,479c <finsh_get_prompt+0x3a>
F:\SCHOOL\文件\智能车\全向组\RTTThreadCH32V103\camCoreWithRTOS\obj/../Libraries/rtthread_libraries/components/finsh/shell.c:119
        strncpy(finsh_prompt, finsh_prompt_custom, sizeof(finsh_prompt)-1);
    477a:	08000613          	li	a2,128
    477e:	d2c18513          	addi	a0,gp,-724 # 200005dc <finsh_prompt.3980>
    4782:	16e010ef          	jal	ra,58f0 <strncpy>
F:\SCHOOL\文件\智能车\全向组\RTTThreadCH32V103\camCoreWithRTOS\obj/../Libraries/rtthread_libraries/components/finsh/shell.c:137
}
    4786:	d2c18513          	addi	a0,gp,-724 # 200005dc <finsh_prompt.3980>
    478a:	40b2                	lw	ra,12(sp)
    478c:	4422                	lw	s0,8(sp)
    478e:	0141                	addi	sp,sp,16
    4790:	8082                	ret
F:\SCHOOL\文件\智能车\全向组\RTTThreadCH32V103\camCoreWithRTOS\obj/../Libraries/rtthread_libraries/components/finsh/shell.c:113
        finsh_prompt[0] = '\0';
    4792:	d2018623          	sb	zero,-724(gp) # 200005dc <finsh_prompt.3980>
F:\SCHOOL\文件\智能车\全向组\RTTThreadCH32V103\camCoreWithRTOS\obj/../Libraries/rtthread_libraries/components/finsh/shell.c:137
}
    4796:	d2c18513          	addi	a0,gp,-724 # 200005dc <finsh_prompt.3980>
    479a:	8082                	ret
F:\SCHOOL\文件\智能车\全向组\RTTThreadCH32V103\camCoreWithRTOS\obj/../Libraries/rtthread_libraries/components/finsh/shell.c:124
    if (msh_is_used()) strcpy(finsh_prompt, _MSH_PROMPT);
    479c:	c09ff0ef          	jal	ra,43a4 <msh_is_used>
    47a0:	c905                	beqz	a0,47d0 <finsh_get_prompt+0x6e>
F:\SCHOOL\文件\智能车\全向组\RTTThreadCH32V103\camCoreWithRTOS\obj/../Libraries/rtthread_libraries/components/finsh/shell.c:124 (discriminator 1)
    47a2:	d2c18793          	addi	a5,gp,-724 # 200005dc <finsh_prompt.3980>
    47a6:	20687737          	lui	a4,0x20687
    47aa:	36d70713          	addi	a4,a4,877 # 2068736d <_eusrstack+0x68236d>
    47ae:	c398                	sw	a4,0(a5)
    47b0:	00078223          	sb	zero,4(a5)
F:\SCHOOL\文件\智能车\全向组\RTTThreadCH32V103\camCoreWithRTOS\obj/../Libraries/rtthread_libraries/components/finsh/shell.c:134
    strcat(finsh_prompt, ">");
    47b4:	d2c18413          	addi	s0,gp,-724 # 200005dc <finsh_prompt.3980>
    47b8:	d2c18513          	addi	a0,gp,-724 # 200005dc <finsh_prompt.3980>
    47bc:	0f6010ef          	jal	ra,58b2 <strlen>
    47c0:	9522                	add	a0,a0,s0
    47c2:	03e00793          	li	a5,62
    47c6:	00f50023          	sb	a5,0(a0)
    47ca:	000500a3          	sb	zero,1(a0)
F:\SCHOOL\文件\智能车\全向组\RTTThreadCH32V103\camCoreWithRTOS\obj/../Libraries/rtthread_libraries/components/finsh/shell.c:136
    return finsh_prompt;
    47ce:	bf65                	j	4786 <finsh_get_prompt+0x24>
F:\SCHOOL\文件\智能车\全向组\RTTThreadCH32V103\camCoreWithRTOS\obj/../Libraries/rtthread_libraries/components/finsh/shell.c:127
        strcpy(finsh_prompt, _PROMPT);
    47d0:	d2c18793          	addi	a5,gp,-724 # 200005dc <finsh_prompt.3980>
    47d4:	736e7737          	lui	a4,0x736e7
    47d8:	96670713          	addi	a4,a4,-1690 # 736e6966 <_eusrstack+0x536e1966>
    47dc:	c398                	sw	a4,0(a5)
    47de:	6709                	lui	a4,0x2
    47e0:	06870713          	addi	a4,a4,104 # 2068 <rt_tick_increase+0x2>
    47e4:	00e79223          	sh	a4,4(a5)
    47e8:	00078323          	sb	zero,6(a5)
    47ec:	b7e1                	j	47b4 <finsh_get_prompt+0x52>

000047ee <finsh_thread_entry>:
finsh_thread_entry():
F:\SCHOOL\文件\智能车\全向组\RTTThreadCH32V103\camCoreWithRTOS\obj/../Libraries/rtthread_libraries/components/finsh/shell.c:501
{
    47ee:	7179                	addi	sp,sp,-48
    47f0:	d606                	sw	ra,44(sp)
    47f2:	d422                	sw	s0,40(sp)
    47f4:	d226                	sw	s1,36(sp)
    47f6:	d04a                	sw	s2,32(sp)
    47f8:	ce4e                	sw	s3,28(sp)
    47fa:	cc52                	sw	s4,24(sp)
    47fc:	ca56                	sw	s5,20(sp)
    47fe:	c85a                	sw	s6,16(sp)
    4800:	c65e                	sw	s7,12(sp)
    4802:	c462                	sw	s8,8(sp)
F:\SCHOOL\文件\智能车\全向组\RTTThreadCH32V103\camCoreWithRTOS\obj/../Libraries/rtthread_libraries/components/finsh/shell.c:506
    shell->echo_mode = 1;
    4804:	8b01a703          	lw	a4,-1872(gp) # 20000160 <shell>
    4808:	02474783          	lbu	a5,36(a4)
    480c:	0017e793          	ori	a5,a5,1
    4810:	02f70223          	sb	a5,36(a4)
F:\SCHOOL\文件\智能车\全向组\RTTThreadCH32V103\camCoreWithRTOS\obj/../Libraries/rtthread_libraries/components/finsh/shell.c:540
    rt_kprintf(FINSH_PROMPT);
    4814:	f4fff0ef          	jal	ra,4762 <finsh_get_prompt>
    4818:	eaafe0ef          	jal	ra,2ec2 <rt_kprintf>
F:\SCHOOL\文件\智能车\全向组\RTTThreadCH32V103\camCoreWithRTOS\obj/../Libraries/rtthread_libraries/components/finsh/shell.c:684
                rt_kprintf("\b \b");
    481c:	000079b7          	lui	s3,0x7
F:\SCHOOL\文件\智能车\全向组\RTTThreadCH32V103\camCoreWithRTOS\obj/../Libraries/rtthread_libraries/components/finsh/shell.c:676
                rt_kprintf("\b%s  \b", &shell->line[shell->line_curpos]);
    4820:	00007bb7          	lui	s7,0x7
F:\SCHOOL\文件\智能车\全向组\RTTThreadCH32V103\camCoreWithRTOS\obj/../Libraries/rtthread_libraries/components/finsh/shell.c:680
                    rt_kprintf("\b");
    4824:	00007937          	lui	s2,0x7
F:\SCHOOL\文件\智能车\全向组\RTTThreadCH32V103\camCoreWithRTOS\obj/../Libraries/rtthread_libraries/components/finsh/shell.c:702
                    rt_kprintf("\n");
    4828:	00007a37          	lui	s4,0x7
F:\SCHOOL\文件\智能车\全向组\RTTThreadCH32V103\camCoreWithRTOS\obj/../Libraries/rtthread_libraries/components/finsh/shell.c:748
                rt_kprintf("%c", ch);
    482c:	00007ab7          	lui	s5,0x7
F:\SCHOOL\文件\智能车\全向组\RTTThreadCH32V103\camCoreWithRTOS\obj/../Libraries/rtthread_libraries/components/finsh/shell.c:738
                rt_kprintf("%s", &shell->line[shell->line_curpos]);
    4830:	00007c37          	lui	s8,0x7
shell_auto_complete():
F:\SCHOOL\文件\智能车\全向组\RTTThreadCH32V103\camCoreWithRTOS\obj/../Libraries/rtthread_libraries/components/finsh/shell.c:391
    rt_kprintf("%s%s", FINSH_PROMPT, prefix);
    4834:	00007b37          	lui	s6,0x7
    4838:	a029                	j	4842 <finsh_thread_entry+0x54>
finsh_thread_entry():
F:\SCHOOL\文件\智能车\全向组\RTTThreadCH32V103\camCoreWithRTOS\obj/../Libraries/rtthread_libraries/components/finsh/shell.c:559
            shell->stat = WAIT_SPEC_KEY;
    483a:	8b01a783          	lw	a5,-1872(gp) # 20000160 <shell>
    483e:	4705                	li	a4,1
    4840:	d398                	sw	a4,32(a5)
finsh_getchar():
F:\SCHOOL\文件\智能车\全向组\RTTThreadCH32V103\camCoreWithRTOS\obj/../Libraries/rtthread_libraries/components/finsh/shell.c:183
    return rt_hw_console_getchar();
    4842:	2321                	jal	4d4a <rt_hw_console_getchar>
    4844:	842a                	mv	s0,a0
    4846:	85aa                	mv	a1,a0
finsh_thread_entry():
F:\SCHOOL\文件\智能车\全向组\RTTThreadCH32V103\camCoreWithRTOS\obj/../Libraries/rtthread_libraries/components/finsh/shell.c:545
        if (ch < 0)
    4848:	fe054de3          	bltz	a0,4842 <finsh_thread_entry+0x54>
F:\SCHOOL\文件\智能车\全向组\RTTThreadCH32V103\camCoreWithRTOS\obj/../Libraries/rtthread_libraries/components/finsh/shell.c:557
        if (ch == 0x1b)
    484c:	47ed                	li	a5,27
    484e:	fef506e3          	beq	a0,a5,483a <finsh_thread_entry+0x4c>
F:\SCHOOL\文件\智能车\全向组\RTTThreadCH32V103\camCoreWithRTOS\obj/../Libraries/rtthread_libraries/components/finsh/shell.c:562
        else if (shell->stat == WAIT_SPEC_KEY)
    4852:	8b01a783          	lw	a5,-1872(gp) # 20000160 <shell>
    4856:	5398                	lw	a4,32(a5)
    4858:	4685                	li	a3,1
    485a:	06d70e63          	beq	a4,a3,48d6 <finsh_thread_entry+0xe8>
F:\SCHOOL\文件\智能车\全向组\RTTThreadCH32V103\camCoreWithRTOS\obj/../Libraries/rtthread_libraries/components/finsh/shell.c:572
        else if (shell->stat == WAIT_FUNC_KEY)
    485e:	4689                	li	a3,2
    4860:	08d70563          	beq	a4,a3,48ea <finsh_thread_entry+0xfc>
F:\SCHOOL\文件\智能车\全向组\RTTThreadCH32V103\camCoreWithRTOS\obj/../Libraries/rtthread_libraries/components/finsh/shell.c:641
        if (ch == '\0' || ch == 0xFF) continue;
    4864:	ddf9                	beqz	a1,4842 <finsh_thread_entry+0x54>
F:\SCHOOL\文件\智能车\全向组\RTTThreadCH32V103\camCoreWithRTOS\obj/../Libraries/rtthread_libraries/components/finsh/shell.c:643
        else if (ch == '\t')
    4866:	4725                	li	a4,9
    4868:	0ee58763          	beq	a1,a4,4956 <finsh_thread_entry+0x168>
F:\SCHOOL\文件\智能车\全向组\RTTThreadCH32V103\camCoreWithRTOS\obj/../Libraries/rtthread_libraries/components/finsh/shell.c:658
        else if (ch == 0x7f || ch == 0x08)
    486c:	07f00713          	li	a4,127
    4870:	14e58663          	beq	a1,a4,49bc <finsh_thread_entry+0x1ce>
F:\SCHOOL\文件\智能车\全向组\RTTThreadCH32V103\camCoreWithRTOS\obj/../Libraries/rtthread_libraries/components/finsh/shell.c:658 (discriminator 1)
    4874:	4721                	li	a4,8
    4876:	14e58363          	beq	a1,a4,49bc <finsh_thread_entry+0x1ce>
F:\SCHOOL\文件\智能车\全向组\RTTThreadCH32V103\camCoreWithRTOS\obj/../Libraries/rtthread_libraries/components/finsh/shell.c:692
        if (ch == '\r' || ch == '\n')
    487a:	4735                	li	a4,13
    487c:	1ce58b63          	beq	a1,a4,4a52 <finsh_thread_entry+0x264>
F:\SCHOOL\文件\智能车\全向组\RTTThreadCH32V103\camCoreWithRTOS\obj/../Libraries/rtthread_libraries/components/finsh/shell.c:692 (discriminator 1)
    4880:	4729                	li	a4,10
    4882:	1ce58863          	beq	a1,a4,4a52 <finsh_thread_entry+0x264>
F:\SCHOOL\文件\智能车\全向组\RTTThreadCH32V103\camCoreWithRTOS\obj/../Libraries/rtthread_libraries/components/finsh/shell.c:725
        if (shell->line_position >= FINSH_CMD_SIZE)
    4886:	0767d703          	lhu	a4,118(a5)
    488a:	04f00693          	li	a3,79
    488e:	20e6fd63          	bgeu	a3,a4,4aa8 <finsh_thread_entry+0x2ba>
F:\SCHOOL\文件\智能车\全向组\RTTThreadCH32V103\camCoreWithRTOS\obj/../Libraries/rtthread_libraries/components/finsh/shell.c:726
            shell->line_position = 0;
    4892:	06079b23          	sh	zero,118(a5)
F:\SCHOOL\文件\智能车\全向组\RTTThreadCH32V103\camCoreWithRTOS\obj/../Libraries/rtthread_libraries/components/finsh/shell.c:729
        if (shell->line_curpos < shell->line_position)
    4896:	4701                	li	a4,0
F:\SCHOOL\文件\智能车\全向组\RTTThreadCH32V103\camCoreWithRTOS\obj/../Libraries/rtthread_libraries/components/finsh/shell.c:746
            shell->line[shell->line_position] = ch;
    4898:	973e                	add	a4,a4,a5
    489a:	028702a3          	sb	s0,37(a4)
F:\SCHOOL\文件\智能车\全向组\RTTThreadCH32V103\camCoreWithRTOS\obj/../Libraries/rtthread_libraries/components/finsh/shell.c:747
            if (shell->echo_mode)
    489e:	0247c783          	lbu	a5,36(a5)
    48a2:	8b85                	andi	a5,a5,1
    48a4:	26079863          	bnez	a5,4b14 <finsh_thread_entry+0x326>
F:\SCHOOL\文件\智能车\全向组\RTTThreadCH32V103\camCoreWithRTOS\obj/../Libraries/rtthread_libraries/components/finsh/shell.c:752
        shell->line_position ++;
    48a8:	8b01a703          	lw	a4,-1872(gp) # 20000160 <shell>
    48ac:	07675783          	lhu	a5,118(a4)
    48b0:	0785                	addi	a5,a5,1
    48b2:	07c2                	slli	a5,a5,0x10
    48b4:	83c1                	srli	a5,a5,0x10
    48b6:	06f71b23          	sh	a5,118(a4)
F:\SCHOOL\文件\智能车\全向组\RTTThreadCH32V103\camCoreWithRTOS\obj/../Libraries/rtthread_libraries/components/finsh/shell.c:753
        shell->line_curpos++;
    48ba:	07875683          	lhu	a3,120(a4)
    48be:	0685                	addi	a3,a3,1
    48c0:	06d71c23          	sh	a3,120(a4)
F:\SCHOOL\文件\智能车\全向组\RTTThreadCH32V103\camCoreWithRTOS\obj/../Libraries/rtthread_libraries/components/finsh/shell.c:754
        if (shell->line_position >= FINSH_CMD_SIZE)
    48c4:	04f00693          	li	a3,79
    48c8:	f6f6fde3          	bgeu	a3,a5,4842 <finsh_thread_entry+0x54>
F:\SCHOOL\文件\智能车\全向组\RTTThreadCH32V103\camCoreWithRTOS\obj/../Libraries/rtthread_libraries/components/finsh/shell.c:757
            shell->line_position = 0;
    48cc:	06071b23          	sh	zero,118(a4)
F:\SCHOOL\文件\智能车\全向组\RTTThreadCH32V103\camCoreWithRTOS\obj/../Libraries/rtthread_libraries/components/finsh/shell.c:758
            shell->line_curpos = 0;
    48d0:	06071c23          	sh	zero,120(a4)
    48d4:	b7bd                	j	4842 <finsh_thread_entry+0x54>
F:\SCHOOL\文件\智能车\全向组\RTTThreadCH32V103\camCoreWithRTOS\obj/../Libraries/rtthread_libraries/components/finsh/shell.c:564
            if (ch == 0x5b)
    48d6:	05b00713          	li	a4,91
    48da:	00e50563          	beq	a0,a4,48e4 <finsh_thread_entry+0xf6>
F:\SCHOOL\文件\智能车\全向组\RTTThreadCH32V103\camCoreWithRTOS\obj/../Libraries/rtthread_libraries/components/finsh/shell.c:570
            shell->stat = WAIT_NORMAL;
    48de:	0207a023          	sw	zero,32(a5)
    48e2:	b749                	j	4864 <finsh_thread_entry+0x76>
F:\SCHOOL\文件\智能车\全向组\RTTThreadCH32V103\camCoreWithRTOS\obj/../Libraries/rtthread_libraries/components/finsh/shell.c:566
                shell->stat = WAIT_FUNC_KEY;
    48e4:	4709                	li	a4,2
    48e6:	d398                	sw	a4,32(a5)
F:\SCHOOL\文件\智能车\全向组\RTTThreadCH32V103\camCoreWithRTOS\obj/../Libraries/rtthread_libraries/components/finsh/shell.c:567
                continue;
    48e8:	bfa9                	j	4842 <finsh_thread_entry+0x54>
F:\SCHOOL\文件\智能车\全向组\RTTThreadCH32V103\camCoreWithRTOS\obj/../Libraries/rtthread_libraries/components/finsh/shell.c:574
            shell->stat = WAIT_NORMAL;
    48ea:	0207a023          	sw	zero,32(a5)
F:\SCHOOL\文件\智能车\全向组\RTTThreadCH32V103\camCoreWithRTOS\obj/../Libraries/rtthread_libraries/components/finsh/shell.c:576
            if (ch == 0x41) /* up key */
    48ee:	fbf50713          	addi	a4,a0,-65
    48f2:	0ff77713          	andi	a4,a4,255
    48f6:	4685                	li	a3,1
    48f8:	f4e6f5e3          	bgeu	a3,a4,4842 <finsh_thread_entry+0x54>
F:\SCHOOL\文件\智能车\全向组\RTTThreadCH32V103\camCoreWithRTOS\obj/../Libraries/rtthread_libraries/components/finsh/shell.c:618
            else if (ch == 0x44) /* left key */
    48fc:	04400713          	li	a4,68
    4900:	02e50b63          	beq	a0,a4,4936 <finsh_thread_entry+0x148>
F:\SCHOOL\文件\智能车\全向组\RTTThreadCH32V103\camCoreWithRTOS\obj/../Libraries/rtthread_libraries/components/finsh/shell.c:628
            else if (ch == 0x43) /* right key */
    4904:	04300713          	li	a4,67
    4908:	f4e51ee3          	bne	a0,a4,4864 <finsh_thread_entry+0x76>
F:\SCHOOL\文件\智能车\全向组\RTTThreadCH32V103\camCoreWithRTOS\obj/../Libraries/rtthread_libraries/components/finsh/shell.c:630
                if (shell->line_curpos < shell->line_position)
    490c:	0787d703          	lhu	a4,120(a5)
    4910:	0767d683          	lhu	a3,118(a5)
    4914:	f2d777e3          	bgeu	a4,a3,4842 <finsh_thread_entry+0x54>
F:\SCHOOL\文件\智能车\全向组\RTTThreadCH32V103\camCoreWithRTOS\obj/../Libraries/rtthread_libraries/components/finsh/shell.c:632
                    rt_kprintf("%c", shell->line[shell->line_curpos]);
    4918:	97ba                	add	a5,a5,a4
    491a:	02578583          	lb	a1,37(a5)
    491e:	370a8513          	addi	a0,s5,880 # 7370 <__fsym___cmd_ps_name+0x98>
    4922:	da0fe0ef          	jal	ra,2ec2 <rt_kprintf>
F:\SCHOOL\文件\智能车\全向组\RTTThreadCH32V103\camCoreWithRTOS\obj/../Libraries/rtthread_libraries/components/finsh/shell.c:633
                    shell->line_curpos ++;
    4926:	8b01a703          	lw	a4,-1872(gp) # 20000160 <shell>
    492a:	07875783          	lhu	a5,120(a4)
    492e:	0785                	addi	a5,a5,1
    4930:	06f71c23          	sh	a5,120(a4)
    4934:	b739                	j	4842 <finsh_thread_entry+0x54>
F:\SCHOOL\文件\智能车\全向组\RTTThreadCH32V103\camCoreWithRTOS\obj/../Libraries/rtthread_libraries/components/finsh/shell.c:620
                if (shell->line_curpos)
    4936:	0787d783          	lhu	a5,120(a5)
    493a:	f00784e3          	beqz	a5,4842 <finsh_thread_entry+0x54>
F:\SCHOOL\文件\智能车\全向组\RTTThreadCH32V103\camCoreWithRTOS\obj/../Libraries/rtthread_libraries/components/finsh/shell.c:622
                    rt_kprintf("\b");
    493e:	36c90513          	addi	a0,s2,876 # 736c <__fsym___cmd_ps_name+0x94>
    4942:	d80fe0ef          	jal	ra,2ec2 <rt_kprintf>
F:\SCHOOL\文件\智能车\全向组\RTTThreadCH32V103\camCoreWithRTOS\obj/../Libraries/rtthread_libraries/components/finsh/shell.c:623
                    shell->line_curpos --;
    4946:	8b01a703          	lw	a4,-1872(gp) # 20000160 <shell>
    494a:	07875783          	lhu	a5,120(a4)
    494e:	17fd                	addi	a5,a5,-1
    4950:	06f71c23          	sh	a5,120(a4)
    4954:	b5fd                	j	4842 <finsh_thread_entry+0x54>
F:\SCHOOL\文件\智能车\全向组\RTTThreadCH32V103\camCoreWithRTOS\obj/../Libraries/rtthread_libraries/components/finsh/shell.c:647
            for (i = 0; i < shell->line_curpos; i++)
    4956:	0787d703          	lhu	a4,120(a5)
    495a:	cf09                	beqz	a4,4974 <finsh_thread_entry+0x186>
    495c:	4401                	li	s0,0
F:\SCHOOL\文件\智能车\全向组\RTTThreadCH32V103\camCoreWithRTOS\obj/../Libraries/rtthread_libraries/components/finsh/shell.c:648 (discriminator 3)
                rt_kprintf("\b");
    495e:	36c90513          	addi	a0,s2,876
    4962:	d60fe0ef          	jal	ra,2ec2 <rt_kprintf>
F:\SCHOOL\文件\智能车\全向组\RTTThreadCH32V103\camCoreWithRTOS\obj/../Libraries/rtthread_libraries/components/finsh/shell.c:647 (discriminator 3)
            for (i = 0; i < shell->line_curpos; i++)
    4966:	0405                	addi	s0,s0,1
    4968:	8b01a783          	lw	a5,-1872(gp) # 20000160 <shell>
    496c:	0787d703          	lhu	a4,120(a5)
    4970:	fee447e3          	blt	s0,a4,495e <finsh_thread_entry+0x170>
F:\SCHOOL\文件\智能车\全向组\RTTThreadCH32V103\camCoreWithRTOS\obj/../Libraries/rtthread_libraries/components/finsh/shell.c:651
            shell_auto_complete(&shell->line[0]);
    4974:	02578413          	addi	s0,a5,37
shell_auto_complete():
F:\SCHOOL\文件\智能车\全向组\RTTThreadCH32V103\camCoreWithRTOS\obj/../Libraries/rtthread_libraries/components/finsh/shell.c:376
    rt_kprintf("\n");
    4978:	020a0513          	addi	a0,s4,32 # 7020 <__fsym_list_timer_name+0x1c>
    497c:	d46fe0ef          	jal	ra,2ec2 <rt_kprintf>
F:\SCHOOL\文件\智能车\全向组\RTTThreadCH32V103\camCoreWithRTOS\obj/../Libraries/rtthread_libraries/components/finsh/shell.c:378
    if (msh_is_used() == RT_TRUE)
    4980:	a25ff0ef          	jal	ra,43a4 <msh_is_used>
    4984:	4785                	li	a5,1
    4986:	02f50763          	beq	a0,a5,49b4 <finsh_thread_entry+0x1c6>
F:\SCHOOL\文件\智能车\全向组\RTTThreadCH32V103\camCoreWithRTOS\obj/../Libraries/rtthread_libraries/components/finsh/shell.c:391
    rt_kprintf("%s%s", FINSH_PROMPT, prefix);
    498a:	dd9ff0ef          	jal	ra,4762 <finsh_get_prompt>
    498e:	8622                	mv	a2,s0
    4990:	85aa                	mv	a1,a0
    4992:	374b0513          	addi	a0,s6,884 # 7374 <__fsym___cmd_ps_name+0x9c>
    4996:	d2cfe0ef          	jal	ra,2ec2 <rt_kprintf>
finsh_thread_entry():
F:\SCHOOL\文件\智能车\全向组\RTTThreadCH32V103\camCoreWithRTOS\obj/../Libraries/rtthread_libraries/components/finsh/shell.c:653
            shell->line_curpos = shell->line_position = strlen(shell->line);
    499a:	8b01a403          	lw	s0,-1872(gp) # 20000160 <shell>
    499e:	02540513          	addi	a0,s0,37
    49a2:	711000ef          	jal	ra,58b2 <strlen>
    49a6:	0542                	slli	a0,a0,0x10
    49a8:	8141                	srli	a0,a0,0x10
    49aa:	06a41b23          	sh	a0,118(s0)
    49ae:	06a41c23          	sh	a0,120(s0)
F:\SCHOOL\文件\智能车\全向组\RTTThreadCH32V103\camCoreWithRTOS\obj/../Libraries/rtthread_libraries/components/finsh/shell.c:655
            continue;
    49b2:	bd41                	j	4842 <finsh_thread_entry+0x54>
shell_auto_complete():
F:\SCHOOL\文件\智能车\全向组\RTTThreadCH32V103\camCoreWithRTOS\obj/../Libraries/rtthread_libraries/components/finsh/shell.c:380
        msh_auto_complete(prefix);
    49b4:	8522                	mv	a0,s0
    49b6:	c13ff0ef          	jal	ra,45c8 <msh_auto_complete>
    49ba:	bfc1                	j	498a <finsh_thread_entry+0x19c>
finsh_thread_entry():
F:\SCHOOL\文件\智能车\全向组\RTTThreadCH32V103\camCoreWithRTOS\obj/../Libraries/rtthread_libraries/components/finsh/shell.c:661
            if (shell->line_curpos == 0)
    49bc:	0787d703          	lhu	a4,120(a5)
    49c0:	e80701e3          	beqz	a4,4842 <finsh_thread_entry+0x54>
F:\SCHOOL\文件\智能车\全向组\RTTThreadCH32V103\camCoreWithRTOS\obj/../Libraries/rtthread_libraries/components/finsh/shell.c:664
            shell->line_position--;
    49c4:	0767d603          	lhu	a2,118(a5)
    49c8:	167d                	addi	a2,a2,-1
    49ca:	0642                	slli	a2,a2,0x10
    49cc:	8241                	srli	a2,a2,0x10
    49ce:	06c79b23          	sh	a2,118(a5)
F:\SCHOOL\文件\智能车\全向组\RTTThreadCH32V103\camCoreWithRTOS\obj/../Libraries/rtthread_libraries/components/finsh/shell.c:665
            shell->line_curpos--;
    49d2:	177d                	addi	a4,a4,-1
    49d4:	0742                	slli	a4,a4,0x10
    49d6:	8341                	srli	a4,a4,0x10
    49d8:	06e79c23          	sh	a4,120(a5)
F:\SCHOOL\文件\智能车\全向组\RTTThreadCH32V103\camCoreWithRTOS\obj/../Libraries/rtthread_libraries/components/finsh/shell.c:667
            if (shell->line_position > shell->line_curpos)
    49dc:	00c76e63          	bltu	a4,a2,49f8 <finsh_thread_entry+0x20a>
F:\SCHOOL\文件\智能车\全向组\RTTThreadCH32V103\camCoreWithRTOS\obj/../Libraries/rtthread_libraries/components/finsh/shell.c:684
                rt_kprintf("\b \b");
    49e0:	38498513          	addi	a0,s3,900 # 7384 <__fsym___cmd_ps_name+0xac>
    49e4:	cdefe0ef          	jal	ra,2ec2 <rt_kprintf>
F:\SCHOOL\文件\智能车\全向组\RTTThreadCH32V103\camCoreWithRTOS\obj/../Libraries/rtthread_libraries/components/finsh/shell.c:685
                shell->line[shell->line_position] = 0;
    49e8:	8b01a783          	lw	a5,-1872(gp) # 20000160 <shell>
    49ec:	0767d703          	lhu	a4,118(a5)
    49f0:	97ba                	add	a5,a5,a4
    49f2:	020782a3          	sb	zero,37(a5)
    49f6:	b5b1                	j	4842 <finsh_thread_entry+0x54>
F:\SCHOOL\文件\智能车\全向组\RTTThreadCH32V103\camCoreWithRTOS\obj/../Libraries/rtthread_libraries/components/finsh/shell.c:672
                           &shell->line[shell->line_curpos + 1],
    49f8:	02670593          	addi	a1,a4,38
F:\SCHOOL\文件\智能车\全向组\RTTThreadCH32V103\camCoreWithRTOS\obj/../Libraries/rtthread_libraries/components/finsh/shell.c:671
                rt_memmove(&shell->line[shell->line_curpos],
    49fc:	02570513          	addi	a0,a4,37
    4a00:	8e19                	sub	a2,a2,a4
    4a02:	95be                	add	a1,a1,a5
    4a04:	953e                	add	a0,a0,a5
    4a06:	864fe0ef          	jal	ra,2a6a <rt_memmove>
F:\SCHOOL\文件\智能车\全向组\RTTThreadCH32V103\camCoreWithRTOS\obj/../Libraries/rtthread_libraries/components/finsh/shell.c:674
                shell->line[shell->line_position] = 0;
    4a0a:	8b018413          	addi	s0,gp,-1872 # 20000160 <shell>
    4a0e:	401c                	lw	a5,0(s0)
    4a10:	0767d703          	lhu	a4,118(a5)
    4a14:	973e                	add	a4,a4,a5
    4a16:	020702a3          	sb	zero,37(a4)
F:\SCHOOL\文件\智能车\全向组\RTTThreadCH32V103\camCoreWithRTOS\obj/../Libraries/rtthread_libraries/components/finsh/shell.c:676
                rt_kprintf("\b%s  \b", &shell->line[shell->line_curpos]);
    4a1a:	0787d583          	lhu	a1,120(a5)
    4a1e:	02558593          	addi	a1,a1,37
    4a22:	95be                	add	a1,a1,a5
    4a24:	37cb8513          	addi	a0,s7,892 # 737c <__fsym___cmd_ps_name+0xa4>
    4a28:	c9afe0ef          	jal	ra,2ec2 <rt_kprintf>
F:\SCHOOL\文件\智能车\全向组\RTTThreadCH32V103\camCoreWithRTOS\obj/../Libraries/rtthread_libraries/components/finsh/shell.c:679
                for (i = shell->line_curpos; i <= shell->line_position; i++)
    4a2c:	401c                	lw	a5,0(s0)
    4a2e:	0787d403          	lhu	s0,120(a5)
    4a32:	0767d783          	lhu	a5,118(a5)
    4a36:	e087c6e3          	blt	a5,s0,4842 <finsh_thread_entry+0x54>
F:\SCHOOL\文件\智能车\全向组\RTTThreadCH32V103\camCoreWithRTOS\obj/../Libraries/rtthread_libraries/components/finsh/shell.c:680 (discriminator 3)
                    rt_kprintf("\b");
    4a3a:	36c90513          	addi	a0,s2,876
    4a3e:	c84fe0ef          	jal	ra,2ec2 <rt_kprintf>
F:\SCHOOL\文件\智能车\全向组\RTTThreadCH32V103\camCoreWithRTOS\obj/../Libraries/rtthread_libraries/components/finsh/shell.c:679 (discriminator 3)
                for (i = shell->line_curpos; i <= shell->line_position; i++)
    4a42:	0405                	addi	s0,s0,1
    4a44:	8b01a783          	lw	a5,-1872(gp) # 20000160 <shell>
    4a48:	0767d783          	lhu	a5,118(a5)
    4a4c:	fe87d7e3          	bge	a5,s0,4a3a <finsh_thread_entry+0x24c>
    4a50:	bbcd                	j	4842 <finsh_thread_entry+0x54>
F:\SCHOOL\文件\智能车\全向组\RTTThreadCH32V103\camCoreWithRTOS\obj/../Libraries/rtthread_libraries/components/finsh/shell.c:699
            if (msh_is_used() == RT_TRUE)
    4a52:	953ff0ef          	jal	ra,43a4 <msh_is_used>
    4a56:	4785                	li	a5,1
    4a58:	02f50463          	beq	a0,a5,4a80 <finsh_thread_entry+0x292>
F:\SCHOOL\文件\智能车\全向组\RTTThreadCH32V103\camCoreWithRTOS\obj/../Libraries/rtthread_libraries/components/finsh/shell.c:718
            rt_kprintf(FINSH_PROMPT);
    4a5c:	d07ff0ef          	jal	ra,4762 <finsh_get_prompt>
    4a60:	c62fe0ef          	jal	ra,2ec2 <rt_kprintf>
F:\SCHOOL\文件\智能车\全向组\RTTThreadCH32V103\camCoreWithRTOS\obj/../Libraries/rtthread_libraries/components/finsh/shell.c:719
            memset(shell->line, 0, sizeof(shell->line));
    4a64:	8b01a403          	lw	s0,-1872(gp) # 20000160 <shell>
    4a68:	05000613          	li	a2,80
    4a6c:	4581                	li	a1,0
    4a6e:	02540513          	addi	a0,s0,37
    4a72:	f9cfb0ef          	jal	ra,20e <memset>
F:\SCHOOL\文件\智能车\全向组\RTTThreadCH32V103\camCoreWithRTOS\obj/../Libraries/rtthread_libraries/components/finsh/shell.c:720
            shell->line_curpos = shell->line_position = 0;
    4a76:	06041b23          	sh	zero,118(s0)
    4a7a:	06041c23          	sh	zero,120(s0)
F:\SCHOOL\文件\智能车\全向组\RTTThreadCH32V103\camCoreWithRTOS\obj/../Libraries/rtthread_libraries/components/finsh/shell.c:721
            continue;
    4a7e:	b3d1                	j	4842 <finsh_thread_entry+0x54>
F:\SCHOOL\文件\智能车\全向组\RTTThreadCH32V103\camCoreWithRTOS\obj/../Libraries/rtthread_libraries/components/finsh/shell.c:701
                if (shell->echo_mode)
    4a80:	8b01a783          	lw	a5,-1872(gp) # 20000160 <shell>
    4a84:	0247c783          	lbu	a5,36(a5)
    4a88:	8b85                	andi	a5,a5,1
    4a8a:	eb91                	bnez	a5,4a9e <finsh_thread_entry+0x2b0>
F:\SCHOOL\文件\智能车\全向组\RTTThreadCH32V103\camCoreWithRTOS\obj/../Libraries/rtthread_libraries/components/finsh/shell.c:703
                msh_exec(shell->line, shell->line_position);
    4a8c:	8b01a503          	lw	a0,-1872(gp) # 20000160 <shell>
    4a90:	07655583          	lhu	a1,118(a0)
    4a94:	02550513          	addi	a0,a0,37
    4a98:	911ff0ef          	jal	ra,43a8 <msh_exec>
    4a9c:	b7c1                	j	4a5c <finsh_thread_entry+0x26e>
F:\SCHOOL\文件\智能车\全向组\RTTThreadCH32V103\camCoreWithRTOS\obj/../Libraries/rtthread_libraries/components/finsh/shell.c:702
                    rt_kprintf("\n");
    4a9e:	020a0513          	addi	a0,s4,32
    4aa2:	c20fe0ef          	jal	ra,2ec2 <rt_kprintf>
    4aa6:	b7dd                	j	4a8c <finsh_thread_entry+0x29e>
F:\SCHOOL\文件\智能车\全向组\RTTThreadCH32V103\camCoreWithRTOS\obj/../Libraries/rtthread_libraries/components/finsh/shell.c:729
        if (shell->line_curpos < shell->line_position)
    4aa8:	0787d603          	lhu	a2,120(a5)
    4aac:	dee676e3          	bgeu	a2,a4,4898 <finsh_thread_entry+0xaa>
F:\SCHOOL\文件\智能车\全向组\RTTThreadCH32V103\camCoreWithRTOS\obj/../Libraries/rtthread_libraries/components/finsh/shell.c:734
                       &shell->line[shell->line_curpos],
    4ab0:	02560593          	addi	a1,a2,37
F:\SCHOOL\文件\智能车\全向组\RTTThreadCH32V103\camCoreWithRTOS\obj/../Libraries/rtthread_libraries/components/finsh/shell.c:733
            rt_memmove(&shell->line[shell->line_curpos + 1],
    4ab4:	02660513          	addi	a0,a2,38
    4ab8:	40c70633          	sub	a2,a4,a2
    4abc:	95be                	add	a1,a1,a5
    4abe:	953e                	add	a0,a0,a5
    4ac0:	fabfd0ef          	jal	ra,2a6a <rt_memmove>
F:\SCHOOL\文件\智能车\全向组\RTTThreadCH32V103\camCoreWithRTOS\obj/../Libraries/rtthread_libraries/components/finsh/shell.c:736
            shell->line[shell->line_curpos] = ch;
    4ac4:	8b01a583          	lw	a1,-1872(gp) # 20000160 <shell>
    4ac8:	0785d683          	lhu	a3,120(a1)
    4acc:	00d58733          	add	a4,a1,a3
    4ad0:	028702a3          	sb	s0,37(a4)
F:\SCHOOL\文件\智能车\全向组\RTTThreadCH32V103\camCoreWithRTOS\obj/../Libraries/rtthread_libraries/components/finsh/shell.c:737
            if (shell->echo_mode)
    4ad4:	0245c703          	lbu	a4,36(a1)
    4ad8:	8b05                	andi	a4,a4,1
    4ada:	e70d                	bnez	a4,4b04 <finsh_thread_entry+0x316>
F:\SCHOOL\文件\智能车\全向组\RTTThreadCH32V103\camCoreWithRTOS\obj/../Libraries/rtthread_libraries/components/finsh/shell.c:741
            for (i = shell->line_curpos; i < shell->line_position; i++)
    4adc:	8b01a783          	lw	a5,-1872(gp) # 20000160 <shell>
    4ae0:	0787d403          	lhu	s0,120(a5)
    4ae4:	0767d783          	lhu	a5,118(a5)
    4ae8:	dcf450e3          	bge	s0,a5,48a8 <finsh_thread_entry+0xba>
F:\SCHOOL\文件\智能车\全向组\RTTThreadCH32V103\camCoreWithRTOS\obj/../Libraries/rtthread_libraries/components/finsh/shell.c:742 (discriminator 3)
                rt_kprintf("\b");
    4aec:	36c90513          	addi	a0,s2,876
    4af0:	bd2fe0ef          	jal	ra,2ec2 <rt_kprintf>
F:\SCHOOL\文件\智能车\全向组\RTTThreadCH32V103\camCoreWithRTOS\obj/../Libraries/rtthread_libraries/components/finsh/shell.c:741 (discriminator 3)
            for (i = shell->line_curpos; i < shell->line_position; i++)
    4af4:	0405                	addi	s0,s0,1
    4af6:	8b01a783          	lw	a5,-1872(gp) # 20000160 <shell>
    4afa:	0767d783          	lhu	a5,118(a5)
    4afe:	fef447e3          	blt	s0,a5,4aec <finsh_thread_entry+0x2fe>
    4b02:	b35d                	j	48a8 <finsh_thread_entry+0xba>
F:\SCHOOL\文件\智能车\全向组\RTTThreadCH32V103\camCoreWithRTOS\obj/../Libraries/rtthread_libraries/components/finsh/shell.c:738
                rt_kprintf("%s", &shell->line[shell->line_curpos]);
    4b04:	02568693          	addi	a3,a3,37
    4b08:	95b6                	add	a1,a1,a3
    4b0a:	2b8c0513          	addi	a0,s8,696 # 72b8 <__fsym_list_timer_name+0x2b4>
    4b0e:	bb4fe0ef          	jal	ra,2ec2 <rt_kprintf>
    4b12:	b7e9                	j	4adc <finsh_thread_entry+0x2ee>
F:\SCHOOL\文件\智能车\全向组\RTTThreadCH32V103\camCoreWithRTOS\obj/../Libraries/rtthread_libraries/components/finsh/shell.c:748
                rt_kprintf("%c", ch);
    4b14:	370a8513          	addi	a0,s5,880
    4b18:	baafe0ef          	jal	ra,2ec2 <rt_kprintf>
    4b1c:	b371                	j	48a8 <finsh_thread_entry+0xba>

00004b1e <rt_heap_begin_get>:
rt_heap_begin_get():
F:\SCHOOL\文件\智能车\全向组\RTTThreadCH32V103\camCoreWithRTOS\obj/../Libraries/board/board.c:56
#if defined(RT_USING_USER_MAIN) && defined(RT_USING_HEAP)
#define RT_HEAP_SIZE 1624
static uint32_t rt_heap[RT_HEAP_SIZE];     // heap default size: 4K(1024 * 4)
RT_WEAK void *rt_heap_begin_get(void)
{
    return rt_heap;
    4b1e:	20000537          	lui	a0,0x20000
F:\SCHOOL\文件\智能车\全向组\RTTThreadCH32V103\camCoreWithRTOS\obj/../Libraries/board/board.c:57
}
    4b22:	66050513          	addi	a0,a0,1632 # 20000660 <rt_heap>
    4b26:	8082                	ret

00004b28 <rt_heap_end_get>:
rt_heap_end_get():
F:\SCHOOL\文件\智能车\全向组\RTTThreadCH32V103\camCoreWithRTOS\obj/../Libraries/board/board.c:61

RT_WEAK void *rt_heap_end_get(void)
{
    return rt_heap + RT_HEAP_SIZE;
    4b28:	20002537          	lui	a0,0x20002
F:\SCHOOL\文件\智能车\全向组\RTTThreadCH32V103\camCoreWithRTOS\obj/../Libraries/board/board.c:62
}
    4b2c:	fc050513          	addi	a0,a0,-64 # 20001fc0 <temp_buff>
    4b30:	8082                	ret

00004b32 <SysTick_Handler>:
SysTick_Handler():
F:\SCHOOL\文件\智能车\全向组\RTTThreadCH32V103\camCoreWithRTOS\obj/../Libraries/board/board.c:96
}


__attribute__((interrupt()))
void SysTick_Handler(void)
{
    4b32:	7139                	addi	sp,sp,-64
    4b34:	de06                	sw	ra,60(sp)
    4b36:	dc16                	sw	t0,56(sp)
    4b38:	da1a                	sw	t1,52(sp)
    4b3a:	d81e                	sw	t2,48(sp)
    4b3c:	d62a                	sw	a0,44(sp)
    4b3e:	d42e                	sw	a1,40(sp)
    4b40:	d232                	sw	a2,36(sp)
    4b42:	d036                	sw	a3,32(sp)
    4b44:	ce3a                	sw	a4,28(sp)
    4b46:	cc3e                	sw	a5,24(sp)
    4b48:	ca42                	sw	a6,20(sp)
    4b4a:	c846                	sw	a7,16(sp)
    4b4c:	c672                	sw	t3,12(sp)
    4b4e:	c476                	sw	t4,8(sp)
    4b50:	c27a                	sw	t5,4(sp)
    4b52:	c07e                	sw	t6,0(sp)
F:\SCHOOL\文件\智能车\全向组\RTTThreadCH32V103\camCoreWithRTOS\obj/../Libraries/board/board.c:98
    //进入中断
    rt_interrupt_enter();
    4b54:	c8bfd0ef          	jal	ra,27de <rt_interrupt_enter>
F:\SCHOOL\文件\智能车\全向组\RTTThreadCH32V103\camCoreWithRTOS\obj/../Libraries/board/board.c:101

    //需要手动清除CNT的值
    SysTick->CNTL0 = 0;
    4b58:	e000f7b7          	lui	a5,0xe000f
    4b5c:	00078223          	sb	zero,4(a5) # e000f004 <_eusrstack+0xc000a004>
F:\SCHOOL\文件\智能车\全向组\RTTThreadCH32V103\camCoreWithRTOS\obj/../Libraries/board/board.c:102
    SysTick->CNTL1 = 0;
    4b60:	000782a3          	sb	zero,5(a5)
F:\SCHOOL\文件\智能车\全向组\RTTThreadCH32V103\camCoreWithRTOS\obj/../Libraries/board/board.c:103
    SysTick->CNTL2 = 0;
    4b64:	00078323          	sb	zero,6(a5)
F:\SCHOOL\文件\智能车\全向组\RTTThreadCH32V103\camCoreWithRTOS\obj/../Libraries/board/board.c:104
    SysTick->CNTL3 = 0;
    4b68:	000783a3          	sb	zero,7(a5)
F:\SCHOOL\文件\智能车\全向组\RTTThreadCH32V103\camCoreWithRTOS\obj/../Libraries/board/board.c:105
    SysTick->CNTH0 = 0;
    4b6c:	00078423          	sb	zero,8(a5)
F:\SCHOOL\文件\智能车\全向组\RTTThreadCH32V103\camCoreWithRTOS\obj/../Libraries/board/board.c:106
    SysTick->CNTH1 = 0;
    4b70:	000784a3          	sb	zero,9(a5)
F:\SCHOOL\文件\智能车\全向组\RTTThreadCH32V103\camCoreWithRTOS\obj/../Libraries/board/board.c:107
    SysTick->CNTH2 = 0;
    4b74:	00078523          	sb	zero,10(a5)
F:\SCHOOL\文件\智能车\全向组\RTTThreadCH32V103\camCoreWithRTOS\obj/../Libraries/board/board.c:108
    SysTick->CNTH3 = 0;
    4b78:	000785a3          	sb	zero,11(a5)
F:\SCHOOL\文件\智能车\全向组\RTTThreadCH32V103\camCoreWithRTOS\obj/../Libraries/board/board.c:110

    rt_tick_increase();
    4b7c:	ceafd0ef          	jal	ra,2066 <rt_tick_increase>
F:\SCHOOL\文件\智能车\全向组\RTTThreadCH32V103\camCoreWithRTOS\obj/../Libraries/board/board.c:113

    //退出中断
    rt_interrupt_leave();
    4b80:	c83fd0ef          	jal	ra,2802 <rt_interrupt_leave>
F:\SCHOOL\文件\智能车\全向组\RTTThreadCH32V103\camCoreWithRTOS\obj/../Libraries/board/board.c:114
}
    4b84:	50f2                	lw	ra,60(sp)
    4b86:	52e2                	lw	t0,56(sp)
    4b88:	5352                	lw	t1,52(sp)
    4b8a:	53c2                	lw	t2,48(sp)
    4b8c:	5532                	lw	a0,44(sp)
    4b8e:	55a2                	lw	a1,40(sp)
    4b90:	5612                	lw	a2,36(sp)
    4b92:	5682                	lw	a3,32(sp)
    4b94:	4772                	lw	a4,28(sp)
    4b96:	47e2                	lw	a5,24(sp)
    4b98:	4852                	lw	a6,20(sp)
    4b9a:	48c2                	lw	a7,16(sp)
    4b9c:	4e32                	lw	t3,12(sp)
    4b9e:	4ea2                	lw	t4,8(sp)
    4ba0:	4f12                	lw	t5,4(sp)
    4ba2:	4f82                	lw	t6,0(sp)
    4ba4:	6121                	addi	sp,sp,64
    4ba6:	30200073          	mret

00004baa <board_init>:
board_init():
F:\SCHOOL\文件\智能车\全向组\RTTThreadCH32V103\camCoreWithRTOS\obj/../Libraries/board/board.c:118


void board_init(void)
{
    4baa:	1141                	addi	sp,sp,-16
    4bac:	c606                	sw	ra,12(sp)
F:\SCHOOL\文件\智能车\全向组\RTTThreadCH32V103\camCoreWithRTOS\obj/../Libraries/board/board.c:120
    //获取系统主频
    sys_clk = 8000000 * (((RCC->CFGR0 >> 18)&0x0F) + 2);
    4bae:	400217b7          	lui	a5,0x40021
    4bb2:	43dc                	lw	a5,4(a5)
    4bb4:	83c9                	srli	a5,a5,0x12
    4bb6:	8bbd                	andi	a5,a5,15
    4bb8:	007a1737          	lui	a4,0x7a1
    4bbc:	20070713          	addi	a4,a4,512 # 7a1200 <_data_lma+0x799cb8>
    4bc0:	02e787b3          	mul	a5,a5,a4
    4bc4:	00f42737          	lui	a4,0xf42
    4bc8:	40070713          	addi	a4,a4,1024 # f42400 <_data_lma+0xf3aeb8>
    4bcc:	97ba                	add	a5,a5,a4
    4bce:	84f1a423          	sw	a5,-1976(gp) # 200000f8 <sys_clk>
F:\SCHOOL\文件\智能车\全向组\RTTThreadCH32V103\camCoreWithRTOS\obj/../Libraries/board/board.c:122
    //初始化DEBUG串口
    uart_init(DEBUG_UART, DEBUG_UART_BAUD, DEBUG_UART_TX_PIN, DEBUG_UART_RX_PIN);
    4bd2:	4685                	li	a3,1
    4bd4:	4601                	li	a2,0
    4bd6:	65f1                	lui	a1,0x1c
    4bd8:	20058593          	addi	a1,a1,512 # 1c200 <_data_lma+0x14cb8>
    4bdc:	4501                	li	a0,0
    4bde:	ae8fd0ef          	jal	ra,1ec6 <uart_init>
F:\SCHOOL\文件\智能车\全向组\RTTThreadCH32V103\camCoreWithRTOS\obj/../Libraries/board/board.c:124

    uart_rx_irq(DEBUG_UART, ENABLE);
    4be2:	4585                	li	a1,1
    4be4:	4501                	li	a0,0
    4be6:	bf8fd0ef          	jal	ra,1fde <uart_rx_irq>
F:\SCHOOL\文件\智能车\全向组\RTTThreadCH32V103\camCoreWithRTOS\obj/../Libraries/board/board.c:125
}
    4bea:	40b2                	lw	ra,12(sp)
    4bec:	0141                	addi	sp,sp,16
    4bee:	8082                	ret

00004bf0 <rt_hw_board_init>:
rt_hw_board_init():
F:\SCHOOL\文件\智能车\全向组\RTTThreadCH32V103\camCoreWithRTOS\obj/../Libraries/board/board.c:69
{
    4bf0:	1141                	addi	sp,sp,-16
    4bf2:	c606                	sw	ra,12(sp)
    4bf4:	c422                	sw	s0,8(sp)
    4bf6:	c226                	sw	s1,4(sp)
    4bf8:	c04a                	sw	s2,0(sp)
F:\SCHOOL\文件\智能车\全向组\RTTThreadCH32V103\camCoreWithRTOS\obj/../Libraries/board/board.c:71
    board_init();
    4bfa:	fb1ff0ef          	jal	ra,4baa <board_init>
F:\SCHOOL\文件\智能车\全向组\RTTThreadCH32V103\camCoreWithRTOS\obj/../Libraries/board/board.c:74
    systick_config(sys_clk / RT_TICK_PER_SECOND / 8);//systick频率等于HCLK/8  1ms 一次中断
    4bfe:	8481a703          	lw	a4,-1976(gp) # 200000f8 <sys_clk>
    4c02:	6789                	lui	a5,0x2
    4c04:	f4078793          	addi	a5,a5,-192 # 1f40 <uart_init+0x7a>
    4c08:	02f75733          	divu	a4,a4,a5
systick_config():
F:\SCHOOL\文件\智能车\全向组\RTTThreadCH32V103\camCoreWithRTOS\obj/../Libraries/board/board.c:23
    ticks -= 1;
    4c0c:	177d                	addi	a4,a4,-1
F:\SCHOOL\文件\智能车\全向组\RTTThreadCH32V103\camCoreWithRTOS\obj/../Libraries/board/board.c:25
    SysTick->CNTL0 = 0;
    4c0e:	e000f7b7          	lui	a5,0xe000f
    4c12:	00078223          	sb	zero,4(a5) # e000f004 <_eusrstack+0xc000a004>
F:\SCHOOL\文件\智能车\全向组\RTTThreadCH32V103\camCoreWithRTOS\obj/../Libraries/board/board.c:26
    SysTick->CNTL1 = 0;
    4c16:	000782a3          	sb	zero,5(a5)
F:\SCHOOL\文件\智能车\全向组\RTTThreadCH32V103\camCoreWithRTOS\obj/../Libraries/board/board.c:27
    SysTick->CNTL2 = 0;
    4c1a:	00078323          	sb	zero,6(a5)
F:\SCHOOL\文件\智能车\全向组\RTTThreadCH32V103\camCoreWithRTOS\obj/../Libraries/board/board.c:28
    SysTick->CNTL3 = 0;
    4c1e:	000783a3          	sb	zero,7(a5)
F:\SCHOOL\文件\智能车\全向组\RTTThreadCH32V103\camCoreWithRTOS\obj/../Libraries/board/board.c:30
    SysTick->CNTH0 = 0;
    4c22:	00078423          	sb	zero,8(a5)
F:\SCHOOL\文件\智能车\全向组\RTTThreadCH32V103\camCoreWithRTOS\obj/../Libraries/board/board.c:31
    SysTick->CNTH1 = 0;
    4c26:	000784a3          	sb	zero,9(a5)
F:\SCHOOL\文件\智能车\全向组\RTTThreadCH32V103\camCoreWithRTOS\obj/../Libraries/board/board.c:32
    SysTick->CNTH2 = 0;
    4c2a:	00078523          	sb	zero,10(a5)
F:\SCHOOL\文件\智能车\全向组\RTTThreadCH32V103\camCoreWithRTOS\obj/../Libraries/board/board.c:33
    SysTick->CNTH3 = 0;
    4c2e:	000785a3          	sb	zero,11(a5)
F:\SCHOOL\文件\智能车\全向组\RTTThreadCH32V103\camCoreWithRTOS\obj/../Libraries/board/board.c:35
    SysTick->CMPLR0 = (ticks >>  0) & 0xff;
    4c32:	0ff77693          	andi	a3,a4,255
    4c36:	00d78623          	sb	a3,12(a5)
F:\SCHOOL\文件\智能车\全向组\RTTThreadCH32V103\camCoreWithRTOS\obj/../Libraries/board/board.c:36
    SysTick->CMPLR1 = (ticks >>  8) & 0xff;
    4c3a:	00875693          	srli	a3,a4,0x8
    4c3e:	0ff6f693          	andi	a3,a3,255
    4c42:	00d786a3          	sb	a3,13(a5)
F:\SCHOOL\文件\智能车\全向组\RTTThreadCH32V103\camCoreWithRTOS\obj/../Libraries/board/board.c:37
    SysTick->CMPLR2 = (ticks >> 16) & 0xff;
    4c46:	01075693          	srli	a3,a4,0x10
    4c4a:	0ff6f693          	andi	a3,a3,255
    4c4e:	00d78723          	sb	a3,14(a5)
F:\SCHOOL\文件\智能车\全向组\RTTThreadCH32V103\camCoreWithRTOS\obj/../Libraries/board/board.c:38
    SysTick->CMPLR3 = (ticks >> 24) & 0xff;
    4c52:	8361                	srli	a4,a4,0x18
    4c54:	00e787a3          	sb	a4,15(a5)
F:\SCHOOL\文件\智能车\全向组\RTTThreadCH32V103\camCoreWithRTOS\obj/../Libraries/board/board.c:40
    SysTick->CMPHR0 = 0;
    4c58:	00078823          	sb	zero,16(a5)
F:\SCHOOL\文件\智能车\全向组\RTTThreadCH32V103\camCoreWithRTOS\obj/../Libraries/board/board.c:41
    SysTick->CMPHR1 = 0;
    4c5c:	000788a3          	sb	zero,17(a5)
F:\SCHOOL\文件\智能车\全向组\RTTThreadCH32V103\camCoreWithRTOS\obj/../Libraries/board/board.c:42
    SysTick->CMPHR2 = 0;
    4c60:	00078923          	sb	zero,18(a5)
F:\SCHOOL\文件\智能车\全向组\RTTThreadCH32V103\camCoreWithRTOS\obj/../Libraries/board/board.c:43
    SysTick->CMPHR3 = 0;
    4c64:	000789a3          	sb	zero,19(a5)
NVIC_SetPriority():
F:\SCHOOL\文件\智能车\全向组\RTTThreadCH32V103\camCoreWithRTOS\obj/../Libraries/wch_libraries/Core/core_riscv.h:209
  NVIC->IPRIOR[(uint32_t)(IRQn)] = priority;
    4c68:	e000e437          	lui	s0,0xe000e
    4c6c:	54fd                	li	s1,-1
    4c6e:	40940623          	sb	s1,1036(s0) # e000e40c <_eusrstack+0xc000940c>
NVIC_EnableIRQ():
F:\SCHOOL\文件\智能车\全向组\RTTThreadCH32V103\camCoreWithRTOS\obj/../Libraries/wch_libraries/Core/core_riscv.h:127
  NVIC->IENR[((uint32_t)(IRQn) >> 5)] = (1 << ((uint32_t)(IRQn) & 0x1F));
    4c72:	6705                	lui	a4,0x1
    4c74:	10e42023          	sw	a4,256(s0)
systick_config():
F:\SCHOOL\文件\智能车\全向组\RTTThreadCH32V103\camCoreWithRTOS\obj/../Libraries/board/board.c:47
    SysTick->CTLR = 1;
    4c78:	4705                	li	a4,1
    4c7a:	c398                	sw	a4,0(a5)
rt_hw_board_init():
F:\SCHOOL\文件\智能车\全向组\RTTThreadCH32V103\camCoreWithRTOS\obj/../Libraries/board/board.c:78
    rt_components_board_init(); //初始化
    4c7c:	c50fd0ef          	jal	ra,20cc <rt_components_board_init>
F:\SCHOOL\文件\智能车\全向组\RTTThreadCH32V103\camCoreWithRTOS\obj/../Libraries/board/board.c:82
    rt_system_heap_init(rt_heap_begin_get(), rt_heap_end_get());//动态内存
    4c80:	e9fff0ef          	jal	ra,4b1e <rt_heap_begin_get>
    4c84:	892a                	mv	s2,a0
    4c86:	ea3ff0ef          	jal	ra,4b28 <rt_heap_end_get>
    4c8a:	85aa                	mv	a1,a0
    4c8c:	854a                	mv	a0,s2
    4c8e:	baafe0ef          	jal	ra,3038 <rt_system_heap_init>
F:\SCHOOL\文件\智能车\全向组\RTTThreadCH32V103\camCoreWithRTOS\obj/../Libraries/board/board.c:85
    uart_mb = rt_mb_create("uart_mb", 10, RT_IPC_FLAG_FIFO);//创建了一个邮箱
    4c92:	4601                	li	a2,0
    4c94:	45a9                	li	a1,10
    4c96:	00007537          	lui	a0,0x7
    4c9a:	38850513          	addi	a0,a0,904 # 7388 <__fsym___cmd_ps_name+0xb0>
    4c9e:	f86fd0ef          	jal	ra,2424 <rt_mb_create>
    4ca2:	8aa1aa23          	sw	a0,-1868(gp) # 20000164 <uart_mb>
NVIC_EnableIRQ():
F:\SCHOOL\文件\智能车\全向组\RTTThreadCH32V103\camCoreWithRTOS\obj/../Libraries/wch_libraries/Core/core_riscv.h:127
    4ca6:	6791                	lui	a5,0x4
    4ca8:	10f42023          	sw	a5,256(s0)
NVIC_SetPriority():
F:\SCHOOL\文件\智能车\全向组\RTTThreadCH32V103\camCoreWithRTOS\obj/../Libraries/wch_libraries/Core/core_riscv.h:209
  NVIC->IPRIOR[(uint32_t)(IRQn)] = priority;
    4cac:	40940723          	sb	s1,1038(s0)
rt_hw_board_init():
F:\SCHOOL\文件\智能车\全向组\RTTThreadCH32V103\camCoreWithRTOS\obj/../Libraries/board/board.c:91
}
    4cb0:	40b2                	lw	ra,12(sp)
    4cb2:	4422                	lw	s0,8(sp)
    4cb4:	4492                	lw	s1,4(sp)
    4cb6:	4902                	lw	s2,0(sp)
    4cb8:	0141                	addi	sp,sp,16
    4cba:	8082                	ret

00004cbc <_write>:
_write():
F:\SCHOOL\文件\智能车\全向组\RTTThreadCH32V103\camCoreWithRTOS\obj/../Libraries/board/board.c:136
//  @since      v1.0
//  Sample usage:              重定向printf到DEBUG串口上
//-------------------------------------------------------------------------------------------------------------------
#if (1 == PRINTF_ENABLE)
int _write(int fd, char *buf, int size)
{
    4cbc:	1101                	addi	sp,sp,-32
    4cbe:	ce06                	sw	ra,28(sp)
    4cc0:	cc22                	sw	s0,24(sp)
    4cc2:	ca26                	sw	s1,20(sp)
    4cc4:	c84a                	sw	s2,16(sp)
    4cc6:	c64e                	sw	s3,12(sp)
    4cc8:	89b2                	mv	s3,a2
F:\SCHOOL\文件\智能车\全向组\RTTThreadCH32V103\camCoreWithRTOS\obj/../Libraries/board/board.c:138
    int i;
    for(i=0; i<size; i++)
    4cca:	02c05863          	blez	a2,4cfa <_write+0x3e>
    4cce:	84ae                	mv	s1,a1
    4cd0:	00c58933          	add	s2,a1,a2
F:\SCHOOL\文件\智能车\全向组\RTTThreadCH32V103\camCoreWithRTOS\obj/../Libraries/board/board.c:140
    {
        while (USART_GetFlagStatus((USART_TypeDef*)UARTN[DEBUG_UART], USART_FLAG_TC) == RESET);
    4cd4:	679d                	lui	a5,0x7
    4cd6:	b747a403          	lw	s0,-1164(a5) # 6b74 <UARTN>
F:\SCHOOL\文件\智能车\全向组\RTTThreadCH32V103\camCoreWithRTOS\obj/../Libraries/board/board.c:140 (discriminator 1)
    4cda:	04000593          	li	a1,64
    4cde:	8522                	mv	a0,s0
    4ce0:	8b5fc0ef          	jal	ra,1594 <USART_GetFlagStatus>
    4ce4:	d97d                	beqz	a0,4cda <_write+0x1e>
F:\SCHOOL\文件\智能车\全向组\RTTThreadCH32V103\camCoreWithRTOS\obj/../Libraries/board/board.c:141 (discriminator 2)
        USART_SendData((USART_TypeDef*)UARTN[DEBUG_UART], *buf++);
    4ce6:	0485                	addi	s1,s1,1
    4ce8:	fff48583          	lb	a1,-1(s1)
    4cec:	05c2                	slli	a1,a1,0x10
    4cee:	81c1                	srli	a1,a1,0x10
    4cf0:	8522                	mv	a0,s0
    4cf2:	899fc0ef          	jal	ra,158a <USART_SendData>
F:\SCHOOL\文件\智能车\全向组\RTTThreadCH32V103\camCoreWithRTOS\obj/../Libraries/board/board.c:138 (discriminator 2)
    for(i=0; i<size; i++)
    4cf6:	fe9912e3          	bne	s2,s1,4cda <_write+0x1e>
F:\SCHOOL\文件\智能车\全向组\RTTThreadCH32V103\camCoreWithRTOS\obj/../Libraries/board/board.c:144
    }
    return size;
}
    4cfa:	854e                	mv	a0,s3
    4cfc:	40f2                	lw	ra,28(sp)
    4cfe:	4462                	lw	s0,24(sp)
    4d00:	44d2                	lw	s1,20(sp)
    4d02:	4942                	lw	s2,16(sp)
    4d04:	49b2                	lw	s3,12(sp)
    4d06:	6105                	addi	sp,sp,32
    4d08:	8082                	ret

00004d0a <rt_hw_console_output>:
rt_hw_console_output():
F:\SCHOOL\文件\智能车\全向组\RTTThreadCH32V103\camCoreWithRTOS\obj/../Libraries/board/board.c:149
#endif

void rt_hw_console_output(const char *str)
{
    while(RT_NULL != *str)
    4d0a:	00050783          	lb	a5,0(a0)
    4d0e:	cf8d                	beqz	a5,4d48 <rt_hw_console_output+0x3e>
F:\SCHOOL\文件\智能车\全向组\RTTThreadCH32V103\camCoreWithRTOS\obj/../Libraries/board/board.c:148
{
    4d10:	1141                	addi	sp,sp,-16
    4d12:	c606                	sw	ra,12(sp)
    4d14:	c422                	sw	s0,8(sp)
    4d16:	c226                	sw	s1,4(sp)
    4d18:	842a                	mv	s0,a0
F:\SCHOOL\文件\智能车\全向组\RTTThreadCH32V103\camCoreWithRTOS\obj/../Libraries/board/board.c:151
    {
        if('\n' == *str)
    4d1a:	44a9                	li	s1,10
    4d1c:	a831                	j	4d38 <rt_hw_console_output+0x2e>
F:\SCHOOL\文件\智能车\全向组\RTTThreadCH32V103\camCoreWithRTOS\obj/../Libraries/board/board.c:153
        {
            uart_putchar(DEBUG_UART, '\r');
    4d1e:	45b5                	li	a1,13
    4d20:	4501                	li	a0,0
    4d22:	a6cfd0ef          	jal	ra,1f8e <uart_putchar>
F:\SCHOOL\文件\智能车\全向组\RTTThreadCH32V103\camCoreWithRTOS\obj/../Libraries/board/board.c:155
        }
        uart_putchar(DEBUG_UART, *str++);
    4d26:	0405                	addi	s0,s0,1
    4d28:	fff44583          	lbu	a1,-1(s0)
    4d2c:	4501                	li	a0,0
    4d2e:	a60fd0ef          	jal	ra,1f8e <uart_putchar>
F:\SCHOOL\文件\智能车\全向组\RTTThreadCH32V103\camCoreWithRTOS\obj/../Libraries/board/board.c:149
    while(RT_NULL != *str)
    4d32:	00040783          	lb	a5,0(s0)
    4d36:	c781                	beqz	a5,4d3e <rt_hw_console_output+0x34>
F:\SCHOOL\文件\智能车\全向组\RTTThreadCH32V103\camCoreWithRTOS\obj/../Libraries/board/board.c:151
        if('\n' == *str)
    4d38:	fe9797e3          	bne	a5,s1,4d26 <rt_hw_console_output+0x1c>
    4d3c:	b7cd                	j	4d1e <rt_hw_console_output+0x14>
F:\SCHOOL\文件\智能车\全向组\RTTThreadCH32V103\camCoreWithRTOS\obj/../Libraries/board/board.c:157
    }
}
    4d3e:	40b2                	lw	ra,12(sp)
    4d40:	4422                	lw	s0,8(sp)
    4d42:	4492                	lw	s1,4(sp)
    4d44:	0141                	addi	sp,sp,16
    4d46:	8082                	ret
    4d48:	8082                	ret

00004d4a <rt_hw_console_getchar>:
rt_hw_console_getchar():
F:\SCHOOL\文件\智能车\全向组\RTTThreadCH32V103\camCoreWithRTOS\obj/../Libraries/board/board.c:160

char rt_hw_console_getchar(void) //串口接收
{
    4d4a:	1101                	addi	sp,sp,-32
    4d4c:	ce06                	sw	ra,28(sp)
F:\SCHOOL\文件\智能车\全向组\RTTThreadCH32V103\camCoreWithRTOS\obj/../Libraries/board/board.c:162
    uint32 dat;
    rt_mb_recv(uart_mb, &dat, RT_WAITING_FOREVER);//当没有接收数据的时候会去做其他事情 释放性能
    4d4e:	567d                	li	a2,-1
    4d50:	006c                	addi	a1,sp,12
    4d52:	8b41a503          	lw	a0,-1868(gp) # 20000164 <uart_mb>
    4d56:	8e7fd0ef          	jal	ra,263c <rt_mb_recv>
F:\SCHOOL\文件\智能车\全向组\RTTThreadCH32V103\camCoreWithRTOS\obj/../Libraries/board/board.c:165
    //uart_getchar(DEBUG_UART, &dat);
    return (char)dat;
}
    4d5a:	00c10503          	lb	a0,12(sp)
    4d5e:	40f2                	lw	ra,28(sp)
    4d60:	6105                	addi	sp,sp,32
    4d62:	8082                	ret

00004d64 <USART1_IRQHandler>:
USART1_IRQHandler():
F:\SCHOOL\文件\智能车\全向组\RTTThreadCH32V103\camCoreWithRTOS\obj/../Libraries/board/board.c:170


void USART1_IRQHandler(void) __attribute__((interrupt()));
void USART1_IRQHandler(void)
{
    4d64:	715d                	addi	sp,sp,-80
    4d66:	c686                	sw	ra,76(sp)
    4d68:	c496                	sw	t0,72(sp)
    4d6a:	c29a                	sw	t1,68(sp)
    4d6c:	c09e                	sw	t2,64(sp)
    4d6e:	de2a                	sw	a0,60(sp)
    4d70:	dc2e                	sw	a1,56(sp)
    4d72:	da32                	sw	a2,52(sp)
    4d74:	d836                	sw	a3,48(sp)
    4d76:	d63a                	sw	a4,44(sp)
    4d78:	d43e                	sw	a5,40(sp)
    4d7a:	d242                	sw	a6,36(sp)
    4d7c:	d046                	sw	a7,32(sp)
    4d7e:	ce72                	sw	t3,28(sp)
    4d80:	cc76                	sw	t4,24(sp)
    4d82:	ca7a                	sw	t5,20(sp)
    4d84:	c87e                	sw	t6,16(sp)
F:\SCHOOL\文件\智能车\全向组\RTTThreadCH32V103\camCoreWithRTOS\obj/../Libraries/board/board.c:173
    uint8 dat;

    rt_interrupt_enter();       //进入中断
    4d86:	a59fd0ef          	jal	ra,27de <rt_interrupt_enter>
F:\SCHOOL\文件\智能车\全向组\RTTThreadCH32V103\camCoreWithRTOS\obj/../Libraries/board/board.c:175

    if(USART_GetITStatus(USART1, USART_IT_RXNE) != RESET)
    4d8a:	52500593          	li	a1,1317
    4d8e:	40014537          	lui	a0,0x40014
    4d92:	80050513          	addi	a0,a0,-2048 # 40013800 <_eusrstack+0x2000e800>
    4d96:	80bfc0ef          	jal	ra,15a0 <USART_GetITStatus>
    4d9a:	e515                	bnez	a0,4dc6 <USART1_IRQHandler+0x62>
F:\SCHOOL\文件\智能车\全向组\RTTThreadCH32V103\camCoreWithRTOS\obj/../Libraries/board/board.c:181
    {
        uart_getchar(DEBUG_UART, &dat);
        rt_mb_send(uart_mb, dat);           // 发送邮件
    }

    rt_interrupt_leave();       //退出中断
    4d9c:	a67fd0ef          	jal	ra,2802 <rt_interrupt_leave>
F:\SCHOOL\文件\智能车\全向组\RTTThreadCH32V103\camCoreWithRTOS\obj/../Libraries/board/board.c:182
}
    4da0:	40b6                	lw	ra,76(sp)
    4da2:	42a6                	lw	t0,72(sp)
    4da4:	4316                	lw	t1,68(sp)
    4da6:	4386                	lw	t2,64(sp)
    4da8:	5572                	lw	a0,60(sp)
    4daa:	55e2                	lw	a1,56(sp)
    4dac:	5652                	lw	a2,52(sp)
    4dae:	56c2                	lw	a3,48(sp)
    4db0:	5732                	lw	a4,44(sp)
    4db2:	57a2                	lw	a5,40(sp)
    4db4:	5812                	lw	a6,36(sp)
    4db6:	5882                	lw	a7,32(sp)
    4db8:	4e72                	lw	t3,28(sp)
    4dba:	4ee2                	lw	t4,24(sp)
    4dbc:	4f52                	lw	t5,20(sp)
    4dbe:	4fc2                	lw	t6,16(sp)
    4dc0:	6161                	addi	sp,sp,80
    4dc2:	30200073          	mret
F:\SCHOOL\文件\智能车\全向组\RTTThreadCH32V103\camCoreWithRTOS\obj/../Libraries/board/board.c:177
        uart_getchar(DEBUG_UART, &dat);
    4dc6:	00f10593          	addi	a1,sp,15
    4dca:	4501                	li	a0,0
    4dcc:	a4efd0ef          	jal	ra,201a <uart_getchar>
F:\SCHOOL\文件\智能车\全向组\RTTThreadCH32V103\camCoreWithRTOS\obj/../Libraries/board/board.c:178
        rt_mb_send(uart_mb, dat);           // 发送邮件
    4dd0:	00f14583          	lbu	a1,15(sp)
    4dd4:	8b41a503          	lw	a0,-1868(gp) # 20000164 <uart_mb>
    4dd8:	857fd0ef          	jal	ra,262e <rt_mb_send>
    4ddc:	b7c1                	j	4d9c <USART1_IRQHandler+0x38>

00004dde <SystemInit>:
SystemInit():
F:\SCHOOL\文件\智能车\全向组\RTTThreadCH32V103\camCoreWithRTOS\obj/../Libraries/board/clock_config.c:84
*                  the PLL and update the SystemCoreClock variable.
* Input          : None
* Return         : None
*******************************************************************************************/
void SystemInit (void)
{
    4dde:	1141                	addi	sp,sp,-16
F:\SCHOOL\文件\智能车\全向组\RTTThreadCH32V103\camCoreWithRTOS\obj/../Libraries/board/clock_config.c:85
    RCC->CTLR |= (uint32_t)0x00000001;
    4de0:	400217b7          	lui	a5,0x40021
    4de4:	4398                	lw	a4,0(a5)
    4de6:	00176713          	ori	a4,a4,1
    4dea:	c398                	sw	a4,0(a5)
F:\SCHOOL\文件\智能车\全向组\RTTThreadCH32V103\camCoreWithRTOS\obj/../Libraries/board/clock_config.c:86
    RCC->CFGR0 &= (uint32_t)0xF8FF0000;
    4dec:	43d8                	lw	a4,4(a5)
    4dee:	f8ff06b7          	lui	a3,0xf8ff0
    4df2:	8f75                	and	a4,a4,a3
    4df4:	c3d8                	sw	a4,4(a5)
F:\SCHOOL\文件\智能车\全向组\RTTThreadCH32V103\camCoreWithRTOS\obj/../Libraries/board/clock_config.c:87
    RCC->CTLR &= (uint32_t)0xFEF6FFFF;
    4df6:	4398                	lw	a4,0(a5)
    4df8:	fef706b7          	lui	a3,0xfef70
    4dfc:	16fd                	addi	a3,a3,-1
    4dfe:	8f75                	and	a4,a4,a3
    4e00:	c398                	sw	a4,0(a5)
F:\SCHOOL\文件\智能车\全向组\RTTThreadCH32V103\camCoreWithRTOS\obj/../Libraries/board/clock_config.c:88
    RCC->CTLR &= (uint32_t)0xFFFBFFFF;
    4e02:	4398                	lw	a4,0(a5)
    4e04:	fffc06b7          	lui	a3,0xfffc0
    4e08:	16fd                	addi	a3,a3,-1
    4e0a:	8f75                	and	a4,a4,a3
    4e0c:	c398                	sw	a4,0(a5)
F:\SCHOOL\文件\智能车\全向组\RTTThreadCH32V103\camCoreWithRTOS\obj/../Libraries/board/clock_config.c:89
    RCC->CFGR0 &= (uint32_t)0xFF80FFFF;
    4e0e:	43d8                	lw	a4,4(a5)
    4e10:	ff8106b7          	lui	a3,0xff810
    4e14:	16fd                	addi	a3,a3,-1
    4e16:	8f75                	and	a4,a4,a3
    4e18:	c3d8                	sw	a4,4(a5)
F:\SCHOOL\文件\智能车\全向组\RTTThreadCH32V103\camCoreWithRTOS\obj/../Libraries/board/clock_config.c:90
    RCC->INTR = 0x009F0000;
    4e1a:	009f0737          	lui	a4,0x9f0
    4e1e:	c798                	sw	a4,8(a5)
SetSysClock():
F:\SCHOOL\文件\智能车\全向组\RTTThreadCH32V103\camCoreWithRTOS\obj/../Libraries/board/clock_config.c:12
    __IO uint32_t StartUpCounter = 0, HSEStatus = 0;
    4e20:	c402                	sw	zero,8(sp)
    4e22:	c602                	sw	zero,12(sp)
F:\SCHOOL\文件\智能车\全向组\RTTThreadCH32V103\camCoreWithRTOS\obj/../Libraries/board/clock_config.c:14
    RCC->CTLR |= ((uint32_t)RCC_HSEON);
    4e24:	4398                	lw	a4,0(a5)
    4e26:	66c1                	lui	a3,0x10
    4e28:	8f55                	or	a4,a4,a3
    4e2a:	c398                	sw	a4,0(a5)
F:\SCHOOL\文件\智能车\全向组\RTTThreadCH32V103\camCoreWithRTOS\obj/../Libraries/board/clock_config.c:19
        HSEStatus = RCC->CTLR & RCC_HSERDY;
    4e2c:	40021637          	lui	a2,0x40021
    4e30:	000206b7          	lui	a3,0x20
F:\SCHOOL\文件\智能车\全向组\RTTThreadCH32V103\camCoreWithRTOS\obj/../Libraries/board/clock_config.c:21
    } while((HSEStatus == 0) && (StartUpCounter != HSE_STARTUP_TIMEOUT));
    4e34:	50000713          	li	a4,1280
F:\SCHOOL\文件\智能车\全向组\RTTThreadCH32V103\camCoreWithRTOS\obj/../Libraries/board/clock_config.c:19
        HSEStatus = RCC->CTLR & RCC_HSERDY;
    4e38:	421c                	lw	a5,0(a2)
    4e3a:	8ff5                	and	a5,a5,a3
    4e3c:	c63e                	sw	a5,12(sp)
F:\SCHOOL\文件\智能车\全向组\RTTThreadCH32V103\camCoreWithRTOS\obj/../Libraries/board/clock_config.c:20
        StartUpCounter++;
    4e3e:	47a2                	lw	a5,8(sp)
    4e40:	0785                	addi	a5,a5,1
    4e42:	c43e                	sw	a5,8(sp)
F:\SCHOOL\文件\智能车\全向组\RTTThreadCH32V103\camCoreWithRTOS\obj/../Libraries/board/clock_config.c:21
    } while((HSEStatus == 0) && (StartUpCounter != HSE_STARTUP_TIMEOUT));
    4e44:	47b2                	lw	a5,12(sp)
    4e46:	e781                	bnez	a5,4e4e <SystemInit+0x70>
    4e48:	47a2                	lw	a5,8(sp)
    4e4a:	fee797e3          	bne	a5,a4,4e38 <SystemInit+0x5a>
F:\SCHOOL\文件\智能车\全向组\RTTThreadCH32V103\camCoreWithRTOS\obj/../Libraries/board/clock_config.c:23
    if ((RCC->CTLR & RCC_HSERDY) != RESET)
    4e4e:	400217b7          	lui	a5,0x40021
    4e52:	439c                	lw	a5,0(a5)
    4e54:	00e79713          	slli	a4,a5,0xe
    4e58:	02075063          	bgez	a4,4e78 <SystemInit+0x9a>
F:\SCHOOL\文件\智能车\全向组\RTTThreadCH32V103\camCoreWithRTOS\obj/../Libraries/board/clock_config.c:25
        HSEStatus = (uint32_t)0x01;
    4e5c:	4785                	li	a5,1
    4e5e:	c63e                	sw	a5,12(sp)
F:\SCHOOL\文件\智能车\全向组\RTTThreadCH32V103\camCoreWithRTOS\obj/../Libraries/board/clock_config.c:32
    if (HSEStatus == (uint32_t)0x01)
    4e60:	4732                	lw	a4,12(sp)
    4e62:	4785                	li	a5,1
    4e64:	00f70c63          	beq	a4,a5,4e7c <SystemInit+0x9e>
SystemInit():
F:\SCHOOL\文件\智能车\全向组\RTTThreadCH32V103\camCoreWithRTOS\obj/../Libraries/board/clock_config.c:92
    SetSysClock();
    PFIC->CFGR = 0xfa050001;
    4e68:	e000e737          	lui	a4,0xe000e
    4e6c:	fa0507b7          	lui	a5,0xfa050
    4e70:	0785                	addi	a5,a5,1
    4e72:	c73c                	sw	a5,72(a4)
F:\SCHOOL\文件\智能车\全向组\RTTThreadCH32V103\camCoreWithRTOS\obj/../Libraries/board/clock_config.c:93
}
    4e74:	0141                	addi	sp,sp,16
    4e76:	8082                	ret
SetSysClock():
F:\SCHOOL\文件\智能车\全向组\RTTThreadCH32V103\camCoreWithRTOS\obj/../Libraries/board/clock_config.c:29
        HSEStatus = (uint32_t)0x00;
    4e78:	c602                	sw	zero,12(sp)
    4e7a:	b7dd                	j	4e60 <SystemInit+0x82>
F:\SCHOOL\文件\智能车\全向组\RTTThreadCH32V103\camCoreWithRTOS\obj/../Libraries/board/clock_config.c:35
        FLASH->ACTLR |= FLASH_ACTLR_PRFTBE;
    4e7c:	400227b7          	lui	a5,0x40022
    4e80:	4398                	lw	a4,0(a5)
    4e82:	01076713          	ori	a4,a4,16
    4e86:	c398                	sw	a4,0(a5)
F:\SCHOOL\文件\智能车\全向组\RTTThreadCH32V103\camCoreWithRTOS\obj/../Libraries/board/clock_config.c:38
        FLASH->ACTLR &= (uint32_t)((uint32_t)~FLASH_ACTLR_LATENCY);
    4e88:	4398                	lw	a4,0(a5)
    4e8a:	9b71                	andi	a4,a4,-4
    4e8c:	c398                	sw	a4,0(a5)
F:\SCHOOL\文件\智能车\全向组\RTTThreadCH32V103\camCoreWithRTOS\obj/../Libraries/board/clock_config.c:39
        FLASH->ACTLR |= (uint32_t)FLASH_ACTLR_LATENCY_2;
    4e8e:	4398                	lw	a4,0(a5)
    4e90:	00276713          	ori	a4,a4,2
    4e94:	c398                	sw	a4,0(a5)
F:\SCHOOL\文件\智能车\全向组\RTTThreadCH32V103\camCoreWithRTOS\obj/../Libraries/board/clock_config.c:42
        RCC->CFGR0 |= (uint32_t)RCC_HPRE_DIV1;
    4e96:	400217b7          	lui	a5,0x40021
    4e9a:	43d8                	lw	a4,4(a5)
    4e9c:	c3d8                	sw	a4,4(a5)
F:\SCHOOL\文件\智能车\全向组\RTTThreadCH32V103\camCoreWithRTOS\obj/../Libraries/board/clock_config.c:44
        RCC->CFGR0 |= (uint32_t)RCC_PPRE2_DIV1;
    4e9e:	43d8                	lw	a4,4(a5)
    4ea0:	c3d8                	sw	a4,4(a5)
F:\SCHOOL\文件\智能车\全向组\RTTThreadCH32V103\camCoreWithRTOS\obj/../Libraries/board/clock_config.c:46
        RCC->CFGR0 |= (uint32_t)RCC_PPRE1_DIV1;
    4ea2:	43d8                	lw	a4,4(a5)
    4ea4:	c3d8                	sw	a4,4(a5)
F:\SCHOOL\文件\智能车\全向组\RTTThreadCH32V103\camCoreWithRTOS\obj/../Libraries/board/clock_config.c:49
        RCC->CFGR0 &= (uint32_t)((uint32_t)~(RCC_PLLSRC | RCC_PLLXTPRE |
    4ea6:	43d8                	lw	a4,4(a5)
    4ea8:	ffc106b7          	lui	a3,0xffc10
    4eac:	16fd                	addi	a3,a3,-1
    4eae:	8f75                	and	a4,a4,a3
    4eb0:	c3d8                	sw	a4,4(a5)
F:\SCHOOL\文件\智能车\全向组\RTTThreadCH32V103\camCoreWithRTOS\obj/../Libraries/board/clock_config.c:52
        RCC->CFGR0 |= (uint32_t)(RCC_PLLSRC_HSE | RCC_PLLMULL11);
    4eb2:	43d8                	lw	a4,4(a5)
    4eb4:	002506b7          	lui	a3,0x250
    4eb8:	8f55                	or	a4,a4,a3
    4eba:	c3d8                	sw	a4,4(a5)
F:\SCHOOL\文件\智能车\全向组\RTTThreadCH32V103\camCoreWithRTOS\obj/../Libraries/board/clock_config.c:54
        RCC->CTLR |= RCC_PLLON;
    4ebc:	4398                	lw	a4,0(a5)
    4ebe:	010006b7          	lui	a3,0x1000
    4ec2:	8f55                	or	a4,a4,a3
    4ec4:	c398                	sw	a4,0(a5)
F:\SCHOOL\文件\智能车\全向组\RTTThreadCH32V103\camCoreWithRTOS\obj/../Libraries/board/clock_config.c:56
        while((RCC->CTLR & RCC_PLLRDY) == 0)
    4ec6:	40021737          	lui	a4,0x40021
    4eca:	431c                	lw	a5,0(a4)
    4ecc:	00679693          	slli	a3,a5,0x6
    4ed0:	fe06dde3          	bgez	a3,4eca <SystemInit+0xec>
F:\SCHOOL\文件\智能车\全向组\RTTThreadCH32V103\camCoreWithRTOS\obj/../Libraries/board/clock_config.c:60
        RCC->CFGR0 &= (uint32_t)((uint32_t)~(RCC_SW));
    4ed4:	400217b7          	lui	a5,0x40021
    4ed8:	43d8                	lw	a4,4(a5)
    4eda:	9b71                	andi	a4,a4,-4
    4edc:	c3d8                	sw	a4,4(a5)
F:\SCHOOL\文件\智能车\全向组\RTTThreadCH32V103\camCoreWithRTOS\obj/../Libraries/board/clock_config.c:61
        RCC->CFGR0 |= (uint32_t)RCC_SW_PLL;
    4ede:	43d8                	lw	a4,4(a5)
    4ee0:	00276713          	ori	a4,a4,2
    4ee4:	c3d8                	sw	a4,4(a5)
F:\SCHOOL\文件\智能车\全向组\RTTThreadCH32V103\camCoreWithRTOS\obj/../Libraries/board/clock_config.c:63
        while ((RCC->CFGR0 & (uint32_t)RCC_SWS) != (uint32_t)0x08)
    4ee6:	400216b7          	lui	a3,0x40021
    4eea:	4721                	li	a4,8
    4eec:	42dc                	lw	a5,4(a3)
    4eee:	8bb1                	andi	a5,a5,12
    4ef0:	fee79ee3          	bne	a5,a4,4eec <SystemInit+0x10e>
    4ef4:	bf95                	j	4e68 <SystemInit+0x8a>

00004ef6 <encoder_init>:
encoder_init():
F:\SCHOOL\文件\智能车\全向组\RTTThreadCH32V103\camCoreWithRTOS\obj/../CODE/communication.c:19
int ABS(int x){
    return x>0?x:-x;
}

void encoder_init(void)
{
    4ef6:	1141                	addi	sp,sp,-16
    4ef8:	c606                	sw	ra,12(sp)
F:\SCHOOL\文件\智能车\全向组\RTTThreadCH32V103\camCoreWithRTOS\obj/../CODE/communication.c:20
    timer_quad_init(TIMER_2, TIMER2_CHA_A15, TIMER2_CHB_B3);
    4efa:	4615                	li	a2,5
    4efc:	4591                	li	a1,4
    4efe:	4505                	li	a0,1
    4f00:	dc7fc0ef          	jal	ra,1cc6 <timer_quad_init>
F:\SCHOOL\文件\智能车\全向组\RTTThreadCH32V103\camCoreWithRTOS\obj/../CODE/communication.c:21
    timer_quad_init(TIMER_3, TIMER3_CHA_B4, TIMER3_CHB_B5);
    4f04:	462d                	li	a2,11
    4f06:	45a9                	li	a1,10
    4f08:	4509                	li	a0,2
    4f0a:	dbdfc0ef          	jal	ra,1cc6 <timer_quad_init>
F:\SCHOOL\文件\智能车\全向组\RTTThreadCH32V103\camCoreWithRTOS\obj/../CODE/communication.c:22
}
    4f0e:	40b2                	lw	ra,12(sp)
    4f10:	0141                	addi	sp,sp,16
    4f12:	8082                	ret

00004f14 <get_sensor_data>:
get_sensor_data():
F:\SCHOOL\文件\智能车\全向组\RTTThreadCH32V103\camCoreWithRTOS\obj/../CODE/communication.c:25

void get_sensor_data(void)
{
    4f14:	1141                	addi	sp,sp,-16
    4f16:	c606                	sw	ra,12(sp)
F:\SCHOOL\文件\智能车\全向组\RTTThreadCH32V103\camCoreWithRTOS\obj/../CODE/communication.c:30
//    if(gpio_get(B5))
//        encoder_left_front = ABS(timer_quad_get(TIMER_3));
//    else
//        encoder_left_front = -ABS(timer_quad_get(TIMER_3));
    encoder_left_front = timer_quad_get(TIMER_3);
    4f18:	4509                	li	a0,2
    4f1a:	eb1fc0ef          	jal	ra,1dca <timer_quad_get>
    4f1e:	8aa19c23          	sh	a0,-1864(gp) # 20000168 <encoder_left_front>
F:\SCHOOL\文件\智能车\全向组\RTTThreadCH32V103\camCoreWithRTOS\obj/../CODE/communication.c:31
    timer_quad_clear(TIMER_3);                      //清空计数器
    4f22:	4509                	li	a0,2
    4f24:	ebdfc0ef          	jal	ra,1de0 <timer_quad_clear>
F:\SCHOOL\文件\智能车\全向组\RTTThreadCH32V103\camCoreWithRTOS\obj/../CODE/communication.c:38
    //读计数值
//    if(gpio_get(B3))
//        encoder_left_rear = -ABS(timer_quad_get(TIMER_2));
//    else
//        encoder_left_rear = ABS(timer_quad_get(TIMER_2));
    encoder_left_rear = timer_quad_get(TIMER_2);
    4f28:	4505                	li	a0,1
    4f2a:	ea1fc0ef          	jal	ra,1dca <timer_quad_get>
    4f2e:	8aa19d23          	sh	a0,-1862(gp) # 2000016a <encoder_left_rear>
F:\SCHOOL\文件\智能车\全向组\RTTThreadCH32V103\camCoreWithRTOS\obj/../CODE/communication.c:40
    //清空计数器
    timer_quad_clear(TIMER_2);
    4f32:	4505                	li	a0,1
    4f34:	eadfc0ef          	jal	ra,1de0 <timer_quad_clear>
F:\SCHOOL\文件\智能车\全向组\RTTThreadCH32V103\camCoreWithRTOS\obj/../CODE/communication.c:41
}
    4f38:	40b2                	lw	ra,12(sp)
    4f3a:	0141                	addi	sp,sp,16
    4f3c:	8082                	ret

00004f3e <process_data>:
process_data():
F:\SCHOOL\文件\智能车\全向组\RTTThreadCH32V103\camCoreWithRTOS\obj/../CODE/communication.c:45
int16 slave_position=10;
void process_data(void)
{
    temp_buff[0] = 0xD8;                         //帧头
    4f3e:	200027b7          	lui	a5,0x20002
    4f42:	fc078793          	addi	a5,a5,-64 # 20001fc0 <temp_buff>
    4f46:	fd800713          	li	a4,-40
    4f4a:	00e78023          	sb	a4,0(a5)
F:\SCHOOL\文件\智能车\全向组\RTTThreadCH32V103\camCoreWithRTOS\obj/../CODE/communication.c:47

    temp_buff[1] = 0xB0;                         //功能字
    4f4e:	fb000713          	li	a4,-80
    4f52:	00e780a3          	sb	a4,1(a5)
F:\SCHOOL\文件\智能车\全向组\RTTThreadCH32V103\camCoreWithRTOS\obj/../CODE/communication.c:48
    temp_buff[2] = encoder_left_front>>8;        //数据高8位
    4f56:	8b819703          	lh	a4,-1864(gp) # 20000168 <encoder_left_front>
    4f5a:	40875693          	srai	a3,a4,0x8
    4f5e:	00d78123          	sb	a3,2(a5)
F:\SCHOOL\文件\智能车\全向组\RTTThreadCH32V103\camCoreWithRTOS\obj/../CODE/communication.c:49
    temp_buff[3] = encoder_left_front&0xFF;      //数据低8位
    4f62:	00e781a3          	sb	a4,3(a5)
F:\SCHOOL\文件\智能车\全向组\RTTThreadCH32V103\camCoreWithRTOS\obj/../CODE/communication.c:51

    temp_buff[4] = 0xB1;                         //功能字
    4f66:	fb100713          	li	a4,-79
    4f6a:	00e78223          	sb	a4,4(a5)
F:\SCHOOL\文件\智能车\全向组\RTTThreadCH32V103\camCoreWithRTOS\obj/../CODE/communication.c:52
    temp_buff[5] = encoder_left_rear>>8;       //数据高8位
    4f6e:	8ba19703          	lh	a4,-1862(gp) # 2000016a <encoder_left_rear>
    4f72:	40875693          	srai	a3,a4,0x8
    4f76:	00d782a3          	sb	a3,5(a5)
F:\SCHOOL\文件\智能车\全向组\RTTThreadCH32V103\camCoreWithRTOS\obj/../CODE/communication.c:53
    temp_buff[6] = encoder_left_rear&0xFF;     //数据低8位
    4f7a:	00e78323          	sb	a4,6(a5)
F:\SCHOOL\文件\智能车\全向组\RTTThreadCH32V103\camCoreWithRTOS\obj/../CODE/communication.c:55

    temp_buff[7] = 0xB2;                         //功能字
    4f7e:	fb200713          	li	a4,-78
    4f82:	00e783a3          	sb	a4,7(a5)
F:\SCHOOL\文件\智能车\全向组\RTTThreadCH32V103\camCoreWithRTOS\obj/../CODE/communication.c:56
    temp_buff[8] = slave_position>>8;            //数据高8位
    4f86:	80819703          	lh	a4,-2040(gp) # 200000b8 <slave_position>
    4f8a:	40875693          	srai	a3,a4,0x8
    4f8e:	00d78423          	sb	a3,8(a5)
F:\SCHOOL\文件\智能车\全向组\RTTThreadCH32V103\camCoreWithRTOS\obj/../CODE/communication.c:57
    temp_buff[9] = slave_position&0xFF;          //数据低8位
    4f92:	00e784a3          	sb	a4,9(a5)
F:\SCHOOL\文件\智能车\全向组\RTTThreadCH32V103\camCoreWithRTOS\obj/../CODE/communication.c:59

    temp_buff[10] = 0xEE;                        //帧尾
    4f96:	5739                	li	a4,-18
    4f98:	00e78523          	sb	a4,10(a5)
F:\SCHOOL\文件\智能车\全向组\RTTThreadCH32V103\camCoreWithRTOS\obj/../CODE/communication.c:60
}
    4f9c:	8082                	ret

00004f9e <show_speed>:
show_speed():
F:\SCHOOL\文件\智能车\全向组\RTTThreadCH32V103\camCoreWithRTOS\obj/../CODE/display.c:6
#include "headfile.h"
#include "display.h"
#include "communication.h"

void show_speed(void)
{
    4f9e:	7179                	addi	sp,sp,-48
    4fa0:	d606                	sw	ra,44(sp)
F:\SCHOOL\文件\智能车\全向组\RTTThreadCH32V103\camCoreWithRTOS\obj/../CODE/display.c:7
    char txt[32]={0};
    4fa2:	c002                	sw	zero,0(sp)
    4fa4:	c202                	sw	zero,4(sp)
    4fa6:	c402                	sw	zero,8(sp)
    4fa8:	c602                	sw	zero,12(sp)
    4faa:	c802                	sw	zero,16(sp)
    4fac:	ca02                	sw	zero,20(sp)
    4fae:	cc02                	sw	zero,24(sp)
    4fb0:	ce02                	sw	zero,28(sp)
F:\SCHOOL\文件\智能车\全向组\RTTThreadCH32V103\camCoreWithRTOS\obj/../CODE/display.c:9

    sprintf(txt,"left_front = %05d",encoder_left_front);
    4fb2:	8b819603          	lh	a2,-1864(gp) # 20000168 <encoder_left_front>
    4fb6:	000075b7          	lui	a1,0x7
    4fba:	3a458593          	addi	a1,a1,932 # 73a4 <__fsym___cmd_ps_name+0xcc>
    4fbe:	850a                	mv	a0,sp
    4fc0:	0ad000ef          	jal	ra,586c <siprintf>
F:\SCHOOL\文件\智能车\全向组\RTTThreadCH32V103\camCoreWithRTOS\obj/../CODE/display.c:10
    oled_p6x8str(0, 2, txt);
    4fc4:	860a                	mv	a2,sp
    4fc6:	4589                	li	a1,2
    4fc8:	4501                	li	a0,0
    4fca:	935fc0ef          	jal	ra,18fe <oled_p6x8str>
F:\SCHOOL\文件\智能车\全向组\RTTThreadCH32V103\camCoreWithRTOS\obj/../CODE/display.c:11
    sprintf(txt,"right_rear = %05d",encoder_left_rear);
    4fce:	8ba19603          	lh	a2,-1862(gp) # 2000016a <encoder_left_rear>
    4fd2:	000075b7          	lui	a1,0x7
    4fd6:	3b858593          	addi	a1,a1,952 # 73b8 <__fsym___cmd_ps_name+0xe0>
    4fda:	850a                	mv	a0,sp
    4fdc:	091000ef          	jal	ra,586c <siprintf>
F:\SCHOOL\文件\智能车\全向组\RTTThreadCH32V103\camCoreWithRTOS\obj/../CODE/display.c:12
    oled_p6x8str(0, 3, txt);
    4fe0:	860a                	mv	a2,sp
    4fe2:	458d                	li	a1,3
    4fe4:	4501                	li	a0,0
    4fe6:	919fc0ef          	jal	ra,18fe <oled_p6x8str>
F:\SCHOOL\文件\智能车\全向组\RTTThreadCH32V103\camCoreWithRTOS\obj/../CODE/display.c:13
}
    4fea:	50b2                	lw	ra,44(sp)
    4fec:	6145                	addi	sp,sp,48
    4fee:	8082                	ret

00004ff0 <display_entry>:
display_entry():
F:\SCHOOL\文件\智能车\全向组\RTTThreadCH32V103\camCoreWithRTOS\obj/../CODE/display.c:18



void display_entry(void *parameter)
{
    4ff0:	1141                	addi	sp,sp,-16
    4ff2:	c606                	sw	ra,12(sp)
    4ff4:	c422                	sw	s0,8(sp)
F:\SCHOOL\文件\智能车\全向组\RTTThreadCH32V103\camCoreWithRTOS\obj/../CODE/display.c:26
    while(1)
    {
        //ips114_displayimage032(mt9v03x_image[0], MT9V03X_W, MT9V03X_H);
        //count++;
        show_speed();
        oled_p6x8str(0, 5, "Init OK!");
    4ff6:	00007437          	lui	s0,0x7
F:\SCHOOL\文件\智能车\全向组\RTTThreadCH32V103\camCoreWithRTOS\obj/../CODE/display.c:25 (discriminator 1)
        show_speed();
    4ffa:	fa5ff0ef          	jal	ra,4f9e <show_speed>
F:\SCHOOL\文件\智能车\全向组\RTTThreadCH32V103\camCoreWithRTOS\obj/../CODE/display.c:26 (discriminator 1)
        oled_p6x8str(0, 5, "Init OK!");
    4ffe:	39040613          	addi	a2,s0,912 # 7390 <__fsym___cmd_ps_name+0xb8>
    5002:	4595                	li	a1,5
    5004:	4501                	li	a0,0
    5006:	8f9fc0ef          	jal	ra,18fe <oled_p6x8str>
    500a:	bfc5                	j	4ffa <display_entry+0xa>

0000500c <display_init>:
display_init():
F:\SCHOOL\文件\智能车\全向组\RTTThreadCH32V103\camCoreWithRTOS\obj/../CODE/display.c:33
    
}


void display_init(void)
{
    500c:	1141                	addi	sp,sp,-16
    500e:	c606                	sw	ra,12(sp)
F:\SCHOOL\文件\智能车\全向组\RTTThreadCH32V103\camCoreWithRTOS\obj/../CODE/display.c:37
    rt_thread_t tid1;

    //初始化屏幕
    oled_init();
    5010:	fd4fc0ef          	jal	ra,17e4 <oled_init>
F:\SCHOOL\文件\智能车\全向组\RTTThreadCH32V103\camCoreWithRTOS\obj/../CODE/display.c:40
    
    //创建显示线程 优先级设置为6 
    tid1 = rt_thread_create("display", display_entry, RT_NULL, 1024, 6, 50);
    5014:	03200793          	li	a5,50
    5018:	4719                	li	a4,6
    501a:	40000693          	li	a3,1024
    501e:	4601                	li	a2,0
    5020:	000055b7          	lui	a1,0x5
    5024:	ff058593          	addi	a1,a1,-16 # 4ff0 <display_entry>
    5028:	00007537          	lui	a0,0x7
    502c:	39c50513          	addi	a0,a0,924 # 739c <__fsym___cmd_ps_name+0xc4>
    5030:	f38fe0ef          	jal	ra,3768 <rt_thread_create>
F:\SCHOOL\文件\智能车\全向组\RTTThreadCH32V103\camCoreWithRTOS\obj/../CODE/display.c:43
    
    //启动显示线程
    if(RT_NULL != tid1)
    5034:	c119                	beqz	a0,503a <display_init+0x2e>
F:\SCHOOL\文件\智能车\全向组\RTTThreadCH32V103\camCoreWithRTOS\obj/../CODE/display.c:45
    {
        rt_thread_startup(tid1);
    5036:	94ffe0ef          	jal	ra,3984 <rt_thread_startup>
F:\SCHOOL\文件\智能车\全向组\RTTThreadCH32V103\camCoreWithRTOS\obj/../CODE/display.c:47
    }
}
    503a:	40b2                	lw	ra,12(sp)
    503c:	0141                	addi	sp,sp,16
    503e:	8082                	ret

00005040 <timer1_pit_entry>:
timer1_pit_entry():
F:\SCHOOL\文件\智能车\全向组\RTTThreadCH32V103\camCoreWithRTOS\obj/../CODE/timer_pit.c:5
#include "timer_pit.h"
#include "communication.h"

void timer1_pit_entry(void *parameter)
{
    5040:	1141                	addi	sp,sp,-16
    5042:	c606                	sw	ra,12(sp)
F:\SCHOOL\文件\智能车\全向组\RTTThreadCH32V103\camCoreWithRTOS\obj/../CODE/timer_pit.c:8
    //static uint32 time;
    //time++;
    get_sensor_data();                          //获取传感器数据。
    5044:	ed1ff0ef          	jal	ra,4f14 <get_sensor_data>
F:\SCHOOL\文件\智能车\全向组\RTTThreadCH32V103\camCoreWithRTOS\obj/../CODE/timer_pit.c:9
    process_data();                             //根据协议处理数据，并存入temp_buff中。
    5048:	ef7ff0ef          	jal	ra,4f3e <process_data>
F:\SCHOOL\文件\智能车\全向组\RTTThreadCH32V103\camCoreWithRTOS\obj/../CODE/timer_pit.c:10
    uart_putbuff(UART_3, temp_buff, LINE_LEN);  //通过串口3将数据发送出去。
    504c:	462d                	li	a2,11
    504e:	200025b7          	lui	a1,0x20002
    5052:	fc058593          	addi	a1,a1,-64 # 20001fc0 <temp_buff>
    5056:	4509                	li	a0,2
    5058:	f57fc0ef          	jal	ra,1fae <uart_putbuff>
F:\SCHOOL\文件\智能车\全向组\RTTThreadCH32V103\camCoreWithRTOS\obj/../CODE/timer_pit.c:11
    GPIO_PIN_SET(B12);
    505c:	679d                	lui	a5,0x7
    505e:	b587a783          	lw	a5,-1192(a5) # 6b58 <GPION+0x4>
    5062:	6705                	lui	a4,0x1
    5064:	cb98                	sw	a4,16(a5)
F:\SCHOOL\文件\智能车\全向组\RTTThreadCH32V103\camCoreWithRTOS\obj/../CODE/timer_pit.c:12
    GPIO_PIN_RESET(B12);                         //A0引脚拉低
    5066:	cbd8                	sw	a4,20(a5)
F:\SCHOOL\文件\智能车\全向组\RTTThreadCH32V103\camCoreWithRTOS\obj/../CODE/timer_pit.c:16
    //将图像计算出来的车身位置与电磁信号计算出的车身位置进行融合得到更好数据
    //然后进行车模控制

}
    5068:	40b2                	lw	ra,12(sp)
    506a:	0141                	addi	sp,sp,16
    506c:	8082                	ret

0000506e <timer_pit_init>:
timer_pit_init():
F:\SCHOOL\文件\智能车\全向组\RTTThreadCH32V103\camCoreWithRTOS\obj/../CODE/timer_pit.c:20


void timer_pit_init(void)
{
    506e:	1141                	addi	sp,sp,-16
    5070:	c606                	sw	ra,12(sp)
F:\SCHOOL\文件\智能车\全向组\RTTThreadCH32V103\camCoreWithRTOS\obj/../CODE/timer_pit.c:24
    rt_timer_t timer;
    
    //创建一个定时器 周期运行
    timer = rt_timer_create("timer1", timer1_pit_entry, RT_NULL, 5, RT_TIMER_FLAG_PERIODIC);
    5072:	4709                	li	a4,2
    5074:	4695                	li	a3,5
    5076:	4601                	li	a2,0
    5078:	000055b7          	lui	a1,0x5
    507c:	04058593          	addi	a1,a1,64 # 5040 <timer1_pit_entry>
    5080:	00007537          	lui	a0,0x7
    5084:	3cc50513          	addi	a0,a0,972 # 73cc <__fsym___cmd_ps_name+0xf4>
    5088:	9adfe0ef          	jal	ra,3a34 <rt_timer_create>
F:\SCHOOL\文件\智能车\全向组\RTTThreadCH32V103\camCoreWithRTOS\obj/../CODE/timer_pit.c:27
    
    //启动定时器
    if(RT_NULL != timer)
    508c:	c119                	beqz	a0,5092 <timer_pit_init+0x24>
F:\SCHOOL\文件\智能车\全向组\RTTThreadCH32V103\camCoreWithRTOS\obj/../CODE/timer_pit.c:29
    {
        rt_timer_start(timer);
    508e:	9effe0ef          	jal	ra,3a7c <rt_timer_start>
F:\SCHOOL\文件\智能车\全向组\RTTThreadCH32V103\camCoreWithRTOS\obj/../CODE/timer_pit.c:33
    }

    
}
    5092:	40b2                	lw	ra,12(sp)
    5094:	0141                	addi	sp,sp,16
    5096:	8082                	ret

00005098 <__assert_func>:
__assert_func():
    5098:	80c18793          	addi	a5,gp,-2036 # 200000bc <_impure_ptr>
    509c:	439c                	lw	a5,0(a5)
    509e:	1141                	addi	sp,sp,-16
    50a0:	8832                	mv	a6,a2
    50a2:	c606                	sw	ra,12(sp)
    50a4:	88aa                	mv	a7,a0
    50a6:	872e                	mv	a4,a1
    50a8:	47c8                	lw	a0,12(a5)
    50aa:	8636                	mv	a2,a3
    50ac:	00002797          	auipc	a5,0x2
    50b0:	32878793          	addi	a5,a5,808 # 73d4 <__fsym___cmd_ps_name+0xfc>
    50b4:	00081763          	bnez	a6,50c2 <__assert_func+0x2a>
    50b8:	00002797          	auipc	a5,0x2
    50bc:	0ec78793          	addi	a5,a5,236 # 71a4 <__fsym_list_timer_name+0x1a0>
    50c0:	883e                	mv	a6,a5
    50c2:	86c6                	mv	a3,a7
    50c4:	00002597          	auipc	a1,0x2
    50c8:	32058593          	addi	a1,a1,800 # 73e4 <__fsym___cmd_ps_name+0x10c>
    50cc:	2019                	jal	50d2 <fiprintf>
    50ce:	213000ef          	jal	ra,5ae0 <abort>

000050d2 <fiprintf>:
fprintf():
    50d2:	7139                	addi	sp,sp,-64
    50d4:	d432                	sw	a2,40(sp)
    50d6:	d636                	sw	a3,44(sp)
    50d8:	da3e                	sw	a5,52(sp)
    50da:	d83a                	sw	a4,48(sp)
    50dc:	dc42                	sw	a6,56(sp)
    50de:	de46                	sw	a7,60(sp)
    50e0:	80c18793          	addi	a5,gp,-2036 # 200000bc <_impure_ptr>
    50e4:	862e                	mv	a2,a1
    50e6:	85aa                	mv	a1,a0
    50e8:	4388                	lw	a0,0(a5)
    50ea:	1034                	addi	a3,sp,40
    50ec:	ce06                	sw	ra,28(sp)
    50ee:	c636                	sw	a3,12(sp)
    50f0:	222d                	jal	521a <_vfiprintf_r>
    50f2:	40f2                	lw	ra,28(sp)
    50f4:	6121                	addi	sp,sp,64
    50f6:	8082                	ret

000050f8 <memcpy>:
memcpy():
    50f8:	00a5c7b3          	xor	a5,a1,a0
    50fc:	8b8d                	andi	a5,a5,3
    50fe:	00c50733          	add	a4,a0,a2
    5102:	e781                	bnez	a5,510a <memcpy+0x12>
    5104:	478d                	li	a5,3
    5106:	00c7ee63          	bltu	a5,a2,5122 <memcpy+0x2a>
    510a:	87aa                	mv	a5,a0
    510c:	0ae57063          	bgeu	a0,a4,51ac <memcpy+0xb4>
    5110:	0005c683          	lbu	a3,0(a1)
    5114:	0785                	addi	a5,a5,1
    5116:	0585                	addi	a1,a1,1
    5118:	fed78fa3          	sb	a3,-1(a5)
    511c:	fee7eae3          	bltu	a5,a4,5110 <memcpy+0x18>
    5120:	8082                	ret
    5122:	00357693          	andi	a3,a0,3
    5126:	87aa                	mv	a5,a0
    5128:	ca91                	beqz	a3,513c <memcpy+0x44>
    512a:	0005c683          	lbu	a3,0(a1)
    512e:	0785                	addi	a5,a5,1
    5130:	0585                	addi	a1,a1,1
    5132:	fed78fa3          	sb	a3,-1(a5)
    5136:	0037f693          	andi	a3,a5,3
    513a:	b7fd                	j	5128 <memcpy+0x30>
    513c:	ffc77693          	andi	a3,a4,-4
    5140:	fe068613          	addi	a2,a3,-32 # 40020fe0 <_eusrstack+0x2001bfe0>
    5144:	06c7f063          	bgeu	a5,a2,51a4 <memcpy+0xac>
    5148:	0005a383          	lw	t2,0(a1)
    514c:	0045a283          	lw	t0,4(a1)
    5150:	0085af83          	lw	t6,8(a1)
    5154:	00c5af03          	lw	t5,12(a1)
    5158:	0105ae83          	lw	t4,16(a1)
    515c:	0145ae03          	lw	t3,20(a1)
    5160:	0185a303          	lw	t1,24(a1)
    5164:	01c5a883          	lw	a7,28(a1)
    5168:	02458593          	addi	a1,a1,36
    516c:	0077a023          	sw	t2,0(a5)
    5170:	ffc5a803          	lw	a6,-4(a1)
    5174:	0057a223          	sw	t0,4(a5)
    5178:	01f7a423          	sw	t6,8(a5)
    517c:	01e7a623          	sw	t5,12(a5)
    5180:	01d7a823          	sw	t4,16(a5)
    5184:	01c7aa23          	sw	t3,20(a5)
    5188:	0067ac23          	sw	t1,24(a5)
    518c:	0117ae23          	sw	a7,28(a5)
    5190:	02478793          	addi	a5,a5,36
    5194:	ff07ae23          	sw	a6,-4(a5)
    5198:	b775                	j	5144 <memcpy+0x4c>
    519a:	4190                	lw	a2,0(a1)
    519c:	0791                	addi	a5,a5,4
    519e:	0591                	addi	a1,a1,4
    51a0:	fec7ae23          	sw	a2,-4(a5)
    51a4:	fed7ebe3          	bltu	a5,a3,519a <memcpy+0xa2>
    51a8:	f6e7e4e3          	bltu	a5,a4,5110 <memcpy+0x18>
    51ac:	8082                	ret

000051ae <__sfputc_r>:
__sfputc_r():
    51ae:	461c                	lw	a5,8(a2)
    51b0:	17fd                	addi	a5,a5,-1
    51b2:	c61c                	sw	a5,8(a2)
    51b4:	0007d963          	bgez	a5,51c6 <__sfputc_r+0x18>
    51b8:	4e18                	lw	a4,24(a2)
    51ba:	00e7c563          	blt	a5,a4,51c4 <__sfputc_r+0x16>
    51be:	47a9                	li	a5,10
    51c0:	00f59363          	bne	a1,a5,51c6 <__sfputc_r+0x18>
    51c4:	af81                	j	5914 <__swbuf_r>
    51c6:	421c                	lw	a5,0(a2)
    51c8:	852e                	mv	a0,a1
    51ca:	00178713          	addi	a4,a5,1
    51ce:	c218                	sw	a4,0(a2)
    51d0:	00b78023          	sb	a1,0(a5)
    51d4:	8082                	ret

000051d6 <__sfputs_r>:
__sfputs_r():
    51d6:	1101                	addi	sp,sp,-32
    51d8:	cc22                	sw	s0,24(sp)
    51da:	ca26                	sw	s1,20(sp)
    51dc:	c84a                	sw	s2,16(sp)
    51de:	c64e                	sw	s3,12(sp)
    51e0:	c452                	sw	s4,8(sp)
    51e2:	ce06                	sw	ra,28(sp)
    51e4:	892a                	mv	s2,a0
    51e6:	89ae                	mv	s3,a1
    51e8:	8432                	mv	s0,a2
    51ea:	00d604b3          	add	s1,a2,a3
    51ee:	5a7d                	li	s4,-1
    51f0:	00941463          	bne	s0,s1,51f8 <__sfputs_r+0x22>
    51f4:	4501                	li	a0,0
    51f6:	a811                	j	520a <__sfputs_r+0x34>
    51f8:	00044583          	lbu	a1,0(s0)
    51fc:	864e                	mv	a2,s3
    51fe:	854a                	mv	a0,s2
    5200:	fafff0ef          	jal	ra,51ae <__sfputc_r>
    5204:	0405                	addi	s0,s0,1
    5206:	ff4515e3          	bne	a0,s4,51f0 <__sfputs_r+0x1a>
    520a:	40f2                	lw	ra,28(sp)
    520c:	4462                	lw	s0,24(sp)
    520e:	44d2                	lw	s1,20(sp)
    5210:	4942                	lw	s2,16(sp)
    5212:	49b2                	lw	s3,12(sp)
    5214:	4a22                	lw	s4,8(sp)
    5216:	6105                	addi	sp,sp,32
    5218:	8082                	ret

0000521a <_vfiprintf_r>:
_vfiprintf_r():
    521a:	7135                	addi	sp,sp,-160
    521c:	cd22                	sw	s0,152(sp)
    521e:	cb26                	sw	s1,148(sp)
    5220:	c94a                	sw	s2,144(sp)
    5222:	c74e                	sw	s3,140(sp)
    5224:	cf06                	sw	ra,156(sp)
    5226:	c552                	sw	s4,136(sp)
    5228:	c356                	sw	s5,132(sp)
    522a:	c15a                	sw	s6,128(sp)
    522c:	dede                	sw	s7,124(sp)
    522e:	dce2                	sw	s8,120(sp)
    5230:	dae6                	sw	s9,116(sp)
    5232:	89aa                	mv	s3,a0
    5234:	84ae                	mv	s1,a1
    5236:	8932                	mv	s2,a2
    5238:	8436                	mv	s0,a3
    523a:	c509                	beqz	a0,5244 <_vfiprintf_r+0x2a>
    523c:	4d1c                	lw	a5,24(a0)
    523e:	e399                	bnez	a5,5244 <_vfiprintf_r+0x2a>
    5240:	30d000ef          	jal	ra,5d4c <__sinit>
    5244:	00002797          	auipc	a5,0x2
    5248:	22c78793          	addi	a5,a5,556 # 7470 <__sf_fake_stdin>
    524c:	0cf49d63          	bne	s1,a5,5326 <_vfiprintf_r+0x10c>
    5250:	0049a483          	lw	s1,4(s3)
    5254:	00c4d783          	lhu	a5,12(s1)
    5258:	8ba1                	andi	a5,a5,8
    525a:	cbe5                	beqz	a5,534a <_vfiprintf_r+0x130>
    525c:	489c                	lw	a5,16(s1)
    525e:	c7f5                	beqz	a5,534a <_vfiprintf_r+0x130>
    5260:	02000793          	li	a5,32
    5264:	02f104a3          	sb	a5,41(sp)
    5268:	03000793          	li	a5,48
    526c:	d202                	sw	zero,36(sp)
    526e:	02f10523          	sb	a5,42(sp)
    5272:	c622                	sw	s0,12(sp)
    5274:	02500b93          	li	s7,37
    5278:	00002a97          	auipc	s5,0x2
    527c:	19ca8a93          	addi	s5,s5,412 # 7414 <__fsym___cmd_ps_name+0x13c>
    5280:	4c05                	li	s8,1
    5282:	4b29                	li	s6,10
    5284:	844a                	mv	s0,s2
    5286:	00044783          	lbu	a5,0(s0)
    528a:	c399                	beqz	a5,5290 <_vfiprintf_r+0x76>
    528c:	0f779163          	bne	a5,s7,536e <_vfiprintf_r+0x154>
    5290:	41240cb3          	sub	s9,s0,s2
    5294:	000c8e63          	beqz	s9,52b0 <_vfiprintf_r+0x96>
    5298:	86e6                	mv	a3,s9
    529a:	864a                	mv	a2,s2
    529c:	85a6                	mv	a1,s1
    529e:	854e                	mv	a0,s3
    52a0:	f37ff0ef          	jal	ra,51d6 <__sfputs_r>
    52a4:	57fd                	li	a5,-1
    52a6:	1ef50863          	beq	a0,a5,5496 <_vfiprintf_r+0x27c>
    52aa:	5692                	lw	a3,36(sp)
    52ac:	96e6                	add	a3,a3,s9
    52ae:	d236                	sw	a3,36(sp)
    52b0:	00044783          	lbu	a5,0(s0)
    52b4:	1e078163          	beqz	a5,5496 <_vfiprintf_r+0x27c>
    52b8:	57fd                	li	a5,-1
    52ba:	00140913          	addi	s2,s0,1
    52be:	c802                	sw	zero,16(sp)
    52c0:	ce02                	sw	zero,28(sp)
    52c2:	ca3e                	sw	a5,20(sp)
    52c4:	cc02                	sw	zero,24(sp)
    52c6:	040109a3          	sb	zero,83(sp)
    52ca:	d482                	sw	zero,104(sp)
    52cc:	00094583          	lbu	a1,0(s2)
    52d0:	4615                	li	a2,5
    52d2:	8556                	mv	a0,s5
    52d4:	4eb000ef          	jal	ra,5fbe <memchr>
    52d8:	00190413          	addi	s0,s2,1
    52dc:	47c2                	lw	a5,16(sp)
    52de:	e951                	bnez	a0,5372 <_vfiprintf_r+0x158>
    52e0:	0107f713          	andi	a4,a5,16
    52e4:	c709                	beqz	a4,52ee <_vfiprintf_r+0xd4>
    52e6:	02000713          	li	a4,32
    52ea:	04e109a3          	sb	a4,83(sp)
    52ee:	0087f713          	andi	a4,a5,8
    52f2:	c709                	beqz	a4,52fc <_vfiprintf_r+0xe2>
    52f4:	02b00713          	li	a4,43
    52f8:	04e109a3          	sb	a4,83(sp)
    52fc:	00094683          	lbu	a3,0(s2)
    5300:	02a00713          	li	a4,42
    5304:	06e68f63          	beq	a3,a4,5382 <_vfiprintf_r+0x168>
    5308:	47f2                	lw	a5,28(sp)
    530a:	844a                	mv	s0,s2
    530c:	4681                	li	a3,0
    530e:	4625                	li	a2,9
    5310:	00044703          	lbu	a4,0(s0)
    5314:	00140593          	addi	a1,s0,1
    5318:	fd070713          	addi	a4,a4,-48 # fd0 <GPIO_Init+0x44>
    531c:	0ae67863          	bgeu	a2,a4,53cc <_vfiprintf_r+0x1b2>
    5320:	caad                	beqz	a3,5392 <_vfiprintf_r+0x178>
    5322:	ce3e                	sw	a5,28(sp)
    5324:	a0bd                	j	5392 <_vfiprintf_r+0x178>
    5326:	00002797          	auipc	a5,0x2
    532a:	16a78793          	addi	a5,a5,362 # 7490 <__sf_fake_stdout>
    532e:	00f49563          	bne	s1,a5,5338 <_vfiprintf_r+0x11e>
    5332:	0089a483          	lw	s1,8(s3)
    5336:	bf39                	j	5254 <_vfiprintf_r+0x3a>
    5338:	00002797          	auipc	a5,0x2
    533c:	11878793          	addi	a5,a5,280 # 7450 <__sf_fake_stderr>
    5340:	f0f49ae3          	bne	s1,a5,5254 <_vfiprintf_r+0x3a>
    5344:	00c9a483          	lw	s1,12(s3)
    5348:	b731                	j	5254 <_vfiprintf_r+0x3a>
    534a:	85a6                	mv	a1,s1
    534c:	854e                	mv	a0,s3
    534e:	2559                	jal	59d4 <__swsetup_r>
    5350:	d901                	beqz	a0,5260 <_vfiprintf_r+0x46>
    5352:	557d                	li	a0,-1
    5354:	40fa                	lw	ra,156(sp)
    5356:	446a                	lw	s0,152(sp)
    5358:	44da                	lw	s1,148(sp)
    535a:	494a                	lw	s2,144(sp)
    535c:	49ba                	lw	s3,140(sp)
    535e:	4a2a                	lw	s4,136(sp)
    5360:	4a9a                	lw	s5,132(sp)
    5362:	4b0a                	lw	s6,128(sp)
    5364:	5bf6                	lw	s7,124(sp)
    5366:	5c66                	lw	s8,120(sp)
    5368:	5cd6                	lw	s9,116(sp)
    536a:	610d                	addi	sp,sp,160
    536c:	8082                	ret
    536e:	0405                	addi	s0,s0,1
    5370:	bf19                	j	5286 <_vfiprintf_r+0x6c>
    5372:	41550533          	sub	a0,a0,s5
    5376:	00ac1533          	sll	a0,s8,a0
    537a:	8fc9                	or	a5,a5,a0
    537c:	c83e                	sw	a5,16(sp)
    537e:	8922                	mv	s2,s0
    5380:	b7b1                	j	52cc <_vfiprintf_r+0xb2>
    5382:	4732                	lw	a4,12(sp)
    5384:	00470693          	addi	a3,a4,4
    5388:	4318                	lw	a4,0(a4)
    538a:	c636                	sw	a3,12(sp)
    538c:	02074963          	bltz	a4,53be <_vfiprintf_r+0x1a4>
    5390:	ce3a                	sw	a4,28(sp)
    5392:	00044703          	lbu	a4,0(s0)
    5396:	02e00793          	li	a5,46
    539a:	04f71f63          	bne	a4,a5,53f8 <_vfiprintf_r+0x1de>
    539e:	00144703          	lbu	a4,1(s0)
    53a2:	02a00793          	li	a5,42
    53a6:	02f71b63          	bne	a4,a5,53dc <_vfiprintf_r+0x1c2>
    53aa:	47b2                	lw	a5,12(sp)
    53ac:	0409                	addi	s0,s0,2
    53ae:	00478713          	addi	a4,a5,4
    53b2:	439c                	lw	a5,0(a5)
    53b4:	c63a                	sw	a4,12(sp)
    53b6:	0207c163          	bltz	a5,53d8 <_vfiprintf_r+0x1be>
    53ba:	ca3e                	sw	a5,20(sp)
    53bc:	a835                	j	53f8 <_vfiprintf_r+0x1de>
    53be:	40e00733          	neg	a4,a4
    53c2:	0027e793          	ori	a5,a5,2
    53c6:	ce3a                	sw	a4,28(sp)
    53c8:	c83e                	sw	a5,16(sp)
    53ca:	b7e1                	j	5392 <_vfiprintf_r+0x178>
    53cc:	036787b3          	mul	a5,a5,s6
    53d0:	4685                	li	a3,1
    53d2:	842e                	mv	s0,a1
    53d4:	97ba                	add	a5,a5,a4
    53d6:	bf2d                	j	5310 <_vfiprintf_r+0xf6>
    53d8:	57fd                	li	a5,-1
    53da:	b7c5                	j	53ba <_vfiprintf_r+0x1a0>
    53dc:	0405                	addi	s0,s0,1
    53de:	ca02                	sw	zero,20(sp)
    53e0:	4681                	li	a3,0
    53e2:	4781                	li	a5,0
    53e4:	4625                	li	a2,9
    53e6:	00044703          	lbu	a4,0(s0)
    53ea:	00140593          	addi	a1,s0,1
    53ee:	fd070713          	addi	a4,a4,-48
    53f2:	06e67863          	bgeu	a2,a4,5462 <_vfiprintf_r+0x248>
    53f6:	f2f1                	bnez	a3,53ba <_vfiprintf_r+0x1a0>
    53f8:	00044583          	lbu	a1,0(s0)
    53fc:	460d                	li	a2,3
    53fe:	00002517          	auipc	a0,0x2
    5402:	01e50513          	addi	a0,a0,30 # 741c <__fsym___cmd_ps_name+0x144>
    5406:	3b9000ef          	jal	ra,5fbe <memchr>
    540a:	cd11                	beqz	a0,5426 <_vfiprintf_r+0x20c>
    540c:	00002797          	auipc	a5,0x2
    5410:	01078793          	addi	a5,a5,16 # 741c <__fsym___cmd_ps_name+0x144>
    5414:	8d1d                	sub	a0,a0,a5
    5416:	04000793          	li	a5,64
    541a:	00a797b3          	sll	a5,a5,a0
    541e:	4542                	lw	a0,16(sp)
    5420:	0405                	addi	s0,s0,1
    5422:	8d5d                	or	a0,a0,a5
    5424:	c82a                	sw	a0,16(sp)
    5426:	00044583          	lbu	a1,0(s0)
    542a:	4619                	li	a2,6
    542c:	00002517          	auipc	a0,0x2
    5430:	ff450513          	addi	a0,a0,-12 # 7420 <__fsym___cmd_ps_name+0x148>
    5434:	00140913          	addi	s2,s0,1
    5438:	02b10423          	sb	a1,40(sp)
    543c:	383000ef          	jal	ra,5fbe <memchr>
    5440:	c13d                	beqz	a0,54a6 <_vfiprintf_r+0x28c>
    5442:	ffffb797          	auipc	a5,0xffffb
    5446:	bbe78793          	addi	a5,a5,-1090 # 0 <_sinit>
    544a:	e795                	bnez	a5,5476 <_vfiprintf_r+0x25c>
    544c:	4742                	lw	a4,16(sp)
    544e:	47b2                	lw	a5,12(sp)
    5450:	10077713          	andi	a4,a4,256
    5454:	cf09                	beqz	a4,546e <_vfiprintf_r+0x254>
    5456:	0791                	addi	a5,a5,4
    5458:	c63e                	sw	a5,12(sp)
    545a:	5792                	lw	a5,36(sp)
    545c:	97d2                	add	a5,a5,s4
    545e:	d23e                	sw	a5,36(sp)
    5460:	b515                	j	5284 <_vfiprintf_r+0x6a>
    5462:	036787b3          	mul	a5,a5,s6
    5466:	4685                	li	a3,1
    5468:	842e                	mv	s0,a1
    546a:	97ba                	add	a5,a5,a4
    546c:	bfad                	j	53e6 <_vfiprintf_r+0x1cc>
    546e:	079d                	addi	a5,a5,7
    5470:	9be1                	andi	a5,a5,-8
    5472:	07a1                	addi	a5,a5,8
    5474:	b7d5                	j	5458 <_vfiprintf_r+0x23e>
    5476:	0078                	addi	a4,sp,12
    5478:	00000697          	auipc	a3,0x0
    547c:	d5e68693          	addi	a3,a3,-674 # 51d6 <__sfputs_r>
    5480:	8626                	mv	a2,s1
    5482:	080c                	addi	a1,sp,16
    5484:	854e                	mv	a0,s3
    5486:	00000097          	auipc	ra,0x0
    548a:	000000e7          	jalr	zero # 0 <_sinit>
    548e:	57fd                	li	a5,-1
    5490:	8a2a                	mv	s4,a0
    5492:	fcf514e3          	bne	a0,a5,545a <_vfiprintf_r+0x240>
    5496:	00c4d783          	lhu	a5,12(s1)
    549a:	0407f793          	andi	a5,a5,64
    549e:	ea079ae3          	bnez	a5,5352 <_vfiprintf_r+0x138>
    54a2:	5512                	lw	a0,36(sp)
    54a4:	bd45                	j	5354 <_vfiprintf_r+0x13a>
    54a6:	0078                	addi	a4,sp,12
    54a8:	00000697          	auipc	a3,0x0
    54ac:	d2e68693          	addi	a3,a3,-722 # 51d6 <__sfputs_r>
    54b0:	8626                	mv	a2,s1
    54b2:	080c                	addi	a1,sp,16
    54b4:	854e                	mv	a0,s3
    54b6:	2a01                	jal	55c6 <_printf_i>
    54b8:	bfd9                	j	548e <_vfiprintf_r+0x274>

000054ba <_printf_common>:
_printf_common():
    54ba:	7179                	addi	sp,sp,-48
    54bc:	ca56                	sw	s5,20(sp)
    54be:	499c                	lw	a5,16(a1)
    54c0:	8aba                	mv	s5,a4
    54c2:	4598                	lw	a4,8(a1)
    54c4:	d422                	sw	s0,40(sp)
    54c6:	d226                	sw	s1,36(sp)
    54c8:	ce4e                	sw	s3,28(sp)
    54ca:	cc52                	sw	s4,24(sp)
    54cc:	d606                	sw	ra,44(sp)
    54ce:	d04a                	sw	s2,32(sp)
    54d0:	c85a                	sw	s6,16(sp)
    54d2:	c65e                	sw	s7,12(sp)
    54d4:	89aa                	mv	s3,a0
    54d6:	842e                	mv	s0,a1
    54d8:	84b2                	mv	s1,a2
    54da:	8a36                	mv	s4,a3
    54dc:	00e7d363          	bge	a5,a4,54e2 <_printf_common+0x28>
    54e0:	87ba                	mv	a5,a4
    54e2:	c09c                	sw	a5,0(s1)
    54e4:	04344703          	lbu	a4,67(s0)
    54e8:	c319                	beqz	a4,54ee <_printf_common+0x34>
    54ea:	0785                	addi	a5,a5,1
    54ec:	c09c                	sw	a5,0(s1)
    54ee:	401c                	lw	a5,0(s0)
    54f0:	0207f793          	andi	a5,a5,32
    54f4:	c781                	beqz	a5,54fc <_printf_common+0x42>
    54f6:	409c                	lw	a5,0(s1)
    54f8:	0789                	addi	a5,a5,2
    54fa:	c09c                	sw	a5,0(s1)
    54fc:	00042903          	lw	s2,0(s0)
    5500:	00697913          	andi	s2,s2,6
    5504:	00091a63          	bnez	s2,5518 <_printf_common+0x5e>
    5508:	01940b13          	addi	s6,s0,25
    550c:	5bfd                	li	s7,-1
    550e:	445c                	lw	a5,12(s0)
    5510:	4098                	lw	a4,0(s1)
    5512:	8f99                	sub	a5,a5,a4
    5514:	04f94c63          	blt	s2,a5,556c <_printf_common+0xb2>
    5518:	401c                	lw	a5,0(s0)
    551a:	04344683          	lbu	a3,67(s0)
    551e:	0207f793          	andi	a5,a5,32
    5522:	00d036b3          	snez	a3,a3
    5526:	eba5                	bnez	a5,5596 <_printf_common+0xdc>
    5528:	04340613          	addi	a2,s0,67
    552c:	85d2                	mv	a1,s4
    552e:	854e                	mv	a0,s3
    5530:	9a82                	jalr	s5
    5532:	57fd                	li	a5,-1
    5534:	04f50363          	beq	a0,a5,557a <_printf_common+0xc0>
    5538:	401c                	lw	a5,0(s0)
    553a:	4611                	li	a2,4
    553c:	4098                	lw	a4,0(s1)
    553e:	8b99                	andi	a5,a5,6
    5540:	4454                	lw	a3,12(s0)
    5542:	4481                	li	s1,0
    5544:	00c79763          	bne	a5,a2,5552 <_printf_common+0x98>
    5548:	40e684b3          	sub	s1,a3,a4
    554c:	0004d363          	bgez	s1,5552 <_printf_common+0x98>
    5550:	4481                	li	s1,0
    5552:	441c                	lw	a5,8(s0)
    5554:	4818                	lw	a4,16(s0)
    5556:	00f75463          	bge	a4,a5,555e <_printf_common+0xa4>
    555a:	8f99                	sub	a5,a5,a4
    555c:	94be                	add	s1,s1,a5
    555e:	4901                	li	s2,0
    5560:	0469                	addi	s0,s0,26
    5562:	5b7d                	li	s6,-1
    5564:	05249863          	bne	s1,s2,55b4 <_printf_common+0xfa>
    5568:	4501                	li	a0,0
    556a:	a809                	j	557c <_printf_common+0xc2>
    556c:	4685                	li	a3,1
    556e:	865a                	mv	a2,s6
    5570:	85d2                	mv	a1,s4
    5572:	854e                	mv	a0,s3
    5574:	9a82                	jalr	s5
    5576:	01751e63          	bne	a0,s7,5592 <_printf_common+0xd8>
    557a:	557d                	li	a0,-1
    557c:	50b2                	lw	ra,44(sp)
    557e:	5422                	lw	s0,40(sp)
    5580:	5492                	lw	s1,36(sp)
    5582:	5902                	lw	s2,32(sp)
    5584:	49f2                	lw	s3,28(sp)
    5586:	4a62                	lw	s4,24(sp)
    5588:	4ad2                	lw	s5,20(sp)
    558a:	4b42                	lw	s6,16(sp)
    558c:	4bb2                	lw	s7,12(sp)
    558e:	6145                	addi	sp,sp,48
    5590:	8082                	ret
    5592:	0905                	addi	s2,s2,1
    5594:	bfad                	j	550e <_printf_common+0x54>
    5596:	00d40733          	add	a4,s0,a3
    559a:	03000613          	li	a2,48
    559e:	04c701a3          	sb	a2,67(a4)
    55a2:	04544703          	lbu	a4,69(s0)
    55a6:	00168793          	addi	a5,a3,1
    55aa:	97a2                	add	a5,a5,s0
    55ac:	0689                	addi	a3,a3,2
    55ae:	04e781a3          	sb	a4,67(a5)
    55b2:	bf9d                	j	5528 <_printf_common+0x6e>
    55b4:	4685                	li	a3,1
    55b6:	8622                	mv	a2,s0
    55b8:	85d2                	mv	a1,s4
    55ba:	854e                	mv	a0,s3
    55bc:	9a82                	jalr	s5
    55be:	fb650ee3          	beq	a0,s6,557a <_printf_common+0xc0>
    55c2:	0905                	addi	s2,s2,1
    55c4:	b745                	j	5564 <_printf_common+0xaa>

000055c6 <_printf_i>:
_printf_i():
    55c6:	7179                	addi	sp,sp,-48
    55c8:	d422                	sw	s0,40(sp)
    55ca:	d226                	sw	s1,36(sp)
    55cc:	d04a                	sw	s2,32(sp)
    55ce:	ce4e                	sw	s3,28(sp)
    55d0:	d606                	sw	ra,44(sp)
    55d2:	cc52                	sw	s4,24(sp)
    55d4:	ca56                	sw	s5,20(sp)
    55d6:	c85a                	sw	s6,16(sp)
    55d8:	89b6                	mv	s3,a3
    55da:	0185c683          	lbu	a3,24(a1)
    55de:	06e00793          	li	a5,110
    55e2:	8932                	mv	s2,a2
    55e4:	84aa                	mv	s1,a0
    55e6:	842e                	mv	s0,a1
    55e8:	04358613          	addi	a2,a1,67
    55ec:	1ef68163          	beq	a3,a5,57ce <_printf_i+0x208>
    55f0:	06d7e263          	bltu	a5,a3,5654 <_printf_i+0x8e>
    55f4:	06300793          	li	a5,99
    55f8:	0af68263          	beq	a3,a5,569c <_printf_i+0xd6>
    55fc:	00d7ed63          	bltu	a5,a3,5616 <_printf_i+0x50>
    5600:	1e068b63          	beqz	a3,57f6 <_printf_i+0x230>
    5604:	05800793          	li	a5,88
    5608:	16f68763          	beq	a3,a5,5776 <_printf_i+0x1b0>
    560c:	04240a93          	addi	s5,s0,66
    5610:	04d40123          	sb	a3,66(s0)
    5614:	a869                	j	56ae <_printf_i+0xe8>
    5616:	06400793          	li	a5,100
    561a:	00f68663          	beq	a3,a5,5626 <_printf_i+0x60>
    561e:	06900793          	li	a5,105
    5622:	fef695e3          	bne	a3,a5,560c <_printf_i+0x46>
    5626:	401c                	lw	a5,0(s0)
    5628:	4308                	lw	a0,0(a4)
    562a:	0807f693          	andi	a3,a5,128
    562e:	00450593          	addi	a1,a0,4
    5632:	c2c1                	beqz	a3,56b2 <_printf_i+0xec>
    5634:	411c                	lw	a5,0(a0)
    5636:	c30c                	sw	a1,0(a4)
    5638:	0007d863          	bgez	a5,5648 <_printf_i+0x82>
    563c:	02d00713          	li	a4,45
    5640:	40f007b3          	neg	a5,a5
    5644:	04e401a3          	sb	a4,67(s0)
    5648:	00002697          	auipc	a3,0x2
    564c:	de068693          	addi	a3,a3,-544 # 7428 <__fsym___cmd_ps_name+0x150>
    5650:	4729                	li	a4,10
    5652:	a065                	j	56fa <_printf_i+0x134>
    5654:	07300793          	li	a5,115
    5658:	1af68363          	beq	a3,a5,57fe <_printf_i+0x238>
    565c:	00d7ef63          	bltu	a5,a3,567a <_printf_i+0xb4>
    5660:	06f00793          	li	a5,111
    5664:	04f68f63          	beq	a3,a5,56c2 <_printf_i+0xfc>
    5668:	07000793          	li	a5,112
    566c:	faf690e3          	bne	a3,a5,560c <_printf_i+0x46>
    5670:	419c                	lw	a5,0(a1)
    5672:	0207e793          	ori	a5,a5,32
    5676:	c19c                	sw	a5,0(a1)
    5678:	a809                	j	568a <_printf_i+0xc4>
    567a:	07500793          	li	a5,117
    567e:	04f68263          	beq	a3,a5,56c2 <_printf_i+0xfc>
    5682:	07800793          	li	a5,120
    5686:	f8f693e3          	bne	a3,a5,560c <_printf_i+0x46>
    568a:	07800793          	li	a5,120
    568e:	04f402a3          	sb	a5,69(s0)
    5692:	00002697          	auipc	a3,0x2
    5696:	daa68693          	addi	a3,a3,-598 # 743c <__fsym___cmd_ps_name+0x164>
    569a:	a0e5                	j	5782 <_printf_i+0x1bc>
    569c:	431c                	lw	a5,0(a4)
    569e:	04258a93          	addi	s5,a1,66
    56a2:	00478693          	addi	a3,a5,4
    56a6:	439c                	lw	a5,0(a5)
    56a8:	c314                	sw	a3,0(a4)
    56aa:	04f58123          	sb	a5,66(a1)
    56ae:	4785                	li	a5,1
    56b0:	a2bd                	j	581e <_printf_i+0x258>
    56b2:	0407f693          	andi	a3,a5,64
    56b6:	411c                	lw	a5,0(a0)
    56b8:	c30c                	sw	a1,0(a4)
    56ba:	debd                	beqz	a3,5638 <_printf_i+0x72>
    56bc:	07c2                	slli	a5,a5,0x10
    56be:	87c1                	srai	a5,a5,0x10
    56c0:	bfa5                	j	5638 <_printf_i+0x72>
    56c2:	400c                	lw	a1,0(s0)
    56c4:	431c                	lw	a5,0(a4)
    56c6:	0805f813          	andi	a6,a1,128
    56ca:	00478513          	addi	a0,a5,4
    56ce:	00080563          	beqz	a6,56d8 <_printf_i+0x112>
    56d2:	c308                	sw	a0,0(a4)
    56d4:	439c                	lw	a5,0(a5)
    56d6:	a039                	j	56e4 <_printf_i+0x11e>
    56d8:	0405f593          	andi	a1,a1,64
    56dc:	c308                	sw	a0,0(a4)
    56de:	d9fd                	beqz	a1,56d4 <_printf_i+0x10e>
    56e0:	0007d783          	lhu	a5,0(a5)
    56e4:	06f00713          	li	a4,111
    56e8:	0ce68b63          	beq	a3,a4,57be <_printf_i+0x1f8>
    56ec:	00002697          	auipc	a3,0x2
    56f0:	d3c68693          	addi	a3,a3,-708 # 7428 <__fsym___cmd_ps_name+0x150>
    56f4:	4729                	li	a4,10
    56f6:	040401a3          	sb	zero,67(s0)
    56fa:	404c                	lw	a1,4(s0)
    56fc:	c40c                	sw	a1,8(s0)
    56fe:	0005c563          	bltz	a1,5708 <_printf_i+0x142>
    5702:	4008                	lw	a0,0(s0)
    5704:	996d                	andi	a0,a0,-5
    5706:	c008                	sw	a0,0(s0)
    5708:	e399                	bnez	a5,570e <_printf_i+0x148>
    570a:	8ab2                	mv	s5,a2
    570c:	cd91                	beqz	a1,5728 <_printf_i+0x162>
    570e:	8ab2                	mv	s5,a2
    5710:	02e7f5b3          	remu	a1,a5,a4
    5714:	1afd                	addi	s5,s5,-1
    5716:	95b6                	add	a1,a1,a3
    5718:	0005c583          	lbu	a1,0(a1)
    571c:	00ba8023          	sb	a1,0(s5)
    5720:	02e7d5b3          	divu	a1,a5,a4
    5724:	0ae7f363          	bgeu	a5,a4,57ca <_printf_i+0x204>
    5728:	47a1                	li	a5,8
    572a:	00f71e63          	bne	a4,a5,5746 <_printf_i+0x180>
    572e:	401c                	lw	a5,0(s0)
    5730:	8b85                	andi	a5,a5,1
    5732:	cb91                	beqz	a5,5746 <_printf_i+0x180>
    5734:	4058                	lw	a4,4(s0)
    5736:	481c                	lw	a5,16(s0)
    5738:	00e7c763          	blt	a5,a4,5746 <_printf_i+0x180>
    573c:	03000793          	li	a5,48
    5740:	fefa8fa3          	sb	a5,-1(s5)
    5744:	1afd                	addi	s5,s5,-1
    5746:	41560633          	sub	a2,a2,s5
    574a:	c810                	sw	a2,16(s0)
    574c:	874e                	mv	a4,s3
    574e:	86ca                	mv	a3,s2
    5750:	0070                	addi	a2,sp,12
    5752:	85a2                	mv	a1,s0
    5754:	8526                	mv	a0,s1
    5756:	d65ff0ef          	jal	ra,54ba <_printf_common>
    575a:	5a7d                	li	s4,-1
    575c:	0d451563          	bne	a0,s4,5826 <_printf_i+0x260>
    5760:	557d                	li	a0,-1
    5762:	50b2                	lw	ra,44(sp)
    5764:	5422                	lw	s0,40(sp)
    5766:	5492                	lw	s1,36(sp)
    5768:	5902                	lw	s2,32(sp)
    576a:	49f2                	lw	s3,28(sp)
    576c:	4a62                	lw	s4,24(sp)
    576e:	4ad2                	lw	s5,20(sp)
    5770:	4b42                	lw	s6,16(sp)
    5772:	6145                	addi	sp,sp,48
    5774:	8082                	ret
    5776:	04d582a3          	sb	a3,69(a1)
    577a:	00002697          	auipc	a3,0x2
    577e:	cae68693          	addi	a3,a3,-850 # 7428 <__fsym___cmd_ps_name+0x150>
    5782:	400c                	lw	a1,0(s0)
    5784:	4308                	lw	a0,0(a4)
    5786:	0805f813          	andi	a6,a1,128
    578a:	411c                	lw	a5,0(a0)
    578c:	0511                	addi	a0,a0,4
    578e:	02080063          	beqz	a6,57ae <_printf_i+0x1e8>
    5792:	c308                	sw	a0,0(a4)
    5794:	0015f713          	andi	a4,a1,1
    5798:	c701                	beqz	a4,57a0 <_printf_i+0x1da>
    579a:	0205e593          	ori	a1,a1,32
    579e:	c00c                	sw	a1,0(s0)
    57a0:	4741                	li	a4,16
    57a2:	fbb1                	bnez	a5,56f6 <_printf_i+0x130>
    57a4:	400c                	lw	a1,0(s0)
    57a6:	fdf5f593          	andi	a1,a1,-33
    57aa:	c00c                	sw	a1,0(s0)
    57ac:	b7a9                	j	56f6 <_printf_i+0x130>
    57ae:	0405f813          	andi	a6,a1,64
    57b2:	c308                	sw	a0,0(a4)
    57b4:	fe0800e3          	beqz	a6,5794 <_printf_i+0x1ce>
    57b8:	07c2                	slli	a5,a5,0x10
    57ba:	83c1                	srli	a5,a5,0x10
    57bc:	bfe1                	j	5794 <_printf_i+0x1ce>
    57be:	00002697          	auipc	a3,0x2
    57c2:	c6a68693          	addi	a3,a3,-918 # 7428 <__fsym___cmd_ps_name+0x150>
    57c6:	4721                	li	a4,8
    57c8:	b73d                	j	56f6 <_printf_i+0x130>
    57ca:	87ae                	mv	a5,a1
    57cc:	b791                	j	5710 <_printf_i+0x14a>
    57ce:	4194                	lw	a3,0(a1)
    57d0:	431c                	lw	a5,0(a4)
    57d2:	49cc                	lw	a1,20(a1)
    57d4:	0806f813          	andi	a6,a3,128
    57d8:	00478513          	addi	a0,a5,4
    57dc:	00080663          	beqz	a6,57e8 <_printf_i+0x222>
    57e0:	c308                	sw	a0,0(a4)
    57e2:	439c                	lw	a5,0(a5)
    57e4:	c38c                	sw	a1,0(a5)
    57e6:	a801                	j	57f6 <_printf_i+0x230>
    57e8:	c308                	sw	a0,0(a4)
    57ea:	0406f693          	andi	a3,a3,64
    57ee:	439c                	lw	a5,0(a5)
    57f0:	daf5                	beqz	a3,57e4 <_printf_i+0x21e>
    57f2:	00b79023          	sh	a1,0(a5)
    57f6:	00042823          	sw	zero,16(s0)
    57fa:	8ab2                	mv	s5,a2
    57fc:	bf81                	j	574c <_printf_i+0x186>
    57fe:	431c                	lw	a5,0(a4)
    5800:	41d0                	lw	a2,4(a1)
    5802:	4581                	li	a1,0
    5804:	00478693          	addi	a3,a5,4
    5808:	c314                	sw	a3,0(a4)
    580a:	0007aa83          	lw	s5,0(a5)
    580e:	8556                	mv	a0,s5
    5810:	7ae000ef          	jal	ra,5fbe <memchr>
    5814:	c501                	beqz	a0,581c <_printf_i+0x256>
    5816:	41550533          	sub	a0,a0,s5
    581a:	c048                	sw	a0,4(s0)
    581c:	405c                	lw	a5,4(s0)
    581e:	c81c                	sw	a5,16(s0)
    5820:	040401a3          	sb	zero,67(s0)
    5824:	b725                	j	574c <_printf_i+0x186>
    5826:	4814                	lw	a3,16(s0)
    5828:	8656                	mv	a2,s5
    582a:	85ca                	mv	a1,s2
    582c:	8526                	mv	a0,s1
    582e:	9982                	jalr	s3
    5830:	f34508e3          	beq	a0,s4,5760 <_printf_i+0x19a>
    5834:	401c                	lw	a5,0(s0)
    5836:	8b89                	andi	a5,a5,2
    5838:	e78d                	bnez	a5,5862 <_printf_i+0x29c>
    583a:	47b2                	lw	a5,12(sp)
    583c:	4448                	lw	a0,12(s0)
    583e:	f2f552e3          	bge	a0,a5,5762 <_printf_i+0x19c>
    5842:	853e                	mv	a0,a5
    5844:	bf39                	j	5762 <_printf_i+0x19c>
    5846:	4685                	li	a3,1
    5848:	8656                	mv	a2,s5
    584a:	85ca                	mv	a1,s2
    584c:	8526                	mv	a0,s1
    584e:	9982                	jalr	s3
    5850:	f16508e3          	beq	a0,s6,5760 <_printf_i+0x19a>
    5854:	0a05                	addi	s4,s4,1
    5856:	445c                	lw	a5,12(s0)
    5858:	4732                	lw	a4,12(sp)
    585a:	8f99                	sub	a5,a5,a4
    585c:	fefa45e3          	blt	s4,a5,5846 <_printf_i+0x280>
    5860:	bfe9                	j	583a <_printf_i+0x274>
    5862:	4a01                	li	s4,0
    5864:	01940a93          	addi	s5,s0,25
    5868:	5b7d                	li	s6,-1
    586a:	b7f5                	j	5856 <_printf_i+0x290>

0000586c <siprintf>:
sprintf():
    586c:	7135                	addi	sp,sp,-160
    586e:	cb3e                	sw	a5,148(sp)
    5870:	800007b7          	lui	a5,0x80000
    5874:	fff7c793          	not	a5,a5
    5878:	ce3e                	sw	a5,28(sp)
    587a:	c83e                	sw	a5,16(sp)
    587c:	77c1                	lui	a5,0xffff0
    587e:	20878793          	addi	a5,a5,520 # ffff0208 <_eusrstack+0xdffeb208>
    5882:	c532                	sw	a2,136(sp)
    5884:	c736                	sw	a3,140(sp)
    5886:	c93a                	sw	a4,144(sp)
    5888:	cd42                	sw	a6,152(sp)
    588a:	cf46                	sw	a7,156(sp)
    588c:	ca3e                	sw	a5,20(sp)
    588e:	80c18793          	addi	a5,gp,-2036 # 200000bc <_impure_ptr>
    5892:	c42a                	sw	a0,8(sp)
    5894:	cc2a                	sw	a0,24(sp)
    5896:	4388                	lw	a0,0(a5)
    5898:	0134                	addi	a3,sp,136
    589a:	862e                	mv	a2,a1
    589c:	002c                	addi	a1,sp,8
    589e:	de86                	sw	ra,124(sp)
    58a0:	c236                	sw	a3,4(sp)
    58a2:	23d000ef          	jal	ra,62de <_svfiprintf_r>
    58a6:	47a2                	lw	a5,8(sp)
    58a8:	00078023          	sb	zero,0(a5)
    58ac:	50f6                	lw	ra,124(sp)
    58ae:	610d                	addi	sp,sp,160
    58b0:	8082                	ret

000058b2 <strlen>:
strlen():
    58b2:	87aa                	mv	a5,a0
    58b4:	0785                	addi	a5,a5,1
    58b6:	fff7c703          	lbu	a4,-1(a5)
    58ba:	ff6d                	bnez	a4,58b4 <strlen+0x2>
    58bc:	40a78533          	sub	a0,a5,a0
    58c0:	157d                	addi	a0,a0,-1
    58c2:	8082                	ret

000058c4 <strncmp>:
strncmp():
    58c4:	c605                	beqz	a2,58ec <strncmp+0x28>
    58c6:	167d                	addi	a2,a2,-1
    58c8:	4701                	li	a4,0
    58ca:	00e507b3          	add	a5,a0,a4
    58ce:	00e586b3          	add	a3,a1,a4
    58d2:	0007c783          	lbu	a5,0(a5)
    58d6:	0006c683          	lbu	a3,0(a3)
    58da:	00d79663          	bne	a5,a3,58e6 <strncmp+0x22>
    58de:	00c70463          	beq	a4,a2,58e6 <strncmp+0x22>
    58e2:	0705                	addi	a4,a4,1
    58e4:	f3fd                	bnez	a5,58ca <strncmp+0x6>
    58e6:	40d78533          	sub	a0,a5,a3
    58ea:	8082                	ret
    58ec:	4501                	li	a0,0
    58ee:	8082                	ret

000058f0 <strncpy>:
strncpy():
    58f0:	87aa                	mv	a5,a0
    58f2:	ca09                	beqz	a2,5904 <strncpy+0x14>
    58f4:	0585                	addi	a1,a1,1
    58f6:	fff5c703          	lbu	a4,-1(a1)
    58fa:	0785                	addi	a5,a5,1
    58fc:	167d                	addi	a2,a2,-1
    58fe:	fee78fa3          	sb	a4,-1(a5)
    5902:	fb65                	bnez	a4,58f2 <strncpy+0x2>
    5904:	963e                	add	a2,a2,a5
    5906:	00c79363          	bne	a5,a2,590c <strncpy+0x1c>
    590a:	8082                	ret
    590c:	0785                	addi	a5,a5,1
    590e:	fe078fa3          	sb	zero,-1(a5)
    5912:	bfd5                	j	5906 <strncpy+0x16>

00005914 <__swbuf_r>:
__swbuf_r():
    5914:	1101                	addi	sp,sp,-32
    5916:	cc22                	sw	s0,24(sp)
    5918:	ca26                	sw	s1,20(sp)
    591a:	c84a                	sw	s2,16(sp)
    591c:	ce06                	sw	ra,28(sp)
    591e:	c64e                	sw	s3,12(sp)
    5920:	84aa                	mv	s1,a0
    5922:	892e                	mv	s2,a1
    5924:	8432                	mv	s0,a2
    5926:	c501                	beqz	a0,592e <__swbuf_r+0x1a>
    5928:	4d1c                	lw	a5,24(a0)
    592a:	e391                	bnez	a5,592e <__swbuf_r+0x1a>
    592c:	2105                	jal	5d4c <__sinit>
    592e:	00002797          	auipc	a5,0x2
    5932:	b4278793          	addi	a5,a5,-1214 # 7470 <__sf_fake_stdin>
    5936:	06f41963          	bne	s0,a5,59a8 <__swbuf_r+0x94>
    593a:	40c0                	lw	s0,4(s1)
    593c:	4c1c                	lw	a5,24(s0)
    593e:	c41c                	sw	a5,8(s0)
    5940:	00c45783          	lhu	a5,12(s0)
    5944:	8ba1                	andi	a5,a5,8
    5946:	c3c9                	beqz	a5,59c8 <__swbuf_r+0xb4>
    5948:	481c                	lw	a5,16(s0)
    594a:	cfbd                	beqz	a5,59c8 <__swbuf_r+0xb4>
    594c:	481c                	lw	a5,16(s0)
    594e:	4008                	lw	a0,0(s0)
    5950:	0ff97993          	andi	s3,s2,255
    5954:	0ff97913          	andi	s2,s2,255
    5958:	8d1d                	sub	a0,a0,a5
    595a:	485c                	lw	a5,20(s0)
    595c:	00f54663          	blt	a0,a5,5968 <__swbuf_r+0x54>
    5960:	85a2                	mv	a1,s0
    5962:	8526                	mv	a0,s1
    5964:	24e1                	jal	5c2c <_fflush_r>
    5966:	e52d                	bnez	a0,59d0 <__swbuf_r+0xbc>
    5968:	441c                	lw	a5,8(s0)
    596a:	0505                	addi	a0,a0,1
    596c:	17fd                	addi	a5,a5,-1
    596e:	c41c                	sw	a5,8(s0)
    5970:	401c                	lw	a5,0(s0)
    5972:	00178713          	addi	a4,a5,1
    5976:	c018                	sw	a4,0(s0)
    5978:	01378023          	sb	s3,0(a5)
    597c:	485c                	lw	a5,20(s0)
    597e:	00a78963          	beq	a5,a0,5990 <__swbuf_r+0x7c>
    5982:	00c45783          	lhu	a5,12(s0)
    5986:	8b85                	andi	a5,a5,1
    5988:	cb81                	beqz	a5,5998 <__swbuf_r+0x84>
    598a:	47a9                	li	a5,10
    598c:	00f91663          	bne	s2,a5,5998 <__swbuf_r+0x84>
    5990:	85a2                	mv	a1,s0
    5992:	8526                	mv	a0,s1
    5994:	2c61                	jal	5c2c <_fflush_r>
    5996:	ed0d                	bnez	a0,59d0 <__swbuf_r+0xbc>
    5998:	40f2                	lw	ra,28(sp)
    599a:	4462                	lw	s0,24(sp)
    599c:	854a                	mv	a0,s2
    599e:	44d2                	lw	s1,20(sp)
    59a0:	4942                	lw	s2,16(sp)
    59a2:	49b2                	lw	s3,12(sp)
    59a4:	6105                	addi	sp,sp,32
    59a6:	8082                	ret
    59a8:	00002797          	auipc	a5,0x2
    59ac:	ae878793          	addi	a5,a5,-1304 # 7490 <__sf_fake_stdout>
    59b0:	00f41463          	bne	s0,a5,59b8 <__swbuf_r+0xa4>
    59b4:	4480                	lw	s0,8(s1)
    59b6:	b759                	j	593c <__swbuf_r+0x28>
    59b8:	00002797          	auipc	a5,0x2
    59bc:	a9878793          	addi	a5,a5,-1384 # 7450 <__sf_fake_stderr>
    59c0:	f6f41ee3          	bne	s0,a5,593c <__swbuf_r+0x28>
    59c4:	44c0                	lw	s0,12(s1)
    59c6:	bf9d                	j	593c <__swbuf_r+0x28>
    59c8:	85a2                	mv	a1,s0
    59ca:	8526                	mv	a0,s1
    59cc:	2021                	jal	59d4 <__swsetup_r>
    59ce:	dd3d                	beqz	a0,594c <__swbuf_r+0x38>
    59d0:	597d                	li	s2,-1
    59d2:	b7d9                	j	5998 <__swbuf_r+0x84>

000059d4 <__swsetup_r>:
__swsetup_r():
    59d4:	1141                	addi	sp,sp,-16
    59d6:	80c18793          	addi	a5,gp,-2036 # 200000bc <_impure_ptr>
    59da:	c226                	sw	s1,4(sp)
    59dc:	4384                	lw	s1,0(a5)
    59de:	c422                	sw	s0,8(sp)
    59e0:	c04a                	sw	s2,0(sp)
    59e2:	c606                	sw	ra,12(sp)
    59e4:	892a                	mv	s2,a0
    59e6:	842e                	mv	s0,a1
    59e8:	c489                	beqz	s1,59f2 <__swsetup_r+0x1e>
    59ea:	4c9c                	lw	a5,24(s1)
    59ec:	e399                	bnez	a5,59f2 <__swsetup_r+0x1e>
    59ee:	8526                	mv	a0,s1
    59f0:	2eb1                	jal	5d4c <__sinit>
    59f2:	00002797          	auipc	a5,0x2
    59f6:	a7e78793          	addi	a5,a5,-1410 # 7470 <__sf_fake_stdin>
    59fa:	02f41c63          	bne	s0,a5,5a32 <__swsetup_r+0x5e>
    59fe:	40c0                	lw	s0,4(s1)
    5a00:	00c41703          	lh	a4,12(s0)
    5a04:	01071793          	slli	a5,a4,0x10
    5a08:	83c1                	srli	a5,a5,0x10
    5a0a:	0087f693          	andi	a3,a5,8
    5a0e:	eeb5                	bnez	a3,5a8a <__swsetup_r+0xb6>
    5a10:	0107f693          	andi	a3,a5,16
    5a14:	ee9d                	bnez	a3,5a52 <__swsetup_r+0x7e>
    5a16:	47a5                	li	a5,9
    5a18:	00f92023          	sw	a5,0(s2)
    5a1c:	04076713          	ori	a4,a4,64
    5a20:	00e41623          	sh	a4,12(s0)
    5a24:	557d                	li	a0,-1
    5a26:	40b2                	lw	ra,12(sp)
    5a28:	4422                	lw	s0,8(sp)
    5a2a:	4492                	lw	s1,4(sp)
    5a2c:	4902                	lw	s2,0(sp)
    5a2e:	0141                	addi	sp,sp,16
    5a30:	8082                	ret
    5a32:	00002797          	auipc	a5,0x2
    5a36:	a5e78793          	addi	a5,a5,-1442 # 7490 <__sf_fake_stdout>
    5a3a:	00f41463          	bne	s0,a5,5a42 <__swsetup_r+0x6e>
    5a3e:	4480                	lw	s0,8(s1)
    5a40:	b7c1                	j	5a00 <__swsetup_r+0x2c>
    5a42:	00002797          	auipc	a5,0x2
    5a46:	a0e78793          	addi	a5,a5,-1522 # 7450 <__sf_fake_stderr>
    5a4a:	faf41be3          	bne	s0,a5,5a00 <__swsetup_r+0x2c>
    5a4e:	44c0                	lw	s0,12(s1)
    5a50:	bf45                	j	5a00 <__swsetup_r+0x2c>
    5a52:	8b91                	andi	a5,a5,4
    5a54:	c78d                	beqz	a5,5a7e <__swsetup_r+0xaa>
    5a56:	584c                	lw	a1,52(s0)
    5a58:	c989                	beqz	a1,5a6a <__swsetup_r+0x96>
    5a5a:	04440793          	addi	a5,s0,68
    5a5e:	00f58463          	beq	a1,a5,5a66 <__swsetup_r+0x92>
    5a62:	854a                	mv	a0,s2
    5a64:	2b7d                	jal	6022 <_free_r>
    5a66:	02042a23          	sw	zero,52(s0)
    5a6a:	00c45783          	lhu	a5,12(s0)
    5a6e:	00042223          	sw	zero,4(s0)
    5a72:	fdb7f793          	andi	a5,a5,-37
    5a76:	00f41623          	sh	a5,12(s0)
    5a7a:	481c                	lw	a5,16(s0)
    5a7c:	c01c                	sw	a5,0(s0)
    5a7e:	00c45783          	lhu	a5,12(s0)
    5a82:	0087e793          	ori	a5,a5,8
    5a86:	00f41623          	sh	a5,12(s0)
    5a8a:	481c                	lw	a5,16(s0)
    5a8c:	ef81                	bnez	a5,5aa4 <__swsetup_r+0xd0>
    5a8e:	00c45783          	lhu	a5,12(s0)
    5a92:	20000713          	li	a4,512
    5a96:	2807f793          	andi	a5,a5,640
    5a9a:	00e78563          	beq	a5,a4,5aa4 <__swsetup_r+0xd0>
    5a9e:	85a2                	mv	a1,s0
    5aa0:	854a                	mv	a0,s2
    5aa2:	29b5                	jal	5f1e <__smakebuf_r>
    5aa4:	00c45783          	lhu	a5,12(s0)
    5aa8:	0017f713          	andi	a4,a5,1
    5aac:	c705                	beqz	a4,5ad4 <__swsetup_r+0x100>
    5aae:	485c                	lw	a5,20(s0)
    5ab0:	00042423          	sw	zero,8(s0)
    5ab4:	40f007b3          	neg	a5,a5
    5ab8:	cc1c                	sw	a5,24(s0)
    5aba:	481c                	lw	a5,16(s0)
    5abc:	4501                	li	a0,0
    5abe:	f7a5                	bnez	a5,5a26 <__swsetup_r+0x52>
    5ac0:	00c41783          	lh	a5,12(s0)
    5ac4:	0807f713          	andi	a4,a5,128
    5ac8:	df39                	beqz	a4,5a26 <__swsetup_r+0x52>
    5aca:	0407e793          	ori	a5,a5,64
    5ace:	00f41623          	sh	a5,12(s0)
    5ad2:	bf89                	j	5a24 <__swsetup_r+0x50>
    5ad4:	8b89                	andi	a5,a5,2
    5ad6:	4701                	li	a4,0
    5ad8:	e391                	bnez	a5,5adc <__swsetup_r+0x108>
    5ada:	4858                	lw	a4,20(s0)
    5adc:	c418                	sw	a4,8(s0)
    5ade:	bff1                	j	5aba <__swsetup_r+0xe6>

00005ae0 <abort>:
abort():
    5ae0:	1141                	addi	sp,sp,-16
    5ae2:	4519                	li	a0,6
    5ae4:	c606                	sw	ra,12(sp)
    5ae6:	30d000ef          	jal	ra,65f2 <raise>
    5aea:	4505                	li	a0,1
    5aec:	5dd000ef          	jal	ra,68c8 <_exit>

00005af0 <__sflush_r>:
__sflush_r():
    5af0:	00c5d783          	lhu	a5,12(a1)
    5af4:	1101                	addi	sp,sp,-32
    5af6:	cc22                	sw	s0,24(sp)
    5af8:	ca26                	sw	s1,20(sp)
    5afa:	ce06                	sw	ra,28(sp)
    5afc:	c84a                	sw	s2,16(sp)
    5afe:	c64e                	sw	s3,12(sp)
    5b00:	0087f713          	andi	a4,a5,8
    5b04:	84aa                	mv	s1,a0
    5b06:	842e                	mv	s0,a1
    5b08:	ef71                	bnez	a4,5be4 <__sflush_r+0xf4>
    5b0a:	41d8                	lw	a4,4(a1)
    5b0c:	00e04d63          	bgtz	a4,5b26 <__sflush_r+0x36>
    5b10:	41b8                	lw	a4,64(a1)
    5b12:	00e04a63          	bgtz	a4,5b26 <__sflush_r+0x36>
    5b16:	4501                	li	a0,0
    5b18:	40f2                	lw	ra,28(sp)
    5b1a:	4462                	lw	s0,24(sp)
    5b1c:	44d2                	lw	s1,20(sp)
    5b1e:	4942                	lw	s2,16(sp)
    5b20:	49b2                	lw	s3,12(sp)
    5b22:	6105                	addi	sp,sp,32
    5b24:	8082                	ret
    5b26:	5458                	lw	a4,44(s0)
    5b28:	d77d                	beqz	a4,5b16 <__sflush_r+0x26>
    5b2a:	0004a903          	lw	s2,0(s1)
    5b2e:	01379693          	slli	a3,a5,0x13
    5b32:	0004a023          	sw	zero,0(s1)
    5b36:	0606dd63          	bgez	a3,5bb0 <__sflush_r+0xc0>
    5b3a:	4870                	lw	a2,84(s0)
    5b3c:	00c45783          	lhu	a5,12(s0)
    5b40:	8b91                	andi	a5,a5,4
    5b42:	c799                	beqz	a5,5b50 <__sflush_r+0x60>
    5b44:	405c                	lw	a5,4(s0)
    5b46:	8e1d                	sub	a2,a2,a5
    5b48:	585c                	lw	a5,52(s0)
    5b4a:	c399                	beqz	a5,5b50 <__sflush_r+0x60>
    5b4c:	403c                	lw	a5,64(s0)
    5b4e:	8e1d                	sub	a2,a2,a5
    5b50:	545c                	lw	a5,44(s0)
    5b52:	500c                	lw	a1,32(s0)
    5b54:	4681                	li	a3,0
    5b56:	8526                	mv	a0,s1
    5b58:	9782                	jalr	a5
    5b5a:	57fd                	li	a5,-1
    5b5c:	00c45703          	lhu	a4,12(s0)
    5b60:	00f51d63          	bne	a0,a5,5b7a <__sflush_r+0x8a>
    5b64:	4094                	lw	a3,0(s1)
    5b66:	47f5                	li	a5,29
    5b68:	06d7e863          	bltu	a5,a3,5bd8 <__sflush_r+0xe8>
    5b6c:	204007b7          	lui	a5,0x20400
    5b70:	0785                	addi	a5,a5,1
    5b72:	00d7d7b3          	srl	a5,a5,a3
    5b76:	8b85                	andi	a5,a5,1
    5b78:	c3a5                	beqz	a5,5bd8 <__sflush_r+0xe8>
    5b7a:	481c                	lw	a5,16(s0)
    5b7c:	00042223          	sw	zero,4(s0)
    5b80:	c01c                	sw	a5,0(s0)
    5b82:	01371793          	slli	a5,a4,0x13
    5b86:	0007d863          	bgez	a5,5b96 <__sflush_r+0xa6>
    5b8a:	57fd                	li	a5,-1
    5b8c:	00f51463          	bne	a0,a5,5b94 <__sflush_r+0xa4>
    5b90:	409c                	lw	a5,0(s1)
    5b92:	e391                	bnez	a5,5b96 <__sflush_r+0xa6>
    5b94:	c868                	sw	a0,84(s0)
    5b96:	584c                	lw	a1,52(s0)
    5b98:	0124a023          	sw	s2,0(s1)
    5b9c:	ddad                	beqz	a1,5b16 <__sflush_r+0x26>
    5b9e:	04440793          	addi	a5,s0,68
    5ba2:	00f58463          	beq	a1,a5,5baa <__sflush_r+0xba>
    5ba6:	8526                	mv	a0,s1
    5ba8:	29ad                	jal	6022 <_free_r>
    5baa:	02042a23          	sw	zero,52(s0)
    5bae:	b7a5                	j	5b16 <__sflush_r+0x26>
    5bb0:	500c                	lw	a1,32(s0)
    5bb2:	4601                	li	a2,0
    5bb4:	4685                	li	a3,1
    5bb6:	8526                	mv	a0,s1
    5bb8:	9702                	jalr	a4
    5bba:	57fd                	li	a5,-1
    5bbc:	862a                	mv	a2,a0
    5bbe:	f6f51fe3          	bne	a0,a5,5b3c <__sflush_r+0x4c>
    5bc2:	409c                	lw	a5,0(s1)
    5bc4:	dfa5                	beqz	a5,5b3c <__sflush_r+0x4c>
    5bc6:	4775                	li	a4,29
    5bc8:	00e78563          	beq	a5,a4,5bd2 <__sflush_r+0xe2>
    5bcc:	4759                	li	a4,22
    5bce:	04e79463          	bne	a5,a4,5c16 <__sflush_r+0x126>
    5bd2:	0124a023          	sw	s2,0(s1)
    5bd6:	b781                	j	5b16 <__sflush_r+0x26>
    5bd8:	04076713          	ori	a4,a4,64
    5bdc:	00e41623          	sh	a4,12(s0)
    5be0:	557d                	li	a0,-1
    5be2:	bf1d                	j	5b18 <__sflush_r+0x28>
    5be4:	0105a983          	lw	s3,16(a1)
    5be8:	f20987e3          	beqz	s3,5b16 <__sflush_r+0x26>
    5bec:	0005a903          	lw	s2,0(a1)
    5bf0:	8b8d                	andi	a5,a5,3
    5bf2:	0135a023          	sw	s3,0(a1)
    5bf6:	41390933          	sub	s2,s2,s3
    5bfa:	4701                	li	a4,0
    5bfc:	e391                	bnez	a5,5c00 <__sflush_r+0x110>
    5bfe:	49d8                	lw	a4,20(a1)
    5c00:	c418                	sw	a4,8(s0)
    5c02:	f1205ae3          	blez	s2,5b16 <__sflush_r+0x26>
    5c06:	541c                	lw	a5,40(s0)
    5c08:	500c                	lw	a1,32(s0)
    5c0a:	86ca                	mv	a3,s2
    5c0c:	864e                	mv	a2,s3
    5c0e:	8526                	mv	a0,s1
    5c10:	9782                	jalr	a5
    5c12:	00a04963          	bgtz	a0,5c24 <__sflush_r+0x134>
    5c16:	00c45783          	lhu	a5,12(s0)
    5c1a:	0407e793          	ori	a5,a5,64
    5c1e:	00f41623          	sh	a5,12(s0)
    5c22:	bf7d                	j	5be0 <__sflush_r+0xf0>
    5c24:	99aa                	add	s3,s3,a0
    5c26:	40a90933          	sub	s2,s2,a0
    5c2a:	bfe1                	j	5c02 <__sflush_r+0x112>

00005c2c <_fflush_r>:
_fflush_r():
    5c2c:	499c                	lw	a5,16(a1)
    5c2e:	c3a5                	beqz	a5,5c8e <_fflush_r+0x62>
    5c30:	1101                	addi	sp,sp,-32
    5c32:	cc22                	sw	s0,24(sp)
    5c34:	ce06                	sw	ra,28(sp)
    5c36:	842a                	mv	s0,a0
    5c38:	c511                	beqz	a0,5c44 <_fflush_r+0x18>
    5c3a:	4d1c                	lw	a5,24(a0)
    5c3c:	e781                	bnez	a5,5c44 <_fflush_r+0x18>
    5c3e:	c62e                	sw	a1,12(sp)
    5c40:	2231                	jal	5d4c <__sinit>
    5c42:	45b2                	lw	a1,12(sp)
    5c44:	00002797          	auipc	a5,0x2
    5c48:	82c78793          	addi	a5,a5,-2004 # 7470 <__sf_fake_stdin>
    5c4c:	00f59c63          	bne	a1,a5,5c64 <_fflush_r+0x38>
    5c50:	404c                	lw	a1,4(s0)
    5c52:	00c59783          	lh	a5,12(a1)
    5c56:	c79d                	beqz	a5,5c84 <_fflush_r+0x58>
    5c58:	8522                	mv	a0,s0
    5c5a:	4462                	lw	s0,24(sp)
    5c5c:	40f2                	lw	ra,28(sp)
    5c5e:	6105                	addi	sp,sp,32
    5c60:	e91ff06f          	j	5af0 <__sflush_r>
    5c64:	00002797          	auipc	a5,0x2
    5c68:	82c78793          	addi	a5,a5,-2004 # 7490 <__sf_fake_stdout>
    5c6c:	00f59463          	bne	a1,a5,5c74 <_fflush_r+0x48>
    5c70:	440c                	lw	a1,8(s0)
    5c72:	b7c5                	j	5c52 <_fflush_r+0x26>
    5c74:	00001797          	auipc	a5,0x1
    5c78:	7dc78793          	addi	a5,a5,2012 # 7450 <__sf_fake_stderr>
    5c7c:	fcf59be3          	bne	a1,a5,5c52 <_fflush_r+0x26>
    5c80:	444c                	lw	a1,12(s0)
    5c82:	bfc1                	j	5c52 <_fflush_r+0x26>
    5c84:	40f2                	lw	ra,28(sp)
    5c86:	4462                	lw	s0,24(sp)
    5c88:	4501                	li	a0,0
    5c8a:	6105                	addi	sp,sp,32
    5c8c:	8082                	ret
    5c8e:	4501                	li	a0,0
    5c90:	8082                	ret

00005c92 <std>:
std():
    5c92:	1141                	addi	sp,sp,-16
    5c94:	c422                	sw	s0,8(sp)
    5c96:	c606                	sw	ra,12(sp)
    5c98:	842a                	mv	s0,a0
    5c9a:	00b51623          	sh	a1,12(a0)
    5c9e:	00c51723          	sh	a2,14(a0)
    5ca2:	00052023          	sw	zero,0(a0)
    5ca6:	00052223          	sw	zero,4(a0)
    5caa:	00052423          	sw	zero,8(a0)
    5cae:	06052223          	sw	zero,100(a0)
    5cb2:	00052823          	sw	zero,16(a0)
    5cb6:	00052a23          	sw	zero,20(a0)
    5cba:	00052c23          	sw	zero,24(a0)
    5cbe:	4621                	li	a2,8
    5cc0:	4581                	li	a1,0
    5cc2:	05c50513          	addi	a0,a0,92
    5cc6:	d48fa0ef          	jal	ra,20e <memset>
    5cca:	00001797          	auipc	a5,0x1
    5cce:	96878793          	addi	a5,a5,-1688 # 6632 <__sread>
    5cd2:	d05c                	sw	a5,36(s0)
    5cd4:	00001797          	auipc	a5,0x1
    5cd8:	98e78793          	addi	a5,a5,-1650 # 6662 <__swrite>
    5cdc:	d41c                	sw	a5,40(s0)
    5cde:	00001797          	auipc	a5,0x1
    5ce2:	9d278793          	addi	a5,a5,-1582 # 66b0 <__sseek>
    5ce6:	d45c                	sw	a5,44(s0)
    5ce8:	00001797          	auipc	a5,0x1
    5cec:	9fe78793          	addi	a5,a5,-1538 # 66e6 <__sclose>
    5cf0:	d000                	sw	s0,32(s0)
    5cf2:	d81c                	sw	a5,48(s0)
    5cf4:	40b2                	lw	ra,12(sp)
    5cf6:	4422                	lw	s0,8(sp)
    5cf8:	0141                	addi	sp,sp,16
    5cfa:	8082                	ret

00005cfc <_cleanup_r>:
_cleanup_r():
    5cfc:	00000597          	auipc	a1,0x0
    5d00:	f3058593          	addi	a1,a1,-208 # 5c2c <_fflush_r>
    5d04:	aa91                	j	5e58 <_fwalk_reent>

00005d06 <__sfmoreglue>:
__sfmoreglue():
    5d06:	1141                	addi	sp,sp,-16
    5d08:	c226                	sw	s1,4(sp)
    5d0a:	06800613          	li	a2,104
    5d0e:	fff58493          	addi	s1,a1,-1
    5d12:	02c484b3          	mul	s1,s1,a2
    5d16:	c04a                	sw	s2,0(sp)
    5d18:	892e                	mv	s2,a1
    5d1a:	c422                	sw	s0,8(sp)
    5d1c:	c606                	sw	ra,12(sp)
    5d1e:	07448593          	addi	a1,s1,116
    5d22:	2665                	jal	60ca <_malloc_r>
    5d24:	842a                	mv	s0,a0
    5d26:	cd01                	beqz	a0,5d3e <__sfmoreglue+0x38>
    5d28:	00052023          	sw	zero,0(a0)
    5d2c:	01252223          	sw	s2,4(a0)
    5d30:	0531                	addi	a0,a0,12
    5d32:	c408                	sw	a0,8(s0)
    5d34:	06848613          	addi	a2,s1,104
    5d38:	4581                	li	a1,0
    5d3a:	cd4fa0ef          	jal	ra,20e <memset>
    5d3e:	8522                	mv	a0,s0
    5d40:	40b2                	lw	ra,12(sp)
    5d42:	4422                	lw	s0,8(sp)
    5d44:	4492                	lw	s1,4(sp)
    5d46:	4902                	lw	s2,0(sp)
    5d48:	0141                	addi	sp,sp,16
    5d4a:	8082                	ret

00005d4c <__sinit>:
__sinit():
    5d4c:	4d1c                	lw	a5,24(a0)
    5d4e:	e7a5                	bnez	a5,5db6 <__sinit+0x6a>
    5d50:	1141                	addi	sp,sp,-16
    5d52:	c606                	sw	ra,12(sp)
    5d54:	c422                	sw	s0,8(sp)
    5d56:	00000797          	auipc	a5,0x0
    5d5a:	fa678793          	addi	a5,a5,-90 # 5cfc <_cleanup_r>
    5d5e:	d51c                	sw	a5,40(a0)
    5d60:	82818793          	addi	a5,gp,-2008 # 200000d8 <_global_impure_ptr>
    5d64:	439c                	lw	a5,0(a5)
    5d66:	04052423          	sw	zero,72(a0)
    5d6a:	04052623          	sw	zero,76(a0)
    5d6e:	04052823          	sw	zero,80(a0)
    5d72:	00f51463          	bne	a0,a5,5d7a <__sinit+0x2e>
    5d76:	4785                	li	a5,1
    5d78:	cd1c                	sw	a5,24(a0)
    5d7a:	842a                	mv	s0,a0
    5d7c:	2835                	jal	5db8 <__sfp>
    5d7e:	c048                	sw	a0,4(s0)
    5d80:	8522                	mv	a0,s0
    5d82:	281d                	jal	5db8 <__sfp>
    5d84:	c408                	sw	a0,8(s0)
    5d86:	8522                	mv	a0,s0
    5d88:	2805                	jal	5db8 <__sfp>
    5d8a:	c448                	sw	a0,12(s0)
    5d8c:	4048                	lw	a0,4(s0)
    5d8e:	4601                	li	a2,0
    5d90:	4591                	li	a1,4
    5d92:	f01ff0ef          	jal	ra,5c92 <std>
    5d96:	4408                	lw	a0,8(s0)
    5d98:	4605                	li	a2,1
    5d9a:	45a5                	li	a1,9
    5d9c:	ef7ff0ef          	jal	ra,5c92 <std>
    5da0:	4448                	lw	a0,12(s0)
    5da2:	4609                	li	a2,2
    5da4:	45c9                	li	a1,18
    5da6:	eedff0ef          	jal	ra,5c92 <std>
    5daa:	4785                	li	a5,1
    5dac:	cc1c                	sw	a5,24(s0)
    5dae:	40b2                	lw	ra,12(sp)
    5db0:	4422                	lw	s0,8(sp)
    5db2:	0141                	addi	sp,sp,16
    5db4:	8082                	ret
    5db6:	8082                	ret

00005db8 <__sfp>:
__sfp():
    5db8:	1141                	addi	sp,sp,-16
    5dba:	82818793          	addi	a5,gp,-2008 # 200000d8 <_global_impure_ptr>
    5dbe:	c226                	sw	s1,4(sp)
    5dc0:	4384                	lw	s1,0(a5)
    5dc2:	c04a                	sw	s2,0(sp)
    5dc4:	c606                	sw	ra,12(sp)
    5dc6:	4c9c                	lw	a5,24(s1)
    5dc8:	c422                	sw	s0,8(sp)
    5dca:	892a                	mv	s2,a0
    5dcc:	e781                	bnez	a5,5dd4 <__sfp+0x1c>
    5dce:	8526                	mv	a0,s1
    5dd0:	f7dff0ef          	jal	ra,5d4c <__sinit>
    5dd4:	04848493          	addi	s1,s1,72
    5dd8:	4480                	lw	s0,8(s1)
    5dda:	40dc                	lw	a5,4(s1)
    5ddc:	17fd                	addi	a5,a5,-1
    5dde:	0007d663          	bgez	a5,5dea <__sfp+0x32>
    5de2:	409c                	lw	a5,0(s1)
    5de4:	cfb9                	beqz	a5,5e42 <__sfp+0x8a>
    5de6:	4084                	lw	s1,0(s1)
    5de8:	bfc5                	j	5dd8 <__sfp+0x20>
    5dea:	00c41703          	lh	a4,12(s0)
    5dee:	e739                	bnez	a4,5e3c <__sfp+0x84>
    5df0:	77c1                	lui	a5,0xffff0
    5df2:	0785                	addi	a5,a5,1
    5df4:	06042223          	sw	zero,100(s0)
    5df8:	00042023          	sw	zero,0(s0)
    5dfc:	00042223          	sw	zero,4(s0)
    5e00:	00042423          	sw	zero,8(s0)
    5e04:	c45c                	sw	a5,12(s0)
    5e06:	00042823          	sw	zero,16(s0)
    5e0a:	00042a23          	sw	zero,20(s0)
    5e0e:	00042c23          	sw	zero,24(s0)
    5e12:	4621                	li	a2,8
    5e14:	4581                	li	a1,0
    5e16:	05c40513          	addi	a0,s0,92
    5e1a:	bf4fa0ef          	jal	ra,20e <memset>
    5e1e:	02042a23          	sw	zero,52(s0)
    5e22:	02042c23          	sw	zero,56(s0)
    5e26:	04042423          	sw	zero,72(s0)
    5e2a:	04042623          	sw	zero,76(s0)
    5e2e:	8522                	mv	a0,s0
    5e30:	40b2                	lw	ra,12(sp)
    5e32:	4422                	lw	s0,8(sp)
    5e34:	4492                	lw	s1,4(sp)
    5e36:	4902                	lw	s2,0(sp)
    5e38:	0141                	addi	sp,sp,16
    5e3a:	8082                	ret
    5e3c:	06840413          	addi	s0,s0,104
    5e40:	bf71                	j	5ddc <__sfp+0x24>
    5e42:	4591                	li	a1,4
    5e44:	854a                	mv	a0,s2
    5e46:	ec1ff0ef          	jal	ra,5d06 <__sfmoreglue>
    5e4a:	c088                	sw	a0,0(s1)
    5e4c:	fd49                	bnez	a0,5de6 <__sfp+0x2e>
    5e4e:	47b1                	li	a5,12
    5e50:	00f92023          	sw	a5,0(s2)
    5e54:	4401                	li	s0,0
    5e56:	bfe1                	j	5e2e <__sfp+0x76>

00005e58 <_fwalk_reent>:
_fwalk_reent():
    5e58:	7179                	addi	sp,sp,-48
    5e5a:	d422                	sw	s0,40(sp)
    5e5c:	d04a                	sw	s2,32(sp)
    5e5e:	cc52                	sw	s4,24(sp)
    5e60:	ca56                	sw	s5,20(sp)
    5e62:	c85a                	sw	s6,16(sp)
    5e64:	c65e                	sw	s7,12(sp)
    5e66:	d606                	sw	ra,44(sp)
    5e68:	d226                	sw	s1,36(sp)
    5e6a:	ce4e                	sw	s3,28(sp)
    5e6c:	8a2a                	mv	s4,a0
    5e6e:	8aae                	mv	s5,a1
    5e70:	04850413          	addi	s0,a0,72
    5e74:	4901                	li	s2,0
    5e76:	4b05                	li	s6,1
    5e78:	5bfd                	li	s7,-1
    5e7a:	ec09                	bnez	s0,5e94 <_fwalk_reent+0x3c>
    5e7c:	50b2                	lw	ra,44(sp)
    5e7e:	5422                	lw	s0,40(sp)
    5e80:	854a                	mv	a0,s2
    5e82:	5492                	lw	s1,36(sp)
    5e84:	5902                	lw	s2,32(sp)
    5e86:	49f2                	lw	s3,28(sp)
    5e88:	4a62                	lw	s4,24(sp)
    5e8a:	4ad2                	lw	s5,20(sp)
    5e8c:	4b42                	lw	s6,16(sp)
    5e8e:	4bb2                	lw	s7,12(sp)
    5e90:	6145                	addi	sp,sp,48
    5e92:	8082                	ret
    5e94:	4404                	lw	s1,8(s0)
    5e96:	00442983          	lw	s3,4(s0)
    5e9a:	19fd                	addi	s3,s3,-1
    5e9c:	0009d463          	bgez	s3,5ea4 <_fwalk_reent+0x4c>
    5ea0:	4000                	lw	s0,0(s0)
    5ea2:	bfe1                	j	5e7a <_fwalk_reent+0x22>
    5ea4:	00c4d783          	lhu	a5,12(s1)
    5ea8:	00fb7b63          	bgeu	s6,a5,5ebe <_fwalk_reent+0x66>
    5eac:	00e49783          	lh	a5,14(s1)
    5eb0:	01778763          	beq	a5,s7,5ebe <_fwalk_reent+0x66>
    5eb4:	85a6                	mv	a1,s1
    5eb6:	8552                	mv	a0,s4
    5eb8:	9a82                	jalr	s5
    5eba:	00a96933          	or	s2,s2,a0
    5ebe:	06848493          	addi	s1,s1,104
    5ec2:	bfe1                	j	5e9a <_fwalk_reent+0x42>

00005ec4 <__swhatbuf_r>:
__swhatbuf_r():
    5ec4:	7119                	addi	sp,sp,-128
    5ec6:	daa6                	sw	s1,116(sp)
    5ec8:	84ae                	mv	s1,a1
    5eca:	00e59583          	lh	a1,14(a1)
    5ece:	dca2                	sw	s0,120(sp)
    5ed0:	de86                	sw	ra,124(sp)
    5ed2:	8432                	mv	s0,a2
    5ed4:	0005dc63          	bgez	a1,5eec <__swhatbuf_r+0x28>
    5ed8:	00c4d783          	lhu	a5,12(s1)
    5edc:	0006a023          	sw	zero,0(a3)
    5ee0:	0807f793          	andi	a5,a5,128
    5ee4:	e785                	bnez	a5,5f0c <__swhatbuf_r+0x48>
    5ee6:	40000793          	li	a5,1024
    5eea:	a01d                	j	5f10 <__swhatbuf_r+0x4c>
    5eec:	0830                	addi	a2,sp,24
    5eee:	c636                	sw	a3,12(sp)
    5ef0:	063000ef          	jal	ra,6752 <_fstat_r>
    5ef4:	46b2                	lw	a3,12(sp)
    5ef6:	fe0541e3          	bltz	a0,5ed8 <__swhatbuf_r+0x14>
    5efa:	4772                	lw	a4,28(sp)
    5efc:	67bd                	lui	a5,0xf
    5efe:	8ff9                	and	a5,a5,a4
    5f00:	7779                	lui	a4,0xffffe
    5f02:	97ba                	add	a5,a5,a4
    5f04:	0017b793          	seqz	a5,a5
    5f08:	c29c                	sw	a5,0(a3)
    5f0a:	bff1                	j	5ee6 <__swhatbuf_r+0x22>
    5f0c:	04000793          	li	a5,64
    5f10:	c01c                	sw	a5,0(s0)
    5f12:	50f6                	lw	ra,124(sp)
    5f14:	5466                	lw	s0,120(sp)
    5f16:	54d6                	lw	s1,116(sp)
    5f18:	4501                	li	a0,0
    5f1a:	6109                	addi	sp,sp,128
    5f1c:	8082                	ret

00005f1e <__smakebuf_r>:
__smakebuf_r():
    5f1e:	00c5d783          	lhu	a5,12(a1)
    5f22:	1101                	addi	sp,sp,-32
    5f24:	cc22                	sw	s0,24(sp)
    5f26:	ce06                	sw	ra,28(sp)
    5f28:	ca26                	sw	s1,20(sp)
    5f2a:	c84a                	sw	s2,16(sp)
    5f2c:	8b89                	andi	a5,a5,2
    5f2e:	842e                	mv	s0,a1
    5f30:	cf89                	beqz	a5,5f4a <__smakebuf_r+0x2c>
    5f32:	04740793          	addi	a5,s0,71
    5f36:	c01c                	sw	a5,0(s0)
    5f38:	c81c                	sw	a5,16(s0)
    5f3a:	4785                	li	a5,1
    5f3c:	c85c                	sw	a5,20(s0)
    5f3e:	40f2                	lw	ra,28(sp)
    5f40:	4462                	lw	s0,24(sp)
    5f42:	44d2                	lw	s1,20(sp)
    5f44:	4942                	lw	s2,16(sp)
    5f46:	6105                	addi	sp,sp,32
    5f48:	8082                	ret
    5f4a:	0074                	addi	a3,sp,12
    5f4c:	0030                	addi	a2,sp,8
    5f4e:	84aa                	mv	s1,a0
    5f50:	f75ff0ef          	jal	ra,5ec4 <__swhatbuf_r>
    5f54:	45a2                	lw	a1,8(sp)
    5f56:	892a                	mv	s2,a0
    5f58:	8526                	mv	a0,s1
    5f5a:	2a85                	jal	60ca <_malloc_r>
    5f5c:	ed01                	bnez	a0,5f74 <__smakebuf_r+0x56>
    5f5e:	00c41783          	lh	a5,12(s0)
    5f62:	2007f713          	andi	a4,a5,512
    5f66:	ff61                	bnez	a4,5f3e <__smakebuf_r+0x20>
    5f68:	9bf1                	andi	a5,a5,-4
    5f6a:	0027e793          	ori	a5,a5,2
    5f6e:	00f41623          	sh	a5,12(s0)
    5f72:	b7c1                	j	5f32 <__smakebuf_r+0x14>
    5f74:	00000797          	auipc	a5,0x0
    5f78:	d8878793          	addi	a5,a5,-632 # 5cfc <_cleanup_r>
    5f7c:	d49c                	sw	a5,40(s1)
    5f7e:	00c45783          	lhu	a5,12(s0)
    5f82:	c008                	sw	a0,0(s0)
    5f84:	c808                	sw	a0,16(s0)
    5f86:	0807e793          	ori	a5,a5,128
    5f8a:	00f41623          	sh	a5,12(s0)
    5f8e:	47a2                	lw	a5,8(sp)
    5f90:	c85c                	sw	a5,20(s0)
    5f92:	47b2                	lw	a5,12(sp)
    5f94:	cf91                	beqz	a5,5fb0 <__smakebuf_r+0x92>
    5f96:	00e41583          	lh	a1,14(s0)
    5f9a:	8526                	mv	a0,s1
    5f9c:	7e8000ef          	jal	ra,6784 <_isatty_r>
    5fa0:	c901                	beqz	a0,5fb0 <__smakebuf_r+0x92>
    5fa2:	00c45783          	lhu	a5,12(s0)
    5fa6:	9bf1                	andi	a5,a5,-4
    5fa8:	0017e793          	ori	a5,a5,1
    5fac:	00f41623          	sh	a5,12(s0)
    5fb0:	00c45783          	lhu	a5,12(s0)
    5fb4:	00f96933          	or	s2,s2,a5
    5fb8:	01241623          	sh	s2,12(s0)
    5fbc:	b749                	j	5f3e <__smakebuf_r+0x20>

00005fbe <memchr>:
memchr():
    5fbe:	0ff5f593          	andi	a1,a1,255
    5fc2:	962a                	add	a2,a2,a0
    5fc4:	00c51463          	bne	a0,a2,5fcc <memchr+0xe>
    5fc8:	4501                	li	a0,0
    5fca:	8082                	ret
    5fcc:	00054783          	lbu	a5,0(a0)
    5fd0:	feb78de3          	beq	a5,a1,5fca <memchr+0xc>
    5fd4:	0505                	addi	a0,a0,1
    5fd6:	b7fd                	j	5fc4 <memchr+0x6>

00005fd8 <memmove>:
memmove():
    5fd8:	04a5f363          	bgeu	a1,a0,601e <memmove+0x46>
    5fdc:	00c586b3          	add	a3,a1,a2
    5fe0:	02d57f63          	bgeu	a0,a3,601e <memmove+0x46>
    5fe4:	fff64593          	not	a1,a2
    5fe8:	4781                	li	a5,0
    5fea:	17fd                	addi	a5,a5,-1
    5fec:	00f59363          	bne	a1,a5,5ff2 <memmove+0x1a>
    5ff0:	8082                	ret
    5ff2:	00f68733          	add	a4,a3,a5
    5ff6:	00074803          	lbu	a6,0(a4) # ffffe000 <_eusrstack+0xdfff9000>
    5ffa:	00c78733          	add	a4,a5,a2
    5ffe:	972a                	add	a4,a4,a0
    6000:	01070023          	sb	a6,0(a4)
    6004:	b7dd                	j	5fea <memmove+0x12>
    6006:	00f58733          	add	a4,a1,a5
    600a:	00074683          	lbu	a3,0(a4)
    600e:	00f50733          	add	a4,a0,a5
    6012:	0785                	addi	a5,a5,1
    6014:	00d70023          	sb	a3,0(a4)
    6018:	fef617e3          	bne	a2,a5,6006 <memmove+0x2e>
    601c:	8082                	ret
    601e:	4781                	li	a5,0
    6020:	bfe5                	j	6018 <memmove+0x40>

00006022 <_free_r>:
_free_r():
    6022:	c1dd                	beqz	a1,60c8 <_free_r+0xa6>
    6024:	ffc5a783          	lw	a5,-4(a1)
    6028:	1141                	addi	sp,sp,-16
    602a:	c422                	sw	s0,8(sp)
    602c:	c606                	sw	ra,12(sp)
    602e:	c226                	sw	s1,4(sp)
    6030:	ffc58413          	addi	s0,a1,-4
    6034:	0007d363          	bgez	a5,603a <_free_r+0x18>
    6038:	943e                	add	s0,s0,a5
    603a:	84aa                	mv	s1,a0
    603c:	7ac000ef          	jal	ra,67e8 <__malloc_lock>
    6040:	8bc18793          	addi	a5,gp,-1860 # 2000016c <__malloc_free_list>
    6044:	439c                	lw	a5,0(a5)
    6046:	ef81                	bnez	a5,605e <_free_r+0x3c>
    6048:	00042223          	sw	zero,4(s0)
    604c:	8a81ae23          	sw	s0,-1860(gp) # 2000016c <__malloc_free_list>
    6050:	4422                	lw	s0,8(sp)
    6052:	40b2                	lw	ra,12(sp)
    6054:	8526                	mv	a0,s1
    6056:	4492                	lw	s1,4(sp)
    6058:	0141                	addi	sp,sp,16
    605a:	7900006f          	j	67ea <__malloc_unlock>
    605e:	00f47e63          	bgeu	s0,a5,607a <_free_r+0x58>
    6062:	4014                	lw	a3,0(s0)
    6064:	00d40733          	add	a4,s0,a3
    6068:	00e79663          	bne	a5,a4,6074 <_free_r+0x52>
    606c:	4398                	lw	a4,0(a5)
    606e:	43dc                	lw	a5,4(a5)
    6070:	9736                	add	a4,a4,a3
    6072:	c018                	sw	a4,0(s0)
    6074:	c05c                	sw	a5,4(s0)
    6076:	bfd9                	j	604c <_free_r+0x2a>
    6078:	87ba                	mv	a5,a4
    607a:	43d8                	lw	a4,4(a5)
    607c:	c319                	beqz	a4,6082 <_free_r+0x60>
    607e:	fee47de3          	bgeu	s0,a4,6078 <_free_r+0x56>
    6082:	4394                	lw	a3,0(a5)
    6084:	00d78633          	add	a2,a5,a3
    6088:	00861f63          	bne	a2,s0,60a6 <_free_r+0x84>
    608c:	4010                	lw	a2,0(s0)
    608e:	96b2                	add	a3,a3,a2
    6090:	c394                	sw	a3,0(a5)
    6092:	00d78633          	add	a2,a5,a3
    6096:	fac71de3          	bne	a4,a2,6050 <_free_r+0x2e>
    609a:	4310                	lw	a2,0(a4)
    609c:	4358                	lw	a4,4(a4)
    609e:	96b2                	add	a3,a3,a2
    60a0:	c394                	sw	a3,0(a5)
    60a2:	c3d8                	sw	a4,4(a5)
    60a4:	b775                	j	6050 <_free_r+0x2e>
    60a6:	00c47563          	bgeu	s0,a2,60b0 <_free_r+0x8e>
    60aa:	47b1                	li	a5,12
    60ac:	c09c                	sw	a5,0(s1)
    60ae:	b74d                	j	6050 <_free_r+0x2e>
    60b0:	4010                	lw	a2,0(s0)
    60b2:	00c406b3          	add	a3,s0,a2
    60b6:	00d71663          	bne	a4,a3,60c2 <_free_r+0xa0>
    60ba:	4314                	lw	a3,0(a4)
    60bc:	4358                	lw	a4,4(a4)
    60be:	96b2                	add	a3,a3,a2
    60c0:	c014                	sw	a3,0(s0)
    60c2:	c058                	sw	a4,4(s0)
    60c4:	c3c0                	sw	s0,4(a5)
    60c6:	b769                	j	6050 <_free_r+0x2e>
    60c8:	8082                	ret

000060ca <_malloc_r>:
_malloc_r():
    60ca:	1101                	addi	sp,sp,-32
    60cc:	ca26                	sw	s1,20(sp)
    60ce:	00358493          	addi	s1,a1,3
    60d2:	98f1                	andi	s1,s1,-4
    60d4:	ce06                	sw	ra,28(sp)
    60d6:	cc22                	sw	s0,24(sp)
    60d8:	c84a                	sw	s2,16(sp)
    60da:	c64e                	sw	s3,12(sp)
    60dc:	04a1                	addi	s1,s1,8
    60de:	47b1                	li	a5,12
    60e0:	04f4f163          	bgeu	s1,a5,6122 <_malloc_r+0x58>
    60e4:	44b1                	li	s1,12
    60e6:	04b4e063          	bltu	s1,a1,6126 <_malloc_r+0x5c>
    60ea:	892a                	mv	s2,a0
    60ec:	2df5                	jal	67e8 <__malloc_lock>
    60ee:	8bc18793          	addi	a5,gp,-1860 # 2000016c <__malloc_free_list>
    60f2:	4398                	lw	a4,0(a5)
    60f4:	843a                	mv	s0,a4
    60f6:	e031                	bnez	s0,613a <_malloc_r+0x70>
    60f8:	8c018793          	addi	a5,gp,-1856 # 20000170 <__malloc_sbrk_start>
    60fc:	439c                	lw	a5,0(a5)
    60fe:	e791                	bnez	a5,610a <_malloc_r+0x40>
    6100:	4581                	li	a1,0
    6102:	854a                	mv	a0,s2
    6104:	29b1                	jal	6560 <_sbrk_r>
    6106:	8ca1a023          	sw	a0,-1856(gp) # 20000170 <__malloc_sbrk_start>
    610a:	85a6                	mv	a1,s1
    610c:	854a                	mv	a0,s2
    610e:	2989                	jal	6560 <_sbrk_r>
    6110:	59fd                	li	s3,-1
    6112:	07351763          	bne	a0,s3,6180 <_malloc_r+0xb6>
    6116:	47b1                	li	a5,12
    6118:	00f92023          	sw	a5,0(s2)
    611c:	854a                	mv	a0,s2
    611e:	25f1                	jal	67ea <__malloc_unlock>
    6120:	a029                	j	612a <_malloc_r+0x60>
    6122:	fc04d2e3          	bgez	s1,60e6 <_malloc_r+0x1c>
    6126:	47b1                	li	a5,12
    6128:	c11c                	sw	a5,0(a0)
    612a:	4501                	li	a0,0
    612c:	40f2                	lw	ra,28(sp)
    612e:	4462                	lw	s0,24(sp)
    6130:	44d2                	lw	s1,20(sp)
    6132:	4942                	lw	s2,16(sp)
    6134:	49b2                	lw	s3,12(sp)
    6136:	6105                	addi	sp,sp,32
    6138:	8082                	ret
    613a:	401c                	lw	a5,0(s0)
    613c:	8f85                	sub	a5,a5,s1
    613e:	0207ce63          	bltz	a5,617a <_malloc_r+0xb0>
    6142:	46ad                	li	a3,11
    6144:	00f6f663          	bgeu	a3,a5,6150 <_malloc_r+0x86>
    6148:	c01c                	sw	a5,0(s0)
    614a:	943e                	add	s0,s0,a5
    614c:	c004                	sw	s1,0(s0)
    614e:	a031                	j	615a <_malloc_r+0x90>
    6150:	405c                	lw	a5,4(s0)
    6152:	02871263          	bne	a4,s0,6176 <_malloc_r+0xac>
    6156:	8af1ae23          	sw	a5,-1860(gp) # 2000016c <__malloc_free_list>
    615a:	854a                	mv	a0,s2
    615c:	2579                	jal	67ea <__malloc_unlock>
    615e:	00b40513          	addi	a0,s0,11
    6162:	00440793          	addi	a5,s0,4
    6166:	9961                	andi	a0,a0,-8
    6168:	40f50733          	sub	a4,a0,a5
    616c:	d361                	beqz	a4,612c <_malloc_r+0x62>
    616e:	943a                	add	s0,s0,a4
    6170:	8f89                	sub	a5,a5,a0
    6172:	c01c                	sw	a5,0(s0)
    6174:	bf65                	j	612c <_malloc_r+0x62>
    6176:	c35c                	sw	a5,4(a4)
    6178:	b7cd                	j	615a <_malloc_r+0x90>
    617a:	8722                	mv	a4,s0
    617c:	4040                	lw	s0,4(s0)
    617e:	bfa5                	j	60f6 <_malloc_r+0x2c>
    6180:	00350413          	addi	s0,a0,3
    6184:	9871                	andi	s0,s0,-4
    6186:	fc8503e3          	beq	a0,s0,614c <_malloc_r+0x82>
    618a:	40a405b3          	sub	a1,s0,a0
    618e:	854a                	mv	a0,s2
    6190:	2ec1                	jal	6560 <_sbrk_r>
    6192:	fb351de3          	bne	a0,s3,614c <_malloc_r+0x82>
    6196:	b741                	j	6116 <_malloc_r+0x4c>

00006198 <_realloc_r>:
_realloc_r():
    6198:	e581                	bnez	a1,61a0 <_realloc_r+0x8>
    619a:	85b2                	mv	a1,a2
    619c:	f2fff06f          	j	60ca <_malloc_r>
    61a0:	1101                	addi	sp,sp,-32
    61a2:	cc22                	sw	s0,24(sp)
    61a4:	ce06                	sw	ra,28(sp)
    61a6:	ca26                	sw	s1,20(sp)
    61a8:	c84a                	sw	s2,16(sp)
    61aa:	c64e                	sw	s3,12(sp)
    61ac:	8432                	mv	s0,a2
    61ae:	ee01                	bnez	a2,61c6 <_realloc_r+0x2e>
    61b0:	e73ff0ef          	jal	ra,6022 <_free_r>
    61b4:	4901                	li	s2,0
    61b6:	40f2                	lw	ra,28(sp)
    61b8:	4462                	lw	s0,24(sp)
    61ba:	854a                	mv	a0,s2
    61bc:	44d2                	lw	s1,20(sp)
    61be:	4942                	lw	s2,16(sp)
    61c0:	49b2                	lw	s3,12(sp)
    61c2:	6105                	addi	sp,sp,32
    61c4:	8082                	ret
    61c6:	84ae                	mv	s1,a1
    61c8:	89aa                	mv	s3,a0
    61ca:	250d                	jal	67ec <_malloc_usable_size_r>
    61cc:	8926                	mv	s2,s1
    61ce:	fe8574e3          	bgeu	a0,s0,61b6 <_realloc_r+0x1e>
    61d2:	85a2                	mv	a1,s0
    61d4:	854e                	mv	a0,s3
    61d6:	ef5ff0ef          	jal	ra,60ca <_malloc_r>
    61da:	892a                	mv	s2,a0
    61dc:	dd69                	beqz	a0,61b6 <_realloc_r+0x1e>
    61de:	85a6                	mv	a1,s1
    61e0:	8622                	mv	a2,s0
    61e2:	f17fe0ef          	jal	ra,50f8 <memcpy>
    61e6:	85a6                	mv	a1,s1
    61e8:	854e                	mv	a0,s3
    61ea:	e39ff0ef          	jal	ra,6022 <_free_r>
    61ee:	b7e1                	j	61b6 <_realloc_r+0x1e>

000061f0 <__ssputs_r>:
__ssputs_r():
    61f0:	1101                	addi	sp,sp,-32
    61f2:	c84a                	sw	s2,16(sp)
    61f4:	0085a903          	lw	s2,8(a1)
    61f8:	cc22                	sw	s0,24(sp)
    61fa:	c452                	sw	s4,8(sp)
    61fc:	c05a                	sw	s6,0(sp)
    61fe:	ce06                	sw	ra,28(sp)
    6200:	ca26                	sw	s1,20(sp)
    6202:	c64e                	sw	s3,12(sp)
    6204:	c256                	sw	s5,4(sp)
    6206:	842e                	mv	s0,a1
    6208:	8b32                	mv	s6,a2
    620a:	8a36                	mv	s4,a3
    620c:	0926ee63          	bltu	a3,s2,62a8 <__ssputs_r+0xb8>
    6210:	00c5d783          	lhu	a5,12(a1)
    6214:	4807f713          	andi	a4,a5,1152
    6218:	c751                	beqz	a4,62a4 <__ssputs_r+0xb4>
    621a:	4004                	lw	s1,0(s0)
    621c:	498c                	lw	a1,16(a1)
    621e:	4858                	lw	a4,20(s0)
    6220:	8aaa                	mv	s5,a0
    6222:	40b489b3          	sub	s3,s1,a1
    6226:	448d                	li	s1,3
    6228:	02e484b3          	mul	s1,s1,a4
    622c:	4709                	li	a4,2
    622e:	02e4c4b3          	div	s1,s1,a4
    6232:	00168713          	addi	a4,a3,1
    6236:	974e                	add	a4,a4,s3
    6238:	00e4f363          	bgeu	s1,a4,623e <__ssputs_r+0x4e>
    623c:	84ba                	mv	s1,a4
    623e:	4007f793          	andi	a5,a5,1024
    6242:	c3d9                	beqz	a5,62c8 <__ssputs_r+0xd8>
    6244:	85a6                	mv	a1,s1
    6246:	8556                	mv	a0,s5
    6248:	e83ff0ef          	jal	ra,60ca <_malloc_r>
    624c:	892a                	mv	s2,a0
    624e:	e50d                	bnez	a0,6278 <__ssputs_r+0x88>
    6250:	47b1                	li	a5,12
    6252:	00faa023          	sw	a5,0(s5)
    6256:	00c45783          	lhu	a5,12(s0)
    625a:	557d                	li	a0,-1
    625c:	0407e793          	ori	a5,a5,64
    6260:	00f41623          	sh	a5,12(s0)
    6264:	40f2                	lw	ra,28(sp)
    6266:	4462                	lw	s0,24(sp)
    6268:	44d2                	lw	s1,20(sp)
    626a:	4942                	lw	s2,16(sp)
    626c:	49b2                	lw	s3,12(sp)
    626e:	4a22                	lw	s4,8(sp)
    6270:	4a92                	lw	s5,4(sp)
    6272:	4b02                	lw	s6,0(sp)
    6274:	6105                	addi	sp,sp,32
    6276:	8082                	ret
    6278:	480c                	lw	a1,16(s0)
    627a:	864e                	mv	a2,s3
    627c:	e7dfe0ef          	jal	ra,50f8 <memcpy>
    6280:	00c45783          	lhu	a5,12(s0)
    6284:	b7f7f793          	andi	a5,a5,-1153
    6288:	0807e793          	ori	a5,a5,128
    628c:	00f41623          	sh	a5,12(s0)
    6290:	01242823          	sw	s2,16(s0)
    6294:	c844                	sw	s1,20(s0)
    6296:	994e                	add	s2,s2,s3
    6298:	413484b3          	sub	s1,s1,s3
    629c:	01242023          	sw	s2,0(s0)
    62a0:	c404                	sw	s1,8(s0)
    62a2:	8952                	mv	s2,s4
    62a4:	012a7363          	bgeu	s4,s2,62aa <__ssputs_r+0xba>
    62a8:	8952                	mv	s2,s4
    62aa:	4008                	lw	a0,0(s0)
    62ac:	864a                	mv	a2,s2
    62ae:	85da                	mv	a1,s6
    62b0:	d29ff0ef          	jal	ra,5fd8 <memmove>
    62b4:	441c                	lw	a5,8(s0)
    62b6:	4501                	li	a0,0
    62b8:	412787b3          	sub	a5,a5,s2
    62bc:	c41c                	sw	a5,8(s0)
    62be:	401c                	lw	a5,0(s0)
    62c0:	993e                	add	s2,s2,a5
    62c2:	01242023          	sw	s2,0(s0)
    62c6:	bf79                	j	6264 <__ssputs_r+0x74>
    62c8:	8626                	mv	a2,s1
    62ca:	8556                	mv	a0,s5
    62cc:	ecdff0ef          	jal	ra,6198 <_realloc_r>
    62d0:	892a                	mv	s2,a0
    62d2:	fd5d                	bnez	a0,6290 <__ssputs_r+0xa0>
    62d4:	480c                	lw	a1,16(s0)
    62d6:	8556                	mv	a0,s5
    62d8:	d4bff0ef          	jal	ra,6022 <_free_r>
    62dc:	bf95                	j	6250 <__ssputs_r+0x60>

000062de <_svfiprintf_r>:
_svfprintf_r():
    62de:	00c5d783          	lhu	a5,12(a1)
    62e2:	7171                	addi	sp,sp,-176
    62e4:	d326                	sw	s1,164(sp)
    62e6:	d14a                	sw	s2,160(sp)
    62e8:	cf4e                	sw	s3,156(sp)
    62ea:	d706                	sw	ra,172(sp)
    62ec:	d522                	sw	s0,168(sp)
    62ee:	cd52                	sw	s4,152(sp)
    62f0:	cb56                	sw	s5,148(sp)
    62f2:	c95a                	sw	s6,144(sp)
    62f4:	c75e                	sw	s7,140(sp)
    62f6:	c562                	sw	s8,136(sp)
    62f8:	c366                	sw	s9,132(sp)
    62fa:	0807f793          	andi	a5,a5,128
    62fe:	89aa                	mv	s3,a0
    6300:	892e                	mv	s2,a1
    6302:	84b2                	mv	s1,a2
    6304:	c3b9                	beqz	a5,634a <_svfiprintf_r+0x6c>
    6306:	499c                	lw	a5,16(a1)
    6308:	e3a9                	bnez	a5,634a <_svfiprintf_r+0x6c>
    630a:	04000593          	li	a1,64
    630e:	c636                	sw	a3,12(sp)
    6310:	dbbff0ef          	jal	ra,60ca <_malloc_r>
    6314:	00a92023          	sw	a0,0(s2)
    6318:	00a92823          	sw	a0,16(s2)
    631c:	46b2                	lw	a3,12(sp)
    631e:	e115                	bnez	a0,6342 <_svfiprintf_r+0x64>
    6320:	47b1                	li	a5,12
    6322:	00f9a023          	sw	a5,0(s3)
    6326:	557d                	li	a0,-1
    6328:	50ba                	lw	ra,172(sp)
    632a:	542a                	lw	s0,168(sp)
    632c:	549a                	lw	s1,164(sp)
    632e:	590a                	lw	s2,160(sp)
    6330:	49fa                	lw	s3,156(sp)
    6332:	4a6a                	lw	s4,152(sp)
    6334:	4ada                	lw	s5,148(sp)
    6336:	4b4a                	lw	s6,144(sp)
    6338:	4bba                	lw	s7,140(sp)
    633a:	4c2a                	lw	s8,136(sp)
    633c:	4c9a                	lw	s9,132(sp)
    633e:	614d                	addi	sp,sp,176
    6340:	8082                	ret
    6342:	04000793          	li	a5,64
    6346:	00f92a23          	sw	a5,20(s2)
    634a:	02000793          	li	a5,32
    634e:	02f10ca3          	sb	a5,57(sp)
    6352:	03000793          	li	a5,48
    6356:	da02                	sw	zero,52(sp)
    6358:	02f10d23          	sb	a5,58(sp)
    635c:	ce36                	sw	a3,28(sp)
    635e:	02500b93          	li	s7,37
    6362:	00001a97          	auipc	s5,0x1
    6366:	0b2a8a93          	addi	s5,s5,178 # 7414 <__fsym___cmd_ps_name+0x13c>
    636a:	4c05                	li	s8,1
    636c:	4b29                	li	s6,10
    636e:	8426                	mv	s0,s1
    6370:	00044783          	lbu	a5,0(s0)
    6374:	c399                	beqz	a5,637a <_svfiprintf_r+0x9c>
    6376:	09779d63          	bne	a5,s7,6410 <_svfiprintf_r+0x132>
    637a:	40940cb3          	sub	s9,s0,s1
    637e:	000c8e63          	beqz	s9,639a <_svfiprintf_r+0xbc>
    6382:	86e6                	mv	a3,s9
    6384:	8626                	mv	a2,s1
    6386:	85ca                	mv	a1,s2
    6388:	854e                	mv	a0,s3
    638a:	e67ff0ef          	jal	ra,61f0 <__ssputs_r>
    638e:	57fd                	li	a5,-1
    6390:	1af50463          	beq	a0,a5,6538 <_svfiprintf_r+0x25a>
    6394:	56d2                	lw	a3,52(sp)
    6396:	96e6                	add	a3,a3,s9
    6398:	da36                	sw	a3,52(sp)
    639a:	00044783          	lbu	a5,0(s0)
    639e:	18078d63          	beqz	a5,6538 <_svfiprintf_r+0x25a>
    63a2:	57fd                	li	a5,-1
    63a4:	00140493          	addi	s1,s0,1
    63a8:	d002                	sw	zero,32(sp)
    63aa:	d602                	sw	zero,44(sp)
    63ac:	d23e                	sw	a5,36(sp)
    63ae:	d402                	sw	zero,40(sp)
    63b0:	060101a3          	sb	zero,99(sp)
    63b4:	dc82                	sw	zero,120(sp)
    63b6:	0004c583          	lbu	a1,0(s1)
    63ba:	4615                	li	a2,5
    63bc:	8556                	mv	a0,s5
    63be:	c01ff0ef          	jal	ra,5fbe <memchr>
    63c2:	00148413          	addi	s0,s1,1
    63c6:	5782                	lw	a5,32(sp)
    63c8:	e531                	bnez	a0,6414 <_svfiprintf_r+0x136>
    63ca:	0107f713          	andi	a4,a5,16
    63ce:	c709                	beqz	a4,63d8 <_svfiprintf_r+0xfa>
    63d0:	02000713          	li	a4,32
    63d4:	06e101a3          	sb	a4,99(sp)
    63d8:	0087f713          	andi	a4,a5,8
    63dc:	c709                	beqz	a4,63e6 <_svfiprintf_r+0x108>
    63de:	02b00713          	li	a4,43
    63e2:	06e101a3          	sb	a4,99(sp)
    63e6:	0004c683          	lbu	a3,0(s1)
    63ea:	02a00713          	li	a4,42
    63ee:	02e68b63          	beq	a3,a4,6424 <_svfiprintf_r+0x146>
    63f2:	57b2                	lw	a5,44(sp)
    63f4:	8426                	mv	s0,s1
    63f6:	4681                	li	a3,0
    63f8:	4625                	li	a2,9
    63fa:	00044703          	lbu	a4,0(s0)
    63fe:	00140593          	addi	a1,s0,1
    6402:	fd070713          	addi	a4,a4,-48
    6406:	06e67463          	bgeu	a2,a4,646e <_svfiprintf_r+0x190>
    640a:	c68d                	beqz	a3,6434 <_svfiprintf_r+0x156>
    640c:	d63e                	sw	a5,44(sp)
    640e:	a01d                	j	6434 <_svfiprintf_r+0x156>
    6410:	0405                	addi	s0,s0,1
    6412:	bfb9                	j	6370 <_svfiprintf_r+0x92>
    6414:	41550533          	sub	a0,a0,s5
    6418:	00ac1533          	sll	a0,s8,a0
    641c:	8fc9                	or	a5,a5,a0
    641e:	d03e                	sw	a5,32(sp)
    6420:	84a2                	mv	s1,s0
    6422:	bf51                	j	63b6 <_svfiprintf_r+0xd8>
    6424:	4772                	lw	a4,28(sp)
    6426:	00470693          	addi	a3,a4,4
    642a:	4318                	lw	a4,0(a4)
    642c:	ce36                	sw	a3,28(sp)
    642e:	02074963          	bltz	a4,6460 <_svfiprintf_r+0x182>
    6432:	d63a                	sw	a4,44(sp)
    6434:	00044703          	lbu	a4,0(s0)
    6438:	02e00793          	li	a5,46
    643c:	04f71f63          	bne	a4,a5,649a <_svfiprintf_r+0x1bc>
    6440:	00144703          	lbu	a4,1(s0)
    6444:	02a00793          	li	a5,42
    6448:	02f71b63          	bne	a4,a5,647e <_svfiprintf_r+0x1a0>
    644c:	47f2                	lw	a5,28(sp)
    644e:	0409                	addi	s0,s0,2
    6450:	00478713          	addi	a4,a5,4
    6454:	439c                	lw	a5,0(a5)
    6456:	ce3a                	sw	a4,28(sp)
    6458:	0207c163          	bltz	a5,647a <_svfiprintf_r+0x19c>
    645c:	d23e                	sw	a5,36(sp)
    645e:	a835                	j	649a <_svfiprintf_r+0x1bc>
    6460:	40e00733          	neg	a4,a4
    6464:	0027e793          	ori	a5,a5,2
    6468:	d63a                	sw	a4,44(sp)
    646a:	d03e                	sw	a5,32(sp)
    646c:	b7e1                	j	6434 <_svfiprintf_r+0x156>
    646e:	036787b3          	mul	a5,a5,s6
    6472:	4685                	li	a3,1
    6474:	842e                	mv	s0,a1
    6476:	97ba                	add	a5,a5,a4
    6478:	b749                	j	63fa <_svfiprintf_r+0x11c>
    647a:	57fd                	li	a5,-1
    647c:	b7c5                	j	645c <_svfiprintf_r+0x17e>
    647e:	0405                	addi	s0,s0,1
    6480:	d202                	sw	zero,36(sp)
    6482:	4681                	li	a3,0
    6484:	4781                	li	a5,0
    6486:	4625                	li	a2,9
    6488:	00044703          	lbu	a4,0(s0)
    648c:	00140593          	addi	a1,s0,1
    6490:	fd070713          	addi	a4,a4,-48
    6494:	06e67863          	bgeu	a2,a4,6504 <_svfiprintf_r+0x226>
    6498:	f2f1                	bnez	a3,645c <_svfiprintf_r+0x17e>
    649a:	00044583          	lbu	a1,0(s0)
    649e:	460d                	li	a2,3
    64a0:	00001517          	auipc	a0,0x1
    64a4:	f7c50513          	addi	a0,a0,-132 # 741c <__fsym___cmd_ps_name+0x144>
    64a8:	b17ff0ef          	jal	ra,5fbe <memchr>
    64ac:	cd11                	beqz	a0,64c8 <_svfiprintf_r+0x1ea>
    64ae:	00001797          	auipc	a5,0x1
    64b2:	f6e78793          	addi	a5,a5,-146 # 741c <__fsym___cmd_ps_name+0x144>
    64b6:	8d1d                	sub	a0,a0,a5
    64b8:	04000793          	li	a5,64
    64bc:	00a797b3          	sll	a5,a5,a0
    64c0:	5502                	lw	a0,32(sp)
    64c2:	0405                	addi	s0,s0,1
    64c4:	8d5d                	or	a0,a0,a5
    64c6:	d02a                	sw	a0,32(sp)
    64c8:	00044583          	lbu	a1,0(s0)
    64cc:	4619                	li	a2,6
    64ce:	00001517          	auipc	a0,0x1
    64d2:	f5250513          	addi	a0,a0,-174 # 7420 <__fsym___cmd_ps_name+0x148>
    64d6:	00140493          	addi	s1,s0,1
    64da:	02b10c23          	sb	a1,56(sp)
    64de:	ae1ff0ef          	jal	ra,5fbe <memchr>
    64e2:	c525                	beqz	a0,654a <_svfiprintf_r+0x26c>
    64e4:	ffffa797          	auipc	a5,0xffffa
    64e8:	b1c78793          	addi	a5,a5,-1252 # 0 <_sinit>
    64ec:	e795                	bnez	a5,6518 <_svfiprintf_r+0x23a>
    64ee:	5702                	lw	a4,32(sp)
    64f0:	47f2                	lw	a5,28(sp)
    64f2:	10077713          	andi	a4,a4,256
    64f6:	cf09                	beqz	a4,6510 <_svfiprintf_r+0x232>
    64f8:	0791                	addi	a5,a5,4
    64fa:	ce3e                	sw	a5,28(sp)
    64fc:	57d2                	lw	a5,52(sp)
    64fe:	97d2                	add	a5,a5,s4
    6500:	da3e                	sw	a5,52(sp)
    6502:	b5b5                	j	636e <_svfiprintf_r+0x90>
    6504:	036787b3          	mul	a5,a5,s6
    6508:	4685                	li	a3,1
    650a:	842e                	mv	s0,a1
    650c:	97ba                	add	a5,a5,a4
    650e:	bfad                	j	6488 <_svfiprintf_r+0x1aa>
    6510:	079d                	addi	a5,a5,7
    6512:	9be1                	andi	a5,a5,-8
    6514:	07a1                	addi	a5,a5,8
    6516:	b7d5                	j	64fa <_svfiprintf_r+0x21c>
    6518:	0878                	addi	a4,sp,28
    651a:	00000697          	auipc	a3,0x0
    651e:	cd668693          	addi	a3,a3,-810 # 61f0 <__ssputs_r>
    6522:	864a                	mv	a2,s2
    6524:	100c                	addi	a1,sp,32
    6526:	854e                	mv	a0,s3
    6528:	00000097          	auipc	ra,0x0
    652c:	000000e7          	jalr	zero # 0 <_sinit>
    6530:	57fd                	li	a5,-1
    6532:	8a2a                	mv	s4,a0
    6534:	fcf514e3          	bne	a0,a5,64fc <_svfiprintf_r+0x21e>
    6538:	00c95783          	lhu	a5,12(s2)
    653c:	557d                	li	a0,-1
    653e:	0407f793          	andi	a5,a5,64
    6542:	de0793e3          	bnez	a5,6328 <_svfiprintf_r+0x4a>
    6546:	5552                	lw	a0,52(sp)
    6548:	b3c5                	j	6328 <_svfiprintf_r+0x4a>
    654a:	0878                	addi	a4,sp,28
    654c:	00000697          	auipc	a3,0x0
    6550:	ca468693          	addi	a3,a3,-860 # 61f0 <__ssputs_r>
    6554:	864a                	mv	a2,s2
    6556:	100c                	addi	a1,sp,32
    6558:	854e                	mv	a0,s3
    655a:	86cff0ef          	jal	ra,55c6 <_printf_i>
    655e:	bfc9                	j	6530 <_svfiprintf_r+0x252>

00006560 <_sbrk_r>:
_sbrk_r():
    6560:	1141                	addi	sp,sp,-16
    6562:	c422                	sw	s0,8(sp)
    6564:	842a                	mv	s0,a0
    6566:	852e                	mv	a0,a1
    6568:	1fffc797          	auipc	a5,0x1fffc
    656c:	a607a223          	sw	zero,-1436(a5) # 20001fcc <errno>
    6570:	c606                	sw	ra,12(sp)
    6572:	2e0d                	jal	68a4 <_sbrk>
    6574:	57fd                	li	a5,-1
    6576:	00f51963          	bne	a0,a5,6588 <_sbrk_r+0x28>
    657a:	1fffc797          	auipc	a5,0x1fffc
    657e:	a5278793          	addi	a5,a5,-1454 # 20001fcc <errno>
    6582:	439c                	lw	a5,0(a5)
    6584:	c391                	beqz	a5,6588 <_sbrk_r+0x28>
    6586:	c01c                	sw	a5,0(s0)
    6588:	40b2                	lw	ra,12(sp)
    658a:	4422                	lw	s0,8(sp)
    658c:	0141                	addi	sp,sp,16
    658e:	8082                	ret

00006590 <_raise_r>:
_raise_r():
    6590:	47fd                	li	a5,31
    6592:	00b7f663          	bgeu	a5,a1,659e <_raise_r+0xe>
    6596:	47d9                	li	a5,22
    6598:	c11c                	sw	a5,0(a0)
    659a:	557d                	li	a0,-1
    659c:	8082                	ret
    659e:	417c                	lw	a5,68(a0)
    65a0:	1101                	addi	sp,sp,-32
    65a2:	cc22                	sw	s0,24(sp)
    65a4:	ce06                	sw	ra,28(sp)
    65a6:	862e                	mv	a2,a1
    65a8:	842a                	mv	s0,a0
    65aa:	c791                	beqz	a5,65b6 <_raise_r+0x26>
    65ac:	00259713          	slli	a4,a1,0x2
    65b0:	97ba                	add	a5,a5,a4
    65b2:	4398                	lw	a4,0(a5)
    65b4:	eb19                	bnez	a4,65ca <_raise_r+0x3a>
    65b6:	8522                	mv	a0,s0
    65b8:	c632                	sw	a2,12(sp)
    65ba:	289d                	jal	6630 <_getpid_r>
    65bc:	85aa                	mv	a1,a0
    65be:	8522                	mv	a0,s0
    65c0:	4462                	lw	s0,24(sp)
    65c2:	4632                	lw	a2,12(sp)
    65c4:	40f2                	lw	ra,28(sp)
    65c6:	6105                	addi	sp,sp,32
    65c8:	a81d                	j	65fe <_kill_r>
    65ca:	4685                	li	a3,1
    65cc:	4501                	li	a0,0
    65ce:	00d70863          	beq	a4,a3,65de <_raise_r+0x4e>
    65d2:	56fd                	li	a3,-1
    65d4:	00d71963          	bne	a4,a3,65e6 <_raise_r+0x56>
    65d8:	47d9                	li	a5,22
    65da:	c01c                	sw	a5,0(s0)
    65dc:	4505                	li	a0,1
    65de:	40f2                	lw	ra,28(sp)
    65e0:	4462                	lw	s0,24(sp)
    65e2:	6105                	addi	sp,sp,32
    65e4:	8082                	ret
    65e6:	852e                	mv	a0,a1
    65e8:	0007a023          	sw	zero,0(a5)
    65ec:	9702                	jalr	a4
    65ee:	4501                	li	a0,0
    65f0:	b7fd                	j	65de <_raise_r+0x4e>

000065f2 <raise>:
raise():
    65f2:	80c18793          	addi	a5,gp,-2036 # 200000bc <_impure_ptr>
    65f6:	85aa                	mv	a1,a0
    65f8:	4388                	lw	a0,0(a5)
    65fa:	f97ff06f          	j	6590 <_raise_r>

000065fe <_kill_r>:
_kill_r():
    65fe:	1141                	addi	sp,sp,-16
    6600:	c422                	sw	s0,8(sp)
    6602:	842a                	mv	s0,a0
    6604:	852e                	mv	a0,a1
    6606:	85b2                	mv	a1,a2
    6608:	1fffc797          	auipc	a5,0x1fffc
    660c:	9c07a223          	sw	zero,-1596(a5) # 20001fcc <errno>
    6610:	c606                	sw	ra,12(sp)
    6612:	248d                	jal	6874 <_kill>
    6614:	57fd                	li	a5,-1
    6616:	00f51963          	bne	a0,a5,6628 <_kill_r+0x2a>
    661a:	1fffc797          	auipc	a5,0x1fffc
    661e:	9b278793          	addi	a5,a5,-1614 # 20001fcc <errno>
    6622:	439c                	lw	a5,0(a5)
    6624:	c391                	beqz	a5,6628 <_kill_r+0x2a>
    6626:	c01c                	sw	a5,0(s0)
    6628:	40b2                	lw	ra,12(sp)
    662a:	4422                	lw	s0,8(sp)
    662c:	0141                	addi	sp,sp,16
    662e:	8082                	ret

00006630 <_getpid_r>:
_getpid_r():
    6630:	a415                	j	6854 <_getpid>

00006632 <__sread>:
__sread():
    6632:	1141                	addi	sp,sp,-16
    6634:	c422                	sw	s0,8(sp)
    6636:	842e                	mv	s0,a1
    6638:	00e59583          	lh	a1,14(a1)
    663c:	c606                	sw	ra,12(sp)
    663e:	22c9                	jal	6800 <_read_r>
    6640:	00054963          	bltz	a0,6652 <__sread+0x20>
    6644:	487c                	lw	a5,84(s0)
    6646:	97aa                	add	a5,a5,a0
    6648:	c87c                	sw	a5,84(s0)
    664a:	40b2                	lw	ra,12(sp)
    664c:	4422                	lw	s0,8(sp)
    664e:	0141                	addi	sp,sp,16
    6650:	8082                	ret
    6652:	00c45783          	lhu	a5,12(s0)
    6656:	777d                	lui	a4,0xfffff
    6658:	177d                	addi	a4,a4,-1
    665a:	8ff9                	and	a5,a5,a4
    665c:	00f41623          	sh	a5,12(s0)
    6660:	b7ed                	j	664a <__sread+0x18>

00006662 <__swrite>:
__swrite():
    6662:	00c5d783          	lhu	a5,12(a1)
    6666:	1101                	addi	sp,sp,-32
    6668:	cc22                	sw	s0,24(sp)
    666a:	ca26                	sw	s1,20(sp)
    666c:	c84a                	sw	s2,16(sp)
    666e:	c64e                	sw	s3,12(sp)
    6670:	ce06                	sw	ra,28(sp)
    6672:	1007f793          	andi	a5,a5,256
    6676:	84aa                	mv	s1,a0
    6678:	842e                	mv	s0,a1
    667a:	8932                	mv	s2,a2
    667c:	89b6                	mv	s3,a3
    667e:	c791                	beqz	a5,668a <__swrite+0x28>
    6680:	00e59583          	lh	a1,14(a1)
    6684:	4689                	li	a3,2
    6686:	4601                	li	a2,0
    6688:	2235                	jal	67b4 <_lseek_r>
    668a:	00c45783          	lhu	a5,12(s0)
    668e:	777d                	lui	a4,0xfffff
    6690:	177d                	addi	a4,a4,-1
    6692:	8ff9                	and	a5,a5,a4
    6694:	00f41623          	sh	a5,12(s0)
    6698:	00e41583          	lh	a1,14(s0)
    669c:	4462                	lw	s0,24(sp)
    669e:	40f2                	lw	ra,28(sp)
    66a0:	86ce                	mv	a3,s3
    66a2:	864a                	mv	a2,s2
    66a4:	49b2                	lw	s3,12(sp)
    66a6:	4942                	lw	s2,16(sp)
    66a8:	8526                	mv	a0,s1
    66aa:	44d2                	lw	s1,20(sp)
    66ac:	6105                	addi	sp,sp,32
    66ae:	a83d                	j	66ec <_write_r>

000066b0 <__sseek>:
__sseek():
    66b0:	1141                	addi	sp,sp,-16
    66b2:	c422                	sw	s0,8(sp)
    66b4:	842e                	mv	s0,a1
    66b6:	00e59583          	lh	a1,14(a1)
    66ba:	c606                	sw	ra,12(sp)
    66bc:	28e5                	jal	67b4 <_lseek_r>
    66be:	57fd                	li	a5,-1
    66c0:	00c45703          	lhu	a4,12(s0)
    66c4:	00f51b63          	bne	a0,a5,66da <__sseek+0x2a>
    66c8:	77fd                	lui	a5,0xfffff
    66ca:	17fd                	addi	a5,a5,-1
    66cc:	8ff9                	and	a5,a5,a4
    66ce:	00f41623          	sh	a5,12(s0)
    66d2:	40b2                	lw	ra,12(sp)
    66d4:	4422                	lw	s0,8(sp)
    66d6:	0141                	addi	sp,sp,16
    66d8:	8082                	ret
    66da:	6785                	lui	a5,0x1
    66dc:	8fd9                	or	a5,a5,a4
    66de:	00f41623          	sh	a5,12(s0)
    66e2:	c868                	sw	a0,84(s0)
    66e4:	b7fd                	j	66d2 <__sseek+0x22>

000066e6 <__sclose>:
__sclose():
    66e6:	00e59583          	lh	a1,14(a1)
    66ea:	a825                	j	6722 <_close_r>

000066ec <_write_r>:
_write_r():
    66ec:	1141                	addi	sp,sp,-16
    66ee:	c422                	sw	s0,8(sp)
    66f0:	842a                	mv	s0,a0
    66f2:	852e                	mv	a0,a1
    66f4:	85b2                	mv	a1,a2
    66f6:	8636                	mv	a2,a3
    66f8:	1fffc797          	auipc	a5,0x1fffc
    66fc:	8c07aa23          	sw	zero,-1836(a5) # 20001fcc <errno>
    6700:	c606                	sw	ra,12(sp)
    6702:	dbafe0ef          	jal	ra,4cbc <_write>
    6706:	57fd                	li	a5,-1
    6708:	00f51963          	bne	a0,a5,671a <_write_r+0x2e>
    670c:	1fffc797          	auipc	a5,0x1fffc
    6710:	8c078793          	addi	a5,a5,-1856 # 20001fcc <errno>
    6714:	439c                	lw	a5,0(a5)
    6716:	c391                	beqz	a5,671a <_write_r+0x2e>
    6718:	c01c                	sw	a5,0(s0)
    671a:	40b2                	lw	ra,12(sp)
    671c:	4422                	lw	s0,8(sp)
    671e:	0141                	addi	sp,sp,16
    6720:	8082                	ret

00006722 <_close_r>:
_close_r():
    6722:	1141                	addi	sp,sp,-16
    6724:	c422                	sw	s0,8(sp)
    6726:	842a                	mv	s0,a0
    6728:	852e                	mv	a0,a1
    672a:	1fffc797          	auipc	a5,0x1fffc
    672e:	8a07a123          	sw	zero,-1886(a5) # 20001fcc <errno>
    6732:	c606                	sw	ra,12(sp)
    6734:	2201                	jal	6834 <_close>
    6736:	57fd                	li	a5,-1
    6738:	00f51963          	bne	a0,a5,674a <_close_r+0x28>
    673c:	1fffc797          	auipc	a5,0x1fffc
    6740:	89078793          	addi	a5,a5,-1904 # 20001fcc <errno>
    6744:	439c                	lw	a5,0(a5)
    6746:	c391                	beqz	a5,674a <_close_r+0x28>
    6748:	c01c                	sw	a5,0(s0)
    674a:	40b2                	lw	ra,12(sp)
    674c:	4422                	lw	s0,8(sp)
    674e:	0141                	addi	sp,sp,16
    6750:	8082                	ret

00006752 <_fstat_r>:
_fstat_r():
    6752:	1141                	addi	sp,sp,-16
    6754:	c422                	sw	s0,8(sp)
    6756:	842a                	mv	s0,a0
    6758:	852e                	mv	a0,a1
    675a:	85b2                	mv	a1,a2
    675c:	1fffc797          	auipc	a5,0x1fffc
    6760:	8607a823          	sw	zero,-1936(a5) # 20001fcc <errno>
    6764:	c606                	sw	ra,12(sp)
    6766:	28f9                	jal	6844 <_fstat>
    6768:	57fd                	li	a5,-1
    676a:	00f51963          	bne	a0,a5,677c <_fstat_r+0x2a>
    676e:	1fffc797          	auipc	a5,0x1fffc
    6772:	85e78793          	addi	a5,a5,-1954 # 20001fcc <errno>
    6776:	439c                	lw	a5,0(a5)
    6778:	c391                	beqz	a5,677c <_fstat_r+0x2a>
    677a:	c01c                	sw	a5,0(s0)
    677c:	40b2                	lw	ra,12(sp)
    677e:	4422                	lw	s0,8(sp)
    6780:	0141                	addi	sp,sp,16
    6782:	8082                	ret

00006784 <_isatty_r>:
_isatty_r():
    6784:	1141                	addi	sp,sp,-16
    6786:	c422                	sw	s0,8(sp)
    6788:	842a                	mv	s0,a0
    678a:	852e                	mv	a0,a1
    678c:	1fffc797          	auipc	a5,0x1fffc
    6790:	8407a023          	sw	zero,-1984(a5) # 20001fcc <errno>
    6794:	c606                	sw	ra,12(sp)
    6796:	20f9                	jal	6864 <_isatty>
    6798:	57fd                	li	a5,-1
    679a:	00f51963          	bne	a0,a5,67ac <_isatty_r+0x28>
    679e:	1fffc797          	auipc	a5,0x1fffc
    67a2:	82e78793          	addi	a5,a5,-2002 # 20001fcc <errno>
    67a6:	439c                	lw	a5,0(a5)
    67a8:	c391                	beqz	a5,67ac <_isatty_r+0x28>
    67aa:	c01c                	sw	a5,0(s0)
    67ac:	40b2                	lw	ra,12(sp)
    67ae:	4422                	lw	s0,8(sp)
    67b0:	0141                	addi	sp,sp,16
    67b2:	8082                	ret

000067b4 <_lseek_r>:
_lseek_r():
    67b4:	1141                	addi	sp,sp,-16
    67b6:	c422                	sw	s0,8(sp)
    67b8:	842a                	mv	s0,a0
    67ba:	852e                	mv	a0,a1
    67bc:	85b2                	mv	a1,a2
    67be:	8636                	mv	a2,a3
    67c0:	1fffc797          	auipc	a5,0x1fffc
    67c4:	8007a623          	sw	zero,-2036(a5) # 20001fcc <errno>
    67c8:	c606                	sw	ra,12(sp)
    67ca:	286d                	jal	6884 <_lseek>
    67cc:	57fd                	li	a5,-1
    67ce:	00f51963          	bne	a0,a5,67e0 <_lseek_r+0x2c>
    67d2:	1fffb797          	auipc	a5,0x1fffb
    67d6:	7fa78793          	addi	a5,a5,2042 # 20001fcc <errno>
    67da:	439c                	lw	a5,0(a5)
    67dc:	c391                	beqz	a5,67e0 <_lseek_r+0x2c>
    67de:	c01c                	sw	a5,0(s0)
    67e0:	40b2                	lw	ra,12(sp)
    67e2:	4422                	lw	s0,8(sp)
    67e4:	0141                	addi	sp,sp,16
    67e6:	8082                	ret

000067e8 <__malloc_lock>:
__malloc_lock():
    67e8:	8082                	ret

000067ea <__malloc_unlock>:
__malloc_unlock():
    67ea:	8082                	ret

000067ec <_malloc_usable_size_r>:
_malloc_usable_size_r():
    67ec:	ffc5a783          	lw	a5,-4(a1)
    67f0:	ffc78513          	addi	a0,a5,-4
    67f4:	0007d563          	bgez	a5,67fe <_malloc_usable_size_r+0x12>
    67f8:	95aa                	add	a1,a1,a0
    67fa:	419c                	lw	a5,0(a1)
    67fc:	953e                	add	a0,a0,a5
    67fe:	8082                	ret

00006800 <_read_r>:
_read_r():
    6800:	1141                	addi	sp,sp,-16
    6802:	c422                	sw	s0,8(sp)
    6804:	842a                	mv	s0,a0
    6806:	852e                	mv	a0,a1
    6808:	85b2                	mv	a1,a2
    680a:	8636                	mv	a2,a3
    680c:	1fffb797          	auipc	a5,0x1fffb
    6810:	7c07a023          	sw	zero,1984(a5) # 20001fcc <errno>
    6814:	c606                	sw	ra,12(sp)
    6816:	28bd                	jal	6894 <_read>
    6818:	57fd                	li	a5,-1
    681a:	00f51963          	bne	a0,a5,682c <_read_r+0x2c>
    681e:	1fffb797          	auipc	a5,0x1fffb
    6822:	7ae78793          	addi	a5,a5,1966 # 20001fcc <errno>
    6826:	439c                	lw	a5,0(a5)
    6828:	c391                	beqz	a5,682c <_read_r+0x2c>
    682a:	c01c                	sw	a5,0(s0)
    682c:	40b2                	lw	ra,12(sp)
    682e:	4422                	lw	s0,8(sp)
    6830:	0141                	addi	sp,sp,16
    6832:	8082                	ret

00006834 <_close>:
_close():
    6834:	05800793          	li	a5,88
    6838:	1fffb717          	auipc	a4,0x1fffb
    683c:	78f72a23          	sw	a5,1940(a4) # 20001fcc <errno>
    6840:	557d                	li	a0,-1
    6842:	8082                	ret

00006844 <_fstat>:
_fstat():
    6844:	05800793          	li	a5,88
    6848:	1fffb717          	auipc	a4,0x1fffb
    684c:	78f72223          	sw	a5,1924(a4) # 20001fcc <errno>
    6850:	557d                	li	a0,-1
    6852:	8082                	ret

00006854 <_getpid>:
_getpid():
    6854:	05800793          	li	a5,88
    6858:	1fffb717          	auipc	a4,0x1fffb
    685c:	76f72a23          	sw	a5,1908(a4) # 20001fcc <errno>
    6860:	557d                	li	a0,-1
    6862:	8082                	ret

00006864 <_isatty>:
_isatty():
    6864:	05800793          	li	a5,88
    6868:	1fffb717          	auipc	a4,0x1fffb
    686c:	76f72223          	sw	a5,1892(a4) # 20001fcc <errno>
    6870:	4501                	li	a0,0
    6872:	8082                	ret

00006874 <_kill>:
_kill():
    6874:	05800793          	li	a5,88
    6878:	1fffb717          	auipc	a4,0x1fffb
    687c:	74f72a23          	sw	a5,1876(a4) # 20001fcc <errno>
    6880:	557d                	li	a0,-1
    6882:	8082                	ret

00006884 <_lseek>:
_lseek():
    6884:	05800793          	li	a5,88
    6888:	1fffb717          	auipc	a4,0x1fffb
    688c:	74f72223          	sw	a5,1860(a4) # 20001fcc <errno>
    6890:	557d                	li	a0,-1
    6892:	8082                	ret

00006894 <_read>:
_read():
    6894:	05800793          	li	a5,88
    6898:	1fffb717          	auipc	a4,0x1fffb
    689c:	72f72a23          	sw	a5,1844(a4) # 20001fcc <errno>
    68a0:	557d                	li	a0,-1
    68a2:	8082                	ret

000068a4 <_sbrk>:
_sbrk():
    68a4:	8c418793          	addi	a5,gp,-1852 # 20000174 <heap_end.1518>
    68a8:	439c                	lw	a5,0(a5)
    68aa:	c791                	beqz	a5,68b6 <_sbrk+0x12>
    68ac:	953e                	add	a0,a0,a5
    68ae:	8ca1a223          	sw	a0,-1852(gp) # 20000174 <heap_end.1518>
    68b2:	853e                	mv	a0,a5
    68b4:	8082                	ret
    68b6:	1fffb797          	auipc	a5,0x1fffb
    68ba:	71a78793          	addi	a5,a5,1818 # 20001fd0 <_ebss>
    68be:	953e                	add	a0,a0,a5
    68c0:	8ca1a223          	sw	a0,-1852(gp) # 20000174 <heap_end.1518>
    68c4:	853e                	mv	a0,a5
    68c6:	8082                	ret

000068c8 <_exit>:
_exit():
    68c8:	a001                	j	68c8 <_exit>
	...

000068cc <oled_6x8>:
	...
    68d4:	2f00 0000 0000 0007 0007 1400 147f 147f     ./..............
    68e4:	2400 7f2a 122a 6200 0864 2313 3600 5549     .$*.*..bd..#.6IU
    68f4:	5022 0000 0305 0000 0000 221c 0041 0000     "P........."A...
    6904:	2241 001c 1400 3e08 1408 0800 3e08 0808     A".....>.....>..
    6914:	0000 a000 0060 0800 0808 0808 0000 6060     ....`.........``
    6924:	0000 2000 0810 0204 3e00 4951 3e45 0000     ... .....>QIE>..
    6934:	7f42 0040 4200 5161 4649 2100 4541 314b     B.@..BaQIF.!AEK1
    6944:	1800 1214 107f 2700 4545 3945 3c00 494a     .......'EEE9.<JI
    6954:	3049 0100 0971 0305 3600 4949 3649 0600     I0..q....6III6..
    6964:	4949 1e29 0000 3636 0000 0000 3656 0000     II)...66....V6..
    6974:	0800 2214 0041 1400 1414 1414 0000 2241     ..."A.........A"
    6984:	0814 0200 5101 0609 3200 5949 3e51 7c00     .....Q...2IYQ>.|
    6994:	1112 7c12 7f00 4949 3649 3e00 4141 2241     ...|..III6.>AAA"
    69a4:	7f00 4141 1c22 7f00 4949 4149 7f00 0909     ..AA"...IIIA....
    69b4:	0109 3e00 4941 7a49 7f00 0808 7f08 0000     ...>AIIz........
    69c4:	7f41 0041 2000 4140 013f 7f00 1408 4122     A.A.. @A?....."A
    69d4:	7f00 4040 4040 7f00 0c02 7f02 7f00 0804     ..@@@@..........
    69e4:	7f10 3e00 4141 3e41 7f00 0909 0609 3e00     ...>AAA>.......>
    69f4:	5141 5e21 7f00 1909 4629 4600 4949 3149     AQ!^....)F.FIII1
    6a04:	0100 7f01 0101 3f00 4040 3f40 1f00 4020     .......?@@@?.. @
    6a14:	1f20 3f00 3840 3f40 6300 0814 6314 0700      ..?@8@?.c...c..
    6a24:	7008 0708 6100 4951 4345 0000 417f 0041     .p...aQIEC...AA.
    6a34:	5500 552a 552a 0000 4141 007f 0400 0102     .U*U*U..AA......
    6a44:	0402 4000 4040 4040 0000 0201 0004 2000     ...@@@@@....... 
    6a54:	5454 7854 7f00 4448 3844 3800 4444 2044     TTTx..HDD8.8DDD 
    6a64:	3800 4444 7f48 3800 5454 1854 0800 097e     .8DDH..8TTT...~.
    6a74:	0201 1800 a4a4 7ca4 7f00 0408 7804 0000     .......|.....x..
    6a84:	7d44 0040 4000 8480 007d 7f00 2810 0044     D}@..@..}....(D.
    6a94:	0000 7f41 0040 7c00 1804 7804 7c00 0408     ..A.@..|...x.|..
    6aa4:	7804 3800 4444 3844 fc00 2424 1824 1800     .x.8DDD8..$$$...
    6ab4:	2424 fc18 7c00 0408 0804 4800 5454 2054     $$...|.....HTTT 
    6ac4:	0400 443f 2040 3c00 4040 7c20 1c00 4020     ..?D@ .<@@ |.. @
    6ad4:	1c20 3c00 3040 3c40 4400 1028 4428 1c00      ..<@0@<.D(.(D..
    6ae4:	a0a0 7ca0 4400 5464 444c 1414 1414 1414     ...|.DdTLD......

00006af4 <__func__.3175>:
    6af4:	6c6f 6465 735f 7465 705f 736f 0000 0000     oled_set_pos....
    6b04:	5f58 4957 5444 3e48 0078 0000 2e2e 4c2f     X_WIDTH>x...../L
    6b14:	6269 6172 6972 7365 732f 6565 666b 6572     ibraries/seekfre
    6b24:	5f65 6570 6972 6870 7265 6c61 532f 4545     e_peripheral/SEE
    6b34:	464b 4552 5f45 4c4f 4445 632e 0000 0000     KFREE_OLED.c....
    6b44:	5928 575f 4449 4854 382f 3e29 0079 0000     (Y_WIDTH/8)>y...

00006b54 <GPION>:
    6b54:	0800 4001 0c00 4001 1000 4001 1400 4001     ...@...@...@...@

00006b64 <TIMERN>:
    6b64:	2c00 4001 0000 4000 0400 4000 0800 4000     .,.@...@...@...@

00006b74 <UARTN>:
    6b74:	3800 4001 4400 4000 4800 4000 4c00 4000     .8.@.D.@.H.@.L.@
    6b84:	616d 6e69 0000 0000 6974 6c64 0065 0000     main....tidle...
    6b94:	2de6 0000 2e06 0000 2e06 0000 2e06 0000     .-..............
    6ba4:	2e06 0000 2e06 0000 2e06 0000 2e06 0000     ................
    6bb4:	2e06 0000 2e06 0000 2e06 0000 2e06 0000     ................
    6bc4:	2e06 0000 2e06 0000 2e06 0000 2e06 0000     ................
    6bd4:	2e06 0000 2e06 0000 2e06 0000 2e06 0000     ................
    6be4:	2e06 0000 2e06 0000 2e06 0000 2e06 0000     ................
    6bf4:	2e06 0000 2e06 0000 2e06 0000 2e06 0000     ................
    6c04:	2e06 0000 2e06 0000 2e06 0000 2e06 0000     ................
    6c14:	2e06 0000 2e06 0000 2e06 0000 2e06 0000     ................
    6c24:	2e06 0000 2e06 0000 2e06 0000 2e06 0000     ................
    6c34:	2e06 0000 2e06 0000 2e06 0000 2e06 0000     ................
    6c44:	2e06 0000 2e06 0000 2e06 0000 2e06 0000     ................
    6c54:	2e06 0000 2e06 0000 2e06 0000 2df6 0000     .............-..
    6c64:	2e06 0000 2e06 0000 2e06 0000 2e06 0000     ................
    6c74:	2e06 0000 2e06 0000 2e06 0000 2e06 0000     ................
    6c84:	2e06 0000 2e06 0000 2ca6 0000 2dfe 0000     .........,...-..
    6c94:	2e06 0000 2e06 0000 2e06 0000 2e06 0000     ................
    6ca4:	2dfe 0000 2e06 0000 2e06 0000 2e06 0000     .-..............
    6cb4:	2e06 0000 2e06 0000 2e32 0000 2db8 0000     ........2....-..
    6cc4:	2e06 0000 2e06 0000 2d0e 0000 2e06 0000     .........-......
    6cd4:	2e2e 0000 2e06 0000 2e06 0000 2ca2 0000     .............,..

00006ce4 <__lowest_bit_bitmap>:
    6ce4:	0000 0001 0002 0001 0003 0001 0002 0001     ................
    6cf4:	0004 0001 0002 0001 0003 0001 0002 0001     ................
    6d04:	0005 0001 0002 0001 0003 0001 0002 0001     ................
    6d14:	0004 0001 0002 0001 0003 0001 0002 0001     ................
    6d24:	0006 0001 0002 0001 0003 0001 0002 0001     ................
    6d34:	0004 0001 0002 0001 0003 0001 0002 0001     ................
    6d44:	0005 0001 0002 0001 0003 0001 0002 0001     ................
    6d54:	0004 0001 0002 0001 0003 0001 0002 0001     ................
    6d64:	0007 0001 0002 0001 0003 0001 0002 0001     ................
    6d74:	0004 0001 0002 0001 0003 0001 0002 0001     ................
    6d84:	0005 0001 0002 0001 0003 0001 0002 0001     ................
    6d94:	0004 0001 0002 0001 0003 0001 0002 0001     ................
    6da4:	0006 0001 0002 0001 0003 0001 0002 0001     ................
    6db4:	0004 0001 0002 0001 0003 0001 0002 0001     ................
    6dc4:	0005 0001 0002 0001 0003 0001 0002 0001     ................
    6dd4:	0004 0001 0002 0001 0003 0001 0002 0001     ................

00006de4 <large_digits.2240>:
    6de4:	3130 3332 3534 3736 3938 4241 4443 4645     0123456789ABCDEF
    6df4:	0000 0000 200a 205c 207c 0a2f 0000 0000     ..... \ | /.....
    6e04:	202d 5452 2d20 2020 2020 5420 7268 6165     - RT -     Threa
    6e14:	2064 704f 7265 7461 6e69 2067 7953 7473     d Operating Syst
    6e24:	6d65 000a 754a 206c 3720 3220 3230 0031     em..Jul  7 2021.
    6e34:	2f20 7c20 5c20 2020 2020 2520 2e64 6425      / | \     %d.%d
    6e44:	252e 2064 7562 6c69 2064 7325 000a 0000     .%d build %s....
    6e54:	3220 3030 2036 202d 3032 3931 4320 706f      2006 - 2019 Cop
    6e64:	7279 6769 7468 6220 2079 7472 742d 7268     yright by rt-thr
    6e74:	6165 2064 6574 6d61 000a 0000 4e28 4c55     ead team....(NUL
    6e84:	294c 0000                                   L)..

00006e88 <small_digits.2239>:
    6e88:	3130 3332 3534 3736 3938 6261 6463 6665     0123456789abcdef
    6e98:	0000 0000                                   ....

00006e9c <__fsym_list_mem_name>:
    6e9c:	696c 7473 6d5f 6d65 0000 0000 6f74 6174     list_mem....tota
    6eac:	206c 656d 6f6d 7972 203a 6425 000a 0000     l memory: %d....
    6ebc:	7375 6465 6d20 6d65 726f 2079 203a 6425     used memory : %d
    6ecc:	000a 0000 616d 6978 756d 206d 6c61 6f6c     ....maximum allo
    6edc:	6163 6574 2064 656d 6f6d 7972 203a 6425     cated memory: %d
    6eec:	000a 0000 6f74 6620 6572 2065 2061 6162     ....to free a ba
    6efc:	2064 6164 6174 6220 6f6c 6b63 0a3a 0000     d data block:...
    6f0c:	656d 3a6d 3020 2578 3830 2c78 7520 6573     mem: 0x%08x, use
    6f1c:	2064 6c66 6761 203a 6425 202c 616d 6967     d flag: %d, magi
    6f2c:	2063 6f63 6564 203a 7830 3025 7834 000a     c code: 0x%04x..
    6f3c:	6568 7061 0000 0000 656d 206d 6e69 7469     heap....mem init
    6f4c:	202c 7265 6f72 2072 6562 6967 206e 6461     , error begin ad
    6f5c:	7264 7365 2073 7830 7825 202c 6e61 2064     dress 0x%x, and 
    6f6c:	6e65 2064 6461 7264 7365 2073 7830 7825     end address 0x%x
    6f7c:	000a 0000                                   ....

00006f80 <__fsym___cmd_list_mailbox_name>:
    6f80:	5f5f 6d63 5f64 696c 7473 6d5f 6961 626c     __cmd_list_mailb
    6f90:	786f 0000                                   ox..

00006f94 <__fsym___cmd_list_sem_name>:
    6f94:	5f5f 6d63 5f64 696c 7473 735f 6d65 0000     __cmd_list_sem..

00006fa4 <__fsym___cmd_list_thread_name>:
    6fa4:	5f5f 6d63 5f64 696c 7473 745f 7268 6165     __cmd_list_threa
    6fb4:	0064 0000                                   d...

00006fb8 <__fsym___cmd_list_timer_name>:
    6fb8:	5f5f 6d63 5f64 696c 7473 745f 6d69 7265     __cmd_list_timer
    6fc8:	0000 0000                                   ....

00006fcc <__fsym___cmd_version_name>:
    6fcc:	5f5f 6d63 5f64 6576 7372 6f69 006e 0000     __cmd_version...

00006fdc <__fsym_list_mailbox_name>:
    6fdc:	696c 7473 6d5f 6961 626c 786f 0000 0000     list_mailbox....

00006fec <__fsym_list_sem_name>:
    6fec:	696c 7473 735f 6d65 0000 0000               list_sem....

00006ff8 <__fsym_list_thread_name>:
    6ff8:	696c 7473 745f 7268 6165 0064               list_thread.

00007004 <__fsym_list_timer_name>:
    7004:	696c 7473 745f 6d69 7265 0000 6548 6c6c     list_timer..Hell
    7014:	206f 5452 542d 7268 6165 2164 000a 0000     o RT-Thread!....
    7024:	2d2d 7546 636e 6974 6e6f 4c20 7369 3a74     --Function List:
    7034:	000a 0000 5f5f 0000 7325 000a 616d 6c69     ....__..%s..mail
    7044:	6f62 0078 2d25 2e2a 2073 6e65 7274 2079     box.%-*.s entry 
    7054:	6973 657a 7320 7375 6570 646e 7420 7268     size suspend thr
    7064:	6165 0a64 0000 0000 2d20 2d2d 202d 2d20     ead..... ----  -
    7074:	2d2d 202d 2d2d 2d2d 2d2d 2d2d 2d2d 2d2d     --- ------------
    7084:	2d2d 000a 2d25 2e2a 732a 2520 3430 2064     --..%-*.*s %04d 
    7094:	2520 3430 2064 6425 003a 0000 2d25 2e2a      %04d %d:...%-*.
    70a4:	732a 2520 3430 2064 2520 3430 2064 6425     *s %04d  %04d %d
    70b4:	000a 0000 6573 616d 6870 726f 0065 0000     ....semaphore...
    70c4:	2d25 2e2a 2073 2076 2020 7573 7073 6e65     %-*.s v   suspen
    70d4:	2064 6874 6572 6461 000a 0000 2d20 2d2d     d thread.... ---
    70e4:	2d20 2d2d 2d2d 2d2d 2d2d 2d2d 2d2d 0a2d      --------------.
    70f4:	0000 0000 2d25 2e2a 732a 2520 3330 2064     ....%-*.*s %03d 
    7104:	6425 003a 2d25 2e2a 732a 2520 3330 2064     %d:.%-*.*s %03d 
    7114:	6425 000a 6874 6572 6461 0000 2d25 2e2a     %d..thread..%-*.
    7124:	2073 7270 2069 7320 6174 7574 2073 2020     s pri  status   
    7134:	2020 7320 2070 2020 2020 7473 6361 206b        sp     stack 
    7144:	6973 657a 6d20 7861 7520 6573 2064 656c     size max used le
    7154:	7466 7420 6369 206b 6520 7272 726f 000a     ft tick  error..
    7164:	002d 0000 2d20 2d2d 2020 2d2d 2d2d 2d2d     -... ---  ------
    7174:	202d 2d2d 2d2d 2d2d 2d2d 2d2d 2d20 2d2d     - ---------- ---
    7184:	2d2d 2d2d 2d2d 202d 2d20 2d2d 2d2d 202d     -------  ------ 
    7194:	2d20 2d2d 2d2d 2d2d 2d2d 202d 2d2d 0a2d      ---------- ---.
    71a4:	0000 0000 2d25 2e2a 732a 2520 6433 0020     ....%-*.*s %3d .
    71b4:	7220 6165 7964 2020 0000 0000 7320 7375      ready  .... sus
    71c4:	6570 646e 0000 0000 6920 696e 2074 2020     pend.... init   
    71d4:	0000 0000 6320 6f6c 6573 2020 0000 0000     .... close  ....
    71e4:	7220 6e75 696e 676e 0000 0000 3020 2578      running.... 0x%
    71f4:	3830 2078 7830 3025 7838 2020 2020 3025     08x 0x%08x    %0
    7204:	6432 2525 2020 3020 2578 3830 2078 3025     2d%%   0x%08x %0
    7214:	6433 000a 6974 656d 0072 0000 2d25 2e2a     3d..timer...%-*.
    7224:	2073 7020 7265 6f69 6964 2063 2020 6974     s  periodic   ti
    7234:	656d 756f 2074 2020 2020 2020 6c66 6761     meout       flag
    7244:	000a 0000 2d20 2d2d 2d2d 2d2d 2d2d 202d     .... ---------- 
    7254:	2d2d 2d2d 2d2d 2d2d 2d2d 2d20 2d2d 2d2d     ---------- -----
    7264:	2d2d 2d2d 2d2d 000a 2d25 2e2a 732a 3020     ------..%-*.*s 0
    7274:	2578 3830 2078 7830 3025 7838 0020 0000     x%08x 0x%08x ...
    7284:	6361 6974 6176 6574 0a64 0000 6564 6361     activated...deac
    7294:	6974 6176 6574 0a64 0000 0000 7563 7272     tivated.....curr
    72a4:	6e65 2074 6974 6b63 303a 2578 3830 0a78     ent tick:0x%08x.
    72b4:	0000 0000 7325 0000 002f 0000               ....%s../...

000072c0 <__fsym___cmd_free_name>:
    72c0:	5f5f 6d63 5f64 7266 6565 0000               __cmd_free..

000072cc <__fsym___cmd_help_name>:
    72cc:	5f5f 6d63 5f64 6568 706c 0000               __cmd_help..

000072d8 <__fsym___cmd_ps_name>:
    72d8:	5f5f 6d63 5f64 7370 0000 0000 6f54 206f     __cmd_ps....Too 
    72e8:	616d 796e 6120 6772 2073 2021 6557 6f20     many args ! We o
    72f8:	6c6e 2079 7355 3a65 000a 0000 7325 203a     nly Use:....%s: 
    7308:	6f63 6d6d 6e61 2064 6f6e 2074 6f66 6e75     command not foun
    7318:	2e64 000a 5452 542d 7268 6165 2064 6873     d...RT-Thread sh
    7328:	6c65 206c 6f63 6d6d 6e61 7364 0a3a 0000     ell commands:...
    7338:	5f5f 6d63 5f64 0000 7325 0020 6f6e 6d20     __cmd_..%s .no m
    7348:	6d65 726f 2079 6f66 2072 6873 6c65 0a6c     emory for shell.
    7358:	0000 0000 7374 6568 6c6c 0000 6873 7872     ....tshell..shrx
    7368:	0000 0000 0008 0000 6325 0000 7325 7325     ........%c..%s%s
    7378:	0000 0000 2508 2073 0820 0000 2008 0008     .....%s  .... ..
    7388:	6175 7472 6d5f 0062 6e49 7469 4f20 214b     uart_mb.Init OK!
    7398:	0000 0000 6964 7073 616c 0079 656c 7466     ....display.left
    73a8:	665f 6f72 746e 3d20 2520 3530 0064 0000     _front = %05d...
    73b8:	6972 6867 5f74 6572 7261 3d20 2520 3530     right_rear = %05
    73c8:	0064 0000 6974 656d 3172 0000 202c 7566     d...timer1.., fu
    73d8:	636e 6974 6e6f 203a 0000 0000 7361 6573     nction: ....asse
    73e8:	7472 6f69 206e 2522 2273 6620 6961 656c     rtion "%s" faile
    73f8:	3a64 6620 6c69 2065 2522 2273 202c 696c     d: file "%s", li
    7408:	656e 2520 2564 2573 0a73 0000 2d23 2b30     ne %d%s%s...#-0+
    7418:	0020 0000 6c68 004c 6665 4567 4746 0000      ...hlL.efgEFG..
    7428:	3130 3332 3534 3736 3938 4241 4443 4645     0123456789ABCDEF
    7438:	0000 0000 3130 3332 3534 3736 3938 6261     ....0123456789ab
    7448:	6463 6665 0000 0000                         cdef....

00007450 <__sf_fake_stderr>:
	...

00007470 <__sf_fake_stdin>:
	...

00007490 <__sf_fake_stdout>:
	...
