
camCoreWithRTOS.elf:     file format elf32-littleriscv
camCoreWithRTOS.elf
architecture: riscv:rv32, flags 0x00000112:
EXEC_P, HAS_SYMS, D_PAGED
start address 0x00000000

Program Header:
    LOAD off    0x00001000 vaddr 0x00000000 paddr 0x00000000 align 2**12
         filesz 0x00007720 memsz 0x00007720 flags r-x
    LOAD off    0x00009000 vaddr 0x20000000 paddr 0x00007720 align 2**12
         filesz 0x000000e0 memsz 0x000020d0 flags rw-
    LOAD off    0x00009f00 vaddr 0x20004f00 paddr 0x20004f00 align 2**12
         filesz 0x00000000 memsz 0x00000100 flags rw-

Sections:
Idx Name           Size      VMA       LMA       File off  Algn  Flags
  0 .init          00000038  00000000  00000000  00001000  2**1  CONTENTS, ALLOC, LOAD, READONLY, CODE
  1 .vector        00000108  00000038  00000038  00001038  2**1  CONTENTS, ALLOC, LOAD, READONLY, CODE
  2 .text          0000754c  00000140  00000140  00001140  2**2  CONTENTS, ALLOC, LOAD, READONLY, CODE
  3 .rodata        00000094  0000768c  0000768c  0000868c  2**2  CONTENTS, ALLOC, LOAD, READONLY, DATA
  4 .fini          00000000  00007720  00007720  000090e0  2**0  CONTENTS, ALLOC, LOAD, CODE
  5 .dalign        00000000  20000000  20000000  000090e0  2**0  CONTENTS
  6 .dlalign       00000000  00007720  00007720  000090e0  2**0  CONTENTS
  7 .data          000000e0  20000000  00007720  00009000  2**2  CONTENTS, ALLOC, LOAD, DATA
  8 .bss           00001ff0  200000e0  00007800  000090e0  2**2  ALLOC
  9 .stack         00000100  20004f00  20004f00  00009f00  2**0  ALLOC
 10 .debug_info    000291a9  00000000  00000000  000090e0  2**0  CONTENTS, READONLY, DEBUGGING
 11 .debug_abbrev  000070ea  00000000  00000000  00032289  2**0  CONTENTS, READONLY, DEBUGGING
 12 .debug_aranges 000013d8  00000000  00000000  00039378  2**3  CONTENTS, READONLY, DEBUGGING
 13 .debug_ranges  000015a8  00000000  00000000  0003a750  2**3  CONTENTS, READONLY, DEBUGGING
 14 .debug_line    0001b082  00000000  00000000  0003bcf8  2**0  CONTENTS, READONLY, DEBUGGING
 15 .debug_str     00005b0a  00000000  00000000  00056d7a  2**0  CONTENTS, READONLY, DEBUGGING
 16 .comment       00000033  00000000  00000000  0005c884  2**0  CONTENTS, READONLY
 17 .debug_frame   00004774  00000000  00000000  0005c8b8  2**2  CONTENTS, READONLY, DEBUGGING
 18 .debug_loc     0000bfb9  00000000  00000000  0006102c  2**0  CONTENTS, READONLY, DEBUGGING
 19 .stab          000000b4  00000000  00000000  0006cfe8  2**2  CONTENTS, READONLY, DEBUGGING
 20 .stabstr       00000183  00000000  00000000  0006d09c  2**0  CONTENTS, READONLY, DEBUGGING
SYMBOL TABLE:
00000000 l    d  .init	00000000 .init
00000038 l    d  .vector	00000000 .vector
00000140 l    d  .text	00000000 .text
0000768c l    d  .rodata	00000000 .rodata
00007720 l    d  .fini	00000000 .fini
20000000 l    d  .dalign	00000000 .dalign
00007720 l    d  .dlalign	00000000 .dlalign
20000000 l    d  .data	00000000 .data
200000e0 l    d  .bss	00000000 .bss
20004f00 l    d  .stack	00000000 .stack
00000000 l    d  .debug_info	00000000 .debug_info
00000000 l    d  .debug_abbrev	00000000 .debug_abbrev
00000000 l    d  .debug_aranges	00000000 .debug_aranges
00000000 l    d  .debug_ranges	00000000 .debug_ranges
00000000 l    d  .debug_line	00000000 .debug_line
00000000 l    d  .debug_str	00000000 .debug_str
00000000 l    d  .comment	00000000 .comment
00000000 l    d  .debug_frame	00000000 .debug_frame
00000000 l    d  .debug_loc	00000000 .debug_loc
00000000 l    d  .stab	00000000 .stab
00000000 l    d  .stabstr	00000000 .stabstr
00000000 l    df *ABS*	00000000 ./Libraries/wch_libraries/Startup/startup_ch32v10x.o
00000038 l       .vector	00000000 _vector_base
00000000 l    df *ABS*	00000000 isr.c
00000000 l    df *ABS*	00000000 main.c
00000000 l    df *ABS*	00000000 ch32v10x_adc.c
00000000 l    df *ABS*	00000000 ch32v10x_dma.c
00000000 l    df *ABS*	00000000 ch32v10x_exti.c
00000000 l    df *ABS*	00000000 ch32v10x_gpio.c
00000000 l    df *ABS*	00000000 ch32v10x_misc.c
00000000 l    df *ABS*	00000000 ch32v10x_rcc.c
20000000 l     O .data	00000010 APBAHBPrescTable
200000b0 l     O .data	00000004 ADCPrescTable
00000000 l    df *ABS*	00000000 ch32v10x_tim.c
00000000 l    df *ABS*	00000000 ch32v10x_usart.c
00000000 l    df *ABS*	00000000 SEEKFREE_MT9V03X.c
00000000 l    df *ABS*	00000000 SEEKFREE_OLED.c
00006cd0 l     O .text	0000000d __func__.3175
00000000 l    df *ABS*	00000000 SEEKFREE_TSL1401.c
00000000 l    df *ABS*	00000000 SEEKFREE_UART_7725.c
00000000 l    df *ABS*	00000000 zf_adc.c
00000000 l    df *ABS*	00000000 zf_gpio.c
00000000 l    df *ABS*	00000000 zf_nvic.c
00000000 l    df *ABS*	00000000 zf_qtimer.c
00000000 l    df *ABS*	00000000 zf_systick.c
00000000 l    df *ABS*	00000000 zf_uart.c
00000000 l    df *ABS*	00000000 clock.c
200000fc l     O .bss	00000004 rt_tick
00000000 l    df *ABS*	00000000 components.c
0000224a l     F .text	00000004 rti_start
0000224e l     F .text	00000004 rti_board_start
00002252 l     F .text	00000004 rti_board_end
00002256 l     F .text	00000004 rti_end
00000000 l    df *ABS*	00000000 idle.c
00002404 l     F .text	00000008 rt_thread_idle_entry
20000284 l     O .bss	00000078 idle
200002fc l     O .bss	00000300 rt_thread_stack
00000000 l    df *ABS*	00000000 ipc.c
00000000 l    df *ABS*	00000000 irq.c
00000000 l    df *ABS*	00000000 kservice.c
000029b4 l     F .text	000001b6 print_number
200005fc l     O .bss	00000080 rt_log_buf.2341
00006fc0 l     O .text	00000011 large_digits.2240
00007064 l     O .text	00000011 small_digits.2239
00000000 l    df *ABS*	00000000 mem.c
0000312e l     F .text	00000060 plug_holes
2000067c l     O .bss	00000020 heap_sem
20000104 l     O .bss	00000004 heap_end
20000108 l     O .bss	00000004 heap_ptr
2000010c l     O .bss	00000004 lfree
20000110 l     O .bss	00000004 max_mem
20000114 l     O .bss	00000004 mem_size_aligned
20000118 l     O .bss	00000004 used_mem
00000000 l    df *ABS*	00000000 object.c
20000010 l     O .data	00000040 rt_object_container
00000000 l    df *ABS*	00000000 scheduler.c
20000124 l     O .bss	00000002 rt_scheduler_lock_nest
00000000 l    df *ABS*	00000000 thread.c
00000000 l    df *ABS*	00000000 timer.c
20000134 l     O .bss	00000004 random_nr.2125
20000138 l     O .bss	00000008 rt_timer_list
00000000 l    df *ABS*	00000000 cpuport.c
00000000 l    df *ABS*	00000000 cmd.c
00003e4c l     F .text	0000004c show_wait_queue
00003ea8 l     F .text	00000088 list_get_next
00000000 l    df *ABS*	00000000 msh.c
00000000 l    df *ABS*	00000000 shell.c
200006dc l     O .bss	00000081 finsh_prompt.3980
2000015c l     O .bss	00000004 finsh_prompt_custom
00000000 l    df *ABS*	00000000 board.c
20000760 l     O .bss	00001960 rt_heap
00000000 l    df *ABS*	00000000 clock_config.c
00000000 l    df *ABS*	00000000 communication.c
00000000 l    df *ABS*	00000000 display.c
00000000 l    df *ABS*	00000000 timer_pit.c
00000000 l    df *ABS*	00000000 assert.c
00000000 l    df *ABS*	00000000 fprintf.c
00000000 l    df *ABS*	00000000 memcpy.c
00000000 l    df *ABS*	00000000 nano-vfprintf.c
0000538a l     F .text	00000028 __sfputc_r
00000000 l    df *ABS*	00000000 nano-vfprintf_i.c
00000000 l    df *ABS*	00000000 sprintf.c
00000000 l    df *ABS*	00000000 strlen.c
00000000 l    df *ABS*	00000000 strncmp.c
00000000 l    df *ABS*	00000000 strncpy.c
00000000 l    df *ABS*	00000000 wbuf.c
00000000 l    df *ABS*	00000000 wsetup.c
00000000 l    df *ABS*	00000000 abort.c
00000000 l    df *ABS*	00000000 fflush.c
00000000 l    df *ABS*	00000000 findfp.c
00005e6e l     F .text	0000006a std
00000000 l    df *ABS*	00000000 fwalk.c
00000000 l    df *ABS*	00000000 makebuf.c
00000000 l    df *ABS*	00000000 memchr.c
00000000 l    df *ABS*	00000000 memmove.c
00000000 l    df *ABS*	00000000 nano-mallocr.c
00000000 l    df *ABS*	00000000 nano-mallocr.c
00000000 l    df *ABS*	00000000 nano-mallocr.c
00000000 l    df *ABS*	00000000 nano-vfprintf.c
00000000 l    df *ABS*	00000000 sbrkr.c
00000000 l    df *ABS*	00000000 signal.c
00000000 l    df *ABS*	00000000 signalr.c
00000000 l    df *ABS*	00000000 stdio.c
00000000 l    df *ABS*	00000000 writer.c
00000000 l    df *ABS*	00000000 closer.c
00000000 l    df *ABS*	00000000 fstatr.c
00000000 l    df *ABS*	00000000 isattyr.c
00000000 l    df *ABS*	00000000 lseekr.c
00000000 l    df *ABS*	00000000 mlock.c
00000000 l    df *ABS*	00000000 nano-mallocr.c
00000000 l    df *ABS*	00000000 readr.c
00000000 l    df *ABS*	00000000 close.c
00000000 l    df *ABS*	00000000 fstat.c
00000000 l    df *ABS*	00000000 getpid.c
00000000 l    df *ABS*	00000000 isatty.c
00000000 l    df *ABS*	00000000 kill.c
00000000 l    df *ABS*	00000000 lseek.c
00000000 l    df *ABS*	00000000 read.c
00000000 l    df *ABS*	00000000 sbrk.c
20000174 l     O .bss	00000004 heap_end.1518
00000000 l    df *ABS*	00000000 _exit.c
00000000 l    df *ABS*	00000000 SEEKFREE_FONT.c
00000000 l    df *ABS*	00000000 impure.c
20000050 l     O .data	00000060 impure_data
00000000 l    df *ABS*	00000000 common.c
00000000 l    df *ABS*	00000000 reent.c
0000144a g     F .text	00000018 TIM_TimeBaseStructInit
000069c8 g     F .text	00000014 _malloc_usable_size_r
0000039e g     F .text	00000064 EXTI2_IRQHandler
00003384 g     F .text	0000002a rt_calloc
20000164 g     O .bss	00000004 uart_mb
000076e8 g     O .rodata	00000008 __fsym_list_thread
0000234e g     F .text	0000000e entry
00006960 g     F .text	00000030 _isatty_r
00003f30 g     F .text	000001b0 list_thread
0000497e g     F .text	00000330 finsh_thread_entry
00006a30 g     F .text	00000010 _getpid
000035e4 g     F .text	00000008 rt_object_is_systemobject
00002c38 g     F .text	00000030 rt_strncpy
00003dc6 g     F .text	00000034 rt_hw_stack_init
00006990 g     F .text	00000034 _lseek_r
00003ab2 g     F .text	00000012 rt_thread_mdelay
00004538 g     F .text	00000220 msh_exec
000071b8 g     O .text	0000000d __fsym_list_mailbox_name
0000354c g     F .text	00000064 rt_object_allocate
0000517a g     F .text	00000052 show_speed
00006ec0 g     O .text	00000100 __lowest_bit_bitmap
000067da g     F .text	00000032 _kill_r
200008b0 g       .data	00000000 __global_pointer$
0000361a g     F .text	0000002e rt_system_scheduler_start
0000082e g     F .text	000000d0 TIM1_CC_IRQHandler
20000144 g     O .bss	00000004 rt_interrupt_to_thread
0000688c g     F .text	00000036 __sseek
00005f28 g     F .text	0000006c __sinit
00005af0 g     F .text	000000c0 __swbuf_r
00000bac g     F .text	00000028 HardFault_Handler
00001f80 g     F .text	0000000e systick_delay2
00001a5a g     F .text	00000058 ccd_collect
00005ee2 g     F .text	00000046 __sfmoreglue
000069c6 g     F .text	00000002 __malloc_unlock
000071c8 g     O .text	00000009 __fsym_list_sem_name
00004cc2 g     F .text	00000078 SysTick_Handler
000033ae g     F .text	000000ac rt_free
20000140 g     O .bss	00000004 rt_interrupt_from_thread
20000178 g     O .bss	00000100 ccd_data
000011b8 g     F .text	000000ae NVIC_Init
000031c8 g     F .text	0000008c rt_system_heap_init
000022e6 g     F .text	00000010 main_thread_entry
200000f8 g     O .bss	00000004 sys_clk
000061b4 g     F .text	0000004a memmove
00003d2a g     F .text	00000090 rt_timer_check
000036b8 g     F .text	00000050 rt_schedule_insert_thread
0000437e g     F .text	00000120 list_sem
00000b5c g     F .text	00000050 NMI_Handler
000018a2 g     F .text	0000011c oled_init
0000524a g     F .text	0000002a timer_pit_init
00000402 g     F .text	00000064 EXTI3_IRQHandler
000040e0 g     F .text	00000068 list
200000b4 g     O .data	00000004 camera_type
00007078 g     O .text	00000009 __fsym_list_mem_name
20000154 g     O .bss	00000004 _sysvar_table_begin
00000160 g       .text	00000000 SW_handler
00001652 g     F .text	0000000c USART_GetFlagStatus
0000692e g     F .text	00000032 _fstat_r
0000235c g     F .text	000000a8 rt_thread_idle_excute
00006d40 g     O .text	00000010 TIMERN
00003a14 g     F .text	0000004c rt_thread_suspend
00003050 g     F .text	00000036 rt_kprintf
200020cc g     O .bss	00000004 errno
200000e0 g       .bss	00000000 _sbss
00000100 g       *ABS*	00000000 __stack_size
200020c0 g     O .bss	0000000b temp_buff
00003e98 g     F .text	00000010 version
0000381a g     F .text	00000028 rt_thread_timeout
00004524 g     F .text	00000010 cmd_free
0000768c g       .rodata	00000000 __rt_init_start
00004256 g     F .text	00000128 list_mailbox
00007720 g       .rodata	00000000 __fsymtab_end
200000ee g     O .bss	00000001 ov7725_uart_finish_flag
0000521c g     F .text	0000002e timer1_pit_entry
00003e34 g     F .text	00000018 hello
20000160 g     O .bss	00000004 shell
000052d4 g     F .text	000000b6 memcpy
00005ed8 g     F .text	0000000a _cleanup_r
0000111e g     F .text	0000009a GPIO_PinRemapConfig
000064ba g     F .text	00000282 _svfprintf_r
00004848 g     F .text	000000aa finsh_system_init
000022a0 g     F .text	00000046 rt_components_init
000002b6 g     F .text	00000064 EXTI0_IRQHandler
00001462 g     F .text	00000024 TIM_Cmd
00003b44 g     F .text	0000004e rt_timer_init
000076a0 g       .rodata	00000000 __rt_init_end
0000240c g     F .text	0000003e rt_thread_idle_init
200000e0 g     O .bss	00000004 camera_sem
00001cbc g     F .text	00000024 gpio_toggle
20000150 g     O .bss	00000004 _syscall_table_end
0000213c g     F .text	00000030 uart_putbuff
000035ec g     F .text	0000002e rt_system_scheduler_init
0000676c g     F .text	00000062 _raise_r
0000014c g       .text	00000000 rt_hw_context_switch_to
00006a20 g     F .text	00000010 _fstat
000025b2 g     F .text	00000066 rt_mb_create
00005274 g     F .text	0000003a __assert_func
00000038 g       .init	00000000 _einit
20000148 g     O .bss	00000004 rt_thread_switch_interrupt_flag
000014e8 g     F .text	0000000e TIM_ClearITPendingBit
00001358 g     F .text	0000001e RCC_APB2PeriphClockCmd
00001702 g     F .text	00000016 mt9v03x_vsync
0000769c g     O .rodata	00000004 __rt_init_rti_end
00000662 g     F .text	00000050 ADC1_2_IRQHandler
0000680c g     F .text	00000002 _getpid_r
0000104a g     F .text	000000ca GPIO_Init
00007170 g     O .text	0000000f __fsym___cmd_list_sem_name
00001cf0 g     F .text	00000050 nvic_init
00007700 g     O .rodata	00000008 __fsym_hello
000015ec g     F .text	00000020 USART_Cmd
200000c8 g     O .data	00000005 __fsym_list_name
00003e14 g     F .text	00000020 rt_hw_context_switch_interrupt
0000673c g     F .text	00000030 _sbrk_r
00000c24 g     F .text	00000012 TAMPER_IRQHandler
000069dc g     F .text	00000034 _read_r
000038f8 g     F .text	000000c0 rt_thread_create
000071e0 g     O .text	0000000b __fsym_list_timer_name
000039b8 g     F .text	0000005c rt_thread_yield
000022f6 g     F .text	0000002c rt_application_init
00001376 g     F .text	0000001e RCC_APB1PeriphClockCmd
00003254 g     F .text	00000130 rt_malloc
00006a40 g     F .text	00000010 _isatty
0000256a g     F .text	00000048 rt_sem_release
00001d40 g     F .text	00000114 timer_gpio_quad_init
000076d8 g     O .rodata	00000008 __fsym_list_sem
200000d8 g     O .data	00000004 _global_impure_ptr
00006374 g     F .text	00000058 _realloc_r
00004cae  w    F .text	0000000a rt_heap_begin_get
000076a8 g     O .rodata	00000008 __fsym_list
00000ade g     F .text	0000007e DMA1_Channel4_IRQHandler
00000f30 g     F .text	000000ba ADC_RegularChannelConfig
200000b8 g     O .data	00000002 slave_position
00005cbc g     F .text	00000010 abort
00006a80 g     F .text	00000024 _sbrk
00007180 g     O .text	00000012 __fsym___cmd_list_thread_name
00003b92 g     F .text	00000032 rt_timer_detach
00003bc4 g     F .text	00000048 rt_timer_create
00000fea g     F .text	00000020 DMA_GetFlagStatus
00004534 g     F .text	00000004 msh_is_used
00000a8e g     F .text	00000050 USART3_IRQHandler
00001040 g     F .text	0000000a EXTI_ClearITPendingBit
0000225a g     F .text	00000046 rt_components_board_init
00000c36 g     F .text	00000012 RTC_IRQHandler
00003086 g     F .text	00000040 rt_show_version
200020d0 g       .bss	00000000 _ebss
0000165e g     F .text	0000004c USART_GetITStatus
0000768c g     O .rodata	00000004 __rt_init_rti_start
00000dfc g     F .text	00000050 DMA1_Channel7_IRQHandler
00004d80 g     F .text	000000cc rt_hw_board_init
00003ac4 g     F .text	00000050 rt_thread_resume
00002322 g     F .text	0000002c rtthread_startup
000021a8 g     F .text	00000020 uart_getchar
00003cea g     F .text	00000040 rt_timer_control
00001ab2 g     F .text	00000058 ov7725_cof_uart_interrupt
000051cc g     F .text	0000001c display_entry
2000016a g     O .bss	00000002 encoder_left_rear
0000345a g     F .text	00000054 rt_object_get_information
00006d50 g     O .text	00000010 UARTN
2000069c g     O .bss	00000040 rt_thread_priority_table
000052ae g     F .text	00000026 fprintf
0000099c g     F .text	00000070 TIM4_IRQHandler
00001114 g     F .text	0000000a GPIO_WriteBit
200000f4 g     O .bss	00000001 ov7725_uart_receive_num
000037b4 g     F .text	00000066 rt_thread_exit
00002bf8 g     F .text	00000040 rt_memmove
0000762c g     O .text	00000020 __sf_fake_stderr
200020d0 g       .bss	00000000 end
00001e54 g     F .text	00000104 timer_quad_init
000076c0 g     O .rodata	00000008 __fsym___cmd_list_mailbox
000063cc g     F .text	000000ee __ssputs_r
000014cc g     F .text	0000001c TIM_GetITStatus
00001266 g     F .text	000000f2 RCC_GetClocksFreq
00000dac g     F .text	00000050 DMA1_Channel6_IRQHandler
000053b2 g     F .text	00000044 __sfputs_r
00002054 g     F .text	000000c8 uart_init
0000619a g     F .text	0000001a memchr
000050a4 g     F .text	00000076 get_sensor_data
000014f6 g     F .text	000000f6 USART_Init
0000185c g     F .text	00000046 oled_fill
000061fe g     F .text	000000a8 _free_r
00001c9a g     F .text	00000022 gpio_get
0000092c g     F .text	00000070 TIM3_IRQHandler
00000c5a g     F .text	00000012 RCC_IRQHandler
00002c68 g     F .text	0000001a rt_strlen
00001f8e g     F .text	000000c6 uart_gpio_init
00000796 g     F .text	00000098 TIM1_TRG_COM_IRQHandler
00007718 g     O .rodata	00000008 __fsym___cmd_help
00000c6c g     F .text	00000050 DMA1_Channel1_IRQHandler
2000011c g     O .bss	00000001 rt_current_priority
00001b20 g     F .text	00000016 ov7725_uart_dma
000076b0 g     O .rodata	00000008 __fsym___cmd_list_timer
00000000 g       .init	00000000 _start
00006a60 g     F .text	00000010 _lseek
200000f3 g     O .bss	00000001 ov7725_uart_receive_flag
00001ce0 g     F .text	00000010 close_all_irq
00000590 g     F .text	000000d2 EXTI15_10_IRQHandler
00006d30 g     O .text	00000010 GPION
000021c8 g     F .text	00000026 uart_query
00005aa0 g     F .text	0000002c strncmp
00005086 g     F .text	0000001e encoder_init
0000160c g     F .text	0000003c USART_ITConfig
00005acc g     F .text	00000024 strncpy
000019be g     F .text	0000009c oled_p6x8str
000074a8 g     O .text	0000000b __fsym___cmd_help_name
000021f4 g     F .text	0000002e rt_tick_increase
0000318e g     F .text	0000003a list_mem
00003ca8 g     F .text	00000042 rt_timer_stop
000068fe g     F .text	00000030 _close_r
20000000 g       .dalign	00000000 _data_vma
00002c82 g     F .text	000003ce rt_vsnprintf
000076e0 g     O .rodata	00000008 __fsym___cmd_list_thread
000076f0 g     O .rodata	00000008 __fsym___cmd_version
00005bb0 g     F .text	0000010c __swsetup_r
000004ca g     F .text	000000c6 EXTI9_5_IRQHandler
00005f94 g     F .text	000000a0 __sfp
00002222 g     F .text	00000028 rt_tick_from_millisecond
2000014c g     O .bss	00000004 _syscall_table_begin
00004cb8  w    F .text	0000000a rt_heap_end_get
00004d3a g     F .text	00000046 board_init
0000680e g     F .text	00000030 __sread
000048f2 g     F .text	0000008c finsh_get_prompt
000069c4 g     F .text	00000002 __malloc_lock
00005e08 g     F .text	00000066 _fflush_r
000030c6 g     F .text	00000068 __rt_ffs
000071a8 g     O .text	0000000e __fsym___cmd_version_name
00001024 g     F .text	0000001c EXTI_GetITStatus
0000764c g     O .text	00000020 __sf_fake_stdin
00004758 g     F .text	000000f0 msh_auto_complete
20000158 g     O .bss	00000004 _sysvar_table_end
00001718 g     F .text	00000026 mt9v03x_dma
00003758 g     F .text	00000020 rt_enter_critical
00003a60 g     F .text	00000052 rt_thread_sleep
0000020e g     F .text	000000a8 memset
00000e4c g     F .text	0000005e main
00002618 g     F .text	000001a4 rt_mb_send_wait
00002990 g     F .text	00000024 rt_interrupt_leave
00007194 g     O .text	00000011 __fsym___cmd_list_timer_name
000068c2 g     F .text	00000006 __sclose
00003dc4 g     F .text	00000002 rt_system_timer_thread_init
200000ed g     O .bss	00000001 tsl1401_finish_flag
00003842 g     F .text	000000b0 rt_thread_init
000062a6 g     F .text	000000ce _malloc_r
00004eda g     F .text	0000001a rt_hw_console_getchar
00007720 g       .rodata	00000000 __vsymtab_start
00001b36 g     F .text	00000052 adc_convert
000027bc g     F .text	0000000e rt_mb_send
00000d5c g     F .text	00000050 DMA1_Channel5_IRQHandler
00000466 g     F .text	00000064 EXTI4_IRQHandler
20000100 g     O .bss	00000001 rt_interrupt_nest
00004e9a g     F .text	00000040 rt_hw_console_output
000076f8 g     O .rodata	00000008 __fsym_version
00004148 g     F .text	0000010e list_timer
00004f6e g     F .text	00000118 SystemInit
0000749c g     O .text	0000000b __fsym___cmd_free_name
00000140 g       .text	00000000 rt_hw_interrupt_disable
00003b14 g     F .text	00000030 rt_thread_startup
20000120 g     O .bss	00000004 rt_current_thread
00005a48 g     F .text	00000046 sprintf
00000000 g       .init	00000000 _sinit
00003dfa g     F .text	00000006 rt_hw_taskswitch
000068c8 g     F .text	00000036 _write_r
00000d0c g     F .text	00000050 DMA1_Channel3_IRQHandler
20000130 g     O .bss	00000004 rt_thread_ready_priority_group
0000173e g     F .text	00000054 oled_wrdat
200000eb g     O .bss	00000001 receive_num
20000278 g     O .bss	0000000c irq_status
00005696 g     F .text	0000010c _printf_common
00007708 g     O .rodata	00000008 __fsym___cmd_free
200000bc g     O .data	00000004 _impure_ptr
00000726 g     F .text	00000070 TIM1_UP_IRQHandler
0000715c g     O .text	00000013 __fsym___cmd_list_mailbox_name
200000e8 g     O .bss	00000003 receive
00005ccc g     F .text	0000013c __sflush_r
00001b0a g     F .text	00000016 ov7725_uart_vsync
20000128 g     O .bss	00000008 rt_thread_defunct
000027ca g     F .text	000001a2 rt_mb_recv
00007694 g     O .rodata	00000004 __rt_init_rti_board_end
000064ba g     F .text	00000282 _svfiprintf_r
00000bd4 g     F .text	00000050 WWDG_IRQHandler
0000244a g     F .text	00000036 rt_sem_init
000001c0 g       .text	00000000 rt_hw_context_switch_exit
00002b6a g     F .text	0000008e rt_memset
000076c8 g     O .rodata	00000008 __fsym_list_mailbox
000051e8 g     F .text	00000034 display_init
00006aa8 g     O .text	00000228 oled_6x8
00007720 g       .rodata	00000000 __vsymtab_end
000074b4 g     O .text	00000009 __fsym___cmd_ps_name
000076b8 g     O .rodata	00000008 __fsym_list_timer
000008fe g     F .text	0000002e TIM2_IRQHandler
20005000 g       .stack	00000000 _eusrstack
0000351e g     F .text	0000002e rt_object_detach
200000ec g     O .bss	00000001 uart_receive_flag
200000c0 g     O .data	00000006 __fsym_hello_name
000016aa g     F .text	00000058 mt9v03x_uart_callback
20000168 g     O .bss	00000002 encoder_left_front
00003dba g     F .text	0000000a rt_system_timer_init
200000e4 g     O .bss	00000001 mt9v03x_finish_flag
00003708 g     F .text	00000050 rt_schedule_remove_thread
000006b2 g     F .text	00000074 TIM1_BRK_IRQHandler
000060a0 g     F .text	0000005a __swhatbuf_r
00001648 g     F .text	0000000a USART_SendData
0000296c g     F .text	00000024 rt_interrupt_enter
0000031a g     F .text	00000084 EXTI1_IRQHandler
00000146 g       .text	00000000 rt_hw_interrupt_enable
000076a0 g     O .rodata	00000008 __fsym_list_mem
00004e4c g     F .text	0000004e _write
200000e0 g       .data	00000000 _edata
00003778 g     F .text	0000003c rt_exit_critical
00001394 g     F .text	000000b6 TIM_TimeBaseInit
00004514 g     F .text	00000010 cmd_ps
00007720 g       .dlalign	00000000 _data_lma
00000a0c g     F .text	00000082 USART2_IRQHandler
0000683e g     F .text	0000004e __swrite
000052ae g     F .text	00000026 fiprintf
000038f2 g     F .text	00000006 rt_thread_self
000053f6 g     F .text	000002a0 _vfiprintf_r
00007698 g     O .rodata	00000004 __rt_init_finsh_system_init
00006034 g     F .text	0000006c _fwalk_reent
00006a50 g     F .text	00000010 _kill
000017e6 g     F .text	00000076 oled_set_pos
00000cbc g     F .text	00000050 DMA1_Channel2_IRQHandler
000035b0 g     F .text	00000034 rt_object_delete
000021ee g     F .text	00000006 rt_tick_get
0000766c g     O .text	00000020 __sf_fake_stdout
00005a48 g     F .text	00000046 siprintf
0000100a g     F .text	0000001a DMA_ClearFlag
00006a70 g     F .text	00000010 _read
00000eaa  w      .text	00000000 handle_reset
00000c48 g     F .text	00000012 FLASH_IRQHandler
00006aa4 g     F .text	00000002 _exit
0000511a g     F .text	00000060 process_data
00001f58 g     F .text	00000016 timer_quad_get
00002480 g     F .text	000000ea rt_sem_take
00004ef4 g     F .text	0000007a USART1_IRQHandler
000076d0 g     O .rodata	00000008 __fsym___cmd_list_sem
000060fa g     F .text	000000a0 __smakebuf_r
00005a8e g     F .text	00000012 strlen
000057a2 g     F .text	000002a6 _printf_i
200000d0 g     O .data	00000008 __fsym_version_name
20000170 g     O .bss	00000004 __malloc_sbrk_start
0000216c g     F .text	0000003c uart_rx_irq
00001f6e g     F .text	00000012 timer_quad_clear
00007690 g     O .rodata	00000004 __rt_init_rti_board_start
00001b88 g     F .text	00000112 gpio_init
2000016c g     O .bss	00000004 __malloc_free_list
000071d4 g     O .text	0000000c __fsym_list_thread_name
000076a0 g       .rodata	00000000 __fsymtab_start
00001486 g     F .text	00000046 TIM_EncoderInterfaceConfig
000053f6 g     F .text	000002a0 _vfprintf_r
00003648 g     F .text	00000070 rt_schedule
000034ae g     F .text	00000070 rt_object_init
00007710 g     O .rodata	00000008 __fsym___cmd_ps
0000211c g     F .text	00000020 uart_putchar
00003c0c g     F .text	0000009c rt_timer_start
0000449e g     F .text	00000076 msh_help
200000f0 g     O .bss	00000003 ov7725_uart_receive
00003e00 g     F .text	00000014 rt_hw_context_switch
00001792 g     F .text	00000054 oled_wrcmd
00006a10 g     F .text	00000010 _close
000067ce g     F .text	0000000c raise



Disassembly of section .init:

00000000 <_sinit>:
_start():
C:\Users\29275\Desktop\WchWorkSPace\camCoreWithRTOS\obj/../Libraries/wch_libraries/Startup/startup_ch32v10x.S:13

	.section	.init,"ax",@progbits
	.global	_start
	.align	1
_start:
	j	handle_reset
   0:	6ab0006f          	j	eaa <handle_reset>
   4:	00000013          	nop
   8:	00000013          	nop
   c:	00000013          	nop
  10:	00000013          	nop
  14:	00000013          	nop
  18:	00000013          	nop
  1c:	00000013          	nop
  20:	00000013          	nop
  24:	00000013          	nop
  28:	00000013          	nop
  2c:	00000013          	nop
  30:	00000013          	nop
  34:	00100073          	ebreak

Disassembly of section .vector:

00000038 <_vector_base>:
_vector_base():
C:\Users\29275\Desktop\WchWorkSPace\camCoreWithRTOS\obj/../Libraries/wch_libraries/Startup/startup_ch32v10x.S:31
	.word 0x00100073
    .section    .vector,"ax",@progbits
    .align  1
_vector_base:
    .option norvc;
        j   _start
  38:	fc9ff06f          	j	0 <_sinit>
  3c:	0000                	unimp
  3e:	0000                	unimp
C:\Users\29275\Desktop\WchWorkSPace\camCoreWithRTOS\obj/../Libraries/wch_libraries/Startup/startup_ch32v10x.S:33
    .word   0
        j   NMI_Handler                 /* NMI Handler */
  40:	31d0006f          	j	b5c <NMI_Handler>
C:\Users\29275\Desktop\WchWorkSPace\camCoreWithRTOS\obj/../Libraries/wch_libraries/Startup/startup_ch32v10x.S:34
        j   HardFault_Handler           /* Hard Fault Handler */
  44:	3690006f          	j	bac <HardFault_Handler>
	...
C:\Users\29275\Desktop\WchWorkSPace\camCoreWithRTOS\obj/../Libraries/wch_libraries/Startup/startup_ch32v10x.S:43
    .word   0
    .word   0
    .word   0
    .word   0
    .word   0
        j   SysTick_Handler            /* SysTick Handler */
  68:	45b0406f          	j	4cc2 <SysTick_Handler>
  6c:	0000                	unimp
  6e:	0000                	unimp
C:\Users\29275\Desktop\WchWorkSPace\camCoreWithRTOS\obj/../Libraries/wch_libraries/Startup/startup_ch32v10x.S:45
    .word   0
        j   SW_handler                 /* SW Handler */
  70:	0f00006f          	j	160 <SW_handler>
  74:	0000                	unimp
  76:	0000                	unimp
C:\Users\29275\Desktop\WchWorkSPace\camCoreWithRTOS\obj/../Libraries/wch_libraries/Startup/startup_ch32v10x.S:48
    .word   0
    /* External Interrupts */
        j   WWDG_IRQHandler            /* Window Watchdog */
  78:	35d0006f          	j	bd4 <WWDG_IRQHandler>
C:\Users\29275\Desktop\WchWorkSPace\camCoreWithRTOS\obj/../Libraries/wch_libraries/Startup/startup_ch32v10x.S:49
        j   PVD_IRQHandler             /* PVD through EXTI Line detect */
  7c:	f85ff06f          	j	0 <_sinit>
C:\Users\29275\Desktop\WchWorkSPace\camCoreWithRTOS\obj/../Libraries/wch_libraries/Startup/startup_ch32v10x.S:50
        j   TAMPER_IRQHandler          /* TAMPER */
  80:	3a50006f          	j	c24 <TAMPER_IRQHandler>
C:\Users\29275\Desktop\WchWorkSPace\camCoreWithRTOS\obj/../Libraries/wch_libraries/Startup/startup_ch32v10x.S:51
        j   RTC_IRQHandler             /* RTC */
  84:	3b30006f          	j	c36 <RTC_IRQHandler>
C:\Users\29275\Desktop\WchWorkSPace\camCoreWithRTOS\obj/../Libraries/wch_libraries/Startup/startup_ch32v10x.S:52
        j   FLASH_IRQHandler           /* Flash */
  88:	3c10006f          	j	c48 <FLASH_IRQHandler>
C:\Users\29275\Desktop\WchWorkSPace\camCoreWithRTOS\obj/../Libraries/wch_libraries/Startup/startup_ch32v10x.S:53
        j   RCC_IRQHandler             /* RCC */
  8c:	3cf0006f          	j	c5a <RCC_IRQHandler>
C:\Users\29275\Desktop\WchWorkSPace\camCoreWithRTOS\obj/../Libraries/wch_libraries/Startup/startup_ch32v10x.S:54
        j   EXTI0_IRQHandler           /* EXTI Line 0 */
  90:	2260006f          	j	2b6 <EXTI0_IRQHandler>
C:\Users\29275\Desktop\WchWorkSPace\camCoreWithRTOS\obj/../Libraries/wch_libraries/Startup/startup_ch32v10x.S:55
        j   EXTI1_IRQHandler           /* EXTI Line 1 */
  94:	2860006f          	j	31a <EXTI1_IRQHandler>
C:\Users\29275\Desktop\WchWorkSPace\camCoreWithRTOS\obj/../Libraries/wch_libraries/Startup/startup_ch32v10x.S:56
        j   EXTI2_IRQHandler           /* EXTI Line 2 */
  98:	3060006f          	j	39e <EXTI2_IRQHandler>
C:\Users\29275\Desktop\WchWorkSPace\camCoreWithRTOS\obj/../Libraries/wch_libraries/Startup/startup_ch32v10x.S:57
        j   EXTI3_IRQHandler           /* EXTI Line 3 */
  9c:	3660006f          	j	402 <EXTI3_IRQHandler>
C:\Users\29275\Desktop\WchWorkSPace\camCoreWithRTOS\obj/../Libraries/wch_libraries/Startup/startup_ch32v10x.S:58
        j   EXTI4_IRQHandler           /* EXTI Line 4 */
  a0:	3c60006f          	j	466 <EXTI4_IRQHandler>
C:\Users\29275\Desktop\WchWorkSPace\camCoreWithRTOS\obj/../Libraries/wch_libraries/Startup/startup_ch32v10x.S:59
        j   DMA1_Channel1_IRQHandler   /* DMA1 Channel 1 */
  a4:	3c90006f          	j	c6c <DMA1_Channel1_IRQHandler>
C:\Users\29275\Desktop\WchWorkSPace\camCoreWithRTOS\obj/../Libraries/wch_libraries/Startup/startup_ch32v10x.S:60
        j   DMA1_Channel2_IRQHandler   /* DMA1 Channel 2 */
  a8:	4150006f          	j	cbc <DMA1_Channel2_IRQHandler>
C:\Users\29275\Desktop\WchWorkSPace\camCoreWithRTOS\obj/../Libraries/wch_libraries/Startup/startup_ch32v10x.S:61
        j   DMA1_Channel3_IRQHandler   /* DMA1 Channel 3 */
  ac:	4610006f          	j	d0c <DMA1_Channel3_IRQHandler>
C:\Users\29275\Desktop\WchWorkSPace\camCoreWithRTOS\obj/../Libraries/wch_libraries/Startup/startup_ch32v10x.S:62
        j   DMA1_Channel4_IRQHandler   /* DMA1 Channel 4 */
  b0:	22f0006f          	j	ade <DMA1_Channel4_IRQHandler>
C:\Users\29275\Desktop\WchWorkSPace\camCoreWithRTOS\obj/../Libraries/wch_libraries/Startup/startup_ch32v10x.S:63
        j   DMA1_Channel5_IRQHandler   /* DMA1 Channel 5 */
  b4:	4a90006f          	j	d5c <DMA1_Channel5_IRQHandler>
C:\Users\29275\Desktop\WchWorkSPace\camCoreWithRTOS\obj/../Libraries/wch_libraries/Startup/startup_ch32v10x.S:64
        j   DMA1_Channel6_IRQHandler   /* DMA1 Channel 6 */
  b8:	4f50006f          	j	dac <DMA1_Channel6_IRQHandler>
C:\Users\29275\Desktop\WchWorkSPace\camCoreWithRTOS\obj/../Libraries/wch_libraries/Startup/startup_ch32v10x.S:65
        j   DMA1_Channel7_IRQHandler   /* DMA1 Channel 7 */
  bc:	5410006f          	j	dfc <DMA1_Channel7_IRQHandler>
C:\Users\29275\Desktop\WchWorkSPace\camCoreWithRTOS\obj/../Libraries/wch_libraries/Startup/startup_ch32v10x.S:66
        j   ADC1_2_IRQHandler          /* ADC1_2 */
  c0:	5a20006f          	j	662 <ADC1_2_IRQHandler>
	...
C:\Users\29275\Desktop\WchWorkSPace\camCoreWithRTOS\obj/../Libraries/wch_libraries/Startup/startup_ch32v10x.S:71
        .word   0
        .word   0
        .word   0
        .word   0
        j   EXTI9_5_IRQHandler         /* EXTI Line 9..5 */
  d4:	3f60006f          	j	4ca <EXTI9_5_IRQHandler>
C:\Users\29275\Desktop\WchWorkSPace\camCoreWithRTOS\obj/../Libraries/wch_libraries/Startup/startup_ch32v10x.S:72
        j   TIM1_BRK_IRQHandler        /* TIM1 Break */
  d8:	5da0006f          	j	6b2 <TIM1_BRK_IRQHandler>
C:\Users\29275\Desktop\WchWorkSPace\camCoreWithRTOS\obj/../Libraries/wch_libraries/Startup/startup_ch32v10x.S:73
        j   TIM1_UP_IRQHandler         /* TIM1 Update */
  dc:	64a0006f          	j	726 <TIM1_UP_IRQHandler>
C:\Users\29275\Desktop\WchWorkSPace\camCoreWithRTOS\obj/../Libraries/wch_libraries/Startup/startup_ch32v10x.S:74
        j   TIM1_TRG_COM_IRQHandler    /* TIM1 Trigger and Commutation */
  e0:	6b60006f          	j	796 <TIM1_TRG_COM_IRQHandler>
C:\Users\29275\Desktop\WchWorkSPace\camCoreWithRTOS\obj/../Libraries/wch_libraries/Startup/startup_ch32v10x.S:75
        j   TIM1_CC_IRQHandler         /* TIM1 Capture Compare */
  e4:	74a0006f          	j	82e <TIM1_CC_IRQHandler>
C:\Users\29275\Desktop\WchWorkSPace\camCoreWithRTOS\obj/../Libraries/wch_libraries/Startup/startup_ch32v10x.S:76
        j   TIM2_IRQHandler            /* TIM2 */
  e8:	0170006f          	j	8fe <TIM2_IRQHandler>
C:\Users\29275\Desktop\WchWorkSPace\camCoreWithRTOS\obj/../Libraries/wch_libraries/Startup/startup_ch32v10x.S:77
        j   TIM3_IRQHandler            /* TIM3 */
  ec:	0410006f          	j	92c <TIM3_IRQHandler>
C:\Users\29275\Desktop\WchWorkSPace\camCoreWithRTOS\obj/../Libraries/wch_libraries/Startup/startup_ch32v10x.S:78
        j   TIM4_IRQHandler            /* TIM4 */
  f0:	0ad0006f          	j	99c <TIM4_IRQHandler>
C:\Users\29275\Desktop\WchWorkSPace\camCoreWithRTOS\obj/../Libraries/wch_libraries/Startup/startup_ch32v10x.S:79
        j   I2C1_EV_IRQHandler         /* I2C1 Event */
  f4:	f0dff06f          	j	0 <_sinit>
C:\Users\29275\Desktop\WchWorkSPace\camCoreWithRTOS\obj/../Libraries/wch_libraries/Startup/startup_ch32v10x.S:80
        j   I2C1_ER_IRQHandler         /* I2C1 Error */
  f8:	f09ff06f          	j	0 <_sinit>
C:\Users\29275\Desktop\WchWorkSPace\camCoreWithRTOS\obj/../Libraries/wch_libraries/Startup/startup_ch32v10x.S:81
        j   I2C2_EV_IRQHandler         /* I2C2 Event */
  fc:	f05ff06f          	j	0 <_sinit>
C:\Users\29275\Desktop\WchWorkSPace\camCoreWithRTOS\obj/../Libraries/wch_libraries/Startup/startup_ch32v10x.S:82
        j   I2C2_ER_IRQHandler         /* I2C2 Error */
 100:	f01ff06f          	j	0 <_sinit>
C:\Users\29275\Desktop\WchWorkSPace\camCoreWithRTOS\obj/../Libraries/wch_libraries/Startup/startup_ch32v10x.S:83
        j   SPI1_IRQHandler            /* SPI1 */
 104:	efdff06f          	j	0 <_sinit>
C:\Users\29275\Desktop\WchWorkSPace\camCoreWithRTOS\obj/../Libraries/wch_libraries/Startup/startup_ch32v10x.S:84
        j   SPI2_IRQHandler            /* SPI2 */
 108:	ef9ff06f          	j	0 <_sinit>
C:\Users\29275\Desktop\WchWorkSPace\camCoreWithRTOS\obj/../Libraries/wch_libraries/Startup/startup_ch32v10x.S:85
        j   USART1_IRQHandler          /* USART1 */
 10c:	5e90406f          	j	4ef4 <USART1_IRQHandler>
C:\Users\29275\Desktop\WchWorkSPace\camCoreWithRTOS\obj/../Libraries/wch_libraries/Startup/startup_ch32v10x.S:86
        j   USART2_IRQHandler          /* USART2 */
 110:	0fd0006f          	j	a0c <USART2_IRQHandler>
C:\Users\29275\Desktop\WchWorkSPace\camCoreWithRTOS\obj/../Libraries/wch_libraries/Startup/startup_ch32v10x.S:87
        j   USART3_IRQHandler          /* USART3 */
 114:	17b0006f          	j	a8e <USART3_IRQHandler>
C:\Users\29275\Desktop\WchWorkSPace\camCoreWithRTOS\obj/../Libraries/wch_libraries/Startup/startup_ch32v10x.S:88
        j   EXTI15_10_IRQHandler       /* EXTI Line 15..10 */
 118:	4780006f          	j	590 <EXTI15_10_IRQHandler>
C:\Users\29275\Desktop\WchWorkSPace\camCoreWithRTOS\obj/../Libraries/wch_libraries/Startup/startup_ch32v10x.S:89
        j   RTCAlarm_IRQHandler        /* RTC Alarm through EXTI Line */
 11c:	ee5ff06f          	j	0 <_sinit>
C:\Users\29275\Desktop\WchWorkSPace\camCoreWithRTOS\obj/../Libraries/wch_libraries/Startup/startup_ch32v10x.S:90
        j   USBWakeUp_IRQHandler       /* USB Wakeup from suspend */
 120:	ee1ff06f          	j	0 <_sinit>
C:\Users\29275\Desktop\WchWorkSPace\camCoreWithRTOS\obj/../Libraries/wch_libraries/Startup/startup_ch32v10x.S:91
        j   USBHD_IRQHandler           /* USBHD */
 124:	eddff06f          	j	0 <_sinit>
	...

Disassembly of section .text:

00000140 <rt_hw_interrupt_disable>:
rt_hw_interrupt_disable():
C:\Users\29275\Desktop\WchWorkSPace\camCoreWithRTOS\obj/../Libraries/rtthread_libraries/libcpu/context_gcc.S:33
/*
 * rt_base_t rt_hw_interrupt_disable(void);
 */
    .globl rt_hw_interrupt_disable
rt_hw_interrupt_disable:
    csrrci a0, mstatus, 8
     140:	30047573          	csrrci	a0,mstatus,8
C:\Users\29275\Desktop\WchWorkSPace\camCoreWithRTOS\obj/../Libraries/rtthread_libraries/libcpu/context_gcc.S:34
    ret
     144:	8082                	ret

00000146 <rt_hw_interrupt_enable>:
rt_hw_interrupt_enable():
C:\Users\29275\Desktop\WchWorkSPace\camCoreWithRTOS\obj/../Libraries/rtthread_libraries/libcpu/context_gcc.S:41
/*
 * void rt_hw_interrupt_enable(rt_base_t level);
 */
    .globl rt_hw_interrupt_enable
rt_hw_interrupt_enable:
    csrw mstatus, a0
     146:	30051073          	csrw	mstatus,a0
C:\Users\29275\Desktop\WchWorkSPace\camCoreWithRTOS\obj/../Libraries/rtthread_libraries/libcpu/context_gcc.S:42
    ret
     14a:	8082                	ret

0000014c <rt_hw_context_switch_to>:
rt_hw_context_switch_to():
C:\Users\29275\Desktop\WchWorkSPace\camCoreWithRTOS\obj/../Libraries/rtthread_libraries/libcpu/context_gcc.S:58
    /* Setup Interrupt Stack using
       The stack that was used by main()
       before the scheduler is started is
       no longer required after the scheduler is started.
       Interrupt stack pointer is stored in CSR_MSCRATCH */
    la t0, _eusrstack
     14c:	20005297          	auipc	t0,0x20005
     150:	eb428293          	addi	t0,t0,-332 # 20005000 <_eusrstack>
C:\Users\29275\Desktop\WchWorkSPace\camCoreWithRTOS\obj/../Libraries/rtthread_libraries/libcpu/context_gcc.S:59
    csrw CSR_MSCRATCH, t0
     154:	34029073          	csrw	mscratch,t0
C:\Users\29275\Desktop\WchWorkSPace\camCoreWithRTOS\obj/../Libraries/rtthread_libraries/libcpu/context_gcc.S:60
    LOAD sp, 0x0(a0)                /* Read sp from first TCB member(a0) */
     158:	00052103          	lw	sp,0(a0)
C:\Users\29275\Desktop\WchWorkSPace\camCoreWithRTOS\obj/../Libraries/rtthread_libraries/libcpu/context_gcc.S:62

    j rt_hw_context_switch_exit
     15c:	a095                	j	1c0 <rt_hw_context_switch_exit>
     15e:	0001                	nop

00000160 <SW_handler>:
SW_handler():
C:\Users\29275\Desktop\WchWorkSPace\camCoreWithRTOS\obj/../Libraries/rtthread_libraries/libcpu/context_gcc.S:68


    .align 2
.global SW_handler
SW_handler:
    addi sp, sp, -RT_CONTEXT_SIZE
     160:	7119                	addi	sp,sp,-128
C:\Users\29275\Desktop\WchWorkSPace\camCoreWithRTOS\obj/../Libraries/rtthread_libraries/libcpu/context_gcc.S:69
    STORE x1,  1  * REGBYTES(sp)    /* RA */
     162:	c206                	sw	ra,4(sp)
C:\Users\29275\Desktop\WchWorkSPace\camCoreWithRTOS\obj/../Libraries/rtthread_libraries/libcpu/context_gcc.S:71

    STORE x4,  4  * REGBYTES(sp)
     164:	c812                	sw	tp,16(sp)
C:\Users\29275\Desktop\WchWorkSPace\camCoreWithRTOS\obj/../Libraries/rtthread_libraries/libcpu/context_gcc.S:72
    STORE x5,  5  * REGBYTES(sp)
     166:	ca16                	sw	t0,20(sp)
C:\Users\29275\Desktop\WchWorkSPace\camCoreWithRTOS\obj/../Libraries/rtthread_libraries/libcpu/context_gcc.S:73
    STORE x6,  6  * REGBYTES(sp)
     168:	cc1a                	sw	t1,24(sp)
C:\Users\29275\Desktop\WchWorkSPace\camCoreWithRTOS\obj/../Libraries/rtthread_libraries/libcpu/context_gcc.S:74
    STORE x7,  7  * REGBYTES(sp)
     16a:	ce1e                	sw	t2,28(sp)
C:\Users\29275\Desktop\WchWorkSPace\camCoreWithRTOS\obj/../Libraries/rtthread_libraries/libcpu/context_gcc.S:75
    STORE x8,  8  * REGBYTES(sp)
     16c:	d022                	sw	s0,32(sp)
C:\Users\29275\Desktop\WchWorkSPace\camCoreWithRTOS\obj/../Libraries/rtthread_libraries/libcpu/context_gcc.S:76
    STORE x9,  9  * REGBYTES(sp)
     16e:	d226                	sw	s1,36(sp)
C:\Users\29275\Desktop\WchWorkSPace\camCoreWithRTOS\obj/../Libraries/rtthread_libraries/libcpu/context_gcc.S:77
    STORE x10, 10 * REGBYTES(sp)
     170:	d42a                	sw	a0,40(sp)
C:\Users\29275\Desktop\WchWorkSPace\camCoreWithRTOS\obj/../Libraries/rtthread_libraries/libcpu/context_gcc.S:78
    STORE x11, 11 * REGBYTES(sp)
     172:	d62e                	sw	a1,44(sp)
C:\Users\29275\Desktop\WchWorkSPace\camCoreWithRTOS\obj/../Libraries/rtthread_libraries/libcpu/context_gcc.S:79
    STORE x12, 12 * REGBYTES(sp)
     174:	d832                	sw	a2,48(sp)
C:\Users\29275\Desktop\WchWorkSPace\camCoreWithRTOS\obj/../Libraries/rtthread_libraries/libcpu/context_gcc.S:80
    STORE x13, 13 * REGBYTES(sp)
     176:	da36                	sw	a3,52(sp)
C:\Users\29275\Desktop\WchWorkSPace\camCoreWithRTOS\obj/../Libraries/rtthread_libraries/libcpu/context_gcc.S:81
    STORE x14, 14 * REGBYTES(sp)
     178:	dc3a                	sw	a4,56(sp)
C:\Users\29275\Desktop\WchWorkSPace\camCoreWithRTOS\obj/../Libraries/rtthread_libraries/libcpu/context_gcc.S:82
    STORE x15, 15 * REGBYTES(sp)
     17a:	de3e                	sw	a5,60(sp)
C:\Users\29275\Desktop\WchWorkSPace\camCoreWithRTOS\obj/../Libraries/rtthread_libraries/libcpu/context_gcc.S:83
    STORE x16, 16 * REGBYTES(sp)
     17c:	c0c2                	sw	a6,64(sp)
C:\Users\29275\Desktop\WchWorkSPace\camCoreWithRTOS\obj/../Libraries/rtthread_libraries/libcpu/context_gcc.S:84
    STORE x17, 17 * REGBYTES(sp)
     17e:	c2c6                	sw	a7,68(sp)
C:\Users\29275\Desktop\WchWorkSPace\camCoreWithRTOS\obj/../Libraries/rtthread_libraries/libcpu/context_gcc.S:85
    STORE x18, 18 * REGBYTES(sp)
     180:	c4ca                	sw	s2,72(sp)
C:\Users\29275\Desktop\WchWorkSPace\camCoreWithRTOS\obj/../Libraries/rtthread_libraries/libcpu/context_gcc.S:86
    STORE x19, 19 * REGBYTES(sp)
     182:	c6ce                	sw	s3,76(sp)
C:\Users\29275\Desktop\WchWorkSPace\camCoreWithRTOS\obj/../Libraries/rtthread_libraries/libcpu/context_gcc.S:87
    STORE x20, 20 * REGBYTES(sp)
     184:	c8d2                	sw	s4,80(sp)
C:\Users\29275\Desktop\WchWorkSPace\camCoreWithRTOS\obj/../Libraries/rtthread_libraries/libcpu/context_gcc.S:88
    STORE x21, 21 * REGBYTES(sp)
     186:	cad6                	sw	s5,84(sp)
C:\Users\29275\Desktop\WchWorkSPace\camCoreWithRTOS\obj/../Libraries/rtthread_libraries/libcpu/context_gcc.S:89
    STORE x22, 22 * REGBYTES(sp)
     188:	ccda                	sw	s6,88(sp)
C:\Users\29275\Desktop\WchWorkSPace\camCoreWithRTOS\obj/../Libraries/rtthread_libraries/libcpu/context_gcc.S:90
    STORE x23, 23 * REGBYTES(sp)
     18a:	cede                	sw	s7,92(sp)
C:\Users\29275\Desktop\WchWorkSPace\camCoreWithRTOS\obj/../Libraries/rtthread_libraries/libcpu/context_gcc.S:91
    STORE x24, 24 * REGBYTES(sp)
     18c:	d0e2                	sw	s8,96(sp)
C:\Users\29275\Desktop\WchWorkSPace\camCoreWithRTOS\obj/../Libraries/rtthread_libraries/libcpu/context_gcc.S:92
    STORE x25, 25 * REGBYTES(sp)
     18e:	d2e6                	sw	s9,100(sp)
C:\Users\29275\Desktop\WchWorkSPace\camCoreWithRTOS\obj/../Libraries/rtthread_libraries/libcpu/context_gcc.S:93
    STORE x26, 26 * REGBYTES(sp)
     190:	d4ea                	sw	s10,104(sp)
C:\Users\29275\Desktop\WchWorkSPace\camCoreWithRTOS\obj/../Libraries/rtthread_libraries/libcpu/context_gcc.S:94
    STORE x27, 27 * REGBYTES(sp)
     192:	d6ee                	sw	s11,108(sp)
C:\Users\29275\Desktop\WchWorkSPace\camCoreWithRTOS\obj/../Libraries/rtthread_libraries/libcpu/context_gcc.S:95
    STORE x28, 28 * REGBYTES(sp)
     194:	d8f2                	sw	t3,112(sp)
C:\Users\29275\Desktop\WchWorkSPace\camCoreWithRTOS\obj/../Libraries/rtthread_libraries/libcpu/context_gcc.S:96
    STORE x29, 29 * REGBYTES(sp)
     196:	daf6                	sw	t4,116(sp)
C:\Users\29275\Desktop\WchWorkSPace\camCoreWithRTOS\obj/../Libraries/rtthread_libraries/libcpu/context_gcc.S:97
    STORE x30, 30 * REGBYTES(sp)
     198:	dcfa                	sw	t5,120(sp)
C:\Users\29275\Desktop\WchWorkSPace\camCoreWithRTOS\obj/../Libraries/rtthread_libraries/libcpu/context_gcc.S:98
    STORE x31, 31 * REGBYTES(sp)
     19a:	defe                	sw	t6,124(sp)
C:\Users\29275\Desktop\WchWorkSPace\camCoreWithRTOS\obj/../Libraries/rtthread_libraries/libcpu/context_gcc.S:101

    /* Push mstatus to stack */
    csrr t0, CSR_MSTATUS
     19c:	300022f3          	csrr	t0,mstatus
C:\Users\29275\Desktop\WchWorkSPace\camCoreWithRTOS\obj/../Libraries/rtthread_libraries/libcpu/context_gcc.S:102
    STORE t0,  2  * REGBYTES(sp)
     1a0:	c416                	sw	t0,8(sp)
C:\Users\29275\Desktop\WchWorkSPace\camCoreWithRTOS\obj/../Libraries/rtthread_libraries/libcpu/context_gcc.S:107

    /* Push additional registers */

    /* Store sp to task stack */
    LOAD t0, rt_interrupt_from_thread
     1a2:	8901a283          	lw	t0,-1904(gp) # 20000140 <rt_interrupt_from_thread>
C:\Users\29275\Desktop\WchWorkSPace\camCoreWithRTOS\obj/../Libraries/rtthread_libraries/libcpu/context_gcc.S:108
    STORE sp, 0(t0)
     1a6:	0022a023          	sw	sp,0(t0)
C:\Users\29275\Desktop\WchWorkSPace\camCoreWithRTOS\obj/../Libraries/rtthread_libraries/libcpu/context_gcc.S:110

    csrr t0, CSR_MEPC
     1aa:	341022f3          	csrr	t0,mepc
C:\Users\29275\Desktop\WchWorkSPace\camCoreWithRTOS\obj/../Libraries/rtthread_libraries/libcpu/context_gcc.S:111
    STORE t0, 0(sp)
     1ae:	c016                	sw	t0,0(sp)
C:\Users\29275\Desktop\WchWorkSPace\camCoreWithRTOS\obj/../Libraries/rtthread_libraries/libcpu/context_gcc.S:113

    jal rt_hw_taskswitch
     1b0:	44b030ef          	jal	ra,3dfa <rt_hw_taskswitch>
C:\Users\29275\Desktop\WchWorkSPace\camCoreWithRTOS\obj/../Libraries/rtthread_libraries/libcpu/context_gcc.S:116

    /* Switch task context */
    LOAD t0, rt_interrupt_to_thread
     1b4:	8941a283          	lw	t0,-1900(gp) # 20000144 <rt_interrupt_to_thread>
C:\Users\29275\Desktop\WchWorkSPace\camCoreWithRTOS\obj/../Libraries/rtthread_libraries/libcpu/context_gcc.S:117
    LOAD sp, 0x0(t0)
     1b8:	0002a103          	lw	sp,0(t0)
C:\Users\29275\Desktop\WchWorkSPace\camCoreWithRTOS\obj/../Libraries/rtthread_libraries/libcpu/context_gcc.S:119

	j rt_hw_context_switch_exit
     1bc:	a011                	j	1c0 <rt_hw_context_switch_exit>
     1be:	0001                	nop

000001c0 <rt_hw_context_switch_exit>:
rt_hw_context_switch_exit():
C:\Users\29275\Desktop\WchWorkSPace\camCoreWithRTOS\obj/../Libraries/rtthread_libraries/libcpu/context_gcc.S:127

.align 2
    .global rt_hw_context_switch_exit
rt_hw_context_switch_exit:

	LOAD t0,  0  * REGBYTES(sp)
     1c0:	4282                	lw	t0,0(sp)
C:\Users\29275\Desktop\WchWorkSPace\camCoreWithRTOS\obj/../Libraries/rtthread_libraries/libcpu/context_gcc.S:128
    csrw CSR_MEPC, t0
     1c2:	34129073          	csrw	mepc,t0
C:\Users\29275\Desktop\WchWorkSPace\camCoreWithRTOS\obj/../Libraries/rtthread_libraries/libcpu/context_gcc.S:130
    /* Pop mstatus from stack and set it */
    LOAD t0,  2  * REGBYTES(sp)
     1c6:	42a2                	lw	t0,8(sp)
C:\Users\29275\Desktop\WchWorkSPace\camCoreWithRTOS\obj/../Libraries/rtthread_libraries/libcpu/context_gcc.S:131
    csrw CSR_MSTATUS, t0
     1c8:	30029073          	csrw	mstatus,t0
C:\Users\29275\Desktop\WchWorkSPace\camCoreWithRTOS\obj/../Libraries/rtthread_libraries/libcpu/context_gcc.S:134
    /* Interrupt still disable here */
    /* Restore Registers from Stack */
    LOAD x1,  1  * REGBYTES(sp)    /* RA */
     1cc:	4092                	lw	ra,4(sp)
C:\Users\29275\Desktop\WchWorkSPace\camCoreWithRTOS\obj/../Libraries/rtthread_libraries/libcpu/context_gcc.S:136

    LOAD x4,  4  * REGBYTES(sp)
     1ce:	4242                	lw	tp,16(sp)
C:\Users\29275\Desktop\WchWorkSPace\camCoreWithRTOS\obj/../Libraries/rtthread_libraries/libcpu/context_gcc.S:137
    LOAD x5,  5  * REGBYTES(sp)
     1d0:	42d2                	lw	t0,20(sp)
C:\Users\29275\Desktop\WchWorkSPace\camCoreWithRTOS\obj/../Libraries/rtthread_libraries/libcpu/context_gcc.S:138
    LOAD x6,  6  * REGBYTES(sp)
     1d2:	4362                	lw	t1,24(sp)
C:\Users\29275\Desktop\WchWorkSPace\camCoreWithRTOS\obj/../Libraries/rtthread_libraries/libcpu/context_gcc.S:139
    LOAD x7,  7  * REGBYTES(sp)
     1d4:	43f2                	lw	t2,28(sp)
C:\Users\29275\Desktop\WchWorkSPace\camCoreWithRTOS\obj/../Libraries/rtthread_libraries/libcpu/context_gcc.S:140
    LOAD x8,  8  * REGBYTES(sp)
     1d6:	5402                	lw	s0,32(sp)
C:\Users\29275\Desktop\WchWorkSPace\camCoreWithRTOS\obj/../Libraries/rtthread_libraries/libcpu/context_gcc.S:141
    LOAD x9,  9  * REGBYTES(sp)
     1d8:	5492                	lw	s1,36(sp)
C:\Users\29275\Desktop\WchWorkSPace\camCoreWithRTOS\obj/../Libraries/rtthread_libraries/libcpu/context_gcc.S:142
    LOAD x10, 10 * REGBYTES(sp)
     1da:	5522                	lw	a0,40(sp)
C:\Users\29275\Desktop\WchWorkSPace\camCoreWithRTOS\obj/../Libraries/rtthread_libraries/libcpu/context_gcc.S:143
    LOAD x11, 11 * REGBYTES(sp)
     1dc:	55b2                	lw	a1,44(sp)
C:\Users\29275\Desktop\WchWorkSPace\camCoreWithRTOS\obj/../Libraries/rtthread_libraries/libcpu/context_gcc.S:144
    LOAD x12, 12 * REGBYTES(sp)
     1de:	5642                	lw	a2,48(sp)
C:\Users\29275\Desktop\WchWorkSPace\camCoreWithRTOS\obj/../Libraries/rtthread_libraries/libcpu/context_gcc.S:145
    LOAD x13, 13 * REGBYTES(sp)
     1e0:	56d2                	lw	a3,52(sp)
C:\Users\29275\Desktop\WchWorkSPace\camCoreWithRTOS\obj/../Libraries/rtthread_libraries/libcpu/context_gcc.S:146
    LOAD x14, 14 * REGBYTES(sp)
     1e2:	5762                	lw	a4,56(sp)
C:\Users\29275\Desktop\WchWorkSPace\camCoreWithRTOS\obj/../Libraries/rtthread_libraries/libcpu/context_gcc.S:147
    LOAD x15, 15 * REGBYTES(sp)
     1e4:	57f2                	lw	a5,60(sp)
C:\Users\29275\Desktop\WchWorkSPace\camCoreWithRTOS\obj/../Libraries/rtthread_libraries/libcpu/context_gcc.S:148
    LOAD x16, 16 * REGBYTES(sp)
     1e6:	4806                	lw	a6,64(sp)
C:\Users\29275\Desktop\WchWorkSPace\camCoreWithRTOS\obj/../Libraries/rtthread_libraries/libcpu/context_gcc.S:149
    LOAD x17, 17 * REGBYTES(sp)
     1e8:	4896                	lw	a7,68(sp)
C:\Users\29275\Desktop\WchWorkSPace\camCoreWithRTOS\obj/../Libraries/rtthread_libraries/libcpu/context_gcc.S:150
    LOAD x18, 18 * REGBYTES(sp)
     1ea:	4926                	lw	s2,72(sp)
C:\Users\29275\Desktop\WchWorkSPace\camCoreWithRTOS\obj/../Libraries/rtthread_libraries/libcpu/context_gcc.S:151
    LOAD x19, 19 * REGBYTES(sp)
     1ec:	49b6                	lw	s3,76(sp)
C:\Users\29275\Desktop\WchWorkSPace\camCoreWithRTOS\obj/../Libraries/rtthread_libraries/libcpu/context_gcc.S:152
    LOAD x20, 20 * REGBYTES(sp)
     1ee:	4a46                	lw	s4,80(sp)
C:\Users\29275\Desktop\WchWorkSPace\camCoreWithRTOS\obj/../Libraries/rtthread_libraries/libcpu/context_gcc.S:153
    LOAD x21, 21 * REGBYTES(sp)
     1f0:	4ad6                	lw	s5,84(sp)
C:\Users\29275\Desktop\WchWorkSPace\camCoreWithRTOS\obj/../Libraries/rtthread_libraries/libcpu/context_gcc.S:154
    LOAD x22, 22 * REGBYTES(sp)
     1f2:	4b66                	lw	s6,88(sp)
C:\Users\29275\Desktop\WchWorkSPace\camCoreWithRTOS\obj/../Libraries/rtthread_libraries/libcpu/context_gcc.S:155
    LOAD x23, 23 * REGBYTES(sp)
     1f4:	4bf6                	lw	s7,92(sp)
C:\Users\29275\Desktop\WchWorkSPace\camCoreWithRTOS\obj/../Libraries/rtthread_libraries/libcpu/context_gcc.S:156
    LOAD x24, 24 * REGBYTES(sp)
     1f6:	5c06                	lw	s8,96(sp)
C:\Users\29275\Desktop\WchWorkSPace\camCoreWithRTOS\obj/../Libraries/rtthread_libraries/libcpu/context_gcc.S:157
    LOAD x25, 25 * REGBYTES(sp)
     1f8:	5c96                	lw	s9,100(sp)
C:\Users\29275\Desktop\WchWorkSPace\camCoreWithRTOS\obj/../Libraries/rtthread_libraries/libcpu/context_gcc.S:158
    LOAD x26, 26 * REGBYTES(sp)
     1fa:	5d26                	lw	s10,104(sp)
C:\Users\29275\Desktop\WchWorkSPace\camCoreWithRTOS\obj/../Libraries/rtthread_libraries/libcpu/context_gcc.S:159
    LOAD x27, 27 * REGBYTES(sp)
     1fc:	5db6                	lw	s11,108(sp)
C:\Users\29275\Desktop\WchWorkSPace\camCoreWithRTOS\obj/../Libraries/rtthread_libraries/libcpu/context_gcc.S:160
    LOAD x28, 28 * REGBYTES(sp)
     1fe:	5e46                	lw	t3,112(sp)
C:\Users\29275\Desktop\WchWorkSPace\camCoreWithRTOS\obj/../Libraries/rtthread_libraries/libcpu/context_gcc.S:161
    LOAD x29, 29 * REGBYTES(sp)
     200:	5ed6                	lw	t4,116(sp)
C:\Users\29275\Desktop\WchWorkSPace\camCoreWithRTOS\obj/../Libraries/rtthread_libraries/libcpu/context_gcc.S:162
    LOAD x30, 30 * REGBYTES(sp)
     202:	5f66                	lw	t5,120(sp)
C:\Users\29275\Desktop\WchWorkSPace\camCoreWithRTOS\obj/../Libraries/rtthread_libraries/libcpu/context_gcc.S:163
    LOAD x31, 31 * REGBYTES(sp)
     204:	5ff6                	lw	t6,124(sp)
C:\Users\29275\Desktop\WchWorkSPace\camCoreWithRTOS\obj/../Libraries/rtthread_libraries/libcpu/context_gcc.S:165

    addi sp, sp, RT_CONTEXT_SIZE
     206:	6109                	addi	sp,sp,128
C:\Users\29275\Desktop\WchWorkSPace\camCoreWithRTOS\obj/../Libraries/rtthread_libraries/libcpu/context_gcc.S:167

    mret
     208:	30200073          	mret
	...

0000020e <memset>:
memset():
     20e:	433d                	li	t1,15
     210:	872a                	mv	a4,a0
     212:	02c37363          	bgeu	t1,a2,238 <memset+0x2a>
     216:	00f77793          	andi	a5,a4,15
     21a:	efbd                	bnez	a5,298 <memset+0x8a>
     21c:	e5ad                	bnez	a1,286 <memset+0x78>
     21e:	ff067693          	andi	a3,a2,-16
     222:	8a3d                	andi	a2,a2,15
     224:	96ba                	add	a3,a3,a4
     226:	c30c                	sw	a1,0(a4)
     228:	c34c                	sw	a1,4(a4)
     22a:	c70c                	sw	a1,8(a4)
     22c:	c74c                	sw	a1,12(a4)
     22e:	0741                	addi	a4,a4,16
     230:	fed76be3          	bltu	a4,a3,226 <memset+0x18>
     234:	e211                	bnez	a2,238 <memset+0x2a>
     236:	8082                	ret
     238:	40c306b3          	sub	a3,t1,a2
     23c:	068a                	slli	a3,a3,0x2
     23e:	00000297          	auipc	t0,0x0
     242:	9696                	add	a3,a3,t0
     244:	00a68067          	jr	10(a3)
     248:	00b70723          	sb	a1,14(a4)
     24c:	00b706a3          	sb	a1,13(a4)
     250:	00b70623          	sb	a1,12(a4)
     254:	00b705a3          	sb	a1,11(a4)
     258:	00b70523          	sb	a1,10(a4)
     25c:	00b704a3          	sb	a1,9(a4)
     260:	00b70423          	sb	a1,8(a4)
     264:	00b703a3          	sb	a1,7(a4)
     268:	00b70323          	sb	a1,6(a4)
     26c:	00b702a3          	sb	a1,5(a4)
     270:	00b70223          	sb	a1,4(a4)
     274:	00b701a3          	sb	a1,3(a4)
     278:	00b70123          	sb	a1,2(a4)
     27c:	00b700a3          	sb	a1,1(a4)
     280:	00b70023          	sb	a1,0(a4)
     284:	8082                	ret
     286:	0ff5f593          	andi	a1,a1,255
     28a:	00859693          	slli	a3,a1,0x8
     28e:	8dd5                	or	a1,a1,a3
     290:	01059693          	slli	a3,a1,0x10
     294:	8dd5                	or	a1,a1,a3
     296:	b761                	j	21e <memset+0x10>
     298:	00279693          	slli	a3,a5,0x2
     29c:	00000297          	auipc	t0,0x0
     2a0:	9696                	add	a3,a3,t0
     2a2:	8286                	mv	t0,ra
     2a4:	fa8680e7          	jalr	-88(a3)
     2a8:	8096                	mv	ra,t0
     2aa:	17c1                	addi	a5,a5,-16
     2ac:	8f1d                	sub	a4,a4,a5
     2ae:	963e                	add	a2,a2,a5
     2b0:	f8c374e3          	bgeu	t1,a2,238 <memset+0x2a>
     2b4:	b7a5                	j	21c <memset+0xe>

000002b6 <EXTI0_IRQHandler>:
EXTI0_IRQHandler():
C:\Users\29275\Desktop\WchWorkSPace\camCoreWithRTOS\obj/../USER/isr.c:65
//void RTCAlarm_IRQHandler(void) __attribute__((interrupt()));
//void USBWakeUp_IRQHandler(void) __attribute__((interrupt()));
//void USBHD_IRQHandler(void) __attribute__((interrupt()));

void EXTI0_IRQHandler(void)
{
     2b6:	7139                	addi	sp,sp,-64
     2b8:	de06                	sw	ra,60(sp)
     2ba:	dc16                	sw	t0,56(sp)
     2bc:	da1a                	sw	t1,52(sp)
     2be:	d81e                	sw	t2,48(sp)
     2c0:	d62a                	sw	a0,44(sp)
     2c2:	d42e                	sw	a1,40(sp)
     2c4:	d232                	sw	a2,36(sp)
     2c6:	d036                	sw	a3,32(sp)
     2c8:	ce3a                	sw	a4,28(sp)
     2ca:	cc3e                	sw	a5,24(sp)
     2cc:	ca42                	sw	a6,20(sp)
     2ce:	c846                	sw	a7,16(sp)
     2d0:	c672                	sw	t3,12(sp)
     2d2:	c476                	sw	t4,8(sp)
     2d4:	c27a                	sw	t5,4(sp)
     2d6:	c07e                	sw	t6,0(sp)
C:\Users\29275\Desktop\WchWorkSPace\camCoreWithRTOS\obj/../USER/isr.c:66
    rt_interrupt_enter();   //
     2d8:	694020ef          	jal	ra,296c <rt_interrupt_enter>
C:\Users\29275\Desktop\WchWorkSPace\camCoreWithRTOS\obj/../USER/isr.c:68

    if(SET == EXTI_GetITStatus(EXTI_Line0))
     2dc:	4505                	li	a0,1
     2de:	547000ef          	jal	ra,1024 <EXTI_GetITStatus>
     2e2:	4785                	li	a5,1
     2e4:	02f50763          	beq	a0,a5,312 <EXTI0_IRQHandler+0x5c>
C:\Users\29275\Desktop\WchWorkSPace\camCoreWithRTOS\obj/../USER/isr.c:74
    {

        EXTI_ClearITPendingBit(EXTI_Line0);
    }

    rt_interrupt_leave();   //
     2e8:	6a8020ef          	jal	ra,2990 <rt_interrupt_leave>
C:\Users\29275\Desktop\WchWorkSPace\camCoreWithRTOS\obj/../USER/isr.c:75
}
     2ec:	50f2                	lw	ra,60(sp)
     2ee:	52e2                	lw	t0,56(sp)
     2f0:	5352                	lw	t1,52(sp)
     2f2:	53c2                	lw	t2,48(sp)
     2f4:	5532                	lw	a0,44(sp)
     2f6:	55a2                	lw	a1,40(sp)
     2f8:	5612                	lw	a2,36(sp)
     2fa:	5682                	lw	a3,32(sp)
     2fc:	4772                	lw	a4,28(sp)
     2fe:	47e2                	lw	a5,24(sp)
     300:	4852                	lw	a6,20(sp)
     302:	48c2                	lw	a7,16(sp)
     304:	4e32                	lw	t3,12(sp)
     306:	4ea2                	lw	t4,8(sp)
     308:	4f12                	lw	t5,4(sp)
     30a:	4f82                	lw	t6,0(sp)
     30c:	6121                	addi	sp,sp,64
     30e:	30200073          	mret
C:\Users\29275\Desktop\WchWorkSPace\camCoreWithRTOS\obj/../USER/isr.c:71
        EXTI_ClearITPendingBit(EXTI_Line0);
     312:	4505                	li	a0,1
     314:	52d000ef          	jal	ra,1040 <EXTI_ClearITPendingBit>
     318:	bfc1                	j	2e8 <EXTI0_IRQHandler+0x32>

0000031a <EXTI1_IRQHandler>:
EXTI1_IRQHandler():
C:\Users\29275\Desktop\WchWorkSPace\camCoreWithRTOS\obj/../USER/isr.c:78

void EXTI1_IRQHandler(void)
{
     31a:	7139                	addi	sp,sp,-64
     31c:	de06                	sw	ra,60(sp)
     31e:	dc16                	sw	t0,56(sp)
     320:	da1a                	sw	t1,52(sp)
     322:	d81e                	sw	t2,48(sp)
     324:	d62a                	sw	a0,44(sp)
     326:	d42e                	sw	a1,40(sp)
     328:	d232                	sw	a2,36(sp)
     32a:	d036                	sw	a3,32(sp)
     32c:	ce3a                	sw	a4,28(sp)
     32e:	cc3e                	sw	a5,24(sp)
     330:	ca42                	sw	a6,20(sp)
     332:	c846                	sw	a7,16(sp)
     334:	c672                	sw	t3,12(sp)
     336:	c476                	sw	t4,8(sp)
     338:	c27a                	sw	t5,4(sp)
     33a:	c07e                	sw	t6,0(sp)
C:\Users\29275\Desktop\WchWorkSPace\camCoreWithRTOS\obj/../USER/isr.c:79
    rt_interrupt_enter();   //
     33c:	630020ef          	jal	ra,296c <rt_interrupt_enter>
C:\Users\29275\Desktop\WchWorkSPace\camCoreWithRTOS\obj/../USER/isr.c:81

    if(SET == EXTI_GetITStatus(EXTI_Line1))
     340:	4509                	li	a0,2
     342:	4e3000ef          	jal	ra,1024 <EXTI_GetITStatus>
     346:	4785                	li	a5,1
     348:	02f50763          	beq	a0,a5,376 <EXTI1_IRQHandler+0x5c>
C:\Users\29275\Desktop\WchWorkSPace\camCoreWithRTOS\obj/../USER/isr.c:90
        else if(camera_type == CAMERA_GRAYSCALE)
            mt9v03x_vsync();
        EXTI_ClearITPendingBit(EXTI_Line1);
    }

    rt_interrupt_leave();   //
     34c:	644020ef          	jal	ra,2990 <rt_interrupt_leave>
C:\Users\29275\Desktop\WchWorkSPace\camCoreWithRTOS\obj/../USER/isr.c:91
}
     350:	50f2                	lw	ra,60(sp)
     352:	52e2                	lw	t0,56(sp)
     354:	5352                	lw	t1,52(sp)
     356:	53c2                	lw	t2,48(sp)
     358:	5532                	lw	a0,44(sp)
     35a:	55a2                	lw	a1,40(sp)
     35c:	5612                	lw	a2,36(sp)
     35e:	5682                	lw	a3,32(sp)
     360:	4772                	lw	a4,28(sp)
     362:	47e2                	lw	a5,24(sp)
     364:	4852                	lw	a6,20(sp)
     366:	48c2                	lw	a7,16(sp)
     368:	4e32                	lw	t3,12(sp)
     36a:	4ea2                	lw	t4,8(sp)
     36c:	4f12                	lw	t5,4(sp)
     36e:	4f82                	lw	t6,0(sp)
     370:	6121                	addi	sp,sp,64
     372:	30200073          	mret
C:\Users\29275\Desktop\WchWorkSPace\camCoreWithRTOS\obj/../USER/isr.c:83
        if(camera_type == CAMERA_BIN_UART)
     376:	200007b7          	lui	a5,0x20000
     37a:	0b47a783          	lw	a5,180(a5) # 200000b4 <camera_type>
     37e:	4709                	li	a4,2
     380:	00e78963          	beq	a5,a4,392 <EXTI1_IRQHandler+0x78>
C:\Users\29275\Desktop\WchWorkSPace\camCoreWithRTOS\obj/../USER/isr.c:85
        else if(camera_type == CAMERA_GRAYSCALE)
     384:	4705                	li	a4,1
     386:	00e78963          	beq	a5,a4,398 <EXTI1_IRQHandler+0x7e>
C:\Users\29275\Desktop\WchWorkSPace\camCoreWithRTOS\obj/../USER/isr.c:87
        EXTI_ClearITPendingBit(EXTI_Line1);
     38a:	4509                	li	a0,2
     38c:	4b5000ef          	jal	ra,1040 <EXTI_ClearITPendingBit>
     390:	bf75                	j	34c <EXTI1_IRQHandler+0x32>
C:\Users\29275\Desktop\WchWorkSPace\camCoreWithRTOS\obj/../USER/isr.c:84
            ov7725_uart_vsync();
     392:	778010ef          	jal	ra,1b0a <ov7725_uart_vsync>
     396:	bfd5                	j	38a <EXTI1_IRQHandler+0x70>
C:\Users\29275\Desktop\WchWorkSPace\camCoreWithRTOS\obj/../USER/isr.c:86
            mt9v03x_vsync();
     398:	36a010ef          	jal	ra,1702 <mt9v03x_vsync>
     39c:	b7fd                	j	38a <EXTI1_IRQHandler+0x70>

0000039e <EXTI2_IRQHandler>:
EXTI2_IRQHandler():
C:\Users\29275\Desktop\WchWorkSPace\camCoreWithRTOS\obj/../USER/isr.c:94

void EXTI2_IRQHandler(void)
{
     39e:	7139                	addi	sp,sp,-64
     3a0:	de06                	sw	ra,60(sp)
     3a2:	dc16                	sw	t0,56(sp)
     3a4:	da1a                	sw	t1,52(sp)
     3a6:	d81e                	sw	t2,48(sp)
     3a8:	d62a                	sw	a0,44(sp)
     3aa:	d42e                	sw	a1,40(sp)
     3ac:	d232                	sw	a2,36(sp)
     3ae:	d036                	sw	a3,32(sp)
     3b0:	ce3a                	sw	a4,28(sp)
     3b2:	cc3e                	sw	a5,24(sp)
     3b4:	ca42                	sw	a6,20(sp)
     3b6:	c846                	sw	a7,16(sp)
     3b8:	c672                	sw	t3,12(sp)
     3ba:	c476                	sw	t4,8(sp)
     3bc:	c27a                	sw	t5,4(sp)
     3be:	c07e                	sw	t6,0(sp)
C:\Users\29275\Desktop\WchWorkSPace\camCoreWithRTOS\obj/../USER/isr.c:95
    rt_interrupt_enter();    //
     3c0:	5ac020ef          	jal	ra,296c <rt_interrupt_enter>
C:\Users\29275\Desktop\WchWorkSPace\camCoreWithRTOS\obj/../USER/isr.c:97

    if(SET == EXTI_GetITStatus(EXTI_Line2))
     3c4:	4511                	li	a0,4
     3c6:	45f000ef          	jal	ra,1024 <EXTI_GetITStatus>
     3ca:	4785                	li	a5,1
     3cc:	02f50763          	beq	a0,a5,3fa <EXTI2_IRQHandler+0x5c>
C:\Users\29275\Desktop\WchWorkSPace\camCoreWithRTOS\obj/../USER/isr.c:103
    {

        EXTI_ClearITPendingBit(EXTI_Line2);
    }

    rt_interrupt_leave();    //
     3d0:	5c0020ef          	jal	ra,2990 <rt_interrupt_leave>
C:\Users\29275\Desktop\WchWorkSPace\camCoreWithRTOS\obj/../USER/isr.c:104
}
     3d4:	50f2                	lw	ra,60(sp)
     3d6:	52e2                	lw	t0,56(sp)
     3d8:	5352                	lw	t1,52(sp)
     3da:	53c2                	lw	t2,48(sp)
     3dc:	5532                	lw	a0,44(sp)
     3de:	55a2                	lw	a1,40(sp)
     3e0:	5612                	lw	a2,36(sp)
     3e2:	5682                	lw	a3,32(sp)
     3e4:	4772                	lw	a4,28(sp)
     3e6:	47e2                	lw	a5,24(sp)
     3e8:	4852                	lw	a6,20(sp)
     3ea:	48c2                	lw	a7,16(sp)
     3ec:	4e32                	lw	t3,12(sp)
     3ee:	4ea2                	lw	t4,8(sp)
     3f0:	4f12                	lw	t5,4(sp)
     3f2:	4f82                	lw	t6,0(sp)
     3f4:	6121                	addi	sp,sp,64
     3f6:	30200073          	mret
C:\Users\29275\Desktop\WchWorkSPace\camCoreWithRTOS\obj/../USER/isr.c:100
        EXTI_ClearITPendingBit(EXTI_Line2);
     3fa:	4511                	li	a0,4
     3fc:	445000ef          	jal	ra,1040 <EXTI_ClearITPendingBit>
     400:	bfc1                	j	3d0 <EXTI2_IRQHandler+0x32>

00000402 <EXTI3_IRQHandler>:
EXTI3_IRQHandler():
C:\Users\29275\Desktop\WchWorkSPace\camCoreWithRTOS\obj/../USER/isr.c:107

void EXTI3_IRQHandler(void)
{
     402:	7139                	addi	sp,sp,-64
     404:	de06                	sw	ra,60(sp)
     406:	dc16                	sw	t0,56(sp)
     408:	da1a                	sw	t1,52(sp)
     40a:	d81e                	sw	t2,48(sp)
     40c:	d62a                	sw	a0,44(sp)
     40e:	d42e                	sw	a1,40(sp)
     410:	d232                	sw	a2,36(sp)
     412:	d036                	sw	a3,32(sp)
     414:	ce3a                	sw	a4,28(sp)
     416:	cc3e                	sw	a5,24(sp)
     418:	ca42                	sw	a6,20(sp)
     41a:	c846                	sw	a7,16(sp)
     41c:	c672                	sw	t3,12(sp)
     41e:	c476                	sw	t4,8(sp)
     420:	c27a                	sw	t5,4(sp)
     422:	c07e                	sw	t6,0(sp)
C:\Users\29275\Desktop\WchWorkSPace\camCoreWithRTOS\obj/../USER/isr.c:108
    rt_interrupt_enter();   //
     424:	548020ef          	jal	ra,296c <rt_interrupt_enter>
C:\Users\29275\Desktop\WchWorkSPace\camCoreWithRTOS\obj/../USER/isr.c:110

    if(SET == EXTI_GetITStatus(EXTI_Line3))
     428:	4521                	li	a0,8
     42a:	3fb000ef          	jal	ra,1024 <EXTI_GetITStatus>
     42e:	4785                	li	a5,1
     430:	02f50763          	beq	a0,a5,45e <EXTI3_IRQHandler+0x5c>
C:\Users\29275\Desktop\WchWorkSPace\camCoreWithRTOS\obj/../USER/isr.c:116
    {

        EXTI_ClearITPendingBit(EXTI_Line3);
    }

    rt_interrupt_leave();   //
     434:	55c020ef          	jal	ra,2990 <rt_interrupt_leave>
C:\Users\29275\Desktop\WchWorkSPace\camCoreWithRTOS\obj/../USER/isr.c:117
}
     438:	50f2                	lw	ra,60(sp)
     43a:	52e2                	lw	t0,56(sp)
     43c:	5352                	lw	t1,52(sp)
     43e:	53c2                	lw	t2,48(sp)
     440:	5532                	lw	a0,44(sp)
     442:	55a2                	lw	a1,40(sp)
     444:	5612                	lw	a2,36(sp)
     446:	5682                	lw	a3,32(sp)
     448:	4772                	lw	a4,28(sp)
     44a:	47e2                	lw	a5,24(sp)
     44c:	4852                	lw	a6,20(sp)
     44e:	48c2                	lw	a7,16(sp)
     450:	4e32                	lw	t3,12(sp)
     452:	4ea2                	lw	t4,8(sp)
     454:	4f12                	lw	t5,4(sp)
     456:	4f82                	lw	t6,0(sp)
     458:	6121                	addi	sp,sp,64
     45a:	30200073          	mret
C:\Users\29275\Desktop\WchWorkSPace\camCoreWithRTOS\obj/../USER/isr.c:113
        EXTI_ClearITPendingBit(EXTI_Line3);
     45e:	4521                	li	a0,8
     460:	3e1000ef          	jal	ra,1040 <EXTI_ClearITPendingBit>
     464:	bfc1                	j	434 <EXTI3_IRQHandler+0x32>

00000466 <EXTI4_IRQHandler>:
EXTI4_IRQHandler():
C:\Users\29275\Desktop\WchWorkSPace\camCoreWithRTOS\obj/../USER/isr.c:120

void EXTI4_IRQHandler(void)
{
     466:	7139                	addi	sp,sp,-64
     468:	de06                	sw	ra,60(sp)
     46a:	dc16                	sw	t0,56(sp)
     46c:	da1a                	sw	t1,52(sp)
     46e:	d81e                	sw	t2,48(sp)
     470:	d62a                	sw	a0,44(sp)
     472:	d42e                	sw	a1,40(sp)
     474:	d232                	sw	a2,36(sp)
     476:	d036                	sw	a3,32(sp)
     478:	ce3a                	sw	a4,28(sp)
     47a:	cc3e                	sw	a5,24(sp)
     47c:	ca42                	sw	a6,20(sp)
     47e:	c846                	sw	a7,16(sp)
     480:	c672                	sw	t3,12(sp)
     482:	c476                	sw	t4,8(sp)
     484:	c27a                	sw	t5,4(sp)
     486:	c07e                	sw	t6,0(sp)
C:\Users\29275\Desktop\WchWorkSPace\camCoreWithRTOS\obj/../USER/isr.c:121
    rt_interrupt_enter();    //
     488:	4e4020ef          	jal	ra,296c <rt_interrupt_enter>
C:\Users\29275\Desktop\WchWorkSPace\camCoreWithRTOS\obj/../USER/isr.c:123

    if(SET == EXTI_GetITStatus(EXTI_Line4))
     48c:	4541                	li	a0,16
     48e:	397000ef          	jal	ra,1024 <EXTI_GetITStatus>
     492:	4785                	li	a5,1
     494:	02f50763          	beq	a0,a5,4c2 <EXTI4_IRQHandler+0x5c>
C:\Users\29275\Desktop\WchWorkSPace\camCoreWithRTOS\obj/../USER/isr.c:129
    {

        EXTI_ClearITPendingBit(EXTI_Line4);
    }

    rt_interrupt_leave();    //
     498:	4f8020ef          	jal	ra,2990 <rt_interrupt_leave>
C:\Users\29275\Desktop\WchWorkSPace\camCoreWithRTOS\obj/../USER/isr.c:130
}
     49c:	50f2                	lw	ra,60(sp)
     49e:	52e2                	lw	t0,56(sp)
     4a0:	5352                	lw	t1,52(sp)
     4a2:	53c2                	lw	t2,48(sp)
     4a4:	5532                	lw	a0,44(sp)
     4a6:	55a2                	lw	a1,40(sp)
     4a8:	5612                	lw	a2,36(sp)
     4aa:	5682                	lw	a3,32(sp)
     4ac:	4772                	lw	a4,28(sp)
     4ae:	47e2                	lw	a5,24(sp)
     4b0:	4852                	lw	a6,20(sp)
     4b2:	48c2                	lw	a7,16(sp)
     4b4:	4e32                	lw	t3,12(sp)
     4b6:	4ea2                	lw	t4,8(sp)
     4b8:	4f12                	lw	t5,4(sp)
     4ba:	4f82                	lw	t6,0(sp)
     4bc:	6121                	addi	sp,sp,64
     4be:	30200073          	mret
C:\Users\29275\Desktop\WchWorkSPace\camCoreWithRTOS\obj/../USER/isr.c:126
        EXTI_ClearITPendingBit(EXTI_Line4);
     4c2:	4541                	li	a0,16
     4c4:	37d000ef          	jal	ra,1040 <EXTI_ClearITPendingBit>
     4c8:	bfc1                	j	498 <EXTI4_IRQHandler+0x32>

000004ca <EXTI9_5_IRQHandler>:
EXTI9_5_IRQHandler():
C:\Users\29275\Desktop\WchWorkSPace\camCoreWithRTOS\obj/../USER/isr.c:133

void EXTI9_5_IRQHandler(void)
{
     4ca:	7139                	addi	sp,sp,-64
     4cc:	de06                	sw	ra,60(sp)
     4ce:	dc16                	sw	t0,56(sp)
     4d0:	da1a                	sw	t1,52(sp)
     4d2:	d81e                	sw	t2,48(sp)
     4d4:	d62a                	sw	a0,44(sp)
     4d6:	d42e                	sw	a1,40(sp)
     4d8:	d232                	sw	a2,36(sp)
     4da:	d036                	sw	a3,32(sp)
     4dc:	ce3a                	sw	a4,28(sp)
     4de:	cc3e                	sw	a5,24(sp)
     4e0:	ca42                	sw	a6,20(sp)
     4e2:	c846                	sw	a7,16(sp)
     4e4:	c672                	sw	t3,12(sp)
     4e6:	c476                	sw	t4,8(sp)
     4e8:	c27a                	sw	t5,4(sp)
     4ea:	c07e                	sw	t6,0(sp)
C:\Users\29275\Desktop\WchWorkSPace\camCoreWithRTOS\obj/../USER/isr.c:134
    rt_interrupt_enter();   //
     4ec:	480020ef          	jal	ra,296c <rt_interrupt_enter>
C:\Users\29275\Desktop\WchWorkSPace\camCoreWithRTOS\obj/../USER/isr.c:136

    if(SET == EXTI_GetITStatus(EXTI_Line9))
     4f0:	20000513          	li	a0,512
     4f4:	331000ef          	jal	ra,1024 <EXTI_GetITStatus>
     4f8:	4785                	li	a5,1
     4fa:	04f50363          	beq	a0,a5,540 <EXTI9_5_IRQHandler+0x76>
C:\Users\29275\Desktop\WchWorkSPace\camCoreWithRTOS\obj/../USER/isr.c:141
    {

        EXTI_ClearITPendingBit(EXTI_Line9);
    }
    else if(SET == EXTI_GetITStatus(EXTI_Line8))
     4fe:	10000513          	li	a0,256
     502:	323000ef          	jal	ra,1024 <EXTI_GetITStatus>
     506:	4785                	li	a5,1
     508:	06f50563          	beq	a0,a5,572 <EXTI9_5_IRQHandler+0xa8>
C:\Users\29275\Desktop\WchWorkSPace\camCoreWithRTOS\obj/../USER/isr.c:146
    {

        EXTI_ClearITPendingBit(EXTI_Line8);
    }
    else if(SET == EXTI_GetITStatus(EXTI_Line7))
     50c:	08000513          	li	a0,128
     510:	315000ef          	jal	ra,1024 <EXTI_GetITStatus>
     514:	4785                	li	a5,1
     516:	06f50363          	beq	a0,a5,57c <EXTI9_5_IRQHandler+0xb2>
C:\Users\29275\Desktop\WchWorkSPace\camCoreWithRTOS\obj/../USER/isr.c:151
    {

        EXTI_ClearITPendingBit(EXTI_Line7);
    }
    else if(SET == EXTI_GetITStatus(EXTI_Line6))
     51a:	04000513          	li	a0,64
     51e:	307000ef          	jal	ra,1024 <EXTI_GetITStatus>
     522:	4785                	li	a5,1
     524:	06f50163          	beq	a0,a5,586 <EXTI9_5_IRQHandler+0xbc>
C:\Users\29275\Desktop\WchWorkSPace\camCoreWithRTOS\obj/../USER/isr.c:156
    {

        EXTI_ClearITPendingBit(EXTI_Line6);
    }
    else if(SET == EXTI_GetITStatus(EXTI_Line5))
     528:	02000513          	li	a0,32
     52c:	2f9000ef          	jal	ra,1024 <EXTI_GetITStatus>
     530:	4785                	li	a5,1
     532:	00f51b63          	bne	a0,a5,548 <EXTI9_5_IRQHandler+0x7e>
C:\Users\29275\Desktop\WchWorkSPace\camCoreWithRTOS\obj/../USER/isr.c:159
    {

        EXTI_ClearITPendingBit(EXTI_Line5);
     536:	02000513          	li	a0,32
     53a:	307000ef          	jal	ra,1040 <EXTI_ClearITPendingBit>
     53e:	a029                	j	548 <EXTI9_5_IRQHandler+0x7e>
C:\Users\29275\Desktop\WchWorkSPace\camCoreWithRTOS\obj/../USER/isr.c:139
        EXTI_ClearITPendingBit(EXTI_Line9);
     540:	20000513          	li	a0,512
     544:	2fd000ef          	jal	ra,1040 <EXTI_ClearITPendingBit>
C:\Users\29275\Desktop\WchWorkSPace\camCoreWithRTOS\obj/../USER/isr.c:162
    }

    rt_interrupt_leave();       //
     548:	448020ef          	jal	ra,2990 <rt_interrupt_leave>
C:\Users\29275\Desktop\WchWorkSPace\camCoreWithRTOS\obj/../USER/isr.c:163
}
     54c:	50f2                	lw	ra,60(sp)
     54e:	52e2                	lw	t0,56(sp)
     550:	5352                	lw	t1,52(sp)
     552:	53c2                	lw	t2,48(sp)
     554:	5532                	lw	a0,44(sp)
     556:	55a2                	lw	a1,40(sp)
     558:	5612                	lw	a2,36(sp)
     55a:	5682                	lw	a3,32(sp)
     55c:	4772                	lw	a4,28(sp)
     55e:	47e2                	lw	a5,24(sp)
     560:	4852                	lw	a6,20(sp)
     562:	48c2                	lw	a7,16(sp)
     564:	4e32                	lw	t3,12(sp)
     566:	4ea2                	lw	t4,8(sp)
     568:	4f12                	lw	t5,4(sp)
     56a:	4f82                	lw	t6,0(sp)
     56c:	6121                	addi	sp,sp,64
     56e:	30200073          	mret
C:\Users\29275\Desktop\WchWorkSPace\camCoreWithRTOS\obj/../USER/isr.c:144
        EXTI_ClearITPendingBit(EXTI_Line8);
     572:	10000513          	li	a0,256
     576:	2cb000ef          	jal	ra,1040 <EXTI_ClearITPendingBit>
     57a:	b7f9                	j	548 <EXTI9_5_IRQHandler+0x7e>
C:\Users\29275\Desktop\WchWorkSPace\camCoreWithRTOS\obj/../USER/isr.c:149
        EXTI_ClearITPendingBit(EXTI_Line7);
     57c:	08000513          	li	a0,128
     580:	2c1000ef          	jal	ra,1040 <EXTI_ClearITPendingBit>
     584:	b7d1                	j	548 <EXTI9_5_IRQHandler+0x7e>
C:\Users\29275\Desktop\WchWorkSPace\camCoreWithRTOS\obj/../USER/isr.c:154
        EXTI_ClearITPendingBit(EXTI_Line6);
     586:	04000513          	li	a0,64
     58a:	2b7000ef          	jal	ra,1040 <EXTI_ClearITPendingBit>
     58e:	bf6d                	j	548 <EXTI9_5_IRQHandler+0x7e>

00000590 <EXTI15_10_IRQHandler>:
EXTI15_10_IRQHandler():
C:\Users\29275\Desktop\WchWorkSPace\camCoreWithRTOS\obj/../USER/isr.c:166

void EXTI15_10_IRQHandler(void)
{
     590:	7139                	addi	sp,sp,-64
     592:	de06                	sw	ra,60(sp)
     594:	dc16                	sw	t0,56(sp)
     596:	da1a                	sw	t1,52(sp)
     598:	d81e                	sw	t2,48(sp)
     59a:	d62a                	sw	a0,44(sp)
     59c:	d42e                	sw	a1,40(sp)
     59e:	d232                	sw	a2,36(sp)
     5a0:	d036                	sw	a3,32(sp)
     5a2:	ce3a                	sw	a4,28(sp)
     5a4:	cc3e                	sw	a5,24(sp)
     5a6:	ca42                	sw	a6,20(sp)
     5a8:	c846                	sw	a7,16(sp)
     5aa:	c672                	sw	t3,12(sp)
     5ac:	c476                	sw	t4,8(sp)
     5ae:	c27a                	sw	t5,4(sp)
     5b0:	c07e                	sw	t6,0(sp)
C:\Users\29275\Desktop\WchWorkSPace\camCoreWithRTOS\obj/../USER/isr.c:167
    rt_interrupt_enter();   //
     5b2:	3ba020ef          	jal	ra,296c <rt_interrupt_enter>
C:\Users\29275\Desktop\WchWorkSPace\camCoreWithRTOS\obj/../USER/isr.c:169

    if(SET == EXTI_GetITStatus(EXTI_Line15))
     5b6:	6521                	lui	a0,0x8
     5b8:	26d000ef          	jal	ra,1024 <EXTI_GetITStatus>
     5bc:	4785                	li	a5,1
     5be:	04f50863          	beq	a0,a5,60e <EXTI15_10_IRQHandler+0x7e>
C:\Users\29275\Desktop\WchWorkSPace\camCoreWithRTOS\obj/../USER/isr.c:174
    {

        EXTI_ClearITPendingBit(EXTI_Line15);
    }
    else if(SET == EXTI_GetITStatus(EXTI_Line14))
     5c2:	6511                	lui	a0,0x4
     5c4:	261000ef          	jal	ra,1024 <EXTI_GetITStatus>
     5c8:	4785                	li	a5,1
     5ca:	06f50a63          	beq	a0,a5,63e <EXTI15_10_IRQHandler+0xae>
C:\Users\29275\Desktop\WchWorkSPace\camCoreWithRTOS\obj/../USER/isr.c:179
    {

        EXTI_ClearITPendingBit(EXTI_Line14);
    }
    else if(SET == EXTI_GetITStatus(EXTI_Line13))
     5ce:	6509                	lui	a0,0x2
     5d0:	255000ef          	jal	ra,1024 <EXTI_GetITStatus>
     5d4:	4785                	li	a5,1
     5d6:	06f50863          	beq	a0,a5,646 <EXTI15_10_IRQHandler+0xb6>
C:\Users\29275\Desktop\WchWorkSPace\camCoreWithRTOS\obj/../USER/isr.c:184
    {

        EXTI_ClearITPendingBit(EXTI_Line13);
    }
    else if(SET == EXTI_GetITStatus(EXTI_Line12))
     5da:	6505                	lui	a0,0x1
     5dc:	249000ef          	jal	ra,1024 <EXTI_GetITStatus>
     5e0:	4785                	li	a5,1
     5e2:	06f50663          	beq	a0,a5,64e <EXTI15_10_IRQHandler+0xbe>
C:\Users\29275\Desktop\WchWorkSPace\camCoreWithRTOS\obj/../USER/isr.c:189
    {

        EXTI_ClearITPendingBit(EXTI_Line12);
    }
    else if(SET == EXTI_GetITStatus(EXTI_Line11))
     5e6:	6505                	lui	a0,0x1
     5e8:	80050513          	addi	a0,a0,-2048 # 800 <TIM1_TRG_COM_IRQHandler+0x6a>
     5ec:	239000ef          	jal	ra,1024 <EXTI_GetITStatus>
     5f0:	4785                	li	a5,1
     5f2:	06f50263          	beq	a0,a5,656 <EXTI15_10_IRQHandler+0xc6>
C:\Users\29275\Desktop\WchWorkSPace\camCoreWithRTOS\obj/../USER/isr.c:194
    {

        EXTI_ClearITPendingBit(EXTI_Line11);
    }
    else if(SET == EXTI_GetITStatus(EXTI_Line10))
     5f6:	40000513          	li	a0,1024
     5fa:	22b000ef          	jal	ra,1024 <EXTI_GetITStatus>
     5fe:	4785                	li	a5,1
     600:	00f51a63          	bne	a0,a5,614 <EXTI15_10_IRQHandler+0x84>
C:\Users\29275\Desktop\WchWorkSPace\camCoreWithRTOS\obj/../USER/isr.c:197
    {

        EXTI_ClearITPendingBit(EXTI_Line10);
     604:	40000513          	li	a0,1024
     608:	239000ef          	jal	ra,1040 <EXTI_ClearITPendingBit>
     60c:	a021                	j	614 <EXTI15_10_IRQHandler+0x84>
C:\Users\29275\Desktop\WchWorkSPace\camCoreWithRTOS\obj/../USER/isr.c:172
        EXTI_ClearITPendingBit(EXTI_Line15);
     60e:	6521                	lui	a0,0x8
     610:	231000ef          	jal	ra,1040 <EXTI_ClearITPendingBit>
C:\Users\29275\Desktop\WchWorkSPace\camCoreWithRTOS\obj/../USER/isr.c:200
    }

    rt_interrupt_leave();       //
     614:	37c020ef          	jal	ra,2990 <rt_interrupt_leave>
C:\Users\29275\Desktop\WchWorkSPace\camCoreWithRTOS\obj/../USER/isr.c:201
}
     618:	50f2                	lw	ra,60(sp)
     61a:	52e2                	lw	t0,56(sp)
     61c:	5352                	lw	t1,52(sp)
     61e:	53c2                	lw	t2,48(sp)
     620:	5532                	lw	a0,44(sp)
     622:	55a2                	lw	a1,40(sp)
     624:	5612                	lw	a2,36(sp)
     626:	5682                	lw	a3,32(sp)
     628:	4772                	lw	a4,28(sp)
     62a:	47e2                	lw	a5,24(sp)
     62c:	4852                	lw	a6,20(sp)
     62e:	48c2                	lw	a7,16(sp)
     630:	4e32                	lw	t3,12(sp)
     632:	4ea2                	lw	t4,8(sp)
     634:	4f12                	lw	t5,4(sp)
     636:	4f82                	lw	t6,0(sp)
     638:	6121                	addi	sp,sp,64
     63a:	30200073          	mret
C:\Users\29275\Desktop\WchWorkSPace\camCoreWithRTOS\obj/../USER/isr.c:177
        EXTI_ClearITPendingBit(EXTI_Line14);
     63e:	6511                	lui	a0,0x4
     640:	201000ef          	jal	ra,1040 <EXTI_ClearITPendingBit>
     644:	bfc1                	j	614 <EXTI15_10_IRQHandler+0x84>
C:\Users\29275\Desktop\WchWorkSPace\camCoreWithRTOS\obj/../USER/isr.c:182
        EXTI_ClearITPendingBit(EXTI_Line13);
     646:	6509                	lui	a0,0x2
     648:	1f9000ef          	jal	ra,1040 <EXTI_ClearITPendingBit>
     64c:	b7e1                	j	614 <EXTI15_10_IRQHandler+0x84>
C:\Users\29275\Desktop\WchWorkSPace\camCoreWithRTOS\obj/../USER/isr.c:187
        EXTI_ClearITPendingBit(EXTI_Line12);
     64e:	6505                	lui	a0,0x1
     650:	1f1000ef          	jal	ra,1040 <EXTI_ClearITPendingBit>
     654:	b7c1                	j	614 <EXTI15_10_IRQHandler+0x84>
C:\Users\29275\Desktop\WchWorkSPace\camCoreWithRTOS\obj/../USER/isr.c:192
        EXTI_ClearITPendingBit(EXTI_Line11);
     656:	6505                	lui	a0,0x1
     658:	80050513          	addi	a0,a0,-2048 # 800 <TIM1_TRG_COM_IRQHandler+0x6a>
     65c:	1e5000ef          	jal	ra,1040 <EXTI_ClearITPendingBit>
     660:	bf55                	j	614 <EXTI15_10_IRQHandler+0x84>

00000662 <ADC1_2_IRQHandler>:
ADC1_2_IRQHandler():
C:\Users\29275\Desktop\WchWorkSPace\camCoreWithRTOS\obj/../USER/isr.c:204

void ADC1_2_IRQHandler(void)
{
     662:	7139                	addi	sp,sp,-64
     664:	de06                	sw	ra,60(sp)
     666:	dc16                	sw	t0,56(sp)
     668:	da1a                	sw	t1,52(sp)
     66a:	d81e                	sw	t2,48(sp)
     66c:	d62a                	sw	a0,44(sp)
     66e:	d42e                	sw	a1,40(sp)
     670:	d232                	sw	a2,36(sp)
     672:	d036                	sw	a3,32(sp)
     674:	ce3a                	sw	a4,28(sp)
     676:	cc3e                	sw	a5,24(sp)
     678:	ca42                	sw	a6,20(sp)
     67a:	c846                	sw	a7,16(sp)
     67c:	c672                	sw	t3,12(sp)
     67e:	c476                	sw	t4,8(sp)
     680:	c27a                	sw	t5,4(sp)
     682:	c07e                	sw	t6,0(sp)
C:\Users\29275\Desktop\WchWorkSPace\camCoreWithRTOS\obj/../USER/isr.c:205
    rt_interrupt_enter();       //
     684:	2e8020ef          	jal	ra,296c <rt_interrupt_enter>
C:\Users\29275\Desktop\WchWorkSPace\camCoreWithRTOS\obj/../USER/isr.c:210

    //
    //

    rt_interrupt_leave();       //
     688:	308020ef          	jal	ra,2990 <rt_interrupt_leave>
C:\Users\29275\Desktop\WchWorkSPace\camCoreWithRTOS\obj/../USER/isr.c:211
}
     68c:	50f2                	lw	ra,60(sp)
     68e:	52e2                	lw	t0,56(sp)
     690:	5352                	lw	t1,52(sp)
     692:	53c2                	lw	t2,48(sp)
     694:	5532                	lw	a0,44(sp)
     696:	55a2                	lw	a1,40(sp)
     698:	5612                	lw	a2,36(sp)
     69a:	5682                	lw	a3,32(sp)
     69c:	4772                	lw	a4,28(sp)
     69e:	47e2                	lw	a5,24(sp)
     6a0:	4852                	lw	a6,20(sp)
     6a2:	48c2                	lw	a7,16(sp)
     6a4:	4e32                	lw	t3,12(sp)
     6a6:	4ea2                	lw	t4,8(sp)
     6a8:	4f12                	lw	t5,4(sp)
     6aa:	4f82                	lw	t6,0(sp)
     6ac:	6121                	addi	sp,sp,64
     6ae:	30200073          	mret

000006b2 <TIM1_BRK_IRQHandler>:
TIM1_BRK_IRQHandler():
C:\Users\29275\Desktop\WchWorkSPace\camCoreWithRTOS\obj/../USER/isr.c:214

void TIM1_BRK_IRQHandler(void)
{
     6b2:	7139                	addi	sp,sp,-64
     6b4:	de06                	sw	ra,60(sp)
     6b6:	dc16                	sw	t0,56(sp)
     6b8:	da1a                	sw	t1,52(sp)
     6ba:	d81e                	sw	t2,48(sp)
     6bc:	d62a                	sw	a0,44(sp)
     6be:	d42e                	sw	a1,40(sp)
     6c0:	d232                	sw	a2,36(sp)
     6c2:	d036                	sw	a3,32(sp)
     6c4:	ce3a                	sw	a4,28(sp)
     6c6:	cc3e                	sw	a5,24(sp)
     6c8:	ca42                	sw	a6,20(sp)
     6ca:	c846                	sw	a7,16(sp)
     6cc:	c672                	sw	t3,12(sp)
     6ce:	c476                	sw	t4,8(sp)
     6d0:	c27a                	sw	t5,4(sp)
     6d2:	c07e                	sw	t6,0(sp)
C:\Users\29275\Desktop\WchWorkSPace\camCoreWithRTOS\obj/../USER/isr.c:215
    rt_interrupt_enter();       //
     6d4:	298020ef          	jal	ra,296c <rt_interrupt_enter>
C:\Users\29275\Desktop\WchWorkSPace\camCoreWithRTOS\obj/../USER/isr.c:217

    if(TIM_GetITStatus(TIM1, TIM_IT_Break) != RESET)
     6d8:	08000593          	li	a1,128
     6dc:	40013537          	lui	a0,0x40013
     6e0:	c0050513          	addi	a0,a0,-1024 # 40012c00 <_eusrstack+0x2000dc00>
     6e4:	5e9000ef          	jal	ra,14cc <TIM_GetITStatus>
     6e8:	e515                	bnez	a0,714 <TIM1_BRK_IRQHandler+0x62>
C:\Users\29275\Desktop\WchWorkSPace\camCoreWithRTOS\obj/../USER/isr.c:223
    {
        TIM_ClearITPendingBit(TIM1, TIM_IT_Break);

    }

    rt_interrupt_leave();       //
     6ea:	2a6020ef          	jal	ra,2990 <rt_interrupt_leave>
C:\Users\29275\Desktop\WchWorkSPace\camCoreWithRTOS\obj/../USER/isr.c:224
}
     6ee:	50f2                	lw	ra,60(sp)
     6f0:	52e2                	lw	t0,56(sp)
     6f2:	5352                	lw	t1,52(sp)
     6f4:	53c2                	lw	t2,48(sp)
     6f6:	5532                	lw	a0,44(sp)
     6f8:	55a2                	lw	a1,40(sp)
     6fa:	5612                	lw	a2,36(sp)
     6fc:	5682                	lw	a3,32(sp)
     6fe:	4772                	lw	a4,28(sp)
     700:	47e2                	lw	a5,24(sp)
     702:	4852                	lw	a6,20(sp)
     704:	48c2                	lw	a7,16(sp)
     706:	4e32                	lw	t3,12(sp)
     708:	4ea2                	lw	t4,8(sp)
     70a:	4f12                	lw	t5,4(sp)
     70c:	4f82                	lw	t6,0(sp)
     70e:	6121                	addi	sp,sp,64
     710:	30200073          	mret
C:\Users\29275\Desktop\WchWorkSPace\camCoreWithRTOS\obj/../USER/isr.c:219
        TIM_ClearITPendingBit(TIM1, TIM_IT_Break);
     714:	08000593          	li	a1,128
     718:	40013537          	lui	a0,0x40013
     71c:	c0050513          	addi	a0,a0,-1024 # 40012c00 <_eusrstack+0x2000dc00>
     720:	5c9000ef          	jal	ra,14e8 <TIM_ClearITPendingBit>
     724:	b7d9                	j	6ea <TIM1_BRK_IRQHandler+0x38>

00000726 <TIM1_UP_IRQHandler>:
TIM1_UP_IRQHandler():
C:\Users\29275\Desktop\WchWorkSPace\camCoreWithRTOS\obj/../USER/isr.c:227

void TIM1_UP_IRQHandler(void)
{
     726:	7139                	addi	sp,sp,-64
     728:	de06                	sw	ra,60(sp)
     72a:	dc16                	sw	t0,56(sp)
     72c:	da1a                	sw	t1,52(sp)
     72e:	d81e                	sw	t2,48(sp)
     730:	d62a                	sw	a0,44(sp)
     732:	d42e                	sw	a1,40(sp)
     734:	d232                	sw	a2,36(sp)
     736:	d036                	sw	a3,32(sp)
     738:	ce3a                	sw	a4,28(sp)
     73a:	cc3e                	sw	a5,24(sp)
     73c:	ca42                	sw	a6,20(sp)
     73e:	c846                	sw	a7,16(sp)
     740:	c672                	sw	t3,12(sp)
     742:	c476                	sw	t4,8(sp)
     744:	c27a                	sw	t5,4(sp)
     746:	c07e                	sw	t6,0(sp)
C:\Users\29275\Desktop\WchWorkSPace\camCoreWithRTOS\obj/../USER/isr.c:228
    rt_interrupt_enter();       //
     748:	224020ef          	jal	ra,296c <rt_interrupt_enter>
C:\Users\29275\Desktop\WchWorkSPace\camCoreWithRTOS\obj/../USER/isr.c:231


    if(TIM_GetITStatus(TIM1, TIM_IT_Update) != RESET)
     74c:	4585                	li	a1,1
     74e:	40013537          	lui	a0,0x40013
     752:	c0050513          	addi	a0,a0,-1024 # 40012c00 <_eusrstack+0x2000dc00>
     756:	577000ef          	jal	ra,14cc <TIM_GetITStatus>
     75a:	e515                	bnez	a0,786 <TIM1_UP_IRQHandler+0x60>
C:\Users\29275\Desktop\WchWorkSPace\camCoreWithRTOS\obj/../USER/isr.c:237
    {
        TIM_ClearITPendingBit(TIM1, TIM_IT_Update);

    }

    rt_interrupt_leave();       //
     75c:	234020ef          	jal	ra,2990 <rt_interrupt_leave>
C:\Users\29275\Desktop\WchWorkSPace\camCoreWithRTOS\obj/../USER/isr.c:238
}
     760:	50f2                	lw	ra,60(sp)
     762:	52e2                	lw	t0,56(sp)
     764:	5352                	lw	t1,52(sp)
     766:	53c2                	lw	t2,48(sp)
     768:	5532                	lw	a0,44(sp)
     76a:	55a2                	lw	a1,40(sp)
     76c:	5612                	lw	a2,36(sp)
     76e:	5682                	lw	a3,32(sp)
     770:	4772                	lw	a4,28(sp)
     772:	47e2                	lw	a5,24(sp)
     774:	4852                	lw	a6,20(sp)
     776:	48c2                	lw	a7,16(sp)
     778:	4e32                	lw	t3,12(sp)
     77a:	4ea2                	lw	t4,8(sp)
     77c:	4f12                	lw	t5,4(sp)
     77e:	4f82                	lw	t6,0(sp)
     780:	6121                	addi	sp,sp,64
     782:	30200073          	mret
C:\Users\29275\Desktop\WchWorkSPace\camCoreWithRTOS\obj/../USER/isr.c:233
        TIM_ClearITPendingBit(TIM1, TIM_IT_Update);
     786:	4585                	li	a1,1
     788:	40013537          	lui	a0,0x40013
     78c:	c0050513          	addi	a0,a0,-1024 # 40012c00 <_eusrstack+0x2000dc00>
     790:	559000ef          	jal	ra,14e8 <TIM_ClearITPendingBit>
     794:	b7e1                	j	75c <TIM1_UP_IRQHandler+0x36>

00000796 <TIM1_TRG_COM_IRQHandler>:
TIM1_TRG_COM_IRQHandler():
C:\Users\29275\Desktop\WchWorkSPace\camCoreWithRTOS\obj/../USER/isr.c:241

void TIM1_TRG_COM_IRQHandler(void)
{
     796:	7139                	addi	sp,sp,-64
     798:	de06                	sw	ra,60(sp)
     79a:	dc16                	sw	t0,56(sp)
     79c:	da1a                	sw	t1,52(sp)
     79e:	d81e                	sw	t2,48(sp)
     7a0:	d62a                	sw	a0,44(sp)
     7a2:	d42e                	sw	a1,40(sp)
     7a4:	d232                	sw	a2,36(sp)
     7a6:	d036                	sw	a3,32(sp)
     7a8:	ce3a                	sw	a4,28(sp)
     7aa:	cc3e                	sw	a5,24(sp)
     7ac:	ca42                	sw	a6,20(sp)
     7ae:	c846                	sw	a7,16(sp)
     7b0:	c672                	sw	t3,12(sp)
     7b2:	c476                	sw	t4,8(sp)
     7b4:	c27a                	sw	t5,4(sp)
     7b6:	c07e                	sw	t6,0(sp)
C:\Users\29275\Desktop\WchWorkSPace\camCoreWithRTOS\obj/../USER/isr.c:242
    rt_interrupt_enter();       //
     7b8:	1b4020ef          	jal	ra,296c <rt_interrupt_enter>
C:\Users\29275\Desktop\WchWorkSPace\camCoreWithRTOS\obj/../USER/isr.c:244

    if(TIM_GetITStatus(TIM1, TIM_IT_Trigger) != RESET)
     7bc:	04000593          	li	a1,64
     7c0:	40013537          	lui	a0,0x40013
     7c4:	c0050513          	addi	a0,a0,-1024 # 40012c00 <_eusrstack+0x2000dc00>
     7c8:	505000ef          	jal	ra,14cc <TIM_GetITStatus>
     7cc:	ed1d                	bnez	a0,80a <TIM1_TRG_COM_IRQHandler+0x74>
C:\Users\29275\Desktop\WchWorkSPace\camCoreWithRTOS\obj/../USER/isr.c:249
    {
        TIM_ClearITPendingBit(TIM1, TIM_IT_Trigger);

    }
    if(TIM_GetITStatus(TIM1, TIM_IT_COM) != RESET)
     7ce:	02000593          	li	a1,32
     7d2:	40013537          	lui	a0,0x40013
     7d6:	c0050513          	addi	a0,a0,-1024 # 40012c00 <_eusrstack+0x2000dc00>
     7da:	4f3000ef          	jal	ra,14cc <TIM_GetITStatus>
     7de:	ed1d                	bnez	a0,81c <TIM1_TRG_COM_IRQHandler+0x86>
C:\Users\29275\Desktop\WchWorkSPace\camCoreWithRTOS\obj/../USER/isr.c:255
    {
        TIM_ClearITPendingBit(TIM1, TIM_IT_COM);

    }

    rt_interrupt_leave();       //
     7e0:	1b0020ef          	jal	ra,2990 <rt_interrupt_leave>
C:\Users\29275\Desktop\WchWorkSPace\camCoreWithRTOS\obj/../USER/isr.c:256
}
     7e4:	50f2                	lw	ra,60(sp)
     7e6:	52e2                	lw	t0,56(sp)
     7e8:	5352                	lw	t1,52(sp)
     7ea:	53c2                	lw	t2,48(sp)
     7ec:	5532                	lw	a0,44(sp)
     7ee:	55a2                	lw	a1,40(sp)
     7f0:	5612                	lw	a2,36(sp)
     7f2:	5682                	lw	a3,32(sp)
     7f4:	4772                	lw	a4,28(sp)
     7f6:	47e2                	lw	a5,24(sp)
     7f8:	4852                	lw	a6,20(sp)
     7fa:	48c2                	lw	a7,16(sp)
     7fc:	4e32                	lw	t3,12(sp)
     7fe:	4ea2                	lw	t4,8(sp)
     800:	4f12                	lw	t5,4(sp)
     802:	4f82                	lw	t6,0(sp)
     804:	6121                	addi	sp,sp,64
     806:	30200073          	mret
C:\Users\29275\Desktop\WchWorkSPace\camCoreWithRTOS\obj/../USER/isr.c:246
        TIM_ClearITPendingBit(TIM1, TIM_IT_Trigger);
     80a:	04000593          	li	a1,64
     80e:	40013537          	lui	a0,0x40013
     812:	c0050513          	addi	a0,a0,-1024 # 40012c00 <_eusrstack+0x2000dc00>
     816:	4d3000ef          	jal	ra,14e8 <TIM_ClearITPendingBit>
     81a:	bf55                	j	7ce <TIM1_TRG_COM_IRQHandler+0x38>
C:\Users\29275\Desktop\WchWorkSPace\camCoreWithRTOS\obj/../USER/isr.c:251
        TIM_ClearITPendingBit(TIM1, TIM_IT_COM);
     81c:	02000593          	li	a1,32
     820:	40013537          	lui	a0,0x40013
     824:	c0050513          	addi	a0,a0,-1024 # 40012c00 <_eusrstack+0x2000dc00>
     828:	4c1000ef          	jal	ra,14e8 <TIM_ClearITPendingBit>
     82c:	bf55                	j	7e0 <TIM1_TRG_COM_IRQHandler+0x4a>

0000082e <TIM1_CC_IRQHandler>:
TIM1_CC_IRQHandler():
C:\Users\29275\Desktop\WchWorkSPace\camCoreWithRTOS\obj/../USER/isr.c:259

void TIM1_CC_IRQHandler(void)
{
     82e:	7139                	addi	sp,sp,-64
     830:	de06                	sw	ra,60(sp)
     832:	dc16                	sw	t0,56(sp)
     834:	da1a                	sw	t1,52(sp)
     836:	d81e                	sw	t2,48(sp)
     838:	d62a                	sw	a0,44(sp)
     83a:	d42e                	sw	a1,40(sp)
     83c:	d232                	sw	a2,36(sp)
     83e:	d036                	sw	a3,32(sp)
     840:	ce3a                	sw	a4,28(sp)
     842:	cc3e                	sw	a5,24(sp)
     844:	ca42                	sw	a6,20(sp)
     846:	c846                	sw	a7,16(sp)
     848:	c672                	sw	t3,12(sp)
     84a:	c476                	sw	t4,8(sp)
     84c:	c27a                	sw	t5,4(sp)
     84e:	c07e                	sw	t6,0(sp)
C:\Users\29275\Desktop\WchWorkSPace\camCoreWithRTOS\obj/../USER/isr.c:260
    rt_interrupt_enter();       //
     850:	11c020ef          	jal	ra,296c <rt_interrupt_enter>
C:\Users\29275\Desktop\WchWorkSPace\camCoreWithRTOS\obj/../USER/isr.c:262

    if(TIM_GetITStatus(TIM1, TIM_IT_CC1) != RESET)
     854:	4589                	li	a1,2
     856:	40013537          	lui	a0,0x40013
     85a:	c0050513          	addi	a0,a0,-1024 # 40012c00 <_eusrstack+0x2000dc00>
     85e:	46f000ef          	jal	ra,14cc <TIM_GetITStatus>
     862:	ed31                	bnez	a0,8be <TIM1_CC_IRQHandler+0x90>
C:\Users\29275\Desktop\WchWorkSPace\camCoreWithRTOS\obj/../USER/isr.c:267
    {
        TIM_ClearITPendingBit(TIM1, TIM_IT_CC1);

    }
    if(TIM_GetITStatus(TIM1, TIM_IT_CC2) != RESET)
     864:	4591                	li	a1,4
     866:	40013537          	lui	a0,0x40013
     86a:	c0050513          	addi	a0,a0,-1024 # 40012c00 <_eusrstack+0x2000dc00>
     86e:	45f000ef          	jal	ra,14cc <TIM_GetITStatus>
     872:	ed31                	bnez	a0,8ce <TIM1_CC_IRQHandler+0xa0>
C:\Users\29275\Desktop\WchWorkSPace\camCoreWithRTOS\obj/../USER/isr.c:272
    {
        TIM_ClearITPendingBit(TIM1, TIM_IT_CC2);

    }
    if(TIM_GetITStatus(TIM1, TIM_IT_CC3) != RESET)
     874:	45a1                	li	a1,8
     876:	40013537          	lui	a0,0x40013
     87a:	c0050513          	addi	a0,a0,-1024 # 40012c00 <_eusrstack+0x2000dc00>
     87e:	44f000ef          	jal	ra,14cc <TIM_GetITStatus>
     882:	ed31                	bnez	a0,8de <TIM1_CC_IRQHandler+0xb0>
C:\Users\29275\Desktop\WchWorkSPace\camCoreWithRTOS\obj/../USER/isr.c:277
    {
        TIM_ClearITPendingBit(TIM1, TIM_IT_CC3);

    }
    if(TIM_GetITStatus(TIM1, TIM_IT_CC4) != RESET)
     884:	45c1                	li	a1,16
     886:	40013537          	lui	a0,0x40013
     88a:	c0050513          	addi	a0,a0,-1024 # 40012c00 <_eusrstack+0x2000dc00>
     88e:	43f000ef          	jal	ra,14cc <TIM_GetITStatus>
     892:	ed31                	bnez	a0,8ee <TIM1_CC_IRQHandler+0xc0>
C:\Users\29275\Desktop\WchWorkSPace\camCoreWithRTOS\obj/../USER/isr.c:283
    {
        TIM_ClearITPendingBit(TIM1, TIM_IT_CC4);

    }

    rt_interrupt_leave();       //
     894:	0fc020ef          	jal	ra,2990 <rt_interrupt_leave>
C:\Users\29275\Desktop\WchWorkSPace\camCoreWithRTOS\obj/../USER/isr.c:284
}
     898:	50f2                	lw	ra,60(sp)
     89a:	52e2                	lw	t0,56(sp)
     89c:	5352                	lw	t1,52(sp)
     89e:	53c2                	lw	t2,48(sp)
     8a0:	5532                	lw	a0,44(sp)
     8a2:	55a2                	lw	a1,40(sp)
     8a4:	5612                	lw	a2,36(sp)
     8a6:	5682                	lw	a3,32(sp)
     8a8:	4772                	lw	a4,28(sp)
     8aa:	47e2                	lw	a5,24(sp)
     8ac:	4852                	lw	a6,20(sp)
     8ae:	48c2                	lw	a7,16(sp)
     8b0:	4e32                	lw	t3,12(sp)
     8b2:	4ea2                	lw	t4,8(sp)
     8b4:	4f12                	lw	t5,4(sp)
     8b6:	4f82                	lw	t6,0(sp)
     8b8:	6121                	addi	sp,sp,64
     8ba:	30200073          	mret
C:\Users\29275\Desktop\WchWorkSPace\camCoreWithRTOS\obj/../USER/isr.c:264
        TIM_ClearITPendingBit(TIM1, TIM_IT_CC1);
     8be:	4589                	li	a1,2
     8c0:	40013537          	lui	a0,0x40013
     8c4:	c0050513          	addi	a0,a0,-1024 # 40012c00 <_eusrstack+0x2000dc00>
     8c8:	421000ef          	jal	ra,14e8 <TIM_ClearITPendingBit>
     8cc:	bf61                	j	864 <TIM1_CC_IRQHandler+0x36>
C:\Users\29275\Desktop\WchWorkSPace\camCoreWithRTOS\obj/../USER/isr.c:269
        TIM_ClearITPendingBit(TIM1, TIM_IT_CC2);
     8ce:	4591                	li	a1,4
     8d0:	40013537          	lui	a0,0x40013
     8d4:	c0050513          	addi	a0,a0,-1024 # 40012c00 <_eusrstack+0x2000dc00>
     8d8:	411000ef          	jal	ra,14e8 <TIM_ClearITPendingBit>
     8dc:	bf61                	j	874 <TIM1_CC_IRQHandler+0x46>
C:\Users\29275\Desktop\WchWorkSPace\camCoreWithRTOS\obj/../USER/isr.c:274
        TIM_ClearITPendingBit(TIM1, TIM_IT_CC3);
     8de:	45a1                	li	a1,8
     8e0:	40013537          	lui	a0,0x40013
     8e4:	c0050513          	addi	a0,a0,-1024 # 40012c00 <_eusrstack+0x2000dc00>
     8e8:	401000ef          	jal	ra,14e8 <TIM_ClearITPendingBit>
     8ec:	bf61                	j	884 <TIM1_CC_IRQHandler+0x56>
C:\Users\29275\Desktop\WchWorkSPace\camCoreWithRTOS\obj/../USER/isr.c:279
        TIM_ClearITPendingBit(TIM1, TIM_IT_CC4);
     8ee:	45c1                	li	a1,16
     8f0:	40013537          	lui	a0,0x40013
     8f4:	c0050513          	addi	a0,a0,-1024 # 40012c00 <_eusrstack+0x2000dc00>
     8f8:	3f1000ef          	jal	ra,14e8 <TIM_ClearITPendingBit>
     8fc:	bf61                	j	894 <TIM1_CC_IRQHandler+0x66>

000008fe <TIM2_IRQHandler>:
TIM2_IRQHandler():
C:\Users\29275\Desktop\WchWorkSPace\camCoreWithRTOS\obj/../USER/isr.c:287

void TIM2_IRQHandler(void)
{
     8fe:	1141                	addi	sp,sp,-16
     900:	c606                	sw	ra,12(sp)
C:\Users\29275\Desktop\WchWorkSPace\camCoreWithRTOS\obj/../USER/isr.c:288
    rt_interrupt_enter();       //
     902:	06a020ef          	jal	ra,296c <rt_interrupt_enter>
C:\Users\29275\Desktop\WchWorkSPace\camCoreWithRTOS\obj/../USER/isr.c:290

    if(TIM_GetITStatus(TIM2, TIM_IT_Update) != RESET)
     906:	4585                	li	a1,1
     908:	40000537          	lui	a0,0x40000
     90c:	3c1000ef          	jal	ra,14cc <TIM_GetITStatus>
     910:	e511                	bnez	a0,91c <TIM2_IRQHandler+0x1e>
C:\Users\29275\Desktop\WchWorkSPace\camCoreWithRTOS\obj/../USER/isr.c:296
    {
        TIM_ClearITPendingBit(TIM2, TIM_IT_Update );
        ccd_collect();//CCD
    }

    rt_interrupt_leave();       //
     912:	07e020ef          	jal	ra,2990 <rt_interrupt_leave>
C:\Users\29275\Desktop\WchWorkSPace\camCoreWithRTOS\obj/../USER/isr.c:297
}
     916:	40b2                	lw	ra,12(sp)
     918:	0141                	addi	sp,sp,16
     91a:	8082                	ret
C:\Users\29275\Desktop\WchWorkSPace\camCoreWithRTOS\obj/../USER/isr.c:292
        TIM_ClearITPendingBit(TIM2, TIM_IT_Update );
     91c:	4585                	li	a1,1
     91e:	40000537          	lui	a0,0x40000
     922:	3c7000ef          	jal	ra,14e8 <TIM_ClearITPendingBit>
C:\Users\29275\Desktop\WchWorkSPace\camCoreWithRTOS\obj/../USER/isr.c:293
        ccd_collect();//CCD
     926:	134010ef          	jal	ra,1a5a <ccd_collect>
     92a:	b7e5                	j	912 <TIM2_IRQHandler+0x14>

0000092c <TIM3_IRQHandler>:
TIM3_IRQHandler():
C:\Users\29275\Desktop\WchWorkSPace\camCoreWithRTOS\obj/../USER/isr.c:300

void TIM3_IRQHandler(void)
{
     92c:	7139                	addi	sp,sp,-64
     92e:	de06                	sw	ra,60(sp)
     930:	dc16                	sw	t0,56(sp)
     932:	da1a                	sw	t1,52(sp)
     934:	d81e                	sw	t2,48(sp)
     936:	d62a                	sw	a0,44(sp)
     938:	d42e                	sw	a1,40(sp)
     93a:	d232                	sw	a2,36(sp)
     93c:	d036                	sw	a3,32(sp)
     93e:	ce3a                	sw	a4,28(sp)
     940:	cc3e                	sw	a5,24(sp)
     942:	ca42                	sw	a6,20(sp)
     944:	c846                	sw	a7,16(sp)
     946:	c672                	sw	t3,12(sp)
     948:	c476                	sw	t4,8(sp)
     94a:	c27a                	sw	t5,4(sp)
     94c:	c07e                	sw	t6,0(sp)
C:\Users\29275\Desktop\WchWorkSPace\camCoreWithRTOS\obj/../USER/isr.c:301
    rt_interrupt_enter();       //
     94e:	01e020ef          	jal	ra,296c <rt_interrupt_enter>
C:\Users\29275\Desktop\WchWorkSPace\camCoreWithRTOS\obj/../USER/isr.c:303

    if(TIM_GetITStatus(TIM3, TIM_IT_Update) != RESET)
     952:	4585                	li	a1,1
     954:	40000537          	lui	a0,0x40000
     958:	40050513          	addi	a0,a0,1024 # 40000400 <_eusrstack+0x1fffb400>
     95c:	371000ef          	jal	ra,14cc <TIM_GetITStatus>
     960:	e515                	bnez	a0,98c <TIM3_IRQHandler+0x60>
C:\Users\29275\Desktop\WchWorkSPace\camCoreWithRTOS\obj/../USER/isr.c:309
    {
        TIM_ClearITPendingBit(TIM3, TIM_IT_Update );

    }

    rt_interrupt_leave();       //
     962:	02e020ef          	jal	ra,2990 <rt_interrupt_leave>
C:\Users\29275\Desktop\WchWorkSPace\camCoreWithRTOS\obj/../USER/isr.c:310
}
     966:	50f2                	lw	ra,60(sp)
     968:	52e2                	lw	t0,56(sp)
     96a:	5352                	lw	t1,52(sp)
     96c:	53c2                	lw	t2,48(sp)
     96e:	5532                	lw	a0,44(sp)
     970:	55a2                	lw	a1,40(sp)
     972:	5612                	lw	a2,36(sp)
     974:	5682                	lw	a3,32(sp)
     976:	4772                	lw	a4,28(sp)
     978:	47e2                	lw	a5,24(sp)
     97a:	4852                	lw	a6,20(sp)
     97c:	48c2                	lw	a7,16(sp)
     97e:	4e32                	lw	t3,12(sp)
     980:	4ea2                	lw	t4,8(sp)
     982:	4f12                	lw	t5,4(sp)
     984:	4f82                	lw	t6,0(sp)
     986:	6121                	addi	sp,sp,64
     988:	30200073          	mret
C:\Users\29275\Desktop\WchWorkSPace\camCoreWithRTOS\obj/../USER/isr.c:305
        TIM_ClearITPendingBit(TIM3, TIM_IT_Update );
     98c:	4585                	li	a1,1
     98e:	40000537          	lui	a0,0x40000
     992:	40050513          	addi	a0,a0,1024 # 40000400 <_eusrstack+0x1fffb400>
     996:	353000ef          	jal	ra,14e8 <TIM_ClearITPendingBit>
     99a:	b7e1                	j	962 <TIM3_IRQHandler+0x36>

0000099c <TIM4_IRQHandler>:
TIM4_IRQHandler():
C:\Users\29275\Desktop\WchWorkSPace\camCoreWithRTOS\obj/../USER/isr.c:313

void TIM4_IRQHandler(void)
{
     99c:	7139                	addi	sp,sp,-64
     99e:	de06                	sw	ra,60(sp)
     9a0:	dc16                	sw	t0,56(sp)
     9a2:	da1a                	sw	t1,52(sp)
     9a4:	d81e                	sw	t2,48(sp)
     9a6:	d62a                	sw	a0,44(sp)
     9a8:	d42e                	sw	a1,40(sp)
     9aa:	d232                	sw	a2,36(sp)
     9ac:	d036                	sw	a3,32(sp)
     9ae:	ce3a                	sw	a4,28(sp)
     9b0:	cc3e                	sw	a5,24(sp)
     9b2:	ca42                	sw	a6,20(sp)
     9b4:	c846                	sw	a7,16(sp)
     9b6:	c672                	sw	t3,12(sp)
     9b8:	c476                	sw	t4,8(sp)
     9ba:	c27a                	sw	t5,4(sp)
     9bc:	c07e                	sw	t6,0(sp)
C:\Users\29275\Desktop\WchWorkSPace\camCoreWithRTOS\obj/../USER/isr.c:314
    rt_interrupt_enter();       //
     9be:	7af010ef          	jal	ra,296c <rt_interrupt_enter>
C:\Users\29275\Desktop\WchWorkSPace\camCoreWithRTOS\obj/../USER/isr.c:316

    if(TIM_GetITStatus(TIM4, TIM_IT_Update) != RESET)
     9c2:	4585                	li	a1,1
     9c4:	40001537          	lui	a0,0x40001
     9c8:	80050513          	addi	a0,a0,-2048 # 40000800 <_eusrstack+0x1fffb800>
     9cc:	301000ef          	jal	ra,14cc <TIM_GetITStatus>
     9d0:	e515                	bnez	a0,9fc <TIM4_IRQHandler+0x60>
C:\Users\29275\Desktop\WchWorkSPace\camCoreWithRTOS\obj/../USER/isr.c:322
    {
        TIM_ClearITPendingBit(TIM4, TIM_IT_Update );

    }

    rt_interrupt_leave();       //
     9d2:	7bf010ef          	jal	ra,2990 <rt_interrupt_leave>
C:\Users\29275\Desktop\WchWorkSPace\camCoreWithRTOS\obj/../USER/isr.c:323
}
     9d6:	50f2                	lw	ra,60(sp)
     9d8:	52e2                	lw	t0,56(sp)
     9da:	5352                	lw	t1,52(sp)
     9dc:	53c2                	lw	t2,48(sp)
     9de:	5532                	lw	a0,44(sp)
     9e0:	55a2                	lw	a1,40(sp)
     9e2:	5612                	lw	a2,36(sp)
     9e4:	5682                	lw	a3,32(sp)
     9e6:	4772                	lw	a4,28(sp)
     9e8:	47e2                	lw	a5,24(sp)
     9ea:	4852                	lw	a6,20(sp)
     9ec:	48c2                	lw	a7,16(sp)
     9ee:	4e32                	lw	t3,12(sp)
     9f0:	4ea2                	lw	t4,8(sp)
     9f2:	4f12                	lw	t5,4(sp)
     9f4:	4f82                	lw	t6,0(sp)
     9f6:	6121                	addi	sp,sp,64
     9f8:	30200073          	mret
C:\Users\29275\Desktop\WchWorkSPace\camCoreWithRTOS\obj/../USER/isr.c:318
        TIM_ClearITPendingBit(TIM4, TIM_IT_Update );
     9fc:	4585                	li	a1,1
     9fe:	40001537          	lui	a0,0x40001
     a02:	80050513          	addi	a0,a0,-2048 # 40000800 <_eusrstack+0x1fffb800>
     a06:	2e3000ef          	jal	ra,14e8 <TIM_ClearITPendingBit>
     a0a:	b7e1                	j	9d2 <TIM4_IRQHandler+0x36>

00000a0c <USART2_IRQHandler>:
USART2_IRQHandler():
C:\Users\29275\Desktop\WchWorkSPace\camCoreWithRTOS\obj/../USER/isr.c:337
//
//    rt_interrupt_leave();       //
//}

void USART2_IRQHandler(void)
{
     a0c:	7139                	addi	sp,sp,-64
     a0e:	de06                	sw	ra,60(sp)
     a10:	dc16                	sw	t0,56(sp)
     a12:	da1a                	sw	t1,52(sp)
     a14:	d81e                	sw	t2,48(sp)
     a16:	d62a                	sw	a0,44(sp)
     a18:	d42e                	sw	a1,40(sp)
     a1a:	d232                	sw	a2,36(sp)
     a1c:	d036                	sw	a3,32(sp)
     a1e:	ce3a                	sw	a4,28(sp)
     a20:	cc3e                	sw	a5,24(sp)
     a22:	ca42                	sw	a6,20(sp)
     a24:	c846                	sw	a7,16(sp)
     a26:	c672                	sw	t3,12(sp)
     a28:	c476                	sw	t4,8(sp)
     a2a:	c27a                	sw	t5,4(sp)
     a2c:	c07e                	sw	t6,0(sp)
C:\Users\29275\Desktop\WchWorkSPace\camCoreWithRTOS\obj/../USER/isr.c:338
    rt_interrupt_enter();       //
     a2e:	73f010ef          	jal	ra,296c <rt_interrupt_enter>
C:\Users\29275\Desktop\WchWorkSPace\camCoreWithRTOS\obj/../USER/isr.c:340

    if(USART_GetITStatus(USART2, USART_IT_RXNE) != RESET)
     a32:	52500593          	li	a1,1317
     a36:	40004537          	lui	a0,0x40004
     a3a:	40050513          	addi	a0,a0,1024 # 40004400 <_eusrstack+0x1ffff400>
     a3e:	421000ef          	jal	ra,165e <USART_GetITStatus>
     a42:	c919                	beqz	a0,a58 <USART2_IRQHandler+0x4c>
C:\Users\29275\Desktop\WchWorkSPace\camCoreWithRTOS\obj/../USER/isr.c:343
    {
        //USART_ClearITPendingBit(USART2, USART_IT_RXNE);
        if(camera_type == CAMERA_BIN_UART)
     a44:	200007b7          	lui	a5,0x20000
     a48:	0b47a783          	lw	a5,180(a5) # 200000b4 <camera_type>
     a4c:	4709                	li	a4,2
     a4e:	02e78a63          	beq	a5,a4,a82 <USART2_IRQHandler+0x76>
C:\Users\29275\Desktop\WchWorkSPace\camCoreWithRTOS\obj/../USER/isr.c:345
            ov7725_cof_uart_interrupt();
        else if(camera_type == CAMERA_GRAYSCALE)
     a52:	4705                	li	a4,1
     a54:	02e78a63          	beq	a5,a4,a88 <USART2_IRQHandler+0x7c>
C:\Users\29275\Desktop\WchWorkSPace\camCoreWithRTOS\obj/../USER/isr.c:349
            mt9v03x_uart_callback();
    }

    rt_interrupt_leave();       //
     a58:	739010ef          	jal	ra,2990 <rt_interrupt_leave>
C:\Users\29275\Desktop\WchWorkSPace\camCoreWithRTOS\obj/../USER/isr.c:350
}
     a5c:	50f2                	lw	ra,60(sp)
     a5e:	52e2                	lw	t0,56(sp)
     a60:	5352                	lw	t1,52(sp)
     a62:	53c2                	lw	t2,48(sp)
     a64:	5532                	lw	a0,44(sp)
     a66:	55a2                	lw	a1,40(sp)
     a68:	5612                	lw	a2,36(sp)
     a6a:	5682                	lw	a3,32(sp)
     a6c:	4772                	lw	a4,28(sp)
     a6e:	47e2                	lw	a5,24(sp)
     a70:	4852                	lw	a6,20(sp)
     a72:	48c2                	lw	a7,16(sp)
     a74:	4e32                	lw	t3,12(sp)
     a76:	4ea2                	lw	t4,8(sp)
     a78:	4f12                	lw	t5,4(sp)
     a7a:	4f82                	lw	t6,0(sp)
     a7c:	6121                	addi	sp,sp,64
     a7e:	30200073          	mret
C:\Users\29275\Desktop\WchWorkSPace\camCoreWithRTOS\obj/../USER/isr.c:344
            ov7725_cof_uart_interrupt();
     a82:	030010ef          	jal	ra,1ab2 <ov7725_cof_uart_interrupt>
     a86:	bfc9                	j	a58 <USART2_IRQHandler+0x4c>
C:\Users\29275\Desktop\WchWorkSPace\camCoreWithRTOS\obj/../USER/isr.c:346
            mt9v03x_uart_callback();
     a88:	423000ef          	jal	ra,16aa <mt9v03x_uart_callback>
     a8c:	b7f1                	j	a58 <USART2_IRQHandler+0x4c>

00000a8e <USART3_IRQHandler>:
USART3_IRQHandler():
C:\Users\29275\Desktop\WchWorkSPace\camCoreWithRTOS\obj/../USER/isr.c:353

void USART3_IRQHandler(void)
{
     a8e:	7139                	addi	sp,sp,-64
     a90:	de06                	sw	ra,60(sp)
     a92:	dc16                	sw	t0,56(sp)
     a94:	da1a                	sw	t1,52(sp)
     a96:	d81e                	sw	t2,48(sp)
     a98:	d62a                	sw	a0,44(sp)
     a9a:	d42e                	sw	a1,40(sp)
     a9c:	d232                	sw	a2,36(sp)
     a9e:	d036                	sw	a3,32(sp)
     aa0:	ce3a                	sw	a4,28(sp)
     aa2:	cc3e                	sw	a5,24(sp)
     aa4:	ca42                	sw	a6,20(sp)
     aa6:	c846                	sw	a7,16(sp)
     aa8:	c672                	sw	t3,12(sp)
     aaa:	c476                	sw	t4,8(sp)
     aac:	c27a                	sw	t5,4(sp)
     aae:	c07e                	sw	t6,0(sp)
C:\Users\29275\Desktop\WchWorkSPace\camCoreWithRTOS\obj/../USER/isr.c:354
    rt_interrupt_enter();       //
     ab0:	6bd010ef          	jal	ra,296c <rt_interrupt_enter>
C:\Users\29275\Desktop\WchWorkSPace\camCoreWithRTOS\obj/../USER/isr.c:359

    //
    //

    rt_interrupt_leave();       //
     ab4:	6dd010ef          	jal	ra,2990 <rt_interrupt_leave>
C:\Users\29275\Desktop\WchWorkSPace\camCoreWithRTOS\obj/../USER/isr.c:360
}
     ab8:	50f2                	lw	ra,60(sp)
     aba:	52e2                	lw	t0,56(sp)
     abc:	5352                	lw	t1,52(sp)
     abe:	53c2                	lw	t2,48(sp)
     ac0:	5532                	lw	a0,44(sp)
     ac2:	55a2                	lw	a1,40(sp)
     ac4:	5612                	lw	a2,36(sp)
     ac6:	5682                	lw	a3,32(sp)
     ac8:	4772                	lw	a4,28(sp)
     aca:	47e2                	lw	a5,24(sp)
     acc:	4852                	lw	a6,20(sp)
     ace:	48c2                	lw	a7,16(sp)
     ad0:	4e32                	lw	t3,12(sp)
     ad2:	4ea2                	lw	t4,8(sp)
     ad4:	4f12                	lw	t5,4(sp)
     ad6:	4f82                	lw	t6,0(sp)
     ad8:	6121                	addi	sp,sp,64
     ada:	30200073          	mret

00000ade <DMA1_Channel4_IRQHandler>:
DMA1_Channel4_IRQHandler():
C:\Users\29275\Desktop\WchWorkSPace\camCoreWithRTOS\obj/../USER/isr.c:363

void DMA1_Channel4_IRQHandler(void)
{
     ade:	7139                	addi	sp,sp,-64
     ae0:	de06                	sw	ra,60(sp)
     ae2:	dc16                	sw	t0,56(sp)
     ae4:	da1a                	sw	t1,52(sp)
     ae6:	d81e                	sw	t2,48(sp)
     ae8:	d62a                	sw	a0,44(sp)
     aea:	d42e                	sw	a1,40(sp)
     aec:	d232                	sw	a2,36(sp)
     aee:	d036                	sw	a3,32(sp)
     af0:	ce3a                	sw	a4,28(sp)
     af2:	cc3e                	sw	a5,24(sp)
     af4:	ca42                	sw	a6,20(sp)
     af6:	c846                	sw	a7,16(sp)
     af8:	c672                	sw	t3,12(sp)
     afa:	c476                	sw	t4,8(sp)
     afc:	c27a                	sw	t5,4(sp)
     afe:	c07e                	sw	t6,0(sp)
C:\Users\29275\Desktop\WchWorkSPace\camCoreWithRTOS\obj/../USER/isr.c:364
    rt_interrupt_enter();       //
     b00:	66d010ef          	jal	ra,296c <rt_interrupt_enter>
C:\Users\29275\Desktop\WchWorkSPace\camCoreWithRTOS\obj/../USER/isr.c:366

    if(SET == DMA_GetFlagStatus(DMA1_FLAG_TC4))
     b04:	6509                	lui	a0,0x2
     b06:	21d5                	jal	fea <DMA_GetFlagStatus>
     b08:	4785                	li	a5,1
     b0a:	02f50763          	beq	a0,a5,b38 <DMA1_Channel4_IRQHandler+0x5a>
C:\Users\29275\Desktop\WchWorkSPace\camCoreWithRTOS\obj/../USER/isr.c:375
            ov7725_uart_dma();
        else if(camera_type == CAMERA_GRAYSCALE)
            mt9v03x_dma();
    }

    rt_interrupt_leave();       //
     b0e:	683010ef          	jal	ra,2990 <rt_interrupt_leave>
C:\Users\29275\Desktop\WchWorkSPace\camCoreWithRTOS\obj/../USER/isr.c:376
}
     b12:	50f2                	lw	ra,60(sp)
     b14:	52e2                	lw	t0,56(sp)
     b16:	5352                	lw	t1,52(sp)
     b18:	53c2                	lw	t2,48(sp)
     b1a:	5532                	lw	a0,44(sp)
     b1c:	55a2                	lw	a1,40(sp)
     b1e:	5612                	lw	a2,36(sp)
     b20:	5682                	lw	a3,32(sp)
     b22:	4772                	lw	a4,28(sp)
     b24:	47e2                	lw	a5,24(sp)
     b26:	4852                	lw	a6,20(sp)
     b28:	48c2                	lw	a7,16(sp)
     b2a:	4e32                	lw	t3,12(sp)
     b2c:	4ea2                	lw	t4,8(sp)
     b2e:	4f12                	lw	t5,4(sp)
     b30:	4f82                	lw	t6,0(sp)
     b32:	6121                	addi	sp,sp,64
     b34:	30200073          	mret
C:\Users\29275\Desktop\WchWorkSPace\camCoreWithRTOS\obj/../USER/isr.c:368
        DMA_ClearFlag(DMA1_FLAG_TC4);
     b38:	6509                	lui	a0,0x2
     b3a:	29c1                	jal	100a <DMA_ClearFlag>
C:\Users\29275\Desktop\WchWorkSPace\camCoreWithRTOS\obj/../USER/isr.c:369
        if(camera_type == CAMERA_BIN_UART)
     b3c:	200007b7          	lui	a5,0x20000
     b40:	0b47a783          	lw	a5,180(a5) # 200000b4 <camera_type>
     b44:	4709                	li	a4,2
     b46:	00e78863          	beq	a5,a4,b56 <DMA1_Channel4_IRQHandler+0x78>
C:\Users\29275\Desktop\WchWorkSPace\camCoreWithRTOS\obj/../USER/isr.c:371
        else if(camera_type == CAMERA_GRAYSCALE)
     b4a:	4705                	li	a4,1
     b4c:	fce791e3          	bne	a5,a4,b0e <DMA1_Channel4_IRQHandler+0x30>
C:\Users\29275\Desktop\WchWorkSPace\camCoreWithRTOS\obj/../USER/isr.c:372
            mt9v03x_dma();
     b50:	3c9000ef          	jal	ra,1718 <mt9v03x_dma>
     b54:	bf6d                	j	b0e <DMA1_Channel4_IRQHandler+0x30>
C:\Users\29275\Desktop\WchWorkSPace\camCoreWithRTOS\obj/../USER/isr.c:370
            ov7725_uart_dma();
     b56:	7cb000ef          	jal	ra,1b20 <ov7725_uart_dma>
     b5a:	bf55                	j	b0e <DMA1_Channel4_IRQHandler+0x30>

00000b5c <NMI_Handler>:
NMI_Handler():
C:\Users\29275\Desktop\WchWorkSPace\camCoreWithRTOS\obj/../USER/isr.c:385
* Description    : This function handles NMI exception.
* Input          : None
* Return         : None
*******************************************************************************/
void NMI_Handler(void)
{
     b5c:	7139                	addi	sp,sp,-64
     b5e:	de06                	sw	ra,60(sp)
     b60:	dc16                	sw	t0,56(sp)
     b62:	da1a                	sw	t1,52(sp)
     b64:	d81e                	sw	t2,48(sp)
     b66:	d62a                	sw	a0,44(sp)
     b68:	d42e                	sw	a1,40(sp)
     b6a:	d232                	sw	a2,36(sp)
     b6c:	d036                	sw	a3,32(sp)
     b6e:	ce3a                	sw	a4,28(sp)
     b70:	cc3e                	sw	a5,24(sp)
     b72:	ca42                	sw	a6,20(sp)
     b74:	c846                	sw	a7,16(sp)
     b76:	c672                	sw	t3,12(sp)
     b78:	c476                	sw	t4,8(sp)
     b7a:	c27a                	sw	t5,4(sp)
     b7c:	c07e                	sw	t6,0(sp)
C:\Users\29275\Desktop\WchWorkSPace\camCoreWithRTOS\obj/../USER/isr.c:386
    rt_interrupt_enter();       //
     b7e:	5ef010ef          	jal	ra,296c <rt_interrupt_enter>
C:\Users\29275\Desktop\WchWorkSPace\camCoreWithRTOS\obj/../USER/isr.c:391

    //
    //

    rt_interrupt_leave();       //
     b82:	60f010ef          	jal	ra,2990 <rt_interrupt_leave>
C:\Users\29275\Desktop\WchWorkSPace\camCoreWithRTOS\obj/../USER/isr.c:392
}
     b86:	50f2                	lw	ra,60(sp)
     b88:	52e2                	lw	t0,56(sp)
     b8a:	5352                	lw	t1,52(sp)
     b8c:	53c2                	lw	t2,48(sp)
     b8e:	5532                	lw	a0,44(sp)
     b90:	55a2                	lw	a1,40(sp)
     b92:	5612                	lw	a2,36(sp)
     b94:	5682                	lw	a3,32(sp)
     b96:	4772                	lw	a4,28(sp)
     b98:	47e2                	lw	a5,24(sp)
     b9a:	4852                	lw	a6,20(sp)
     b9c:	48c2                	lw	a7,16(sp)
     b9e:	4e32                	lw	t3,12(sp)
     ba0:	4ea2                	lw	t4,8(sp)
     ba2:	4f12                	lw	t5,4(sp)
     ba4:	4f82                	lw	t6,0(sp)
     ba6:	6121                	addi	sp,sp,64
     ba8:	30200073          	mret

00000bac <HardFault_Handler>:
HardFault_Handler():
C:\Users\29275\Desktop\WchWorkSPace\camCoreWithRTOS\obj/../USER/isr.c:395

void HardFault_Handler(void)
{
     bac:	7139                	addi	sp,sp,-64
     bae:	de06                	sw	ra,60(sp)
     bb0:	dc16                	sw	t0,56(sp)
     bb2:	da1a                	sw	t1,52(sp)
     bb4:	d81e                	sw	t2,48(sp)
     bb6:	d62a                	sw	a0,44(sp)
     bb8:	d42e                	sw	a1,40(sp)
     bba:	d232                	sw	a2,36(sp)
     bbc:	d036                	sw	a3,32(sp)
     bbe:	ce3a                	sw	a4,28(sp)
     bc0:	cc3e                	sw	a5,24(sp)
     bc2:	ca42                	sw	a6,20(sp)
     bc4:	c846                	sw	a7,16(sp)
     bc6:	c672                	sw	t3,12(sp)
     bc8:	c476                	sw	t4,8(sp)
     bca:	c27a                	sw	t5,4(sp)
     bcc:	c07e                	sw	t6,0(sp)
C:\Users\29275\Desktop\WchWorkSPace\camCoreWithRTOS\obj/../USER/isr.c:396
    rt_interrupt_enter();       //
     bce:	59f010ef          	jal	ra,296c <rt_interrupt_enter>
C:\Users\29275\Desktop\WchWorkSPace\camCoreWithRTOS\obj/../USER/isr.c:398 (discriminator 1)

    while(1);
     bd2:	a001                	j	bd2 <HardFault_Handler+0x26>

00000bd4 <WWDG_IRQHandler>:
WWDG_IRQHandler():
C:\Users\29275\Desktop\WchWorkSPace\camCoreWithRTOS\obj/../USER/isr.c:406
}



void WWDG_IRQHandler(void)
{
     bd4:	7139                	addi	sp,sp,-64
     bd6:	de06                	sw	ra,60(sp)
     bd8:	dc16                	sw	t0,56(sp)
     bda:	da1a                	sw	t1,52(sp)
     bdc:	d81e                	sw	t2,48(sp)
     bde:	d62a                	sw	a0,44(sp)
     be0:	d42e                	sw	a1,40(sp)
     be2:	d232                	sw	a2,36(sp)
     be4:	d036                	sw	a3,32(sp)
     be6:	ce3a                	sw	a4,28(sp)
     be8:	cc3e                	sw	a5,24(sp)
     bea:	ca42                	sw	a6,20(sp)
     bec:	c846                	sw	a7,16(sp)
     bee:	c672                	sw	t3,12(sp)
     bf0:	c476                	sw	t4,8(sp)
     bf2:	c27a                	sw	t5,4(sp)
     bf4:	c07e                	sw	t6,0(sp)
C:\Users\29275\Desktop\WchWorkSPace\camCoreWithRTOS\obj/../USER/isr.c:407
    rt_interrupt_enter();       //
     bf6:	577010ef          	jal	ra,296c <rt_interrupt_enter>
C:\Users\29275\Desktop\WchWorkSPace\camCoreWithRTOS\obj/../USER/isr.c:412

    //
    //

    rt_interrupt_leave();       //
     bfa:	597010ef          	jal	ra,2990 <rt_interrupt_leave>
C:\Users\29275\Desktop\WchWorkSPace\camCoreWithRTOS\obj/../USER/isr.c:413
}
     bfe:	50f2                	lw	ra,60(sp)
     c00:	52e2                	lw	t0,56(sp)
     c02:	5352                	lw	t1,52(sp)
     c04:	53c2                	lw	t2,48(sp)
     c06:	5532                	lw	a0,44(sp)
     c08:	55a2                	lw	a1,40(sp)
     c0a:	5612                	lw	a2,36(sp)
     c0c:	5682                	lw	a3,32(sp)
     c0e:	4772                	lw	a4,28(sp)
     c10:	47e2                	lw	a5,24(sp)
     c12:	4852                	lw	a6,20(sp)
     c14:	48c2                	lw	a7,16(sp)
     c16:	4e32                	lw	t3,12(sp)
     c18:	4ea2                	lw	t4,8(sp)
     c1a:	4f12                	lw	t5,4(sp)
     c1c:	4f82                	lw	t6,0(sp)
     c1e:	6121                	addi	sp,sp,64
     c20:	30200073          	mret

00000c24 <TAMPER_IRQHandler>:
TAMPER_IRQHandler():
C:\Users\29275\Desktop\WchWorkSPace\camCoreWithRTOS\obj/../USER/isr.c:416

void TAMPER_IRQHandler(void)
{
     c24:	1141                	addi	sp,sp,-16
     c26:	c606                	sw	ra,12(sp)
C:\Users\29275\Desktop\WchWorkSPace\camCoreWithRTOS\obj/../USER/isr.c:417
    rt_interrupt_enter();       //
     c28:	545010ef          	jal	ra,296c <rt_interrupt_enter>
C:\Users\29275\Desktop\WchWorkSPace\camCoreWithRTOS\obj/../USER/isr.c:422

    //
    //

    rt_interrupt_leave();       //
     c2c:	565010ef          	jal	ra,2990 <rt_interrupt_leave>
C:\Users\29275\Desktop\WchWorkSPace\camCoreWithRTOS\obj/../USER/isr.c:423
}
     c30:	40b2                	lw	ra,12(sp)
     c32:	0141                	addi	sp,sp,16
     c34:	8082                	ret

00000c36 <RTC_IRQHandler>:
RTC_IRQHandler():
C:\Users\29275\Desktop\WchWorkSPace\camCoreWithRTOS\obj/../USER/isr.c:425
void RTC_IRQHandler(void)
{
     c36:	1141                	addi	sp,sp,-16
     c38:	c606                	sw	ra,12(sp)
C:\Users\29275\Desktop\WchWorkSPace\camCoreWithRTOS\obj/../USER/isr.c:426
    rt_interrupt_enter();       //
     c3a:	533010ef          	jal	ra,296c <rt_interrupt_enter>
C:\Users\29275\Desktop\WchWorkSPace\camCoreWithRTOS\obj/../USER/isr.c:431

    //
    //

    rt_interrupt_leave();       //
     c3e:	553010ef          	jal	ra,2990 <rt_interrupt_leave>
C:\Users\29275\Desktop\WchWorkSPace\camCoreWithRTOS\obj/../USER/isr.c:432
}
     c42:	40b2                	lw	ra,12(sp)
     c44:	0141                	addi	sp,sp,16
     c46:	8082                	ret

00000c48 <FLASH_IRQHandler>:
FLASH_IRQHandler():
C:\Users\29275\Desktop\WchWorkSPace\camCoreWithRTOS\obj/../USER/isr.c:434
void FLASH_IRQHandler(void)
{
     c48:	1141                	addi	sp,sp,-16
     c4a:	c606                	sw	ra,12(sp)
C:\Users\29275\Desktop\WchWorkSPace\camCoreWithRTOS\obj/../USER/isr.c:435
    rt_interrupt_enter();       //
     c4c:	521010ef          	jal	ra,296c <rt_interrupt_enter>
C:\Users\29275\Desktop\WchWorkSPace\camCoreWithRTOS\obj/../USER/isr.c:440

    //
    //

    rt_interrupt_leave();       //
     c50:	541010ef          	jal	ra,2990 <rt_interrupt_leave>
C:\Users\29275\Desktop\WchWorkSPace\camCoreWithRTOS\obj/../USER/isr.c:441
}
     c54:	40b2                	lw	ra,12(sp)
     c56:	0141                	addi	sp,sp,16
     c58:	8082                	ret

00000c5a <RCC_IRQHandler>:
RCC_IRQHandler():
C:\Users\29275\Desktop\WchWorkSPace\camCoreWithRTOS\obj/../USER/isr.c:443
void RCC_IRQHandler(void)
{
     c5a:	1141                	addi	sp,sp,-16
     c5c:	c606                	sw	ra,12(sp)
C:\Users\29275\Desktop\WchWorkSPace\camCoreWithRTOS\obj/../USER/isr.c:444
    rt_interrupt_enter();       //
     c5e:	50f010ef          	jal	ra,296c <rt_interrupt_enter>
C:\Users\29275\Desktop\WchWorkSPace\camCoreWithRTOS\obj/../USER/isr.c:449

    //
    //

    rt_interrupt_leave();       //
     c62:	52f010ef          	jal	ra,2990 <rt_interrupt_leave>
C:\Users\29275\Desktop\WchWorkSPace\camCoreWithRTOS\obj/../USER/isr.c:450
}
     c66:	40b2                	lw	ra,12(sp)
     c68:	0141                	addi	sp,sp,16
     c6a:	8082                	ret

00000c6c <DMA1_Channel1_IRQHandler>:
DMA1_Channel1_IRQHandler():
C:\Users\29275\Desktop\WchWorkSPace\camCoreWithRTOS\obj/../USER/isr.c:452
void DMA1_Channel1_IRQHandler(void)
{
     c6c:	7139                	addi	sp,sp,-64
     c6e:	de06                	sw	ra,60(sp)
     c70:	dc16                	sw	t0,56(sp)
     c72:	da1a                	sw	t1,52(sp)
     c74:	d81e                	sw	t2,48(sp)
     c76:	d62a                	sw	a0,44(sp)
     c78:	d42e                	sw	a1,40(sp)
     c7a:	d232                	sw	a2,36(sp)
     c7c:	d036                	sw	a3,32(sp)
     c7e:	ce3a                	sw	a4,28(sp)
     c80:	cc3e                	sw	a5,24(sp)
     c82:	ca42                	sw	a6,20(sp)
     c84:	c846                	sw	a7,16(sp)
     c86:	c672                	sw	t3,12(sp)
     c88:	c476                	sw	t4,8(sp)
     c8a:	c27a                	sw	t5,4(sp)
     c8c:	c07e                	sw	t6,0(sp)
C:\Users\29275\Desktop\WchWorkSPace\camCoreWithRTOS\obj/../USER/isr.c:453
    rt_interrupt_enter();       //
     c8e:	4df010ef          	jal	ra,296c <rt_interrupt_enter>
C:\Users\29275\Desktop\WchWorkSPace\camCoreWithRTOS\obj/../USER/isr.c:458

    //
    //

    rt_interrupt_leave();       //
     c92:	4ff010ef          	jal	ra,2990 <rt_interrupt_leave>
C:\Users\29275\Desktop\WchWorkSPace\camCoreWithRTOS\obj/../USER/isr.c:459
}
     c96:	50f2                	lw	ra,60(sp)
     c98:	52e2                	lw	t0,56(sp)
     c9a:	5352                	lw	t1,52(sp)
     c9c:	53c2                	lw	t2,48(sp)
     c9e:	5532                	lw	a0,44(sp)
     ca0:	55a2                	lw	a1,40(sp)
     ca2:	5612                	lw	a2,36(sp)
     ca4:	5682                	lw	a3,32(sp)
     ca6:	4772                	lw	a4,28(sp)
     ca8:	47e2                	lw	a5,24(sp)
     caa:	4852                	lw	a6,20(sp)
     cac:	48c2                	lw	a7,16(sp)
     cae:	4e32                	lw	t3,12(sp)
     cb0:	4ea2                	lw	t4,8(sp)
     cb2:	4f12                	lw	t5,4(sp)
     cb4:	4f82                	lw	t6,0(sp)
     cb6:	6121                	addi	sp,sp,64
     cb8:	30200073          	mret

00000cbc <DMA1_Channel2_IRQHandler>:
DMA1_Channel2_IRQHandler():
C:\Users\29275\Desktop\WchWorkSPace\camCoreWithRTOS\obj/../USER/isr.c:461
void DMA1_Channel2_IRQHandler(void)
{
     cbc:	7139                	addi	sp,sp,-64
     cbe:	de06                	sw	ra,60(sp)
     cc0:	dc16                	sw	t0,56(sp)
     cc2:	da1a                	sw	t1,52(sp)
     cc4:	d81e                	sw	t2,48(sp)
     cc6:	d62a                	sw	a0,44(sp)
     cc8:	d42e                	sw	a1,40(sp)
     cca:	d232                	sw	a2,36(sp)
     ccc:	d036                	sw	a3,32(sp)
     cce:	ce3a                	sw	a4,28(sp)
     cd0:	cc3e                	sw	a5,24(sp)
     cd2:	ca42                	sw	a6,20(sp)
     cd4:	c846                	sw	a7,16(sp)
     cd6:	c672                	sw	t3,12(sp)
     cd8:	c476                	sw	t4,8(sp)
     cda:	c27a                	sw	t5,4(sp)
     cdc:	c07e                	sw	t6,0(sp)
C:\Users\29275\Desktop\WchWorkSPace\camCoreWithRTOS\obj/../USER/isr.c:462
    rt_interrupt_enter();       //
     cde:	48f010ef          	jal	ra,296c <rt_interrupt_enter>
C:\Users\29275\Desktop\WchWorkSPace\camCoreWithRTOS\obj/../USER/isr.c:467

    //
    //

    rt_interrupt_leave();       //
     ce2:	4af010ef          	jal	ra,2990 <rt_interrupt_leave>
C:\Users\29275\Desktop\WchWorkSPace\camCoreWithRTOS\obj/../USER/isr.c:468
}
     ce6:	50f2                	lw	ra,60(sp)
     ce8:	52e2                	lw	t0,56(sp)
     cea:	5352                	lw	t1,52(sp)
     cec:	53c2                	lw	t2,48(sp)
     cee:	5532                	lw	a0,44(sp)
     cf0:	55a2                	lw	a1,40(sp)
     cf2:	5612                	lw	a2,36(sp)
     cf4:	5682                	lw	a3,32(sp)
     cf6:	4772                	lw	a4,28(sp)
     cf8:	47e2                	lw	a5,24(sp)
     cfa:	4852                	lw	a6,20(sp)
     cfc:	48c2                	lw	a7,16(sp)
     cfe:	4e32                	lw	t3,12(sp)
     d00:	4ea2                	lw	t4,8(sp)
     d02:	4f12                	lw	t5,4(sp)
     d04:	4f82                	lw	t6,0(sp)
     d06:	6121                	addi	sp,sp,64
     d08:	30200073          	mret

00000d0c <DMA1_Channel3_IRQHandler>:
DMA1_Channel3_IRQHandler():
C:\Users\29275\Desktop\WchWorkSPace\camCoreWithRTOS\obj/../USER/isr.c:470
void DMA1_Channel3_IRQHandler(void)
{
     d0c:	7139                	addi	sp,sp,-64
     d0e:	de06                	sw	ra,60(sp)
     d10:	dc16                	sw	t0,56(sp)
     d12:	da1a                	sw	t1,52(sp)
     d14:	d81e                	sw	t2,48(sp)
     d16:	d62a                	sw	a0,44(sp)
     d18:	d42e                	sw	a1,40(sp)
     d1a:	d232                	sw	a2,36(sp)
     d1c:	d036                	sw	a3,32(sp)
     d1e:	ce3a                	sw	a4,28(sp)
     d20:	cc3e                	sw	a5,24(sp)
     d22:	ca42                	sw	a6,20(sp)
     d24:	c846                	sw	a7,16(sp)
     d26:	c672                	sw	t3,12(sp)
     d28:	c476                	sw	t4,8(sp)
     d2a:	c27a                	sw	t5,4(sp)
     d2c:	c07e                	sw	t6,0(sp)
C:\Users\29275\Desktop\WchWorkSPace\camCoreWithRTOS\obj/../USER/isr.c:471
    rt_interrupt_enter();       //
     d2e:	43f010ef          	jal	ra,296c <rt_interrupt_enter>
C:\Users\29275\Desktop\WchWorkSPace\camCoreWithRTOS\obj/../USER/isr.c:476

    //
    //

    rt_interrupt_leave();       //
     d32:	45f010ef          	jal	ra,2990 <rt_interrupt_leave>
C:\Users\29275\Desktop\WchWorkSPace\camCoreWithRTOS\obj/../USER/isr.c:477
}
     d36:	50f2                	lw	ra,60(sp)
     d38:	52e2                	lw	t0,56(sp)
     d3a:	5352                	lw	t1,52(sp)
     d3c:	53c2                	lw	t2,48(sp)
     d3e:	5532                	lw	a0,44(sp)
     d40:	55a2                	lw	a1,40(sp)
     d42:	5612                	lw	a2,36(sp)
     d44:	5682                	lw	a3,32(sp)
     d46:	4772                	lw	a4,28(sp)
     d48:	47e2                	lw	a5,24(sp)
     d4a:	4852                	lw	a6,20(sp)
     d4c:	48c2                	lw	a7,16(sp)
     d4e:	4e32                	lw	t3,12(sp)
     d50:	4ea2                	lw	t4,8(sp)
     d52:	4f12                	lw	t5,4(sp)
     d54:	4f82                	lw	t6,0(sp)
     d56:	6121                	addi	sp,sp,64
     d58:	30200073          	mret

00000d5c <DMA1_Channel5_IRQHandler>:
DMA1_Channel5_IRQHandler():
C:\Users\29275\Desktop\WchWorkSPace\camCoreWithRTOS\obj/../USER/isr.c:479
void DMA1_Channel5_IRQHandler(void)
{
     d5c:	7139                	addi	sp,sp,-64
     d5e:	de06                	sw	ra,60(sp)
     d60:	dc16                	sw	t0,56(sp)
     d62:	da1a                	sw	t1,52(sp)
     d64:	d81e                	sw	t2,48(sp)
     d66:	d62a                	sw	a0,44(sp)
     d68:	d42e                	sw	a1,40(sp)
     d6a:	d232                	sw	a2,36(sp)
     d6c:	d036                	sw	a3,32(sp)
     d6e:	ce3a                	sw	a4,28(sp)
     d70:	cc3e                	sw	a5,24(sp)
     d72:	ca42                	sw	a6,20(sp)
     d74:	c846                	sw	a7,16(sp)
     d76:	c672                	sw	t3,12(sp)
     d78:	c476                	sw	t4,8(sp)
     d7a:	c27a                	sw	t5,4(sp)
     d7c:	c07e                	sw	t6,0(sp)
C:\Users\29275\Desktop\WchWorkSPace\camCoreWithRTOS\obj/../USER/isr.c:480
    rt_interrupt_enter();       //
     d7e:	3ef010ef          	jal	ra,296c <rt_interrupt_enter>
C:\Users\29275\Desktop\WchWorkSPace\camCoreWithRTOS\obj/../USER/isr.c:485

    //
    //

    rt_interrupt_leave();       //
     d82:	40f010ef          	jal	ra,2990 <rt_interrupt_leave>
C:\Users\29275\Desktop\WchWorkSPace\camCoreWithRTOS\obj/../USER/isr.c:486
}
     d86:	50f2                	lw	ra,60(sp)
     d88:	52e2                	lw	t0,56(sp)
     d8a:	5352                	lw	t1,52(sp)
     d8c:	53c2                	lw	t2,48(sp)
     d8e:	5532                	lw	a0,44(sp)
     d90:	55a2                	lw	a1,40(sp)
     d92:	5612                	lw	a2,36(sp)
     d94:	5682                	lw	a3,32(sp)
     d96:	4772                	lw	a4,28(sp)
     d98:	47e2                	lw	a5,24(sp)
     d9a:	4852                	lw	a6,20(sp)
     d9c:	48c2                	lw	a7,16(sp)
     d9e:	4e32                	lw	t3,12(sp)
     da0:	4ea2                	lw	t4,8(sp)
     da2:	4f12                	lw	t5,4(sp)
     da4:	4f82                	lw	t6,0(sp)
     da6:	6121                	addi	sp,sp,64
     da8:	30200073          	mret

00000dac <DMA1_Channel6_IRQHandler>:
DMA1_Channel6_IRQHandler():
C:\Users\29275\Desktop\WchWorkSPace\camCoreWithRTOS\obj/../USER/isr.c:488
void DMA1_Channel6_IRQHandler(void)
{
     dac:	7139                	addi	sp,sp,-64
     dae:	de06                	sw	ra,60(sp)
     db0:	dc16                	sw	t0,56(sp)
     db2:	da1a                	sw	t1,52(sp)
     db4:	d81e                	sw	t2,48(sp)
     db6:	d62a                	sw	a0,44(sp)
     db8:	d42e                	sw	a1,40(sp)
     dba:	d232                	sw	a2,36(sp)
     dbc:	d036                	sw	a3,32(sp)
     dbe:	ce3a                	sw	a4,28(sp)
     dc0:	cc3e                	sw	a5,24(sp)
     dc2:	ca42                	sw	a6,20(sp)
     dc4:	c846                	sw	a7,16(sp)
     dc6:	c672                	sw	t3,12(sp)
     dc8:	c476                	sw	t4,8(sp)
     dca:	c27a                	sw	t5,4(sp)
     dcc:	c07e                	sw	t6,0(sp)
C:\Users\29275\Desktop\WchWorkSPace\camCoreWithRTOS\obj/../USER/isr.c:489
    rt_interrupt_enter();       //
     dce:	39f010ef          	jal	ra,296c <rt_interrupt_enter>
C:\Users\29275\Desktop\WchWorkSPace\camCoreWithRTOS\obj/../USER/isr.c:494

    //
    //

    rt_interrupt_leave();       //
     dd2:	3bf010ef          	jal	ra,2990 <rt_interrupt_leave>
C:\Users\29275\Desktop\WchWorkSPace\camCoreWithRTOS\obj/../USER/isr.c:495
}
     dd6:	50f2                	lw	ra,60(sp)
     dd8:	52e2                	lw	t0,56(sp)
     dda:	5352                	lw	t1,52(sp)
     ddc:	53c2                	lw	t2,48(sp)
     dde:	5532                	lw	a0,44(sp)
     de0:	55a2                	lw	a1,40(sp)
     de2:	5612                	lw	a2,36(sp)
     de4:	5682                	lw	a3,32(sp)
     de6:	4772                	lw	a4,28(sp)
     de8:	47e2                	lw	a5,24(sp)
     dea:	4852                	lw	a6,20(sp)
     dec:	48c2                	lw	a7,16(sp)
     dee:	4e32                	lw	t3,12(sp)
     df0:	4ea2                	lw	t4,8(sp)
     df2:	4f12                	lw	t5,4(sp)
     df4:	4f82                	lw	t6,0(sp)
     df6:	6121                	addi	sp,sp,64
     df8:	30200073          	mret

00000dfc <DMA1_Channel7_IRQHandler>:
DMA1_Channel7_IRQHandler():
C:\Users\29275\Desktop\WchWorkSPace\camCoreWithRTOS\obj/../USER/isr.c:497
void DMA1_Channel7_IRQHandler(void)
{
     dfc:	7139                	addi	sp,sp,-64
     dfe:	de06                	sw	ra,60(sp)
     e00:	dc16                	sw	t0,56(sp)
     e02:	da1a                	sw	t1,52(sp)
     e04:	d81e                	sw	t2,48(sp)
     e06:	d62a                	sw	a0,44(sp)
     e08:	d42e                	sw	a1,40(sp)
     e0a:	d232                	sw	a2,36(sp)
     e0c:	d036                	sw	a3,32(sp)
     e0e:	ce3a                	sw	a4,28(sp)
     e10:	cc3e                	sw	a5,24(sp)
     e12:	ca42                	sw	a6,20(sp)
     e14:	c846                	sw	a7,16(sp)
     e16:	c672                	sw	t3,12(sp)
     e18:	c476                	sw	t4,8(sp)
     e1a:	c27a                	sw	t5,4(sp)
     e1c:	c07e                	sw	t6,0(sp)
C:\Users\29275\Desktop\WchWorkSPace\camCoreWithRTOS\obj/../USER/isr.c:498
    rt_interrupt_enter();       //
     e1e:	34f010ef          	jal	ra,296c <rt_interrupt_enter>
C:\Users\29275\Desktop\WchWorkSPace\camCoreWithRTOS\obj/../USER/isr.c:503

    //
    //

    rt_interrupt_leave();       //
     e22:	36f010ef          	jal	ra,2990 <rt_interrupt_leave>
C:\Users\29275\Desktop\WchWorkSPace\camCoreWithRTOS\obj/../USER/isr.c:504
}
     e26:	50f2                	lw	ra,60(sp)
     e28:	52e2                	lw	t0,56(sp)
     e2a:	5352                	lw	t1,52(sp)
     e2c:	53c2                	lw	t2,48(sp)
     e2e:	5532                	lw	a0,44(sp)
     e30:	55a2                	lw	a1,40(sp)
     e32:	5612                	lw	a2,36(sp)
     e34:	5682                	lw	a3,32(sp)
     e36:	4772                	lw	a4,28(sp)
     e38:	47e2                	lw	a5,24(sp)
     e3a:	4852                	lw	a6,20(sp)
     e3c:	48c2                	lw	a7,16(sp)
     e3e:	4e32                	lw	t3,12(sp)
     e40:	4ea2                	lw	t4,8(sp)
     e42:	4f12                	lw	t5,4(sp)
     e44:	4f82                	lw	t6,0(sp)
     e46:	6121                	addi	sp,sp,64
     e48:	30200073          	mret

00000e4c <main>:
main():
C:\Users\29275\Desktop\WchWorkSPace\camCoreWithRTOS\obj/../USER/main.c:33
#include "communication.h"

rt_sem_t camera_sem;

int main(void)
{
     e4c:	1141                	addi	sp,sp,-16
     e4e:	c606                	sw	ra,12(sp)
C:\Users\29275\Desktop\WchWorkSPace\camCoreWithRTOS\obj/../USER/main.c:36
    //camera_sem = rt_sem_create("camera", 0, RT_IPC_FLAG_FIFO);
    //mt9v03x_init();
    rt_thread_mdelay(3000);
     e50:	6505                	lui	a0,0x1
     e52:	bb850513          	addi	a0,a0,-1096 # bb8 <HardFault_Handler+0xc>
     e56:	45d020ef          	jal	ra,3ab2 <rt_thread_mdelay>
C:\Users\29275\Desktop\WchWorkSPace\camCoreWithRTOS\obj/../USER/main.c:38

    display_init();
     e5a:	38e040ef          	jal	ra,51e8 <display_init>
C:\Users\29275\Desktop\WchWorkSPace\camCoreWithRTOS\obj/../USER/main.c:39
    encoder_init();
     e5e:	228040ef          	jal	ra,5086 <encoder_init>
C:\Users\29275\Desktop\WchWorkSPace\camCoreWithRTOS\obj/../USER/main.c:40
    timer_pit_init();//
     e62:	3e8040ef          	jal	ra,524a <timer_pit_init>
C:\Users\29275\Desktop\WchWorkSPace\camCoreWithRTOS\obj/../USER/main.c:42

    gpio_init(B12, GPO, 0, GPIO_PIN_CONFIG);                 //
     e66:	31000693          	li	a3,784
     e6a:	4601                	li	a2,0
     e6c:	4585                	li	a1,1
     e6e:	02c00513          	li	a0,44
     e72:	517000ef          	jal	ra,1b88 <gpio_init>
C:\Users\29275\Desktop\WchWorkSPace\camCoreWithRTOS\obj/../USER/main.c:43
    uart_init(UART_3,921600,UART3_TX_B10,UART3_RX_B11);
     e76:	02100693          	li	a3,33
     e7a:	02000613          	li	a2,32
     e7e:	000e15b7          	lui	a1,0xe1
     e82:	4509                	li	a0,2
     e84:	1d0010ef          	jal	ra,2054 <uart_init>
C:\Users\29275\Desktop\WchWorkSPace\camCoreWithRTOS\obj/../USER/main.c:44
    gpio_init(B15, GPO, 0, GPIO_PIN_CONFIG);
     e88:	31000693          	li	a3,784
     e8c:	4601                	li	a2,0
     e8e:	4585                	li	a1,1
     e90:	02f00513          	li	a0,47
     e94:	4f5000ef          	jal	ra,1b88 <gpio_init>
C:\Users\29275\Desktop\WchWorkSPace\camCoreWithRTOS\obj/../USER/main.c:50 (discriminator 1)

    while(1)
    {
        //
        //rt_sem_take(camera_sem, RT_WAITING_FOREVER);
        rt_thread_mdelay(200);
     e98:	0c800513          	li	a0,200
     e9c:	417020ef          	jal	ra,3ab2 <rt_thread_mdelay>
C:\Users\29275\Desktop\WchWorkSPace\camCoreWithRTOS\obj/../USER/main.c:51 (discriminator 1)
        gpio_toggle(B15);
     ea0:	02f00513          	li	a0,47
     ea4:	619000ef          	jal	ra,1cbc <gpio_toggle>
     ea8:	bfc5                	j	e98 <main+0x4c>

00000eaa <handle_reset>:
handle_reset():
C:\Users\29275\Desktop\WchWorkSPace\camCoreWithRTOS\obj/../Libraries/wch_libraries/Startup/startup_ch32v10x.S:147
	.weak	handle_reset
	.align	1
handle_reset:
.option push 
.option	norelax 
	la gp, __global_pointer$
     eaa:	20000197          	auipc	gp,0x20000
     eae:	a0618193          	addi	gp,gp,-1530 # 200008b0 <__global_pointer$>
C:\Users\29275\Desktop\WchWorkSPace\camCoreWithRTOS\obj/../Libraries/wch_libraries/Startup/startup_ch32v10x.S:150
.option	pop 
1:
	la sp, _eusrstack 
     eb2:	20004117          	auipc	sp,0x20004
     eb6:	14e10113          	addi	sp,sp,334 # 20005000 <_eusrstack>
C:\Users\29275\Desktop\WchWorkSPace\camCoreWithRTOS\obj/../Libraries/wch_libraries/Startup/startup_ch32v10x.S:153
2:
	/* Load data section from flash to RAM */
	la a0, _data_lma
     eba:	00007517          	auipc	a0,0x7
     ebe:	86650513          	addi	a0,a0,-1946 # 7720 <__fsymtab_end>
C:\Users\29275\Desktop\WchWorkSPace\camCoreWithRTOS\obj/../Libraries/wch_libraries/Startup/startup_ch32v10x.S:154
	la a1, _data_vma
     ec2:	1ffff597          	auipc	a1,0x1ffff
     ec6:	13e58593          	addi	a1,a1,318 # 20000000 <_data_vma>
C:\Users\29275\Desktop\WchWorkSPace\camCoreWithRTOS\obj/../Libraries/wch_libraries/Startup/startup_ch32v10x.S:155
	la a2, _edata
     eca:	83018613          	addi	a2,gp,-2000 # 200000e0 <_edata>
C:\Users\29275\Desktop\WchWorkSPace\camCoreWithRTOS\obj/../Libraries/wch_libraries/Startup/startup_ch32v10x.S:156
	bgeu a1, a2, 2f
     ece:	00c5fa63          	bgeu	a1,a2,ee2 <handle_reset+0x38>
C:\Users\29275\Desktop\WchWorkSPace\camCoreWithRTOS\obj/../Libraries/wch_libraries/Startup/startup_ch32v10x.S:158
1:
	lw t0, (a0)
     ed2:	00052283          	lw	t0,0(a0)
C:\Users\29275\Desktop\WchWorkSPace\camCoreWithRTOS\obj/../Libraries/wch_libraries/Startup/startup_ch32v10x.S:159
	sw t0, (a1)
     ed6:	0055a023          	sw	t0,0(a1)
C:\Users\29275\Desktop\WchWorkSPace\camCoreWithRTOS\obj/../Libraries/wch_libraries/Startup/startup_ch32v10x.S:160
	addi a0, a0, 4
     eda:	0511                	addi	a0,a0,4
C:\Users\29275\Desktop\WchWorkSPace\camCoreWithRTOS\obj/../Libraries/wch_libraries/Startup/startup_ch32v10x.S:161
	addi a1, a1, 4
     edc:	0591                	addi	a1,a1,4
C:\Users\29275\Desktop\WchWorkSPace\camCoreWithRTOS\obj/../Libraries/wch_libraries/Startup/startup_ch32v10x.S:162
	bltu a1, a2, 1b
     ede:	fec5eae3          	bltu	a1,a2,ed2 <handle_reset+0x28>
C:\Users\29275\Desktop\WchWorkSPace\camCoreWithRTOS\obj/../Libraries/wch_libraries/Startup/startup_ch32v10x.S:165
2:
	/* clear bss section */
	la a0, _sbss
     ee2:	83018513          	addi	a0,gp,-2000 # 200000e0 <_edata>
C:\Users\29275\Desktop\WchWorkSPace\camCoreWithRTOS\obj/../Libraries/wch_libraries/Startup/startup_ch32v10x.S:166
	la a1, _ebss
     ee6:	20001597          	auipc	a1,0x20001
     eea:	1ea58593          	addi	a1,a1,490 # 200020d0 <_ebss>
C:\Users\29275\Desktop\WchWorkSPace\camCoreWithRTOS\obj/../Libraries/wch_libraries/Startup/startup_ch32v10x.S:167
	bgeu a0, a1, 2f
     eee:	00b57763          	bgeu	a0,a1,efc <handle_reset+0x52>
C:\Users\29275\Desktop\WchWorkSPace\camCoreWithRTOS\obj/../Libraries/wch_libraries/Startup/startup_ch32v10x.S:169
1:
	sw zero, (a0)
     ef2:	00052023          	sw	zero,0(a0)
C:\Users\29275\Desktop\WchWorkSPace\camCoreWithRTOS\obj/../Libraries/wch_libraries/Startup/startup_ch32v10x.S:170
	addi a0, a0, 4
     ef6:	0511                	addi	a0,a0,4
C:\Users\29275\Desktop\WchWorkSPace\camCoreWithRTOS\obj/../Libraries/wch_libraries/Startup/startup_ch32v10x.S:171
	bltu a0, a1, 1b
     ef8:	feb56de3          	bltu	a0,a1,ef2 <handle_reset+0x48>
C:\Users\29275\Desktop\WchWorkSPace\camCoreWithRTOS\obj/../Libraries/wch_libraries/Startup/startup_ch32v10x.S:174
2:
	/* enable all interrupt */
  	li t0, 0x88
     efc:	08800293          	li	t0,136
C:\Users\29275\Desktop\WchWorkSPace\camCoreWithRTOS\obj/../Libraries/wch_libraries/Startup/startup_ch32v10x.S:175
  	csrs mstatus, t0
     f00:	3002a073          	csrs	mstatus,t0
C:\Users\29275\Desktop\WchWorkSPace\camCoreWithRTOS\obj/../Libraries/wch_libraries/Startup/startup_ch32v10x.S:176
	la t0, _vector_base
     f04:	fffff297          	auipc	t0,0xfffff
     f08:	13428293          	addi	t0,t0,308 # 38 <_einit>
C:\Users\29275\Desktop\WchWorkSPace\camCoreWithRTOS\obj/../Libraries/wch_libraries/Startup/startup_ch32v10x.S:177
 	ori t0, t0, 1
     f0c:	0012e293          	ori	t0,t0,1
C:\Users\29275\Desktop\WchWorkSPace\camCoreWithRTOS\obj/../Libraries/wch_libraries/Startup/startup_ch32v10x.S:178
	csrw mtvec, t0
     f10:	30529073          	csrw	mtvec,t0
C:\Users\29275\Desktop\WchWorkSPace\camCoreWithRTOS\obj/../Libraries/wch_libraries/Startup/startup_ch32v10x.S:182



  	jal  SystemInit
     f14:	05a040ef          	jal	ra,4f6e <SystemInit>
C:\Users\29275\Desktop\WchWorkSPace\camCoreWithRTOS\obj/../Libraries/wch_libraries/Startup/startup_ch32v10x.S:183
  	li a0, 0
     f18:	4501                	li	a0,0
C:\Users\29275\Desktop\WchWorkSPace\camCoreWithRTOS\obj/../Libraries/wch_libraries/Startup/startup_ch32v10x.S:184
    li a1, 0
     f1a:	4581                	li	a1,0
C:\Users\29275\Desktop\WchWorkSPace\camCoreWithRTOS\obj/../Libraries/wch_libraries/Startup/startup_ch32v10x.S:185
    call entry
     f1c:	432010ef          	jal	ra,234e <entry>
C:\Users\29275\Desktop\WchWorkSPace\camCoreWithRTOS\obj/../Libraries/wch_libraries/Startup/startup_ch32v10x.S:186
	la t0, entry //main
     f20:	00001297          	auipc	t0,0x1
     f24:	42e28293          	addi	t0,t0,1070 # 234e <entry>
C:\Users\29275\Desktop\WchWorkSPace\camCoreWithRTOS\obj/../Libraries/wch_libraries/Startup/startup_ch32v10x.S:187
	csrw mepc, t0
     f28:	34129073          	csrw	mepc,t0
C:\Users\29275\Desktop\WchWorkSPace\camCoreWithRTOS\obj/../Libraries/wch_libraries/Startup/startup_ch32v10x.S:188
	mret
     f2c:	30200073          	mret

00000f30 <ADC_RegularChannelConfig>:
ADC_RegularChannelConfig():
C:\Users\29275\Desktop\WchWorkSPace\camCoreWithRTOS\obj/../Libraries/wch_libraries/Peripheral/ch32v10x_adc.c:440
*******************************************************************************/
void ADC_RegularChannelConfig(ADC_TypeDef* ADCx, uint8_t ADC_Channel, uint8_t Rank, uint8_t ADC_SampleTime)
{
  uint32_t tmpreg1 = 0, tmpreg2 = 0;

  if (ADC_Channel > ADC_Channel_9)
     f30:	47a5                	li	a5,9
     f32:	04b7f763          	bgeu	a5,a1,f80 <ADC_RegularChannelConfig+0x50>
C:\Users\29275\Desktop\WchWorkSPace\camCoreWithRTOS\obj/../Libraries/wch_libraries/Peripheral/ch32v10x_adc.c:442
  {
    tmpreg1 = ADCx->SAMPTR1;
     f36:	00c52883          	lw	a7,12(a0)
C:\Users\29275\Desktop\WchWorkSPace\camCoreWithRTOS\obj/../Libraries/wch_libraries/Peripheral/ch32v10x_adc.c:443
    tmpreg2 = SAMPTR1_SMP_Set << (3 * (ADC_Channel - 10));
     f3a:	ff658813          	addi	a6,a1,-10
     f3e:	00181713          	slli	a4,a6,0x1
     f42:	9742                	add	a4,a4,a6
     f44:	479d                	li	a5,7
     f46:	00e797b3          	sll	a5,a5,a4
C:\Users\29275\Desktop\WchWorkSPace\camCoreWithRTOS\obj/../Libraries/wch_libraries/Peripheral/ch32v10x_adc.c:444
    tmpreg1 &= ~tmpreg2;
     f4a:	fff7c793          	not	a5,a5
     f4e:	0117f7b3          	and	a5,a5,a7
C:\Users\29275\Desktop\WchWorkSPace\camCoreWithRTOS\obj/../Libraries/wch_libraries/Peripheral/ch32v10x_adc.c:445
    tmpreg2 = (uint32_t)ADC_SampleTime << (3 * (ADC_Channel - 10));
     f52:	00e696b3          	sll	a3,a3,a4
C:\Users\29275\Desktop\WchWorkSPace\camCoreWithRTOS\obj/../Libraries/wch_libraries/Peripheral/ch32v10x_adc.c:446
    tmpreg1 |= tmpreg2;
     f56:	8edd                	or	a3,a3,a5
C:\Users\29275\Desktop\WchWorkSPace\camCoreWithRTOS\obj/../Libraries/wch_libraries/Peripheral/ch32v10x_adc.c:447
    ADCx->SAMPTR1 = tmpreg1;
     f58:	c554                	sw	a3,12(a0)
C:\Users\29275\Desktop\WchWorkSPace\camCoreWithRTOS\obj/../Libraries/wch_libraries/Peripheral/ch32v10x_adc.c:459
    tmpreg2 = (uint32_t)ADC_SampleTime << (3 * ADC_Channel);
    tmpreg1 |= tmpreg2;
    ADCx->SAMPTR2 = tmpreg1;
  }

  if (Rank < 7)
     f5a:	4799                	li	a5,6
     f5c:	04c7e363          	bltu	a5,a2,fa2 <ADC_RegularChannelConfig+0x72>
C:\Users\29275\Desktop\WchWorkSPace\camCoreWithRTOS\obj/../Libraries/wch_libraries/Peripheral/ch32v10x_adc.c:461
  {
    tmpreg1 = ADCx->RSQR3;
     f60:	5958                	lw	a4,52(a0)
C:\Users\29275\Desktop\WchWorkSPace\camCoreWithRTOS\obj/../Libraries/wch_libraries/Peripheral/ch32v10x_adc.c:462
    tmpreg2 = RSQR3_SQ_Set << (5 * (Rank - 1));
     f62:	167d                	addi	a2,a2,-1
     f64:	00261793          	slli	a5,a2,0x2
     f68:	963e                	add	a2,a2,a5
     f6a:	47fd                	li	a5,31
     f6c:	00c797b3          	sll	a5,a5,a2
C:\Users\29275\Desktop\WchWorkSPace\camCoreWithRTOS\obj/../Libraries/wch_libraries/Peripheral/ch32v10x_adc.c:463
    tmpreg1 &= ~tmpreg2;
     f70:	fff7c793          	not	a5,a5
     f74:	8ff9                	and	a5,a5,a4
C:\Users\29275\Desktop\WchWorkSPace\camCoreWithRTOS\obj/../Libraries/wch_libraries/Peripheral/ch32v10x_adc.c:464
    tmpreg2 = (uint32_t)ADC_Channel << (5 * (Rank - 1));
     f76:	00c59633          	sll	a2,a1,a2
C:\Users\29275\Desktop\WchWorkSPace\camCoreWithRTOS\obj/../Libraries/wch_libraries/Peripheral/ch32v10x_adc.c:465
    tmpreg1 |= tmpreg2;
     f7a:	8e5d                	or	a2,a2,a5
C:\Users\29275\Desktop\WchWorkSPace\camCoreWithRTOS\obj/../Libraries/wch_libraries/Peripheral/ch32v10x_adc.c:466
    ADCx->RSQR3 = tmpreg1;
     f7c:	d950                	sw	a2,52(a0)
     f7e:	8082                	ret
C:\Users\29275\Desktop\WchWorkSPace\camCoreWithRTOS\obj/../Libraries/wch_libraries/Peripheral/ch32v10x_adc.c:451
    tmpreg1 = ADCx->SAMPTR2;
     f80:	01052803          	lw	a6,16(a0)
C:\Users\29275\Desktop\WchWorkSPace\camCoreWithRTOS\obj/../Libraries/wch_libraries/Peripheral/ch32v10x_adc.c:452
    tmpreg2 = SAMPTR2_SMP_Set << (3 * ADC_Channel);
     f84:	00159713          	slli	a4,a1,0x1
     f88:	972e                	add	a4,a4,a1
     f8a:	479d                	li	a5,7
     f8c:	00e797b3          	sll	a5,a5,a4
C:\Users\29275\Desktop\WchWorkSPace\camCoreWithRTOS\obj/../Libraries/wch_libraries/Peripheral/ch32v10x_adc.c:453
    tmpreg1 &= ~tmpreg2;
     f90:	fff7c793          	not	a5,a5
     f94:	0107f7b3          	and	a5,a5,a6
C:\Users\29275\Desktop\WchWorkSPace\camCoreWithRTOS\obj/../Libraries/wch_libraries/Peripheral/ch32v10x_adc.c:454
    tmpreg2 = (uint32_t)ADC_SampleTime << (3 * ADC_Channel);
     f98:	00e696b3          	sll	a3,a3,a4
C:\Users\29275\Desktop\WchWorkSPace\camCoreWithRTOS\obj/../Libraries/wch_libraries/Peripheral/ch32v10x_adc.c:455
    tmpreg1 |= tmpreg2;
     f9c:	8edd                	or	a3,a3,a5
C:\Users\29275\Desktop\WchWorkSPace\camCoreWithRTOS\obj/../Libraries/wch_libraries/Peripheral/ch32v10x_adc.c:456
    ADCx->SAMPTR2 = tmpreg1;
     f9e:	c914                	sw	a3,16(a0)
     fa0:	bf6d                	j	f5a <ADC_RegularChannelConfig+0x2a>
C:\Users\29275\Desktop\WchWorkSPace\camCoreWithRTOS\obj/../Libraries/wch_libraries/Peripheral/ch32v10x_adc.c:468
  }
  else if (Rank < 13)
     fa2:	47b1                	li	a5,12
     fa4:	02c7e363          	bltu	a5,a2,fca <ADC_RegularChannelConfig+0x9a>
C:\Users\29275\Desktop\WchWorkSPace\camCoreWithRTOS\obj/../Libraries/wch_libraries/Peripheral/ch32v10x_adc.c:470
  {
    tmpreg1 = ADCx->RSQR2;
     fa8:	5914                	lw	a3,48(a0)
C:\Users\29275\Desktop\WchWorkSPace\camCoreWithRTOS\obj/../Libraries/wch_libraries/Peripheral/ch32v10x_adc.c:471
    tmpreg2 = RSQR2_SQ_Set << (5 * (Rank - 7));
     faa:	ff960713          	addi	a4,a2,-7
     fae:	00271613          	slli	a2,a4,0x2
     fb2:	963a                	add	a2,a2,a4
     fb4:	47fd                	li	a5,31
     fb6:	00c797b3          	sll	a5,a5,a2
C:\Users\29275\Desktop\WchWorkSPace\camCoreWithRTOS\obj/../Libraries/wch_libraries/Peripheral/ch32v10x_adc.c:472
    tmpreg1 &= ~tmpreg2;
     fba:	fff7c793          	not	a5,a5
     fbe:	8ff5                	and	a5,a5,a3
C:\Users\29275\Desktop\WchWorkSPace\camCoreWithRTOS\obj/../Libraries/wch_libraries/Peripheral/ch32v10x_adc.c:473
    tmpreg2 = (uint32_t)ADC_Channel << (5 * (Rank - 7));
     fc0:	00c59633          	sll	a2,a1,a2
C:\Users\29275\Desktop\WchWorkSPace\camCoreWithRTOS\obj/../Libraries/wch_libraries/Peripheral/ch32v10x_adc.c:474
    tmpreg1 |= tmpreg2;
     fc4:	8e5d                	or	a2,a2,a5
C:\Users\29275\Desktop\WchWorkSPace\camCoreWithRTOS\obj/../Libraries/wch_libraries/Peripheral/ch32v10x_adc.c:475
    ADCx->RSQR2 = tmpreg1;
     fc6:	d910                	sw	a2,48(a0)
     fc8:	8082                	ret
C:\Users\29275\Desktop\WchWorkSPace\camCoreWithRTOS\obj/../Libraries/wch_libraries/Peripheral/ch32v10x_adc.c:479
  }
  else
  {
    tmpreg1 = ADCx->RSQR1;
     fca:	5554                	lw	a3,44(a0)
C:\Users\29275\Desktop\WchWorkSPace\camCoreWithRTOS\obj/../Libraries/wch_libraries/Peripheral/ch32v10x_adc.c:480
    tmpreg2 = RSQR1_SQ_Set << (5 * (Rank - 13));
     fcc:	164d                	addi	a2,a2,-13
     fce:	00261713          	slli	a4,a2,0x2
     fd2:	963a                	add	a2,a2,a4
     fd4:	47fd                	li	a5,31
     fd6:	00c797b3          	sll	a5,a5,a2
C:\Users\29275\Desktop\WchWorkSPace\camCoreWithRTOS\obj/../Libraries/wch_libraries/Peripheral/ch32v10x_adc.c:481
    tmpreg1 &= ~tmpreg2;
     fda:	fff7c793          	not	a5,a5
     fde:	8ff5                	and	a5,a5,a3
C:\Users\29275\Desktop\WchWorkSPace\camCoreWithRTOS\obj/../Libraries/wch_libraries/Peripheral/ch32v10x_adc.c:482
    tmpreg2 = (uint32_t)ADC_Channel << (5 * (Rank - 13));
     fe0:	00c595b3          	sll	a1,a1,a2
C:\Users\29275\Desktop\WchWorkSPace\camCoreWithRTOS\obj/../Libraries/wch_libraries/Peripheral/ch32v10x_adc.c:483
    tmpreg1 |= tmpreg2;
     fe4:	8ddd                	or	a1,a1,a5
C:\Users\29275\Desktop\WchWorkSPace\camCoreWithRTOS\obj/../Libraries/wch_libraries/Peripheral/ch32v10x_adc.c:484
    ADCx->RSQR1 = tmpreg1;
     fe6:	d54c                	sw	a1,44(a0)
C:\Users\29275\Desktop\WchWorkSPace\camCoreWithRTOS\obj/../Libraries/wch_libraries/Peripheral/ch32v10x_adc.c:486
  }
}
     fe8:	8082                	ret

00000fea <DMA_GetFlagStatus>:
DMA_GetFlagStatus():
C:\Users\29275\Desktop\WchWorkSPace\camCoreWithRTOS\obj/../Libraries/wch_libraries/Peripheral/ch32v10x_dma.c:294
FlagStatus DMA_GetFlagStatus(uint32_t DMAy_FLAG)
{
  FlagStatus bitstatus = RESET;
  uint32_t tmpreg = 0;
  
  if ((DMAy_FLAG & FLAG_Mask) != (uint32_t)RESET)
     fea:	00351793          	slli	a5,a0,0x3
     fee:	0007da63          	bgez	a5,1002 <DMA_GetFlagStatus+0x18>
C:\Users\29275\Desktop\WchWorkSPace\camCoreWithRTOS\obj/../Libraries/wch_libraries/Peripheral/ch32v10x_dma.c:296
  {
    tmpreg = DMA2->INTFR ;
     ff2:	400207b7          	lui	a5,0x40020
     ff6:	4007a783          	lw	a5,1024(a5) # 40020400 <_eusrstack+0x2001b400>
C:\Users\29275\Desktop\WchWorkSPace\camCoreWithRTOS\obj/../Libraries/wch_libraries/Peripheral/ch32v10x_dma.c:303
  else
  {
    tmpreg = DMA1->INTFR ;
  }

  if ((tmpreg & DMAy_FLAG) != (uint32_t)RESET)
     ffa:	8d7d                	and	a0,a0,a5
C:\Users\29275\Desktop\WchWorkSPace\camCoreWithRTOS\obj/../Libraries/wch_libraries/Peripheral/ch32v10x_dma.c:313
  {
    bitstatus = RESET;
  }
  
  return  bitstatus;
}
     ffc:	00a03533          	snez	a0,a0
    1000:	8082                	ret
C:\Users\29275\Desktop\WchWorkSPace\camCoreWithRTOS\obj/../Libraries/wch_libraries/Peripheral/ch32v10x_dma.c:300
    tmpreg = DMA1->INTFR ;
    1002:	400207b7          	lui	a5,0x40020
    1006:	439c                	lw	a5,0(a5)
    1008:	bfcd                	j	ffa <DMA_GetFlagStatus+0x10>

0000100a <DMA_ClearFlag>:
DMA_ClearFlag():
C:\Users\29275\Desktop\WchWorkSPace\camCoreWithRTOS\obj/../Libraries/wch_libraries/Peripheral/ch32v10x_dma.c:372
*                      DMA2_FLAG_TE5: DMA2 Channel5 transfer error flag.
* Return         : None 
*********************************************************************************/
void DMA_ClearFlag(uint32_t DMAy_FLAG)
{
  if ((DMAy_FLAG & FLAG_Mask) != (uint32_t)RESET)
    100a:	00351793          	slli	a5,a0,0x3
    100e:	0007d763          	bgez	a5,101c <DMA_ClearFlag+0x12>
C:\Users\29275\Desktop\WchWorkSPace\camCoreWithRTOS\obj/../Libraries/wch_libraries/Peripheral/ch32v10x_dma.c:374
  {
    DMA2->INTFCR = DMAy_FLAG;
    1012:	400207b7          	lui	a5,0x40020
    1016:	40a7a223          	sw	a0,1028(a5) # 40020404 <_eusrstack+0x2001b404>
    101a:	8082                	ret
C:\Users\29275\Desktop\WchWorkSPace\camCoreWithRTOS\obj/../Libraries/wch_libraries/Peripheral/ch32v10x_dma.c:378
  }
  else
  {
    DMA1->INTFCR = DMAy_FLAG;
    101c:	400207b7          	lui	a5,0x40020
    1020:	c3c8                	sw	a0,4(a5)
C:\Users\29275\Desktop\WchWorkSPace\camCoreWithRTOS\obj/../Libraries/wch_libraries/Peripheral/ch32v10x_dma.c:380
  }
}
    1022:	8082                	ret

00001024 <EXTI_GetITStatus>:
EXTI_GetITStatus():
C:\Users\29275\Desktop\WchWorkSPace\camCoreWithRTOS\obj/../Libraries/wch_libraries/Peripheral/ch32v10x_exti.c:135
ITStatus EXTI_GetITStatus(uint32_t EXTI_Line)
{
  ITStatus bitstatus = RESET;
  uint32_t enablestatus = 0;
  
  enablestatus =  EXTI->INTENR & EXTI_Line;
    1024:	40010737          	lui	a4,0x40010
    1028:	40072783          	lw	a5,1024(a4) # 40010400 <_eusrstack+0x2000b400>
C:\Users\29275\Desktop\WchWorkSPace\camCoreWithRTOS\obj/../Libraries/wch_libraries/Peripheral/ch32v10x_exti.c:136
  if (((EXTI->INTFR & EXTI_Line) != (uint32_t)RESET) && (enablestatus != (uint32_t)RESET))
    102c:	41472703          	lw	a4,1044(a4)
    1030:	8f69                	and	a4,a4,a0
    1032:	c709                	beqz	a4,103c <EXTI_GetITStatus+0x18>
C:\Users\29275\Desktop\WchWorkSPace\camCoreWithRTOS\obj/../Libraries/wch_libraries/Peripheral/ch32v10x_exti.c:135 (discriminator 1)
  enablestatus =  EXTI->INTENR & EXTI_Line;
    1034:	8d7d                	and	a0,a0,a5
C:\Users\29275\Desktop\WchWorkSPace\camCoreWithRTOS\obj/../Libraries/wch_libraries/Peripheral/ch32v10x_exti.c:136 (discriminator 1)
  if (((EXTI->INTFR & EXTI_Line) != (uint32_t)RESET) && (enablestatus != (uint32_t)RESET))
    1036:	00a03533          	snez	a0,a0
    103a:	8082                	ret
C:\Users\29275\Desktop\WchWorkSPace\camCoreWithRTOS\obj/../Libraries/wch_libraries/Peripheral/ch32v10x_exti.c:142
  {
    bitstatus = SET;
  }
  else
  {
    bitstatus = RESET;
    103c:	4501                	li	a0,0
C:\Users\29275\Desktop\WchWorkSPace\camCoreWithRTOS\obj/../Libraries/wch_libraries/Peripheral/ch32v10x_exti.c:145
  }
  return bitstatus;
}
    103e:	8082                	ret

00001040 <EXTI_ClearITPendingBit>:
EXTI_ClearITPendingBit():
C:\Users\29275\Desktop\WchWorkSPace\camCoreWithRTOS\obj/../Libraries/wch_libraries/Peripheral/ch32v10x_exti.c:155
* Input          : EXTI_Line: specifies the EXTI lines to be enabled or disabled.
* Return         : None
*********************************************************************************/
void EXTI_ClearITPendingBit(uint32_t EXTI_Line)
{  
  EXTI->INTFR = EXTI_Line;
    1040:	400107b7          	lui	a5,0x40010
    1044:	40a7aa23          	sw	a0,1044(a5) # 40010414 <_eusrstack+0x2000b414>
C:\Users\29275\Desktop\WchWorkSPace\camCoreWithRTOS\obj/../Libraries/wch_libraries/Peripheral/ch32v10x_exti.c:156
}
    1048:	8082                	ret

0000104a <GPIO_Init>:
GPIO_Init():
C:\Users\29275\Desktop\WchWorkSPace\camCoreWithRTOS\obj/../Libraries/wch_libraries/Peripheral/ch32v10x_gpio.c:92
void GPIO_Init(GPIO_TypeDef* GPIOx, GPIO_InitTypeDef* GPIO_InitStruct)
{
  uint32_t currentmode = 0x00, currentpin = 0x00, pinpos = 0x00, pos = 0x00;
  uint32_t tmpreg = 0x00, pinmask = 0x00;

  currentmode = ((uint32_t)GPIO_InitStruct->GPIO_Mode) & ((uint32_t)0x0F);
    104a:	459c                	lw	a5,8(a1)
    104c:	00f7f893          	andi	a7,a5,15
C:\Users\29275\Desktop\WchWorkSPace\camCoreWithRTOS\obj/../Libraries/wch_libraries/Peripheral/ch32v10x_gpio.c:94
	
  if ((((uint32_t)GPIO_InitStruct->GPIO_Mode) & ((uint32_t)0x10)) != 0x00)
    1050:	8bc1                	andi	a5,a5,16
    1052:	c781                	beqz	a5,105a <GPIO_Init+0x10>
C:\Users\29275\Desktop\WchWorkSPace\camCoreWithRTOS\obj/../Libraries/wch_libraries/Peripheral/ch32v10x_gpio.c:96
  { 
    currentmode |= (uint32_t)GPIO_InitStruct->GPIO_Speed;
    1054:	41dc                	lw	a5,4(a1)
    1056:	00f8e8b3          	or	a7,a7,a5
C:\Users\29275\Desktop\WchWorkSPace\camCoreWithRTOS\obj/../Libraries/wch_libraries/Peripheral/ch32v10x_gpio.c:99
  }

  if (((uint32_t)GPIO_InitStruct->GPIO_Pin & ((uint32_t)0x00FF)) != 0x00)
    105a:	0005c783          	lbu	a5,0(a1)
    105e:	cba9                	beqz	a5,10b0 <GPIO_Init+0x66>
C:\Users\29275\Desktop\WchWorkSPace\camCoreWithRTOS\obj/../Libraries/wch_libraries/Peripheral/ch32v10x_gpio.c:101
  {
    tmpreg = GPIOx->CFGLR;
    1060:	4110                	lw	a2,0(a0)
C:\Users\29275\Desktop\WchWorkSPace\camCoreWithRTOS\obj/../Libraries/wch_libraries/Peripheral/ch32v10x_gpio.c:103
		
    for (pinpos = 0x00; pinpos < 0x08; pinpos++)
    1062:	4781                	li	a5,0
C:\Users\29275\Desktop\WchWorkSPace\camCoreWithRTOS\obj/../Libraries/wch_libraries/Peripheral/ch32v10x_gpio.c:105
    {
      pos = ((uint32_t)0x01) << pinpos;
    1064:	4e05                	li	t3,1
C:\Users\29275\Desktop\WchWorkSPace\camCoreWithRTOS\obj/../Libraries/wch_libraries/Peripheral/ch32v10x_gpio.c:111
      currentpin = (GPIO_InitStruct->GPIO_Pin) & pos;
			
      if (currentpin == pos)
      {
        pos = pinpos << 2;
        pinmask = ((uint32_t)0x0F) << pos;
    1066:	4f3d                	li	t5,15
C:\Users\29275\Desktop\WchWorkSPace\camCoreWithRTOS\obj/../Libraries/wch_libraries/Peripheral/ch32v10x_gpio.c:115
        tmpreg &= ~pinmask;
        tmpreg |= (currentmode << pos);

        if (GPIO_InitStruct->GPIO_Mode == GPIO_Mode_IPD)
    1068:	02800e93          	li	t4,40
C:\Users\29275\Desktop\WchWorkSPace\camCoreWithRTOS\obj/../Libraries/wch_libraries/Peripheral/ch32v10x_gpio.c:121
        {
          GPIOx->BCR = (((uint32_t)0x01) << pinpos);
        }
        else
        {
          if (GPIO_InitStruct->GPIO_Mode == GPIO_Mode_IPU)
    106c:	04800f93          	li	t6,72
C:\Users\29275\Desktop\WchWorkSPace\camCoreWithRTOS\obj/../Libraries/wch_libraries/Peripheral/ch32v10x_gpio.c:103
    for (pinpos = 0x00; pinpos < 0x08; pinpos++)
    1070:	4321                	li	t1,8
    1072:	a029                	j	107c <GPIO_Init+0x32>
C:\Users\29275\Desktop\WchWorkSPace\camCoreWithRTOS\obj/../Libraries/wch_libraries/Peripheral/ch32v10x_gpio.c:117
          GPIOx->BCR = (((uint32_t)0x01) << pinpos);
    1074:	c954                	sw	a3,20(a0)
C:\Users\29275\Desktop\WchWorkSPace\camCoreWithRTOS\obj/../Libraries/wch_libraries/Peripheral/ch32v10x_gpio.c:103 (discriminator 2)
    for (pinpos = 0x00; pinpos < 0x08; pinpos++)
    1076:	0785                	addi	a5,a5,1
    1078:	02678b63          	beq	a5,t1,10ae <GPIO_Init+0x64>
C:\Users\29275\Desktop\WchWorkSPace\camCoreWithRTOS\obj/../Libraries/wch_libraries/Peripheral/ch32v10x_gpio.c:105
      pos = ((uint32_t)0x01) << pinpos;
    107c:	00fe16b3          	sll	a3,t3,a5
C:\Users\29275\Desktop\WchWorkSPace\camCoreWithRTOS\obj/../Libraries/wch_libraries/Peripheral/ch32v10x_gpio.c:106
      currentpin = (GPIO_InitStruct->GPIO_Pin) & pos;
    1080:	0005d703          	lhu	a4,0(a1)
    1084:	8f75                	and	a4,a4,a3
C:\Users\29275\Desktop\WchWorkSPace\camCoreWithRTOS\obj/../Libraries/wch_libraries/Peripheral/ch32v10x_gpio.c:108
      if (currentpin == pos)
    1086:	fee698e3          	bne	a3,a4,1076 <GPIO_Init+0x2c>
C:\Users\29275\Desktop\WchWorkSPace\camCoreWithRTOS\obj/../Libraries/wch_libraries/Peripheral/ch32v10x_gpio.c:110
        pos = pinpos << 2;
    108a:	00279713          	slli	a4,a5,0x2
C:\Users\29275\Desktop\WchWorkSPace\camCoreWithRTOS\obj/../Libraries/wch_libraries/Peripheral/ch32v10x_gpio.c:111
        pinmask = ((uint32_t)0x0F) << pos;
    108e:	00ef1833          	sll	a6,t5,a4
C:\Users\29275\Desktop\WchWorkSPace\camCoreWithRTOS\obj/../Libraries/wch_libraries/Peripheral/ch32v10x_gpio.c:112
        tmpreg &= ~pinmask;
    1092:	fff84813          	not	a6,a6
    1096:	00c87633          	and	a2,a6,a2
C:\Users\29275\Desktop\WchWorkSPace\camCoreWithRTOS\obj/../Libraries/wch_libraries/Peripheral/ch32v10x_gpio.c:113
        tmpreg |= (currentmode << pos);
    109a:	00e89733          	sll	a4,a7,a4
    109e:	8e59                	or	a2,a2,a4
C:\Users\29275\Desktop\WchWorkSPace\camCoreWithRTOS\obj/../Libraries/wch_libraries/Peripheral/ch32v10x_gpio.c:115
        if (GPIO_InitStruct->GPIO_Mode == GPIO_Mode_IPD)
    10a0:	4598                	lw	a4,8(a1)
    10a2:	fdd709e3          	beq	a4,t4,1074 <GPIO_Init+0x2a>
C:\Users\29275\Desktop\WchWorkSPace\camCoreWithRTOS\obj/../Libraries/wch_libraries/Peripheral/ch32v10x_gpio.c:121
          if (GPIO_InitStruct->GPIO_Mode == GPIO_Mode_IPU)
    10a6:	fdf718e3          	bne	a4,t6,1076 <GPIO_Init+0x2c>
C:\Users\29275\Desktop\WchWorkSPace\camCoreWithRTOS\obj/../Libraries/wch_libraries/Peripheral/ch32v10x_gpio.c:123
          {
            GPIOx->BSHR = (((uint32_t)0x01) << pinpos);
    10aa:	c914                	sw	a3,16(a0)
    10ac:	b7e9                	j	1076 <GPIO_Init+0x2c>
C:\Users\29275\Desktop\WchWorkSPace\camCoreWithRTOS\obj/../Libraries/wch_libraries/Peripheral/ch32v10x_gpio.c:128
          }
        }
      }
    }
    GPIOx->CFGLR = tmpreg;
    10ae:	c110                	sw	a2,0(a0)
C:\Users\29275\Desktop\WchWorkSPace\camCoreWithRTOS\obj/../Libraries/wch_libraries/Peripheral/ch32v10x_gpio.c:131
  }

  if (GPIO_InitStruct->GPIO_Pin > 0x00FF)
    10b0:	0005d703          	lhu	a4,0(a1)
    10b4:	0ff00793          	li	a5,255
    10b8:	04e7fd63          	bgeu	a5,a4,1112 <GPIO_Init+0xc8>
C:\Users\29275\Desktop\WchWorkSPace\camCoreWithRTOS\obj/../Libraries/wch_libraries/Peripheral/ch32v10x_gpio.c:133
  {
    tmpreg = GPIOx->CFGHR;
    10bc:	4150                	lw	a2,4(a0)
    10be:	47a1                	li	a5,8
C:\Users\29275\Desktop\WchWorkSPace\camCoreWithRTOS\obj/../Libraries/wch_libraries/Peripheral/ch32v10x_gpio.c:137
		
    for (pinpos = 0x00; pinpos < 0x08; pinpos++)
    {
      pos = (((uint32_t)0x01) << (pinpos + 0x08));
    10c0:	4e05                	li	t3,1
C:\Users\29275\Desktop\WchWorkSPace\camCoreWithRTOS\obj/../Libraries/wch_libraries/Peripheral/ch32v10x_gpio.c:143
      currentpin = ((GPIO_InitStruct->GPIO_Pin) & pos);
			
      if (currentpin == pos)
      {
        pos = pinpos << 2;
        pinmask = ((uint32_t)0x0F) << pos;
    10c2:	4fbd                	li	t6,15
C:\Users\29275\Desktop\WchWorkSPace\camCoreWithRTOS\obj/../Libraries/wch_libraries/Peripheral/ch32v10x_gpio.c:147
        tmpreg &= ~pinmask;
        tmpreg |= (currentmode << pos);

        if (GPIO_InitStruct->GPIO_Mode == GPIO_Mode_IPD)
    10c4:	02800f13          	li	t5,40
C:\Users\29275\Desktop\WchWorkSPace\camCoreWithRTOS\obj/../Libraries/wch_libraries/Peripheral/ch32v10x_gpio.c:152
        {
          GPIOx->BCR = (((uint32_t)0x01) << (pinpos + 0x08));
        }

        if (GPIO_InitStruct->GPIO_Mode == GPIO_Mode_IPU)
    10c8:	04800e93          	li	t4,72
C:\Users\29275\Desktop\WchWorkSPace\camCoreWithRTOS\obj/../Libraries/wch_libraries/Peripheral/ch32v10x_gpio.c:135
    for (pinpos = 0x00; pinpos < 0x08; pinpos++)
    10cc:	4341                	li	t1,16
    10ce:	a031                	j	10da <GPIO_Init+0x90>
C:\Users\29275\Desktop\WchWorkSPace\camCoreWithRTOS\obj/../Libraries/wch_libraries/Peripheral/ch32v10x_gpio.c:149
          GPIOx->BCR = (((uint32_t)0x01) << (pinpos + 0x08));
    10d0:	c954                	sw	a3,20(a0)
    10d2:	a815                	j	1106 <GPIO_Init+0xbc>
    10d4:	0785                	addi	a5,a5,1
C:\Users\29275\Desktop\WchWorkSPace\camCoreWithRTOS\obj/../Libraries/wch_libraries/Peripheral/ch32v10x_gpio.c:135 (discriminator 2)
    for (pinpos = 0x00; pinpos < 0x08; pinpos++)
    10d6:	02678d63          	beq	a5,t1,1110 <GPIO_Init+0xc6>
C:\Users\29275\Desktop\WchWorkSPace\camCoreWithRTOS\obj/../Libraries/wch_libraries/Peripheral/ch32v10x_gpio.c:137
      pos = (((uint32_t)0x01) << (pinpos + 0x08));
    10da:	00fe16b3          	sll	a3,t3,a5
C:\Users\29275\Desktop\WchWorkSPace\camCoreWithRTOS\obj/../Libraries/wch_libraries/Peripheral/ch32v10x_gpio.c:138
      currentpin = ((GPIO_InitStruct->GPIO_Pin) & pos);
    10de:	0005d703          	lhu	a4,0(a1)
    10e2:	8f75                	and	a4,a4,a3
C:\Users\29275\Desktop\WchWorkSPace\camCoreWithRTOS\obj/../Libraries/wch_libraries/Peripheral/ch32v10x_gpio.c:140
      if (currentpin == pos)
    10e4:	fee698e3          	bne	a3,a4,10d4 <GPIO_Init+0x8a>
C:\Users\29275\Desktop\WchWorkSPace\camCoreWithRTOS\obj/../Libraries/wch_libraries/Peripheral/ch32v10x_gpio.c:142
        pos = pinpos << 2;
    10e8:	00279713          	slli	a4,a5,0x2
    10ec:	1701                	addi	a4,a4,-32
C:\Users\29275\Desktop\WchWorkSPace\camCoreWithRTOS\obj/../Libraries/wch_libraries/Peripheral/ch32v10x_gpio.c:143
        pinmask = ((uint32_t)0x0F) << pos;
    10ee:	00ef9833          	sll	a6,t6,a4
C:\Users\29275\Desktop\WchWorkSPace\camCoreWithRTOS\obj/../Libraries/wch_libraries/Peripheral/ch32v10x_gpio.c:144
        tmpreg &= ~pinmask;
    10f2:	fff84813          	not	a6,a6
    10f6:	00c87633          	and	a2,a6,a2
C:\Users\29275\Desktop\WchWorkSPace\camCoreWithRTOS\obj/../Libraries/wch_libraries/Peripheral/ch32v10x_gpio.c:145
        tmpreg |= (currentmode << pos);
    10fa:	00e89733          	sll	a4,a7,a4
    10fe:	8e59                	or	a2,a2,a4
C:\Users\29275\Desktop\WchWorkSPace\camCoreWithRTOS\obj/../Libraries/wch_libraries/Peripheral/ch32v10x_gpio.c:147
        if (GPIO_InitStruct->GPIO_Mode == GPIO_Mode_IPD)
    1100:	4598                	lw	a4,8(a1)
    1102:	fde707e3          	beq	a4,t5,10d0 <GPIO_Init+0x86>
C:\Users\29275\Desktop\WchWorkSPace\camCoreWithRTOS\obj/../Libraries/wch_libraries/Peripheral/ch32v10x_gpio.c:152
        if (GPIO_InitStruct->GPIO_Mode == GPIO_Mode_IPU)
    1106:	4598                	lw	a4,8(a1)
    1108:	fdd716e3          	bne	a4,t4,10d4 <GPIO_Init+0x8a>
C:\Users\29275\Desktop\WchWorkSPace\camCoreWithRTOS\obj/../Libraries/wch_libraries/Peripheral/ch32v10x_gpio.c:154
        {
          GPIOx->BSHR = (((uint32_t)0x01) << (pinpos + 0x08));
    110c:	c914                	sw	a3,16(a0)
    110e:	b7d9                	j	10d4 <GPIO_Init+0x8a>
C:\Users\29275\Desktop\WchWorkSPace\camCoreWithRTOS\obj/../Libraries/wch_libraries/Peripheral/ch32v10x_gpio.c:158
        }
      }
    }
    GPIOx->CFGHR = tmpreg;
    1110:	c150                	sw	a2,4(a0)
C:\Users\29275\Desktop\WchWorkSPace\camCoreWithRTOS\obj/../Libraries/wch_libraries/Peripheral/ch32v10x_gpio.c:160
  }
}
    1112:	8082                	ret

00001114 <GPIO_WriteBit>:
GPIO_WriteBit():
C:\Users\29275\Desktop\WchWorkSPace\camCoreWithRTOS\obj/../Libraries/wch_libraries/Peripheral/ch32v10x_gpio.c:283
*                    Bit_SetH: to set the port pin.                  
* Return         : None
*******************************************************************************/
void GPIO_WriteBit(GPIO_TypeDef* GPIOx, uint16_t GPIO_Pin, BitAction BitVal)
{
  if (BitVal != Bit_RESET)
    1114:	c219                	beqz	a2,111a <GPIO_WriteBit+0x6>
C:\Users\29275\Desktop\WchWorkSPace\camCoreWithRTOS\obj/../Libraries/wch_libraries/Peripheral/ch32v10x_gpio.c:285
  {
    GPIOx->BSHR = GPIO_Pin;
    1116:	c90c                	sw	a1,16(a0)
    1118:	8082                	ret
C:\Users\29275\Desktop\WchWorkSPace\camCoreWithRTOS\obj/../Libraries/wch_libraries/Peripheral/ch32v10x_gpio.c:289
  }
  else
  {
    GPIOx->BCR = GPIO_Pin;
    111a:	c94c                	sw	a1,20(a0)
C:\Users\29275\Desktop\WchWorkSPace\camCoreWithRTOS\obj/../Libraries/wch_libraries/Peripheral/ch32v10x_gpio.c:291
  }
}
    111c:	8082                	ret

0000111e <GPIO_PinRemapConfig>:
GPIO_PinRemapConfig():
C:\Users\29275\Desktop\WchWorkSPace\camCoreWithRTOS\obj/../Libraries/wch_libraries/Peripheral/ch32v10x_gpio.c:405
*******************************************************************************/
void GPIO_PinRemapConfig(uint32_t GPIO_Remap, FunctionalState NewState)
{
  uint32_t tmp = 0x00, tmp1 = 0x00, tmpreg = 0x00, tmpmask = 0x00;

  if((GPIO_Remap & 0x80000000) == 0x80000000)
    111e:	862a                	mv	a2,a0
    1120:	04054063          	bltz	a0,1160 <GPIO_PinRemapConfig+0x42>
C:\Users\29275\Desktop\WchWorkSPace\camCoreWithRTOS\obj/../Libraries/wch_libraries/Peripheral/ch32v10x_gpio.c:411
  {
    tmpreg = AFIO->PCFR2;
  }
  else
  {
    tmpreg = AFIO->PCFR1;
    1124:	400107b7          	lui	a5,0x40010
    1128:	43dc                	lw	a5,4(a5)
C:\Users\29275\Desktop\WchWorkSPace\camCoreWithRTOS\obj/../Libraries/wch_libraries/Peripheral/ch32v10x_gpio.c:415
  }

  tmpmask = (GPIO_Remap & DBGAFR_POSITION_MASK) >> 0x10;
  tmp = GPIO_Remap & LSB_MASK;
    112a:	01051693          	slli	a3,a0,0x10
    112e:	82c1                	srli	a3,a3,0x10
C:\Users\29275\Desktop\WchWorkSPace\camCoreWithRTOS\obj/../Libraries/wch_libraries/Peripheral/ch32v10x_gpio.c:417

  if ((GPIO_Remap & (DBGAFR_LOCATION_MASK | DBGAFR_NUMBITS_MASK)) == (DBGAFR_LOCATION_MASK | DBGAFR_NUMBITS_MASK))
    1130:	00300737          	lui	a4,0x300
    1134:	00e57833          	and	a6,a0,a4
    1138:	02e80863          	beq	a6,a4,1168 <GPIO_PinRemapConfig+0x4a>
C:\Users\29275\Desktop\WchWorkSPace\camCoreWithRTOS\obj/../Libraries/wch_libraries/Peripheral/ch32v10x_gpio.c:422
  {
    tmpreg &= DBGAFR_SWJCFG_MASK;
    AFIO->PCFR1 &= DBGAFR_SWJCFG_MASK;
  }
  else if ((GPIO_Remap & DBGAFR_NUMBITS_MASK) == DBGAFR_NUMBITS_MASK)
    113c:	00b51713          	slli	a4,a0,0xb
    1140:	04075c63          	bgez	a4,1198 <GPIO_PinRemapConfig+0x7a>
C:\Users\29275\Desktop\WchWorkSPace\camCoreWithRTOS\obj/../Libraries/wch_libraries/Peripheral/ch32v10x_gpio.c:414
  tmpmask = (GPIO_Remap & DBGAFR_POSITION_MASK) >> 0x10;
    1144:	01055713          	srli	a4,a0,0x10
    1148:	00f77813          	andi	a6,a4,15
C:\Users\29275\Desktop\WchWorkSPace\camCoreWithRTOS\obj/../Libraries/wch_libraries/Peripheral/ch32v10x_gpio.c:424
  {
    tmp1 = ((uint32_t)0x03) << tmpmask;
    114c:	470d                	li	a4,3
    114e:	01071733          	sll	a4,a4,a6
C:\Users\29275\Desktop\WchWorkSPace\camCoreWithRTOS\obj/../Libraries/wch_libraries/Peripheral/ch32v10x_gpio.c:425
    tmpreg &= ~tmp1;
    1152:	fff74713          	not	a4,a4
    1156:	8f7d                	and	a4,a4,a5
C:\Users\29275\Desktop\WchWorkSPace\camCoreWithRTOS\obj/../Libraries/wch_libraries/Peripheral/ch32v10x_gpio.c:426
    tmpreg |= ~DBGAFR_SWJCFG_MASK;
    1158:	0f0007b7          	lui	a5,0xf000
    115c:	8fd9                	or	a5,a5,a4
    115e:	a00d                	j	1180 <GPIO_PinRemapConfig+0x62>
C:\Users\29275\Desktop\WchWorkSPace\camCoreWithRTOS\obj/../Libraries/wch_libraries/Peripheral/ch32v10x_gpio.c:407
    tmpreg = AFIO->PCFR2;
    1160:	400107b7          	lui	a5,0x40010
    1164:	4fdc                	lw	a5,28(a5)
    1166:	b7d1                	j	112a <GPIO_PinRemapConfig+0xc>
C:\Users\29275\Desktop\WchWorkSPace\camCoreWithRTOS\obj/../Libraries/wch_libraries/Peripheral/ch32v10x_gpio.c:419
    tmpreg &= DBGAFR_SWJCFG_MASK;
    1168:	f1000737          	lui	a4,0xf1000
    116c:	177d                	addi	a4,a4,-1
    116e:	8ff9                	and	a5,a5,a4
C:\Users\29275\Desktop\WchWorkSPace\camCoreWithRTOS\obj/../Libraries/wch_libraries/Peripheral/ch32v10x_gpio.c:420
    AFIO->PCFR1 &= DBGAFR_SWJCFG_MASK;
    1170:	400108b7          	lui	a7,0x40010
    1174:	0048a803          	lw	a6,4(a7) # 40010004 <_eusrstack+0x2000b004>
    1178:	00e87733          	and	a4,a6,a4
    117c:	00e8a223          	sw	a4,4(a7)
C:\Users\29275\Desktop\WchWorkSPace\camCoreWithRTOS\obj/../Libraries/wch_libraries/Peripheral/ch32v10x_gpio.c:434
  {
    tmpreg &= ~(tmp << ((GPIO_Remap >> 0x15)*0x10));
    tmpreg |= ~DBGAFR_SWJCFG_MASK;
  }

  if (NewState != DISABLE)
    1180:	c591                	beqz	a1,118c <GPIO_PinRemapConfig+0x6e>
C:\Users\29275\Desktop\WchWorkSPace\camCoreWithRTOS\obj/../Libraries/wch_libraries/Peripheral/ch32v10x_gpio.c:436
  {
    tmpreg |= (tmp << ((GPIO_Remap >> 0x15)*0x10));
    1182:	8155                	srli	a0,a0,0x15
    1184:	0512                	slli	a0,a0,0x4
    1186:	00a69533          	sll	a0,a3,a0
    118a:	8fc9                	or	a5,a5,a0
C:\Users\29275\Desktop\WchWorkSPace\camCoreWithRTOS\obj/../Libraries/wch_libraries/Peripheral/ch32v10x_gpio.c:439
  }

  if((GPIO_Remap & 0x80000000) == 0x80000000)
    118c:	02064263          	bltz	a2,11b0 <GPIO_PinRemapConfig+0x92>
C:\Users\29275\Desktop\WchWorkSPace\camCoreWithRTOS\obj/../Libraries/wch_libraries/Peripheral/ch32v10x_gpio.c:445
  {
    AFIO->PCFR2 = tmpreg;
  }
  else
  {
    AFIO->PCFR1 = tmpreg;
    1190:	40010737          	lui	a4,0x40010
    1194:	c35c                	sw	a5,4(a4)
C:\Users\29275\Desktop\WchWorkSPace\camCoreWithRTOS\obj/../Libraries/wch_libraries/Peripheral/ch32v10x_gpio.c:447
  }  
}
    1196:	8082                	ret
C:\Users\29275\Desktop\WchWorkSPace\camCoreWithRTOS\obj/../Libraries/wch_libraries/Peripheral/ch32v10x_gpio.c:430
    tmpreg &= ~(tmp << ((GPIO_Remap >> 0x15)*0x10));
    1198:	01555713          	srli	a4,a0,0x15
    119c:	0712                	slli	a4,a4,0x4
    119e:	00e69733          	sll	a4,a3,a4
    11a2:	fff74713          	not	a4,a4
    11a6:	8f7d                	and	a4,a4,a5
C:\Users\29275\Desktop\WchWorkSPace\camCoreWithRTOS\obj/../Libraries/wch_libraries/Peripheral/ch32v10x_gpio.c:431
    tmpreg |= ~DBGAFR_SWJCFG_MASK;
    11a8:	0f0007b7          	lui	a5,0xf000
    11ac:	8fd9                	or	a5,a5,a4
    11ae:	bfc9                	j	1180 <GPIO_PinRemapConfig+0x62>
C:\Users\29275\Desktop\WchWorkSPace\camCoreWithRTOS\obj/../Libraries/wch_libraries/Peripheral/ch32v10x_gpio.c:441
    AFIO->PCFR2 = tmpreg;
    11b0:	40010737          	lui	a4,0x40010
    11b4:	cf5c                	sw	a5,28(a4)
    11b6:	8082                	ret

000011b8 <NVIC_Init>:
NVIC_Init():
C:\Users\29275\Desktop\WchWorkSPace\camCoreWithRTOS\obj/../Libraries/wch_libraries/Peripheral/ch32v10x_misc.c:47
*******************************************************************************************/
void NVIC_Init(NVIC_InitTypeDef* NVIC_InitStruct)
{
	//uint8_t tmppre = 0;

	if((PFIC->CFGR&(1<<1)) != 0)                    //1
    11b8:	e000e7b7          	lui	a5,0xe000e
    11bc:	47bc                	lw	a5,72(a5)
    11be:	8b89                	andi	a5,a5,2
    11c0:	cf95                	beqz	a5,11fc <NVIC_Init+0x44>
C:\Users\29275\Desktop\WchWorkSPace\camCoreWithRTOS\obj/../Libraries/wch_libraries/Peripheral/ch32v10x_misc.c:49
	{
		NVIC_SetPriority( NVIC_InitStruct->NVIC_IRQChannel, NVIC_InitStruct->NVIC_IRQChannelSubPriority<<4);
    11c2:	00054683          	lbu	a3,0(a0)
    11c6:	00254783          	lbu	a5,2(a0)
    11ca:	0792                	slli	a5,a5,0x4
    11cc:	0ff7f793          	andi	a5,a5,255
NVIC_SetPriority():
C:\Users\29275\Desktop\WchWorkSPace\camCoreWithRTOS\obj/../Libraries/wch_libraries/Core/core_riscv.h:209
*                            bit6-bit4: subpriority
* Return         : None
*******************************************************************************/
RV_STATIC_INLINE void NVIC_SetPriority(IRQn_Type IRQn, uint8_t priority)
{
  NVIC->IPRIOR[(uint32_t)(IRQn)] = priority;
    11d0:	e000e737          	lui	a4,0xe000e
    11d4:	9736                	add	a4,a4,a3
    11d6:	40f70023          	sb	a5,1024(a4) # e000e400 <_eusrstack+0xc0009400>
NVIC_Init():
C:\Users\29275\Desktop\WchWorkSPace\camCoreWithRTOS\obj/../Libraries/wch_libraries/Peripheral/ch32v10x_misc.c:93
//	else if(NVIC_Priority_Group == NVIC_PriorityGroup_4)
//	{
//		NVIC_SetPriority( NVIC_InitStruct->NVIC_IRQChannel, NVIC_InitStruct->NVIC_IRQChannelPreemptionPriority<<4);
//	}

  if (NVIC_InitStruct->NVIC_IRQChannelCmd != DISABLE)
    11da:	415c                	lw	a5,4(a0)
    11dc:	c7b5                	beqz	a5,1248 <NVIC_Init+0x90>
C:\Users\29275\Desktop\WchWorkSPace\camCoreWithRTOS\obj/../Libraries/wch_libraries/Peripheral/ch32v10x_misc.c:95
  {
  	NVIC_EnableIRQ(NVIC_InitStruct->NVIC_IRQChannel);
    11de:	00054703          	lbu	a4,0(a0)
NVIC_EnableIRQ():
C:\Users\29275\Desktop\WchWorkSPace\camCoreWithRTOS\obj/../Libraries/wch_libraries/Core/core_riscv.h:127
  NVIC->IENR[((uint32_t)(IRQn) >> 5)] = (1 << ((uint32_t)(IRQn) & 0x1F));
    11e2:	00575793          	srli	a5,a4,0x5
    11e6:	4685                	li	a3,1
    11e8:	00e696b3          	sll	a3,a3,a4
    11ec:	04078793          	addi	a5,a5,64 # e000e040 <_eusrstack+0xc0009040>
    11f0:	078a                	slli	a5,a5,0x2
    11f2:	e000e737          	lui	a4,0xe000e
    11f6:	97ba                	add	a5,a5,a4
    11f8:	c394                	sw	a3,0(a5)
    11fa:	8082                	ret
NVIC_Init():
C:\Users\29275\Desktop\WchWorkSPace\camCoreWithRTOS\obj/../Libraries/wch_libraries/Peripheral/ch32v10x_misc.c:51
	else if((PFIC->CFGR&(1<<1)) == 0)               //0
    11fc:	e000e7b7          	lui	a5,0xe000e
    1200:	47bc                	lw	a5,72(a5)
    1202:	8b89                	andi	a5,a5,2
    1204:	fbf9                	bnez	a5,11da <NVIC_Init+0x22>
C:\Users\29275\Desktop\WchWorkSPace\camCoreWithRTOS\obj/../Libraries/wch_libraries/Peripheral/ch32v10x_misc.c:53
        if(NVIC_InitStruct->NVIC_IRQChannelPreemptionPriority == 1)
    1206:	00154703          	lbu	a4,1(a0)
    120a:	4785                	li	a5,1
    120c:	00f70f63          	beq	a4,a5,122a <NVIC_Init+0x72>
C:\Users\29275\Desktop\WchWorkSPace\camCoreWithRTOS\obj/../Libraries/wch_libraries/Peripheral/ch32v10x_misc.c:59
            NVIC_SetPriority( NVIC_InitStruct->NVIC_IRQChannel, (0<<7)|(NVIC_InitStruct->NVIC_IRQChannelSubPriority<<4));
    1210:	00054683          	lbu	a3,0(a0)
    1214:	00254783          	lbu	a5,2(a0)
    1218:	0792                	slli	a5,a5,0x4
    121a:	0ff7f793          	andi	a5,a5,255
NVIC_SetPriority():
C:\Users\29275\Desktop\WchWorkSPace\camCoreWithRTOS\obj/../Libraries/wch_libraries/Core/core_riscv.h:209
  NVIC->IPRIOR[(uint32_t)(IRQn)] = priority;
    121e:	e000e737          	lui	a4,0xe000e
    1222:	9736                	add	a4,a4,a3
    1224:	40f70023          	sb	a5,1024(a4) # e000e400 <_eusrstack+0xc0009400>
    1228:	bf4d                	j	11da <NVIC_Init+0x22>
NVIC_Init():
C:\Users\29275\Desktop\WchWorkSPace\camCoreWithRTOS\obj/../Libraries/wch_libraries/Peripheral/ch32v10x_misc.c:55
            NVIC_SetPriority( NVIC_InitStruct->NVIC_IRQChannel, (1<<7)|(NVIC_InitStruct->NVIC_IRQChannelSubPriority<<4));
    122a:	00054683          	lbu	a3,0(a0)
    122e:	00254783          	lbu	a5,2(a0)
    1232:	0792                	slli	a5,a5,0x4
    1234:	f807e793          	ori	a5,a5,-128
    1238:	0ff7f793          	andi	a5,a5,255
NVIC_SetPriority():
C:\Users\29275\Desktop\WchWorkSPace\camCoreWithRTOS\obj/../Libraries/wch_libraries/Core/core_riscv.h:209
    123c:	e000e737          	lui	a4,0xe000e
    1240:	9736                	add	a4,a4,a3
    1242:	40f70023          	sb	a5,1024(a4) # e000e400 <_eusrstack+0xc0009400>
    1246:	bf51                	j	11da <NVIC_Init+0x22>
NVIC_Init():
C:\Users\29275\Desktop\WchWorkSPace\camCoreWithRTOS\obj/../Libraries/wch_libraries/Peripheral/ch32v10x_misc.c:99
  }
  else
  {
  	NVIC_DisableIRQ(NVIC_InitStruct->NVIC_IRQChannel);
    1248:	00054703          	lbu	a4,0(a0)
NVIC_DisableIRQ():
C:\Users\29275\Desktop\WchWorkSPace\camCoreWithRTOS\obj/../Libraries/wch_libraries/Core/core_riscv.h:138
  NVIC->IRER[((uint32_t)(IRQn) >> 5)] = (1 << ((uint32_t)(IRQn) & 0x1F));
    124c:	00575793          	srli	a5,a4,0x5
    1250:	4685                	li	a3,1
    1252:	00e696b3          	sll	a3,a3,a4
    1256:	06078793          	addi	a5,a5,96 # e000e060 <_eusrstack+0xc0009060>
    125a:	078a                	slli	a5,a5,0x2
    125c:	e000e737          	lui	a4,0xe000e
    1260:	97ba                	add	a5,a5,a4
    1262:	c394                	sw	a3,0(a5)
NVIC_Init():
C:\Users\29275\Desktop\WchWorkSPace\camCoreWithRTOS\obj/../Libraries/wch_libraries/Peripheral/ch32v10x_misc.c:101
  }
}
    1264:	8082                	ret

00001266 <RCC_GetClocksFreq>:
RCC_GetClocksFreq():
C:\Users\29275\Desktop\WchWorkSPace\camCoreWithRTOS\obj/../Libraries/wch_libraries/Peripheral/ch32v10x_rcc.c:472
********************************************************************************/
void RCC_GetClocksFreq(RCC_ClocksTypeDef* RCC_Clocks)
{
  uint32_t tmp = 0, pllmull = 0, pllsource = 0, presc = 0;
  
  tmp = RCC->CFGR0 & CFGR0_SWS_Mask;
    1266:	400217b7          	lui	a5,0x40021
    126a:	43dc                	lw	a5,4(a5)
    126c:	8bb1                	andi	a5,a5,12
C:\Users\29275\Desktop\WchWorkSPace\camCoreWithRTOS\obj/../Libraries/wch_libraries/Peripheral/ch32v10x_rcc.c:474
  
  switch (tmp)
    126e:	4711                	li	a4,4
    1270:	08e78463          	beq	a5,a4,12f8 <RCC_GetClocksFreq+0x92>
    1274:	4721                	li	a4,8
    1276:	08e78763          	beq	a5,a4,1304 <RCC_GetClocksFreq+0x9e>
    127a:	c799                	beqz	a5,1288 <RCC_GetClocksFreq+0x22>
C:\Users\29275\Desktop\WchWorkSPace\camCoreWithRTOS\obj/../Libraries/wch_libraries/Peripheral/ch32v10x_rcc.c:507
        }
      } 
      break;

    default:
      RCC_Clocks->SYSCLK_Frequency = HSI_VALUE;
    127c:	007a17b7          	lui	a5,0x7a1
    1280:	20078793          	addi	a5,a5,512 # 7a1200 <__fsymtab_end+0x799ae0>
    1284:	c11c                	sw	a5,0(a0)
C:\Users\29275\Desktop\WchWorkSPace\camCoreWithRTOS\obj/../Libraries/wch_libraries/Peripheral/ch32v10x_rcc.c:508
      break;
    1286:	a031                	j	1292 <RCC_GetClocksFreq+0x2c>
C:\Users\29275\Desktop\WchWorkSPace\camCoreWithRTOS\obj/../Libraries/wch_libraries/Peripheral/ch32v10x_rcc.c:477
      RCC_Clocks->SYSCLK_Frequency = HSI_VALUE;
    1288:	007a17b7          	lui	a5,0x7a1
    128c:	20078793          	addi	a5,a5,512 # 7a1200 <__fsymtab_end+0x799ae0>
    1290:	c11c                	sw	a5,0(a0)
C:\Users\29275\Desktop\WchWorkSPace\camCoreWithRTOS\obj/../Libraries/wch_libraries/Peripheral/ch32v10x_rcc.c:511
  }

  tmp = RCC->CFGR0 & CFGR0_HPRE_Set_Mask;
    1292:	40021637          	lui	a2,0x40021
    1296:	425c                	lw	a5,4(a2)
C:\Users\29275\Desktop\WchWorkSPace\camCoreWithRTOS\obj/../Libraries/wch_libraries/Peripheral/ch32v10x_rcc.c:512
  tmp = tmp >> 4;
    1298:	8391                	srli	a5,a5,0x4
    129a:	8bbd                	andi	a5,a5,15
C:\Users\29275\Desktop\WchWorkSPace\camCoreWithRTOS\obj/../Libraries/wch_libraries/Peripheral/ch32v10x_rcc.c:513
  presc = APBAHBPrescTable[tmp];
    129c:	20000737          	lui	a4,0x20000
    12a0:	00070713          	mv	a4,a4
    12a4:	97ba                	add	a5,a5,a4
    12a6:	0007c683          	lbu	a3,0(a5)
C:\Users\29275\Desktop\WchWorkSPace\camCoreWithRTOS\obj/../Libraries/wch_libraries/Peripheral/ch32v10x_rcc.c:514
  RCC_Clocks->HCLK_Frequency = RCC_Clocks->SYSCLK_Frequency >> presc;
    12aa:	411c                	lw	a5,0(a0)
    12ac:	00d7d7b3          	srl	a5,a5,a3
    12b0:	c15c                	sw	a5,4(a0)
C:\Users\29275\Desktop\WchWorkSPace\camCoreWithRTOS\obj/../Libraries/wch_libraries/Peripheral/ch32v10x_rcc.c:515
  tmp = RCC->CFGR0 & CFGR0_PPRE1_Set_Mask;
    12b2:	4254                	lw	a3,4(a2)
C:\Users\29275\Desktop\WchWorkSPace\camCoreWithRTOS\obj/../Libraries/wch_libraries/Peripheral/ch32v10x_rcc.c:516
  tmp = tmp >> 8;
    12b4:	82a1                	srli	a3,a3,0x8
    12b6:	8a9d                	andi	a3,a3,7
C:\Users\29275\Desktop\WchWorkSPace\camCoreWithRTOS\obj/../Libraries/wch_libraries/Peripheral/ch32v10x_rcc.c:517
  presc = APBAHBPrescTable[tmp];
    12b8:	96ba                	add	a3,a3,a4
    12ba:	0006c683          	lbu	a3,0(a3)
C:\Users\29275\Desktop\WchWorkSPace\camCoreWithRTOS\obj/../Libraries/wch_libraries/Peripheral/ch32v10x_rcc.c:518
  RCC_Clocks->PCLK1_Frequency = RCC_Clocks->HCLK_Frequency >> presc;
    12be:	00d7d6b3          	srl	a3,a5,a3
    12c2:	c514                	sw	a3,8(a0)
C:\Users\29275\Desktop\WchWorkSPace\camCoreWithRTOS\obj/../Libraries/wch_libraries/Peripheral/ch32v10x_rcc.c:519
  tmp = RCC->CFGR0 & CFGR0_PPRE2_Set_Mask;
    12c4:	4254                	lw	a3,4(a2)
C:\Users\29275\Desktop\WchWorkSPace\camCoreWithRTOS\obj/../Libraries/wch_libraries/Peripheral/ch32v10x_rcc.c:520
  tmp = tmp >> 11;
    12c6:	82ad                	srli	a3,a3,0xb
    12c8:	8a9d                	andi	a3,a3,7
C:\Users\29275\Desktop\WchWorkSPace\camCoreWithRTOS\obj/../Libraries/wch_libraries/Peripheral/ch32v10x_rcc.c:521
  presc = APBAHBPrescTable[tmp];
    12ca:	9736                	add	a4,a4,a3
    12cc:	00074703          	lbu	a4,0(a4) # 20000000 <_data_vma>
C:\Users\29275\Desktop\WchWorkSPace\camCoreWithRTOS\obj/../Libraries/wch_libraries/Peripheral/ch32v10x_rcc.c:522
  RCC_Clocks->PCLK2_Frequency = RCC_Clocks->HCLK_Frequency >> presc;
    12d0:	00e7d7b3          	srl	a5,a5,a4
    12d4:	c55c                	sw	a5,12(a0)
C:\Users\29275\Desktop\WchWorkSPace\camCoreWithRTOS\obj/../Libraries/wch_libraries/Peripheral/ch32v10x_rcc.c:523
  tmp = RCC->CFGR0 & CFGR0_ADCPRE_Set_Mask;
    12d6:	4258                	lw	a4,4(a2)
C:\Users\29275\Desktop\WchWorkSPace\camCoreWithRTOS\obj/../Libraries/wch_libraries/Peripheral/ch32v10x_rcc.c:524
  tmp = tmp >> 14;
    12d8:	8339                	srli	a4,a4,0xe
    12da:	00377693          	andi	a3,a4,3
C:\Users\29275\Desktop\WchWorkSPace\camCoreWithRTOS\obj/../Libraries/wch_libraries/Peripheral/ch32v10x_rcc.c:525
  presc = ADCPrescTable[tmp];
    12de:	20000737          	lui	a4,0x20000
    12e2:	0b070713          	addi	a4,a4,176 # 200000b0 <ADCPrescTable>
    12e6:	9736                	add	a4,a4,a3
    12e8:	00074703          	lbu	a4,0(a4)
    12ec:	0ff77713          	andi	a4,a4,255
C:\Users\29275\Desktop\WchWorkSPace\camCoreWithRTOS\obj/../Libraries/wch_libraries/Peripheral/ch32v10x_rcc.c:526
  RCC_Clocks->ADCCLK_Frequency = RCC_Clocks->PCLK2_Frequency / presc;
    12f0:	02e7d7b3          	divu	a5,a5,a4
    12f4:	c91c                	sw	a5,16(a0)
C:\Users\29275\Desktop\WchWorkSPace\camCoreWithRTOS\obj/../Libraries/wch_libraries/Peripheral/ch32v10x_rcc.c:527
}
    12f6:	8082                	ret
C:\Users\29275\Desktop\WchWorkSPace\camCoreWithRTOS\obj/../Libraries/wch_libraries/Peripheral/ch32v10x_rcc.c:481
      RCC_Clocks->SYSCLK_Frequency = HSE_VALUE;
    12f8:	007a17b7          	lui	a5,0x7a1
    12fc:	20078793          	addi	a5,a5,512 # 7a1200 <__fsymtab_end+0x799ae0>
    1300:	c11c                	sw	a5,0(a0)
C:\Users\29275\Desktop\WchWorkSPace\camCoreWithRTOS\obj/../Libraries/wch_libraries/Peripheral/ch32v10x_rcc.c:482
      break;
    1302:	bf41                	j	1292 <RCC_GetClocksFreq+0x2c>
C:\Users\29275\Desktop\WchWorkSPace\camCoreWithRTOS\obj/../Libraries/wch_libraries/Peripheral/ch32v10x_rcc.c:485
      pllmull = RCC->CFGR0 & CFGR0_PLLMull_Mask;
    1304:	40021737          	lui	a4,0x40021
    1308:	435c                	lw	a5,4(a4)
C:\Users\29275\Desktop\WchWorkSPace\camCoreWithRTOS\obj/../Libraries/wch_libraries/Peripheral/ch32v10x_rcc.c:486
      pllsource = RCC->CFGR0 & CFGR0_PLLSRC_Mask;    
    130a:	4358                	lw	a4,4(a4)
C:\Users\29275\Desktop\WchWorkSPace\camCoreWithRTOS\obj/../Libraries/wch_libraries/Peripheral/ch32v10x_rcc.c:487
      pllmull = ( pllmull >> 18) + 2;
    130c:	83c9                	srli	a5,a5,0x12
    130e:	8bbd                	andi	a5,a5,15
    1310:	0789                	addi	a5,a5,2
C:\Users\29275\Desktop\WchWorkSPace\camCoreWithRTOS\obj/../Libraries/wch_libraries/Peripheral/ch32v10x_rcc.c:489
      if (pllsource == 0x00)
    1312:	00f71693          	slli	a3,a4,0xf
    1316:	0006ca63          	bltz	a3,132a <RCC_GetClocksFreq+0xc4>
C:\Users\29275\Desktop\WchWorkSPace\camCoreWithRTOS\obj/../Libraries/wch_libraries/Peripheral/ch32v10x_rcc.c:491
        RCC_Clocks->SYSCLK_Frequency = (HSI_VALUE >> 1) * pllmull;
    131a:	003d1737          	lui	a4,0x3d1
    131e:	90070713          	addi	a4,a4,-1792 # 3d0900 <__fsymtab_end+0x3c91e0>
    1322:	02e787b3          	mul	a5,a5,a4
    1326:	c11c                	sw	a5,0(a0)
    1328:	b7ad                	j	1292 <RCC_GetClocksFreq+0x2c>
C:\Users\29275\Desktop\WchWorkSPace\camCoreWithRTOS\obj/../Libraries/wch_libraries/Peripheral/ch32v10x_rcc.c:495
        if ((RCC->CFGR0 & CFGR0_PLLXTPRE_Mask) != (uint32_t)RESET)
    132a:	40021737          	lui	a4,0x40021
    132e:	4358                	lw	a4,4(a4)
    1330:	00e71693          	slli	a3,a4,0xe
    1334:	0006da63          	bgez	a3,1348 <RCC_GetClocksFreq+0xe2>
C:\Users\29275\Desktop\WchWorkSPace\camCoreWithRTOS\obj/../Libraries/wch_libraries/Peripheral/ch32v10x_rcc.c:497
          RCC_Clocks->SYSCLK_Frequency = (HSE_VALUE >> 1) * pllmull;
    1338:	003d1737          	lui	a4,0x3d1
    133c:	90070713          	addi	a4,a4,-1792 # 3d0900 <__fsymtab_end+0x3c91e0>
    1340:	02e787b3          	mul	a5,a5,a4
    1344:	c11c                	sw	a5,0(a0)
    1346:	b7b1                	j	1292 <RCC_GetClocksFreq+0x2c>
C:\Users\29275\Desktop\WchWorkSPace\camCoreWithRTOS\obj/../Libraries/wch_libraries/Peripheral/ch32v10x_rcc.c:501
          RCC_Clocks->SYSCLK_Frequency = HSE_VALUE * pllmull;
    1348:	007a1737          	lui	a4,0x7a1
    134c:	20070713          	addi	a4,a4,512 # 7a1200 <__fsymtab_end+0x799ae0>
    1350:	02e787b3          	mul	a5,a5,a4
    1354:	c11c                	sw	a5,0(a0)
    1356:	bf35                	j	1292 <RCC_GetClocksFreq+0x2c>

00001358 <RCC_APB2PeriphClockCmd>:
RCC_APB2PeriphClockCmd():
C:\Users\29275\Desktop\WchWorkSPace\camCoreWithRTOS\obj/../Libraries/wch_libraries/Peripheral/ch32v10x_rcc.c:571
*                  NewState: ENABLE or DISABLE
* Return         : None
*******************************************************************************/	
void RCC_APB2PeriphClockCmd(uint32_t RCC_APB2Periph, FunctionalState NewState)
{
  if (NewState != DISABLE)
    1358:	c599                	beqz	a1,1366 <RCC_APB2PeriphClockCmd+0xe>
C:\Users\29275\Desktop\WchWorkSPace\camCoreWithRTOS\obj/../Libraries/wch_libraries/Peripheral/ch32v10x_rcc.c:573
  {
    RCC->APB2PCENR |= RCC_APB2Periph;
    135a:	40021737          	lui	a4,0x40021
    135e:	4f1c                	lw	a5,24(a4)
    1360:	8d5d                	or	a0,a0,a5
    1362:	cf08                	sw	a0,24(a4)
    1364:	8082                	ret
C:\Users\29275\Desktop\WchWorkSPace\camCoreWithRTOS\obj/../Libraries/wch_libraries/Peripheral/ch32v10x_rcc.c:577
  }
  else
  {
    RCC->APB2PCENR &= ~RCC_APB2Periph;
    1366:	400217b7          	lui	a5,0x40021
    136a:	4f98                	lw	a4,24(a5)
    136c:	fff54513          	not	a0,a0
    1370:	8d79                	and	a0,a0,a4
    1372:	cf88                	sw	a0,24(a5)
C:\Users\29275\Desktop\WchWorkSPace\camCoreWithRTOS\obj/../Libraries/wch_libraries/Peripheral/ch32v10x_rcc.c:579
  }
}
    1374:	8082                	ret

00001376 <RCC_APB1PeriphClockCmd>:
RCC_APB1PeriphClockCmd():
C:\Users\29275\Desktop\WchWorkSPace\camCoreWithRTOS\obj/../Libraries/wch_libraries/Peripheral/ch32v10x_rcc.c:604
*                  NewState: ENABLE or DISABLE.
* Return         : None
*******************************************************************************/	
void RCC_APB1PeriphClockCmd(uint32_t RCC_APB1Periph, FunctionalState NewState)
{
  if (NewState != DISABLE)
    1376:	c599                	beqz	a1,1384 <RCC_APB1PeriphClockCmd+0xe>
C:\Users\29275\Desktop\WchWorkSPace\camCoreWithRTOS\obj/../Libraries/wch_libraries/Peripheral/ch32v10x_rcc.c:606
  {
    RCC->APB1PCENR |= RCC_APB1Periph;
    1378:	40021737          	lui	a4,0x40021
    137c:	4f5c                	lw	a5,28(a4)
    137e:	8d5d                	or	a0,a0,a5
    1380:	cf48                	sw	a0,28(a4)
    1382:	8082                	ret
C:\Users\29275\Desktop\WchWorkSPace\camCoreWithRTOS\obj/../Libraries/wch_libraries/Peripheral/ch32v10x_rcc.c:610
  }
  else
  {
    RCC->APB1PCENR &= ~RCC_APB1Periph;
    1384:	400217b7          	lui	a5,0x40021
    1388:	4fd8                	lw	a4,28(a5)
    138a:	fff54513          	not	a0,a0
    138e:	8d79                	and	a0,a0,a4
    1390:	cfc8                	sw	a0,28(a5)
C:\Users\29275\Desktop\WchWorkSPace\camCoreWithRTOS\obj/../Libraries/wch_libraries/Peripheral/ch32v10x_rcc.c:612
  }
}
    1392:	8082                	ret

00001394 <TIM_TimeBaseInit>:
TIM_TimeBaseInit():
C:\Users\29275\Desktop\WchWorkSPace\camCoreWithRTOS\obj/../Libraries/wch_libraries/Peripheral/ch32v10x_tim.c:70
*******************************************************************************/
void TIM_TimeBaseInit(TIM_TypeDef* TIMx, TIM_TimeBaseInitTypeDef* TIM_TimeBaseInitStruct)
{
  uint16_t tmpcr1 = 0;

  tmpcr1 = TIMx->CTLR1;  
    1394:	00055783          	lhu	a5,0(a0)
    1398:	07c2                	slli	a5,a5,0x10
    139a:	83c1                	srli	a5,a5,0x10
C:\Users\29275\Desktop\WchWorkSPace\camCoreWithRTOS\obj/../Libraries/wch_libraries/Peripheral/ch32v10x_tim.c:72

  if((TIMx == TIM1) || (TIMx == TIM2) || (TIMx == TIM3)|| (TIMx == TIM4)) 
    139c:	40013737          	lui	a4,0x40013
    13a0:	c0070713          	addi	a4,a4,-1024 # 40012c00 <_eusrstack+0x2000dc00>
    13a4:	04e50063          	beq	a0,a4,13e4 <TIM_TimeBaseInit+0x50>
C:\Users\29275\Desktop\WchWorkSPace\camCoreWithRTOS\obj/../Libraries/wch_libraries/Peripheral/ch32v10x_tim.c:72 (discriminator 1)
    13a8:	40000737          	lui	a4,0x40000
    13ac:	06e50763          	beq	a0,a4,141a <TIM_TimeBaseInit+0x86>
C:\Users\29275\Desktop\WchWorkSPace\camCoreWithRTOS\obj/../Libraries/wch_libraries/Peripheral/ch32v10x_tim.c:72 (discriminator 2)
    13b0:	40070713          	addi	a4,a4,1024 # 40000400 <_eusrstack+0x1fffb400>
    13b4:	06e50363          	beq	a0,a4,141a <TIM_TimeBaseInit+0x86>
C:\Users\29275\Desktop\WchWorkSPace\camCoreWithRTOS\obj/../Libraries/wch_libraries/Peripheral/ch32v10x_tim.c:72 (discriminator 3)
    13b8:	40001737          	lui	a4,0x40001
    13bc:	80070713          	addi	a4,a4,-2048 # 40000800 <_eusrstack+0x1fffb800>
    13c0:	04e50d63          	beq	a0,a4,141a <TIM_TimeBaseInit+0x86>
C:\Users\29275\Desktop\WchWorkSPace\camCoreWithRTOS\obj/../Libraries/wch_libraries/Peripheral/ch32v10x_tim.c:78
  {
    tmpcr1 &= (uint16_t)(~((uint16_t)(TIM_DIR | TIM_CMS)));
    tmpcr1 |= (uint32_t)TIM_TimeBaseInitStruct->TIM_CounterMode;
  }

  tmpcr1 &= (uint16_t)(~((uint16_t)TIM_CTLR1_CKD));
    13c4:	cff7f793          	andi	a5,a5,-769
C:\Users\29275\Desktop\WchWorkSPace\camCoreWithRTOS\obj/../Libraries/wch_libraries/Peripheral/ch32v10x_tim.c:79
  tmpcr1 |= (uint32_t)TIM_TimeBaseInitStruct->TIM_ClockDivision;
    13c8:	0065d703          	lhu	a4,6(a1)
    13cc:	8fd9                	or	a5,a5,a4
C:\Users\29275\Desktop\WchWorkSPace\camCoreWithRTOS\obj/../Libraries/wch_libraries/Peripheral/ch32v10x_tim.c:81

  TIMx->CTLR1 = tmpcr1;
    13ce:	00f51023          	sh	a5,0(a0)
C:\Users\29275\Desktop\WchWorkSPace\camCoreWithRTOS\obj/../Libraries/wch_libraries/Peripheral/ch32v10x_tim.c:82
  TIMx->ATRLR = TIM_TimeBaseInitStruct->TIM_Period ;
    13d2:	0045d783          	lhu	a5,4(a1)
    13d6:	02f51623          	sh	a5,44(a0)
C:\Users\29275\Desktop\WchWorkSPace\camCoreWithRTOS\obj/../Libraries/wch_libraries/Peripheral/ch32v10x_tim.c:83
  TIMx->PSC = TIM_TimeBaseInitStruct->TIM_Prescaler;
    13da:	0005d783          	lhu	a5,0(a1)
    13de:	02f51423          	sh	a5,40(a0)
C:\Users\29275\Desktop\WchWorkSPace\camCoreWithRTOS\obj/../Libraries/wch_libraries/Peripheral/ch32v10x_tim.c:85
    
  if (TIMx == TIM1)  
    13e2:	a085                	j	1442 <TIM_TimeBaseInit+0xae>
C:\Users\29275\Desktop\WchWorkSPace\camCoreWithRTOS\obj/../Libraries/wch_libraries/Peripheral/ch32v10x_tim.c:74
    tmpcr1 &= (uint16_t)(~((uint16_t)(TIM_DIR | TIM_CMS)));
    13e4:	f8f7f793          	andi	a5,a5,-113
C:\Users\29275\Desktop\WchWorkSPace\camCoreWithRTOS\obj/../Libraries/wch_libraries/Peripheral/ch32v10x_tim.c:75
    tmpcr1 |= (uint32_t)TIM_TimeBaseInitStruct->TIM_CounterMode;
    13e8:	0025d703          	lhu	a4,2(a1)
    13ec:	8fd9                	or	a5,a5,a4
C:\Users\29275\Desktop\WchWorkSPace\camCoreWithRTOS\obj/../Libraries/wch_libraries/Peripheral/ch32v10x_tim.c:78
  tmpcr1 &= (uint16_t)(~((uint16_t)TIM_CTLR1_CKD));
    13ee:	cff7f793          	andi	a5,a5,-769
C:\Users\29275\Desktop\WchWorkSPace\camCoreWithRTOS\obj/../Libraries/wch_libraries/Peripheral/ch32v10x_tim.c:79
  tmpcr1 |= (uint32_t)TIM_TimeBaseInitStruct->TIM_ClockDivision;
    13f2:	0065d703          	lhu	a4,6(a1)
    13f6:	8fd9                	or	a5,a5,a4
C:\Users\29275\Desktop\WchWorkSPace\camCoreWithRTOS\obj/../Libraries/wch_libraries/Peripheral/ch32v10x_tim.c:81
  TIMx->CTLR1 = tmpcr1;
    13f8:	00f51023          	sh	a5,0(a0)
C:\Users\29275\Desktop\WchWorkSPace\camCoreWithRTOS\obj/../Libraries/wch_libraries/Peripheral/ch32v10x_tim.c:82
  TIMx->ATRLR = TIM_TimeBaseInitStruct->TIM_Period ;
    13fc:	0045d783          	lhu	a5,4(a1)
    1400:	02f51623          	sh	a5,44(a0)
C:\Users\29275\Desktop\WchWorkSPace\camCoreWithRTOS\obj/../Libraries/wch_libraries/Peripheral/ch32v10x_tim.c:83
  TIMx->PSC = TIM_TimeBaseInitStruct->TIM_Prescaler;
    1404:	0005d783          	lhu	a5,0(a1)
    1408:	02f51423          	sh	a5,40(a0)
C:\Users\29275\Desktop\WchWorkSPace\camCoreWithRTOS\obj/../Libraries/wch_libraries/Peripheral/ch32v10x_tim.c:87
  {
    TIMx->RPTCR = TIM_TimeBaseInitStruct->TIM_RepetitionCounter;
    140c:	0085c703          	lbu	a4,8(a1)
    1410:	400137b7          	lui	a5,0x40013
    1414:	c2e79823          	sh	a4,-976(a5) # 40012c30 <_eusrstack+0x2000dc30>
    1418:	a02d                	j	1442 <TIM_TimeBaseInit+0xae>
C:\Users\29275\Desktop\WchWorkSPace\camCoreWithRTOS\obj/../Libraries/wch_libraries/Peripheral/ch32v10x_tim.c:74
    tmpcr1 &= (uint16_t)(~((uint16_t)(TIM_DIR | TIM_CMS)));
    141a:	f8f7f793          	andi	a5,a5,-113
C:\Users\29275\Desktop\WchWorkSPace\camCoreWithRTOS\obj/../Libraries/wch_libraries/Peripheral/ch32v10x_tim.c:75
    tmpcr1 |= (uint32_t)TIM_TimeBaseInitStruct->TIM_CounterMode;
    141e:	0025d703          	lhu	a4,2(a1)
    1422:	8fd9                	or	a5,a5,a4
C:\Users\29275\Desktop\WchWorkSPace\camCoreWithRTOS\obj/../Libraries/wch_libraries/Peripheral/ch32v10x_tim.c:78
  tmpcr1 &= (uint16_t)(~((uint16_t)TIM_CTLR1_CKD));
    1424:	cff7f793          	andi	a5,a5,-769
C:\Users\29275\Desktop\WchWorkSPace\camCoreWithRTOS\obj/../Libraries/wch_libraries/Peripheral/ch32v10x_tim.c:79
  tmpcr1 |= (uint32_t)TIM_TimeBaseInitStruct->TIM_ClockDivision;
    1428:	0065d703          	lhu	a4,6(a1)
    142c:	8fd9                	or	a5,a5,a4
C:\Users\29275\Desktop\WchWorkSPace\camCoreWithRTOS\obj/../Libraries/wch_libraries/Peripheral/ch32v10x_tim.c:81
  TIMx->CTLR1 = tmpcr1;
    142e:	00f51023          	sh	a5,0(a0)
C:\Users\29275\Desktop\WchWorkSPace\camCoreWithRTOS\obj/../Libraries/wch_libraries/Peripheral/ch32v10x_tim.c:82
  TIMx->ATRLR = TIM_TimeBaseInitStruct->TIM_Period ;
    1432:	0045d783          	lhu	a5,4(a1)
    1436:	02f51623          	sh	a5,44(a0)
C:\Users\29275\Desktop\WchWorkSPace\camCoreWithRTOS\obj/../Libraries/wch_libraries/Peripheral/ch32v10x_tim.c:83
  TIMx->PSC = TIM_TimeBaseInitStruct->TIM_Prescaler;
    143a:	0005d783          	lhu	a5,0(a1)
    143e:	02f51423          	sh	a5,40(a0)
C:\Users\29275\Desktop\WchWorkSPace\camCoreWithRTOS\obj/../Libraries/wch_libraries/Peripheral/ch32v10x_tim.c:90
  }

  TIMx->SWEVGR = TIM_PSCReloadMode_Immediate;           
    1442:	4785                	li	a5,1
    1444:	00f51a23          	sh	a5,20(a0)
C:\Users\29275\Desktop\WchWorkSPace\camCoreWithRTOS\obj/../Libraries/wch_libraries/Peripheral/ch32v10x_tim.c:91
}
    1448:	8082                	ret

0000144a <TIM_TimeBaseStructInit>:
TIM_TimeBaseStructInit():
C:\Users\29275\Desktop\WchWorkSPace\camCoreWithRTOS\obj/../Libraries/wch_libraries/Peripheral/ch32v10x_tim.c:368
* Input          : TIM_TimeBaseInitStruct : pointer to a TIM_TimeBaseInitTypeDef structure.                 
* Return         : None
*******************************************************************************/
void TIM_TimeBaseStructInit(TIM_TimeBaseInitTypeDef* TIM_TimeBaseInitStruct)
{
  TIM_TimeBaseInitStruct->TIM_Period = 0xFFFF;
    144a:	57fd                	li	a5,-1
    144c:	00f51223          	sh	a5,4(a0)
C:\Users\29275\Desktop\WchWorkSPace\camCoreWithRTOS\obj/../Libraries/wch_libraries/Peripheral/ch32v10x_tim.c:369
  TIM_TimeBaseInitStruct->TIM_Prescaler = 0x0000;
    1450:	00051023          	sh	zero,0(a0)
C:\Users\29275\Desktop\WchWorkSPace\camCoreWithRTOS\obj/../Libraries/wch_libraries/Peripheral/ch32v10x_tim.c:370
  TIM_TimeBaseInitStruct->TIM_ClockDivision = TIM_CKD_DIV1;
    1454:	00051323          	sh	zero,6(a0)
C:\Users\29275\Desktop\WchWorkSPace\camCoreWithRTOS\obj/../Libraries/wch_libraries/Peripheral/ch32v10x_tim.c:371
  TIM_TimeBaseInitStruct->TIM_CounterMode = TIM_CounterMode_Up;
    1458:	00051123          	sh	zero,2(a0)
C:\Users\29275\Desktop\WchWorkSPace\camCoreWithRTOS\obj/../Libraries/wch_libraries/Peripheral/ch32v10x_tim.c:372
  TIM_TimeBaseInitStruct->TIM_RepetitionCounter = 0x0000;
    145c:	00050423          	sb	zero,8(a0)
C:\Users\29275\Desktop\WchWorkSPace\camCoreWithRTOS\obj/../Libraries/wch_libraries/Peripheral/ch32v10x_tim.c:373
}
    1460:	8082                	ret

00001462 <TIM_Cmd>:
TIM_Cmd():
C:\Users\29275\Desktop\WchWorkSPace\camCoreWithRTOS\obj/../Libraries/wch_libraries/Peripheral/ch32v10x_tim.c:434
*                  NewState: ENABLE or DISABLE.
* Return         : None
*******************************************************************************/
void TIM_Cmd(TIM_TypeDef* TIMx, FunctionalState NewState)
{ 
  if (NewState != DISABLE)
    1462:	c981                	beqz	a1,1472 <TIM_Cmd+0x10>
C:\Users\29275\Desktop\WchWorkSPace\camCoreWithRTOS\obj/../Libraries/wch_libraries/Peripheral/ch32v10x_tim.c:436
  {
    TIMx->CTLR1 |= TIM_CEN;
    1464:	00055783          	lhu	a5,0(a0)
    1468:	0017e793          	ori	a5,a5,1
    146c:	00f51023          	sh	a5,0(a0)
    1470:	8082                	ret
C:\Users\29275\Desktop\WchWorkSPace\camCoreWithRTOS\obj/../Libraries/wch_libraries/Peripheral/ch32v10x_tim.c:440
  }
  else
  {
    TIMx->CTLR1 &= (uint16_t)(~((uint16_t)TIM_CEN));
    1472:	00055783          	lhu	a5,0(a0)
    1476:	07c2                	slli	a5,a5,0x10
    1478:	83c1                	srli	a5,a5,0x10
    147a:	9bf9                	andi	a5,a5,-2
    147c:	07c2                	slli	a5,a5,0x10
    147e:	83c1                	srli	a5,a5,0x10
    1480:	00f51023          	sh	a5,0(a0)
C:\Users\29275\Desktop\WchWorkSPace\camCoreWithRTOS\obj/../Libraries/wch_libraries/Peripheral/ch32v10x_tim.c:442
  }
}
    1484:	8082                	ret

00001486 <TIM_EncoderInterfaceConfig>:
TIM_EncoderInterfaceConfig():
C:\Users\29275\Desktop\WchWorkSPace\camCoreWithRTOS\obj/../Libraries/wch_libraries/Peripheral/ch32v10x_tim.c:801
{
  uint16_t tmpsmcr = 0;
  uint16_t tmpccmr1 = 0;
  uint16_t tmpccer = 0;
    
  tmpsmcr = TIMx->SMCFGR;
    1486:	00855803          	lhu	a6,8(a0)
    148a:	0842                	slli	a6,a6,0x10
    148c:	01085813          	srli	a6,a6,0x10
C:\Users\29275\Desktop\WchWorkSPace\camCoreWithRTOS\obj/../Libraries/wch_libraries/Peripheral/ch32v10x_tim.c:802
  tmpccmr1 = TIMx->CHCTLR1;
    1490:	01855703          	lhu	a4,24(a0)
    1494:	0742                	slli	a4,a4,0x10
    1496:	8341                	srli	a4,a4,0x10
C:\Users\29275\Desktop\WchWorkSPace\camCoreWithRTOS\obj/../Libraries/wch_libraries/Peripheral/ch32v10x_tim.c:803
  tmpccer = TIMx->CCER;
    1498:	02055783          	lhu	a5,32(a0)
    149c:	07c2                	slli	a5,a5,0x10
    149e:	83c1                	srli	a5,a5,0x10
C:\Users\29275\Desktop\WchWorkSPace\camCoreWithRTOS\obj/../Libraries/wch_libraries/Peripheral/ch32v10x_tim.c:804
  tmpsmcr &= (uint16_t)(~((uint16_t)TIM_SMS));
    14a0:	ff887813          	andi	a6,a6,-8
C:\Users\29275\Desktop\WchWorkSPace\camCoreWithRTOS\obj/../Libraries/wch_libraries/Peripheral/ch32v10x_tim.c:805
  tmpsmcr |= TIM_EncoderMode;
    14a4:	00b865b3          	or	a1,a6,a1
C:\Users\29275\Desktop\WchWorkSPace\camCoreWithRTOS\obj/../Libraries/wch_libraries/Peripheral/ch32v10x_tim.c:806
  tmpccmr1 &= (uint16_t)(((uint16_t)~((uint16_t)TIM_CC1S)) & (uint16_t)(~((uint16_t)TIM_CC2S)));
    14a8:	cfc77713          	andi	a4,a4,-772
C:\Users\29275\Desktop\WchWorkSPace\camCoreWithRTOS\obj/../Libraries/wch_libraries/Peripheral/ch32v10x_tim.c:807
  tmpccmr1 |= TIM_CC1S_0 | TIM_CC2S_0;
    14ac:	10176713          	ori	a4,a4,257
C:\Users\29275\Desktop\WchWorkSPace\camCoreWithRTOS\obj/../Libraries/wch_libraries/Peripheral/ch32v10x_tim.c:808
  tmpccer &= (uint16_t)(((uint16_t)~((uint16_t)TIM_CC1P)) & ((uint16_t)~((uint16_t)TIM_CC2P)));
    14b0:	fdd7f793          	andi	a5,a5,-35
C:\Users\29275\Desktop\WchWorkSPace\camCoreWithRTOS\obj/../Libraries/wch_libraries/Peripheral/ch32v10x_tim.c:809
  tmpccer |= (uint16_t)(TIM_IC1Polarity | (uint16_t)(TIM_IC2Polarity << (uint16_t)4)); 
    14b4:	0692                	slli	a3,a3,0x4
    14b6:	8e55                	or	a2,a2,a3
    14b8:	8fd1                	or	a5,a5,a2
    14ba:	07c2                	slli	a5,a5,0x10
    14bc:	83c1                	srli	a5,a5,0x10
C:\Users\29275\Desktop\WchWorkSPace\camCoreWithRTOS\obj/../Libraries/wch_libraries/Peripheral/ch32v10x_tim.c:810
  TIMx->SMCFGR = tmpsmcr;
    14be:	00b51423          	sh	a1,8(a0)
C:\Users\29275\Desktop\WchWorkSPace\camCoreWithRTOS\obj/../Libraries/wch_libraries/Peripheral/ch32v10x_tim.c:811
  TIMx->CHCTLR1 = tmpccmr1;
    14c2:	00e51c23          	sh	a4,24(a0)
C:\Users\29275\Desktop\WchWorkSPace\camCoreWithRTOS\obj/../Libraries/wch_libraries/Peripheral/ch32v10x_tim.c:812
  TIMx->CCER = tmpccer;
    14c6:	02f51023          	sh	a5,32(a0)
C:\Users\29275\Desktop\WchWorkSPace\camCoreWithRTOS\obj/../Libraries/wch_libraries/Peripheral/ch32v10x_tim.c:813
}
    14ca:	8082                	ret

000014cc <TIM_GetITStatus>:
TIM_GetITStatus():
C:\Users\29275\Desktop\WchWorkSPace\camCoreWithRTOS\obj/../Libraries/wch_libraries/Peripheral/ch32v10x_tim.c:1857
ITStatus TIM_GetITStatus(TIM_TypeDef* TIMx, uint16_t TIM_IT)
{
  ITStatus bitstatus = RESET;  
  uint16_t itstatus = 0x0, itenable = 0x0;
   
  itstatus = TIMx->INTFR & TIM_IT;
    14cc:	01055783          	lhu	a5,16(a0)
C:\Users\29275\Desktop\WchWorkSPace\camCoreWithRTOS\obj/../Libraries/wch_libraries/Peripheral/ch32v10x_tim.c:1859
  
  itenable = TIMx->DMAINTENR & TIM_IT;
    14d0:	00c55503          	lhu	a0,12(a0)
    14d4:	0542                	slli	a0,a0,0x10
    14d6:	8141                	srli	a0,a0,0x10
C:\Users\29275\Desktop\WchWorkSPace\camCoreWithRTOS\obj/../Libraries/wch_libraries/Peripheral/ch32v10x_tim.c:1860
  if ((itstatus != (uint16_t)RESET) && (itenable != (uint16_t)RESET))
    14d8:	8fed                	and	a5,a5,a1
    14da:	c789                	beqz	a5,14e4 <TIM_GetITStatus+0x18>
C:\Users\29275\Desktop\WchWorkSPace\camCoreWithRTOS\obj/../Libraries/wch_libraries/Peripheral/ch32v10x_tim.c:1860 (discriminator 1)
    14dc:	8d6d                	and	a0,a0,a1
    14de:	00a03533          	snez	a0,a0
    14e2:	8082                	ret
C:\Users\29275\Desktop\WchWorkSPace\camCoreWithRTOS\obj/../Libraries/wch_libraries/Peripheral/ch32v10x_tim.c:1866
  {
    bitstatus = SET;
  }
  else
  {
    bitstatus = RESET;
    14e4:	4501                	li	a0,0
C:\Users\29275\Desktop\WchWorkSPace\camCoreWithRTOS\obj/../Libraries/wch_libraries/Peripheral/ch32v10x_tim.c:1870
  }
	
  return bitstatus;
}
    14e6:	8082                	ret

000014e8 <TIM_ClearITPendingBit>:
TIM_ClearITPendingBit():
C:\Users\29275\Desktop\WchWorkSPace\camCoreWithRTOS\obj/../Libraries/wch_libraries/Peripheral/ch32v10x_tim.c:1889
*                    TIM_IT_Break: TIM Break Interrupt source.
* Return         : None
*******************************************************************************/
void TIM_ClearITPendingBit(TIM_TypeDef* TIMx, uint16_t TIM_IT)
{
  TIMx->INTFR = (uint16_t)~TIM_IT;
    14e8:	fff5c593          	not	a1,a1
    14ec:	05c2                	slli	a1,a1,0x10
    14ee:	81c1                	srli	a1,a1,0x10
    14f0:	00b51823          	sh	a1,16(a0)
C:\Users\29275\Desktop\WchWorkSPace\camCoreWithRTOS\obj/../Libraries/wch_libraries/Peripheral/ch32v10x_tim.c:1890
}
    14f4:	8082                	ret

000014f6 <USART_Init>:
USART_Init():
C:\Users\29275\Desktop\WchWorkSPace\camCoreWithRTOS\obj/../Libraries/wch_libraries/Peripheral/ch32v10x_usart.c:105
*                  USART_InitStruct: pointer to a USART_InitTypeDef structure
*      that contains the configuration information for the specified USART peripheral. 
* Return         : None
*******************************************************************************/
void USART_Init(USART_TypeDef* USARTx, USART_InitTypeDef* USART_InitStruct)
{
    14f6:	7179                	addi	sp,sp,-48
    14f8:	d606                	sw	ra,44(sp)
    14fa:	d422                	sw	s0,40(sp)
    14fc:	d226                	sw	s1,36(sp)
    14fe:	842a                	mv	s0,a0
    1500:	84ae                	mv	s1,a1
C:\Users\29275\Desktop\WchWorkSPace\camCoreWithRTOS\obj/../Libraries/wch_libraries/Peripheral/ch32v10x_usart.c:117
  if (USART_InitStruct->USART_HardwareFlowControl != USART_HardwareFlowControl_None)
  {
  }

  usartxbase = (uint32_t)USARTx;
  tmpreg = USARTx->CTLR2;
    1502:	01055703          	lhu	a4,16(a0)
C:\Users\29275\Desktop\WchWorkSPace\camCoreWithRTOS\obj/../Libraries/wch_libraries/Peripheral/ch32v10x_usart.c:119
  tmpreg &= CTLR2_STOP_CLEAR_Mask;
  tmpreg |= (uint32_t)USART_InitStruct->USART_StopBits;  
    1506:	77f5                	lui	a5,0xffffd
    1508:	17fd                	addi	a5,a5,-1
    150a:	8ff9                	and	a5,a5,a4
    150c:	0065d703          	lhu	a4,6(a1)
    1510:	8fd9                	or	a5,a5,a4
C:\Users\29275\Desktop\WchWorkSPace\camCoreWithRTOS\obj/../Libraries/wch_libraries/Peripheral/ch32v10x_usart.c:121
	
  USARTx->CTLR2 = (uint16_t)tmpreg;
    1512:	00f51823          	sh	a5,16(a0)
C:\Users\29275\Desktop\WchWorkSPace\camCoreWithRTOS\obj/../Libraries/wch_libraries/Peripheral/ch32v10x_usart.c:122
  tmpreg = USARTx->CTLR1;
    1516:	00c55703          	lhu	a4,12(a0)
C:\Users\29275\Desktop\WchWorkSPace\camCoreWithRTOS\obj/../Libraries/wch_libraries/Peripheral/ch32v10x_usart.c:124
  tmpreg &= CTLR1_CLEAR_Mask;
  tmpreg |= (uint32_t)USART_InitStruct->USART_WordLength | USART_InitStruct->USART_Parity |
    151a:	77fd                	lui	a5,0xfffff
    151c:	9f378793          	addi	a5,a5,-1549 # ffffe9f3 <_eusrstack+0xdfff99f3>
    1520:	8ff9                	and	a5,a5,a4
    1522:	0045d703          	lhu	a4,4(a1)
    1526:	8fd9                	or	a5,a5,a4
    1528:	0085d703          	lhu	a4,8(a1)
    152c:	8fd9                	or	a5,a5,a4
    152e:	00a5d703          	lhu	a4,10(a1)
    1532:	8fd9                	or	a5,a5,a4
C:\Users\29275\Desktop\WchWorkSPace\camCoreWithRTOS\obj/../Libraries/wch_libraries/Peripheral/ch32v10x_usart.c:126
            USART_InitStruct->USART_Mode;
  USARTx->CTLR1 = (uint16_t)tmpreg;
    1534:	00f51623          	sh	a5,12(a0)
C:\Users\29275\Desktop\WchWorkSPace\camCoreWithRTOS\obj/../Libraries/wch_libraries/Peripheral/ch32v10x_usart.c:128
 
  tmpreg = USARTx->CTLR3;
    1538:	01455783          	lhu	a5,20(a0)
    153c:	07c2                	slli	a5,a5,0x10
    153e:	83c1                	srli	a5,a5,0x10
C:\Users\29275\Desktop\WchWorkSPace\camCoreWithRTOS\obj/../Libraries/wch_libraries/Peripheral/ch32v10x_usart.c:130
  tmpreg &= CTLR3_CLEAR_Mask;
  tmpreg |= USART_InitStruct->USART_HardwareFlowControl;
    1540:	cff7f793          	andi	a5,a5,-769
    1544:	00c5d703          	lhu	a4,12(a1)
    1548:	8fd9                	or	a5,a5,a4
C:\Users\29275\Desktop\WchWorkSPace\camCoreWithRTOS\obj/../Libraries/wch_libraries/Peripheral/ch32v10x_usart.c:131
  USARTx->CTLR3 = (uint16_t)tmpreg;
    154a:	00f51a23          	sh	a5,20(a0)
C:\Users\29275\Desktop\WchWorkSPace\camCoreWithRTOS\obj/../Libraries/wch_libraries/Peripheral/ch32v10x_usart.c:133

  RCC_GetClocksFreq(&RCC_ClocksStatus);
    154e:	0068                	addi	a0,sp,12
    1550:	3b19                	jal	1266 <RCC_GetClocksFreq>
C:\Users\29275\Desktop\WchWorkSPace\camCoreWithRTOS\obj/../Libraries/wch_libraries/Peripheral/ch32v10x_usart.c:135
	
  if (usartxbase == USART1_BASE)
    1552:	400147b7          	lui	a5,0x40014
    1556:	80078793          	addi	a5,a5,-2048 # 40013800 <_eusrstack+0x2000e800>
    155a:	06f40163          	beq	s0,a5,15bc <USART_Init+0xc6>
C:\Users\29275\Desktop\WchWorkSPace\camCoreWithRTOS\obj/../Libraries/wch_libraries/Peripheral/ch32v10x_usart.c:141
  {
    apbclock = RCC_ClocksStatus.PCLK2_Frequency;
  }
  else
  {
    apbclock = RCC_ClocksStatus.PCLK1_Frequency;
    155e:	4752                	lw	a4,20(sp)
C:\Users\29275\Desktop\WchWorkSPace\camCoreWithRTOS\obj/../Libraries/wch_libraries/Peripheral/ch32v10x_usart.c:144
  }
  
  if ((USARTx->CTLR1 & CTLR1_OVER8_Set) != 0)
    1560:	00c45783          	lhu	a5,12(s0)
    1564:	07c2                	slli	a5,a5,0x10
    1566:	87c1                	srai	a5,a5,0x10
    1568:	0407cc63          	bltz	a5,15c0 <USART_Init+0xca>
C:\Users\29275\Desktop\WchWorkSPace\camCoreWithRTOS\obj/../Libraries/wch_libraries/Peripheral/ch32v10x_usart.c:150
  {
    integerdivider = ((25 * apbclock) / (2 * (USART_InitStruct->USART_BaudRate)));    
  }
  else 
  {
    integerdivider = ((25 * apbclock) / (4 * (USART_InitStruct->USART_BaudRate)));    
    156c:	00171793          	slli	a5,a4,0x1
    1570:	97ba                	add	a5,a5,a4
    1572:	078e                	slli	a5,a5,0x3
    1574:	97ba                	add	a5,a5,a4
    1576:	4098                	lw	a4,0(s1)
    1578:	070a                	slli	a4,a4,0x2
    157a:	02e7d7b3          	divu	a5,a5,a4
C:\Users\29275\Desktop\WchWorkSPace\camCoreWithRTOS\obj/../Libraries/wch_libraries/Peripheral/ch32v10x_usart.c:152
  }
  tmpreg = (integerdivider / 100) << 4;
    157e:	06400713          	li	a4,100
    1582:	02e7d6b3          	divu	a3,a5,a4
    1586:	0692                	slli	a3,a3,0x4
C:\Users\29275\Desktop\WchWorkSPace\camCoreWithRTOS\obj/../Libraries/wch_libraries/Peripheral/ch32v10x_usart.c:154

  fractionaldivider = integerdivider - (100 * (tmpreg >> 4));
    1588:	02e7f7b3          	remu	a5,a5,a4
C:\Users\29275\Desktop\WchWorkSPace\camCoreWithRTOS\obj/../Libraries/wch_libraries/Peripheral/ch32v10x_usart.c:156

  if ((USARTx->CTLR1 & CTLR1_OVER8_Set) != 0)
    158c:	00c45703          	lhu	a4,12(s0)
    1590:	0742                	slli	a4,a4,0x10
    1592:	8741                	srai	a4,a4,0x10
    1594:	04074063          	bltz	a4,15d4 <USART_Init+0xde>
C:\Users\29275\Desktop\WchWorkSPace\camCoreWithRTOS\obj/../Libraries/wch_libraries/Peripheral/ch32v10x_usart.c:162
  {
    tmpreg |= ((((fractionaldivider * 8) + 50) / 100)) & ((uint8_t)0x07);
  }
  else 
  {
    tmpreg |= ((((fractionaldivider * 16) + 50) / 100)) & ((uint8_t)0x0F);
    1598:	0792                	slli	a5,a5,0x4
    159a:	03278793          	addi	a5,a5,50
    159e:	06400713          	li	a4,100
    15a2:	02e7d7b3          	divu	a5,a5,a4
    15a6:	8bbd                	andi	a5,a5,15
    15a8:	8fd5                	or	a5,a5,a3
C:\Users\29275\Desktop\WchWorkSPace\camCoreWithRTOS\obj/../Libraries/wch_libraries/Peripheral/ch32v10x_usart.c:165
  }
  
  USARTx->BRR = (uint16_t)tmpreg;
    15aa:	07c2                	slli	a5,a5,0x10
    15ac:	83c1                	srli	a5,a5,0x10
    15ae:	00f41423          	sh	a5,8(s0)
C:\Users\29275\Desktop\WchWorkSPace\camCoreWithRTOS\obj/../Libraries/wch_libraries/Peripheral/ch32v10x_usart.c:166
}
    15b2:	50b2                	lw	ra,44(sp)
    15b4:	5422                	lw	s0,40(sp)
    15b6:	5492                	lw	s1,36(sp)
    15b8:	6145                	addi	sp,sp,48
    15ba:	8082                	ret
C:\Users\29275\Desktop\WchWorkSPace\camCoreWithRTOS\obj/../Libraries/wch_libraries/Peripheral/ch32v10x_usart.c:137
    apbclock = RCC_ClocksStatus.PCLK2_Frequency;
    15bc:	4762                	lw	a4,24(sp)
    15be:	b74d                	j	1560 <USART_Init+0x6a>
C:\Users\29275\Desktop\WchWorkSPace\camCoreWithRTOS\obj/../Libraries/wch_libraries/Peripheral/ch32v10x_usart.c:146
    integerdivider = ((25 * apbclock) / (2 * (USART_InitStruct->USART_BaudRate)));    
    15c0:	00171793          	slli	a5,a4,0x1
    15c4:	97ba                	add	a5,a5,a4
    15c6:	078e                	slli	a5,a5,0x3
    15c8:	97ba                	add	a5,a5,a4
    15ca:	4098                	lw	a4,0(s1)
    15cc:	0706                	slli	a4,a4,0x1
    15ce:	02e7d7b3          	divu	a5,a5,a4
    15d2:	b775                	j	157e <USART_Init+0x88>
C:\Users\29275\Desktop\WchWorkSPace\camCoreWithRTOS\obj/../Libraries/wch_libraries/Peripheral/ch32v10x_usart.c:158
    tmpreg |= ((((fractionaldivider * 8) + 50) / 100)) & ((uint8_t)0x07);
    15d4:	00379713          	slli	a4,a5,0x3
    15d8:	03270713          	addi	a4,a4,50
    15dc:	06400793          	li	a5,100
    15e0:	02f75733          	divu	a4,a4,a5
    15e4:	8b1d                	andi	a4,a4,7
    15e6:	00d767b3          	or	a5,a4,a3
    15ea:	b7c1                	j	15aa <USART_Init+0xb4>

000015ec <USART_Cmd>:
USART_Cmd():
C:\Users\29275\Desktop\WchWorkSPace\camCoreWithRTOS\obj/../Libraries/wch_libraries/Peripheral/ch32v10x_usart.c:230
*                  NewState: ENABLE or DISABLE.
* Return         : None
*******************************************************************************/
void USART_Cmd(USART_TypeDef* USARTx, FunctionalState NewState)
{
  if (NewState != DISABLE)
    15ec:	c981                	beqz	a1,15fc <USART_Cmd+0x10>
C:\Users\29275\Desktop\WchWorkSPace\camCoreWithRTOS\obj/../Libraries/wch_libraries/Peripheral/ch32v10x_usart.c:232
  {
    USARTx->CTLR1 |= CTLR1_UE_Set;
    15ee:	00c55783          	lhu	a5,12(a0)
    15f2:	6709                	lui	a4,0x2
    15f4:	8fd9                	or	a5,a5,a4
    15f6:	00f51623          	sh	a5,12(a0)
    15fa:	8082                	ret
C:\Users\29275\Desktop\WchWorkSPace\camCoreWithRTOS\obj/../Libraries/wch_libraries/Peripheral/ch32v10x_usart.c:236
  }
  else
  {
    USARTx->CTLR1 &= CTLR1_UE_Reset;
    15fc:	00c55703          	lhu	a4,12(a0)
    1600:	77f9                	lui	a5,0xffffe
    1602:	17fd                	addi	a5,a5,-1
    1604:	8ff9                	and	a5,a5,a4
    1606:	00f51623          	sh	a5,12(a0)
C:\Users\29275\Desktop\WchWorkSPace\camCoreWithRTOS\obj/../Libraries/wch_libraries/Peripheral/ch32v10x_usart.c:238
  }
}
    160a:	8082                	ret

0000160c <USART_ITConfig>:
USART_ITConfig():
C:\Users\29275\Desktop\WchWorkSPace\camCoreWithRTOS\obj/../Libraries/wch_libraries/Peripheral/ch32v10x_usart.c:266
  if (USART_IT == USART_IT_CTS)
  {
  }   
  
  usartxbase = (uint32_t)USARTx;
  usartreg = (((uint8_t)USART_IT) >> 0x05);
    160c:	0ff5f793          	andi	a5,a1,255
    1610:	8395                	srli	a5,a5,0x5
C:\Users\29275\Desktop\WchWorkSPace\camCoreWithRTOS\obj/../Libraries/wch_libraries/Peripheral/ch32v10x_usart.c:268
  itpos = USART_IT & IT_Mask;
  itmask = (((uint32_t)0x01) << itpos);
    1612:	4705                	li	a4,1
    1614:	00b715b3          	sll	a1,a4,a1
C:\Users\29275\Desktop\WchWorkSPace\camCoreWithRTOS\obj/../Libraries/wch_libraries/Peripheral/ch32v10x_usart.c:270
    
  if (usartreg == 0x01) 
    1618:	00e78c63          	beq	a5,a4,1630 <USART_ITConfig+0x24>
C:\Users\29275\Desktop\WchWorkSPace\camCoreWithRTOS\obj/../Libraries/wch_libraries/Peripheral/ch32v10x_usart.c:274
  {
    usartxbase += 0x0C;
  }
  else if (usartreg == 0x02) 
    161c:	4689                	li	a3,2
C:\Users\29275\Desktop\WchWorkSPace\camCoreWithRTOS\obj/../Libraries/wch_libraries/Peripheral/ch32v10x_usart.c:280
  {
    usartxbase += 0x10;
  }
  else 
  {
    usartxbase += 0x14; 
    161e:	01450713          	addi	a4,a0,20
C:\Users\29275\Desktop\WchWorkSPace\camCoreWithRTOS\obj/../Libraries/wch_libraries/Peripheral/ch32v10x_usart.c:274
  else if (usartreg == 0x02) 
    1622:	00d78a63          	beq	a5,a3,1636 <USART_ITConfig+0x2a>
C:\Users\29275\Desktop\WchWorkSPace\camCoreWithRTOS\obj/../Libraries/wch_libraries/Peripheral/ch32v10x_usart.c:283
  }
	
  if (NewState != DISABLE)
    1626:	ca19                	beqz	a2,163c <USART_ITConfig+0x30>
C:\Users\29275\Desktop\WchWorkSPace\camCoreWithRTOS\obj/../Libraries/wch_libraries/Peripheral/ch32v10x_usart.c:285
  {
    *(__IO uint32_t*)usartxbase  |= itmask;
    1628:	431c                	lw	a5,0(a4)
    162a:	8ddd                	or	a1,a1,a5
    162c:	c30c                	sw	a1,0(a4)
    162e:	8082                	ret
C:\Users\29275\Desktop\WchWorkSPace\camCoreWithRTOS\obj/../Libraries/wch_libraries/Peripheral/ch32v10x_usart.c:272
    usartxbase += 0x0C;
    1630:	00c50713          	addi	a4,a0,12
    1634:	bfcd                	j	1626 <USART_ITConfig+0x1a>
C:\Users\29275\Desktop\WchWorkSPace\camCoreWithRTOS\obj/../Libraries/wch_libraries/Peripheral/ch32v10x_usart.c:276
    usartxbase += 0x10;
    1636:	01050713          	addi	a4,a0,16
    163a:	b7f5                	j	1626 <USART_ITConfig+0x1a>
C:\Users\29275\Desktop\WchWorkSPace\camCoreWithRTOS\obj/../Libraries/wch_libraries/Peripheral/ch32v10x_usart.c:289
  }
  else
  {
    *(__IO uint32_t*)usartxbase &= ~itmask;
    163c:	431c                	lw	a5,0(a4)
    163e:	fff5c593          	not	a1,a1
    1642:	8dfd                	and	a1,a1,a5
    1644:	c30c                	sw	a1,0(a4)
C:\Users\29275\Desktop\WchWorkSPace\camCoreWithRTOS\obj/../Libraries/wch_libraries/Peripheral/ch32v10x_usart.c:291
  }
}
    1646:	8082                	ret

00001648 <USART_SendData>:
USART_SendData():
C:\Users\29275\Desktop\WchWorkSPace\camCoreWithRTOS\obj/../Libraries/wch_libraries/Peripheral/ch32v10x_usart.c:405
*                  Data: the data to transmit..
* Return         : None
*******************************************************************************/
void USART_SendData(USART_TypeDef* USARTx, uint16_t Data)
{
  USARTx->DATAR = (Data & (uint16_t)0x01FF);
    1648:	1ff5f593          	andi	a1,a1,511
    164c:	00b51223          	sh	a1,4(a0)
C:\Users\29275\Desktop\WchWorkSPace\camCoreWithRTOS\obj/../Libraries/wch_libraries/Peripheral/ch32v10x_usart.c:406
}
    1650:	8082                	ret

00001652 <USART_GetFlagStatus>:
USART_GetFlagStatus():
C:\Users\29275\Desktop\WchWorkSPace\camCoreWithRTOS\obj/../Libraries/wch_libraries/Peripheral/ch32v10x_usart.c:610

  if (USART_FLAG == USART_FLAG_CTS)
  {
  }  
  
  if ((USARTx->STATR & USART_FLAG) != (uint16_t)RESET)
    1652:	00055503          	lhu	a0,0(a0)
    1656:	8d6d                	and	a0,a0,a1
C:\Users\29275\Desktop\WchWorkSPace\camCoreWithRTOS\obj/../Libraries/wch_libraries/Peripheral/ch32v10x_usart.c:619
  else
  {
    bitstatus = RESET;
  }
  return bitstatus;
}
    1658:	00a03533          	snez	a0,a0
    165c:	8082                	ret

0000165e <USART_GetITStatus>:
USART_GetITStatus():
C:\Users\29275\Desktop\WchWorkSPace\camCoreWithRTOS\obj/../Libraries/wch_libraries/Peripheral/ch32v10x_usart.c:668

  if (USART_IT == USART_IT_CTS)
  {
  }   
  
  usartreg = (((uint8_t)USART_IT) >> 0x05);
    165e:	0ff5f793          	andi	a5,a1,255
    1662:	8395                	srli	a5,a5,0x5
C:\Users\29275\Desktop\WchWorkSPace\camCoreWithRTOS\obj/../Libraries/wch_libraries/Peripheral/ch32v10x_usart.c:670
  itmask = USART_IT & IT_Mask;
  itmask = (uint32_t)0x01 << itmask;
    1664:	4685                	li	a3,1
    1666:	00b69733          	sll	a4,a3,a1
C:\Users\29275\Desktop\WchWorkSPace\camCoreWithRTOS\obj/../Libraries/wch_libraries/Peripheral/ch32v10x_usart.c:672
  
  if (usartreg == 0x01) 
    166a:	02d78863          	beq	a5,a3,169a <USART_GetITStatus+0x3c>
C:\Users\29275\Desktop\WchWorkSPace\camCoreWithRTOS\obj/../Libraries/wch_libraries/Peripheral/ch32v10x_usart.c:676
  {
    itmask &= USARTx->CTLR1;
  }
  else if (usartreg == 0x02) 
    166e:	4689                	li	a3,2
    1670:	02d78963          	beq	a5,a3,16a2 <USART_GetITStatus+0x44>
C:\Users\29275\Desktop\WchWorkSPace\camCoreWithRTOS\obj/../Libraries/wch_libraries/Peripheral/ch32v10x_usart.c:682
  {
    itmask &= USARTx->CTLR2;
  }
  else 
  {
    itmask &= USARTx->CTLR3;
    1674:	01455783          	lhu	a5,20(a0)
    1678:	8f7d                	and	a4,a4,a5
C:\Users\29275\Desktop\WchWorkSPace\camCoreWithRTOS\obj/../Libraries/wch_libraries/Peripheral/ch32v10x_usart.c:687
  }
  
  bitpos = USART_IT >> 0x08;
  bitpos = (uint32_t)0x01 << bitpos;
  bitpos &= USARTx->STATR;
    167a:	00055503          	lhu	a0,0(a0)
    167e:	01051793          	slli	a5,a0,0x10
    1682:	83c1                	srli	a5,a5,0x10
C:\Users\29275\Desktop\WchWorkSPace\camCoreWithRTOS\obj/../Libraries/wch_libraries/Peripheral/ch32v10x_usart.c:695
  {
    bitstatus = SET;
  }
  else
  {
    bitstatus = RESET;
    1684:	4501                	li	a0,0
C:\Users\29275\Desktop\WchWorkSPace\camCoreWithRTOS\obj/../Libraries/wch_libraries/Peripheral/ch32v10x_usart.c:689
  if ((itmask != (uint16_t)RESET)&&(bitpos != (uint16_t)RESET))
    1686:	cb09                	beqz	a4,1698 <USART_GetITStatus+0x3a>
C:\Users\29275\Desktop\WchWorkSPace\camCoreWithRTOS\obj/../Libraries/wch_libraries/Peripheral/ch32v10x_usart.c:685 (discriminator 1)
  bitpos = USART_IT >> 0x08;
    1688:	81a1                	srli	a1,a1,0x8
C:\Users\29275\Desktop\WchWorkSPace\camCoreWithRTOS\obj/../Libraries/wch_libraries/Peripheral/ch32v10x_usart.c:686 (discriminator 1)
  bitpos = (uint32_t)0x01 << bitpos;
    168a:	4505                	li	a0,1
    168c:	00b515b3          	sll	a1,a0,a1
C:\Users\29275\Desktop\WchWorkSPace\camCoreWithRTOS\obj/../Libraries/wch_libraries/Peripheral/ch32v10x_usart.c:687 (discriminator 1)
  bitpos &= USARTx->STATR;
    1690:	00b7f533          	and	a0,a5,a1
C:\Users\29275\Desktop\WchWorkSPace\camCoreWithRTOS\obj/../Libraries/wch_libraries/Peripheral/ch32v10x_usart.c:689 (discriminator 1)
  if ((itmask != (uint16_t)RESET)&&(bitpos != (uint16_t)RESET))
    1694:	00a03533          	snez	a0,a0
C:\Users\29275\Desktop\WchWorkSPace\camCoreWithRTOS\obj/../Libraries/wch_libraries/Peripheral/ch32v10x_usart.c:699
  }
  
  return bitstatus;  
}
    1698:	8082                	ret
C:\Users\29275\Desktop\WchWorkSPace\camCoreWithRTOS\obj/../Libraries/wch_libraries/Peripheral/ch32v10x_usart.c:674
    itmask &= USARTx->CTLR1;
    169a:	00c55783          	lhu	a5,12(a0)
    169e:	8f7d                	and	a4,a4,a5
    16a0:	bfe9                	j	167a <USART_GetITStatus+0x1c>
C:\Users\29275\Desktop\WchWorkSPace\camCoreWithRTOS\obj/../Libraries/wch_libraries/Peripheral/ch32v10x_usart.c:678
    itmask &= USARTx->CTLR2;
    16a2:	01055783          	lhu	a5,16(a0)
    16a6:	8f7d                	and	a4,a4,a5
    16a8:	bfc9                	j	167a <USART_GetITStatus+0x1c>

000016aa <mt9v03x_uart_callback>:
mt9v03x_uart_callback():
C:\Users\29275\Desktop\WchWorkSPace\camCoreWithRTOS\obj/../Libraries/seekfree_peripheral/SEEKFREE_MT9V03X.c:90
//  @since      v1.0
//  Sample usage:
//  @note       
//-------------------------------------------------------------------------------------------------------------------
void mt9v03x_uart_callback(void)
{
    16aa:	1141                	addi	sp,sp,-16
    16ac:	c606                	sw	ra,12(sp)
    16ae:	c422                	sw	s0,8(sp)
C:\Users\29275\Desktop\WchWorkSPace\camCoreWithRTOS\obj/../Libraries/seekfree_peripheral/SEEKFREE_MT9V03X.c:91
    uart_query(MT9V03X_COF_UART, &receive[receive_num]);
    16b0:	83b18413          	addi	s0,gp,-1989 # 200000eb <receive_num>
    16b4:	00044583          	lbu	a1,0(s0)
    16b8:	83818793          	addi	a5,gp,-1992 # 200000e8 <receive>
    16bc:	95be                	add	a1,a1,a5
    16be:	4505                	li	a0,1
    16c0:	309000ef          	jal	ra,21c8 <uart_query>
C:\Users\29275\Desktop\WchWorkSPace\camCoreWithRTOS\obj/../Libraries/seekfree_peripheral/SEEKFREE_MT9V03X.c:92
    receive_num++;
    16c4:	00044783          	lbu	a5,0(s0)
    16c8:	0785                	addi	a5,a5,1
    16ca:	0ff7f793          	andi	a5,a5,255
    16ce:	00f40023          	sb	a5,0(s0)
C:\Users\29275\Desktop\WchWorkSPace\camCoreWithRTOS\obj/../Libraries/seekfree_peripheral/SEEKFREE_MT9V03X.c:94

    if(1==receive_num && 0XA5!=receive[0])  receive_num = 0;
    16d2:	4705                	li	a4,1
    16d4:	00e78e63          	beq	a5,a4,16f0 <mt9v03x_uart_callback+0x46>
C:\Users\29275\Desktop\WchWorkSPace\camCoreWithRTOS\obj/../Libraries/seekfree_peripheral/SEEKFREE_MT9V03X.c:95
    if(3 == receive_num)
    16d8:	470d                	li	a4,3
    16da:	00e79763          	bne	a5,a4,16e8 <mt9v03x_uart_callback+0x3e>
C:\Users\29275\Desktop\WchWorkSPace\camCoreWithRTOS\obj/../Libraries/seekfree_peripheral/SEEKFREE_MT9V03X.c:97
    {
        receive_num = 0;
    16de:	82018da3          	sb	zero,-1989(gp) # 200000eb <receive_num>
C:\Users\29275\Desktop\WchWorkSPace\camCoreWithRTOS\obj/../Libraries/seekfree_peripheral/SEEKFREE_MT9V03X.c:98
        uart_receive_flag = 1;
    16e2:	4705                	li	a4,1
    16e4:	82e18e23          	sb	a4,-1988(gp) # 200000ec <uart_receive_flag>
C:\Users\29275\Desktop\WchWorkSPace\camCoreWithRTOS\obj/../Libraries/seekfree_peripheral/SEEKFREE_MT9V03X.c:101
    }
    
}
    16e8:	40b2                	lw	ra,12(sp)
    16ea:	4422                	lw	s0,8(sp)
    16ec:	0141                	addi	sp,sp,16
    16ee:	8082                	ret
C:\Users\29275\Desktop\WchWorkSPace\camCoreWithRTOS\obj/../Libraries/seekfree_peripheral/SEEKFREE_MT9V03X.c:94 (discriminator 1)
    if(1==receive_num && 0XA5!=receive[0])  receive_num = 0;
    16f0:	8381c703          	lbu	a4,-1992(gp) # 200000e8 <receive>
    16f4:	0a500793          	li	a5,165
    16f8:	fef708e3          	beq	a4,a5,16e8 <mt9v03x_uart_callback+0x3e>
C:\Users\29275\Desktop\WchWorkSPace\camCoreWithRTOS\obj/../Libraries/seekfree_peripheral/SEEKFREE_MT9V03X.c:94 (discriminator 2)
    16fc:	82018da3          	sb	zero,-1989(gp) # 200000eb <receive_num>
    1700:	b7e5                	j	16e8 <mt9v03x_uart_callback+0x3e>

00001702 <mt9v03x_vsync>:
mt9v03x_vsync():
C:\Users\29275\Desktop\WchWorkSPace\camCoreWithRTOS\obj/../Libraries/seekfree_peripheral/SEEKFREE_MT9V03X.c:377
//  @since      v1.0
//  Sample usage:               isr.c()
//-------------------------------------------------------------------------------------------------------------------
void mt9v03x_vsync(void)
{
    MT9V03X_DMA_CH->CNTR = MT9V03X_H*MT9V03X_W;             //DMADMA
    1702:	400207b7          	lui	a5,0x40020
    1706:	6709                	lui	a4,0x2
    1708:	4b870713          	addi	a4,a4,1208 # 24b8 <rt_sem_take+0x38>
    170c:	c7b8                	sw	a4,72(a5)
C:\Users\29275\Desktop\WchWorkSPace\camCoreWithRTOS\obj/../Libraries/seekfree_peripheral/SEEKFREE_MT9V03X.c:378
    MT9V03X_DMA_CH->CFGR |= DMA_CFGR1_EN;
    170e:	43f8                	lw	a4,68(a5)
    1710:	00176713          	ori	a4,a4,1
    1714:	c3f8                	sw	a4,68(a5)
C:\Users\29275\Desktop\WchWorkSPace\camCoreWithRTOS\obj/../Libraries/seekfree_peripheral/SEEKFREE_MT9V03X.c:379
}
    1716:	8082                	ret

00001718 <mt9v03x_dma>:
mt9v03x_dma():
C:\Users\29275\Desktop\WchWorkSPace\camCoreWithRTOS\obj/../Libraries/seekfree_peripheral/SEEKFREE_MT9V03X.c:390
//  @since      v1.0
//  Sample usage:
//-------------------------------------------------------------------------------------------------------------------
extern rt_sem_t camera_sem;
void mt9v03x_dma(void)
{
    1718:	1141                	addi	sp,sp,-16
    171a:	c606                	sw	ra,12(sp)
C:\Users\29275\Desktop\WchWorkSPace\camCoreWithRTOS\obj/../Libraries/seekfree_peripheral/SEEKFREE_MT9V03X.c:391
    mt9v03x_finish_flag = 1;//3.8MS(50FPS188*120)
    171c:	4705                	li	a4,1
    171e:	82e18a23          	sb	a4,-1996(gp) # 200000e4 <mt9v03x_finish_flag>
C:\Users\29275\Desktop\WchWorkSPace\camCoreWithRTOS\obj/../Libraries/seekfree_peripheral/SEEKFREE_MT9V03X.c:392
    MT9V03X_DMA_CH->CFGR &= (uint16)(~DMA_CFGR1_EN);   //DMA1
    1722:	400206b7          	lui	a3,0x40020
    1726:	42fc                	lw	a5,68(a3)
    1728:	6741                	lui	a4,0x10
    172a:	1779                	addi	a4,a4,-2
    172c:	8ff9                	and	a5,a5,a4
    172e:	c2fc                	sw	a5,68(a3)
C:\Users\29275\Desktop\WchWorkSPace\camCoreWithRTOS\obj/../Libraries/seekfree_peripheral/SEEKFREE_MT9V03X.c:393
    rt_sem_release(camera_sem);
    1730:	8301a503          	lw	a0,-2000(gp) # 200000e0 <_edata>
    1734:	637000ef          	jal	ra,256a <rt_sem_release>
C:\Users\29275\Desktop\WchWorkSPace\camCoreWithRTOS\obj/../Libraries/seekfree_peripheral/SEEKFREE_MT9V03X.c:394
}
    1738:	40b2                	lw	ra,12(sp)
    173a:	0141                	addi	sp,sp,16
    173c:	8082                	ret

0000173e <oled_wrdat>:
oled_wrdat():
C:\Users\29275\Desktop\WchWorkSPace\camCoreWithRTOS\obj/../Libraries/seekfree_peripheral/SEEKFREE_OLED.c:58
//-------------------------------------------------------------------------------------------------------------------
void oled_wrdat(uint8 data)
{
	uint8 i=8;
	
    OLED_CS(0); //
    173e:	679d                	lui	a5,0x7
    1740:	d3078713          	addi	a4,a5,-720 # 6d30 <GPION>
    1744:	4718                	lw	a4,8(a4)
    1746:	66a1                	lui	a3,0x8
    1748:	cb54                	sw	a3,20(a4)
C:\Users\29275\Desktop\WchWorkSPace\camCoreWithRTOS\obj/../Libraries/seekfree_peripheral/SEEKFREE_OLED.c:59
	OLED_DC(1);
    174a:	6691                	lui	a3,0x4
    174c:	cb14                	sw	a3,16(a4)
C:\Users\29275\Desktop\WchWorkSPace\camCoreWithRTOS\obj/../Libraries/seekfree_peripheral/SEEKFREE_OLED.c:60
	OLED_SCL(0);
    174e:	d307a703          	lw	a4,-720(a5)
    1752:	02000793          	li	a5,32
    1756:	cb5c                	sw	a5,20(a4)
    1758:	47a1                	li	a5,8
C:\Users\29275\Desktop\WchWorkSPace\camCoreWithRTOS\obj/../Libraries/seekfree_peripheral/SEEKFREE_OLED.c:64
	while(i--)
	{
	  	if(data&0x80){OLED_SDA(1);}
	  	else{OLED_SDA(0);}
    175a:	08000593          	li	a1,128
C:\Users\29275\Desktop\WchWorkSPace\camCoreWithRTOS\obj/../Libraries/seekfree_peripheral/SEEKFREE_OLED.c:65
	  	OLED_SCL(1);
    175e:	02000693          	li	a3,32
    1762:	a819                	j	1778 <oled_wrdat+0x3a>
C:\Users\29275\Desktop\WchWorkSPace\camCoreWithRTOS\obj/../Libraries/seekfree_peripheral/SEEKFREE_OLED.c:63 (discriminator 1)
	  	if(data&0x80){OLED_SDA(1);}
    1764:	cb0c                	sw	a1,16(a4)
C:\Users\29275\Desktop\WchWorkSPace\camCoreWithRTOS\obj/../Libraries/seekfree_peripheral/SEEKFREE_OLED.c:65
	  	OLED_SCL(1);
    1766:	cb14                	sw	a3,16(a4)
C:\Users\29275\Desktop\WchWorkSPace\camCoreWithRTOS\obj/../Libraries/seekfree_peripheral/SEEKFREE_OLED.c:67
		
	  	OLED_SCL(0);
    1768:	cb54                	sw	a3,20(a4)
C:\Users\29275\Desktop\WchWorkSPace\camCoreWithRTOS\obj/../Libraries/seekfree_peripheral/SEEKFREE_OLED.c:68
	  	data<<=1;
    176a:	0506                	slli	a0,a0,0x1
    176c:	0ff57513          	andi	a0,a0,255
    1770:	17fd                	addi	a5,a5,-1
    1772:	0ff7f793          	andi	a5,a5,255
C:\Users\29275\Desktop\WchWorkSPace\camCoreWithRTOS\obj/../Libraries/seekfree_peripheral/SEEKFREE_OLED.c:61
	while(i--)
    1776:	cb81                	beqz	a5,1786 <oled_wrdat+0x48>
C:\Users\29275\Desktop\WchWorkSPace\camCoreWithRTOS\obj/../Libraries/seekfree_peripheral/SEEKFREE_OLED.c:63
	  	if(data&0x80){OLED_SDA(1);}
    1778:	01851613          	slli	a2,a0,0x18
    177c:	8661                	srai	a2,a2,0x18
    177e:	fe0643e3          	bltz	a2,1764 <oled_wrdat+0x26>
C:\Users\29275\Desktop\WchWorkSPace\camCoreWithRTOS\obj/../Libraries/seekfree_peripheral/SEEKFREE_OLED.c:64
	  	else{OLED_SDA(0);}
    1782:	cb4c                	sw	a1,20(a4)
    1784:	b7cd                	j	1766 <oled_wrdat+0x28>
C:\Users\29275\Desktop\WchWorkSPace\camCoreWithRTOS\obj/../Libraries/seekfree_peripheral/SEEKFREE_OLED.c:70
	}
    OLED_CS(1); //
    1786:	679d                	lui	a5,0x7
    1788:	d387a783          	lw	a5,-712(a5) # 6d38 <GPION+0x8>
    178c:	6721                	lui	a4,0x8
    178e:	cb98                	sw	a4,16(a5)
C:\Users\29275\Desktop\WchWorkSPace\camCoreWithRTOS\obj/../Libraries/seekfree_peripheral/SEEKFREE_OLED.c:71
}
    1790:	8082                	ret

00001792 <oled_wrcmd>:
oled_wrcmd():
C:\Users\29275\Desktop\WchWorkSPace\camCoreWithRTOS\obj/../Libraries/seekfree_peripheral/SEEKFREE_OLED.c:109
//-------------------------------------------------------------------------------------------------------------------
void oled_wrcmd(uint8 cmd)
{
	uint8 i=8;
    
	OLED_CS(0); //
    1792:	679d                	lui	a5,0x7
    1794:	d3078713          	addi	a4,a5,-720 # 6d30 <GPION>
    1798:	4718                	lw	a4,8(a4)
    179a:	66a1                	lui	a3,0x8
    179c:	cb54                	sw	a3,20(a4)
C:\Users\29275\Desktop\WchWorkSPace\camCoreWithRTOS\obj/../Libraries/seekfree_peripheral/SEEKFREE_OLED.c:110
	OLED_DC(0);
    179e:	6691                	lui	a3,0x4
    17a0:	cb54                	sw	a3,20(a4)
C:\Users\29275\Desktop\WchWorkSPace\camCoreWithRTOS\obj/../Libraries/seekfree_peripheral/SEEKFREE_OLED.c:111
	OLED_SCL(0);;
    17a2:	d307a703          	lw	a4,-720(a5)
    17a6:	02000793          	li	a5,32
    17aa:	cb5c                	sw	a5,20(a4)
    17ac:	47a1                	li	a5,8
C:\Users\29275\Desktop\WchWorkSPace\camCoreWithRTOS\obj/../Libraries/seekfree_peripheral/SEEKFREE_OLED.c:116
	
	while(i--)
	{
		if(cmd&0x80){OLED_SDA(1);}
		else{OLED_SDA(0);}
    17ae:	08000593          	li	a1,128
C:\Users\29275\Desktop\WchWorkSPace\camCoreWithRTOS\obj/../Libraries/seekfree_peripheral/SEEKFREE_OLED.c:117
		OLED_SCL(1);
    17b2:	02000693          	li	a3,32
    17b6:	a819                	j	17cc <oled_wrcmd+0x3a>
C:\Users\29275\Desktop\WchWorkSPace\camCoreWithRTOS\obj/../Libraries/seekfree_peripheral/SEEKFREE_OLED.c:115 (discriminator 1)
		if(cmd&0x80){OLED_SDA(1);}
    17b8:	cb0c                	sw	a1,16(a4)
C:\Users\29275\Desktop\WchWorkSPace\camCoreWithRTOS\obj/../Libraries/seekfree_peripheral/SEEKFREE_OLED.c:117
		OLED_SCL(1);
    17ba:	cb14                	sw	a3,16(a4)
C:\Users\29275\Desktop\WchWorkSPace\camCoreWithRTOS\obj/../Libraries/seekfree_peripheral/SEEKFREE_OLED.c:119
		
		OLED_SCL(0);
    17bc:	cb54                	sw	a3,20(a4)
C:\Users\29275\Desktop\WchWorkSPace\camCoreWithRTOS\obj/../Libraries/seekfree_peripheral/SEEKFREE_OLED.c:120
		cmd<<=1;
    17be:	0506                	slli	a0,a0,0x1
    17c0:	0ff57513          	andi	a0,a0,255
    17c4:	17fd                	addi	a5,a5,-1
    17c6:	0ff7f793          	andi	a5,a5,255
C:\Users\29275\Desktop\WchWorkSPace\camCoreWithRTOS\obj/../Libraries/seekfree_peripheral/SEEKFREE_OLED.c:113
	while(i--)
    17ca:	cb81                	beqz	a5,17da <oled_wrcmd+0x48>
C:\Users\29275\Desktop\WchWorkSPace\camCoreWithRTOS\obj/../Libraries/seekfree_peripheral/SEEKFREE_OLED.c:115
		if(cmd&0x80){OLED_SDA(1);}
    17cc:	01851613          	slli	a2,a0,0x18
    17d0:	8661                	srai	a2,a2,0x18
    17d2:	fe0643e3          	bltz	a2,17b8 <oled_wrcmd+0x26>
C:\Users\29275\Desktop\WchWorkSPace\camCoreWithRTOS\obj/../Libraries/seekfree_peripheral/SEEKFREE_OLED.c:116
		else{OLED_SDA(0);}
    17d6:	cb4c                	sw	a1,20(a4)
    17d8:	b7cd                	j	17ba <oled_wrcmd+0x28>
C:\Users\29275\Desktop\WchWorkSPace\camCoreWithRTOS\obj/../Libraries/seekfree_peripheral/SEEKFREE_OLED.c:122
	}
    OLED_CS(1); //
    17da:	679d                	lui	a5,0x7
    17dc:	d387a783          	lw	a5,-712(a5) # 6d38 <GPION+0x8>
    17e0:	6721                	lui	a4,0x8
    17e2:	cb98                	sw	a4,16(a5)
C:\Users\29275\Desktop\WchWorkSPace\camCoreWithRTOS\obj/../Libraries/seekfree_peripheral/SEEKFREE_OLED.c:123
}
    17e4:	8082                	ret

000017e6 <oled_set_pos>:
oled_set_pos():
C:\Users\29275\Desktop\WchWorkSPace\camCoreWithRTOS\obj/../Libraries/seekfree_peripheral/SEEKFREE_OLED.c:216
//  @return     void
//  @since      v1.0
//  Sample usage:			
//-------------------------------------------------------------------------------------------------------------------
void oled_set_pos(uint8 x, uint8 y)
{
    17e6:	1141                	addi	sp,sp,-16
    17e8:	c606                	sw	ra,12(sp)
    17ea:	c422                	sw	s0,8(sp)
C:\Users\29275\Desktop\WchWorkSPace\camCoreWithRTOS\obj/../Libraries/seekfree_peripheral/SEEKFREE_OLED.c:217
    assert(X_WIDTH>x);      //
    17ec:	01851793          	slli	a5,a0,0x18
    17f0:	87e1                	srai	a5,a5,0x18
    17f2:	0207c763          	bltz	a5,1820 <oled_set_pos+0x3a>
    17f6:	842a                	mv	s0,a0
C:\Users\29275\Desktop\WchWorkSPace\camCoreWithRTOS\obj/../Libraries/seekfree_peripheral/SEEKFREE_OLED.c:218
    assert((Y_WIDTH/8)>y);
    17f8:	479d                	li	a5,7
    17fa:	04b7e263          	bltu	a5,a1,183e <oled_set_pos+0x58>
C:\Users\29275\Desktop\WchWorkSPace\camCoreWithRTOS\obj/../Libraries/seekfree_peripheral/SEEKFREE_OLED.c:220
    
    oled_wrcmd(0xb0+y);
    17fe:	fb058593          	addi	a1,a1,-80
    1802:	0ff5f513          	andi	a0,a1,255
    1806:	3771                	jal	1792 <oled_wrcmd>
C:\Users\29275\Desktop\WchWorkSPace\camCoreWithRTOS\obj/../Libraries/seekfree_peripheral/SEEKFREE_OLED.c:221
    oled_wrcmd(((x&0xf0)>>4)|0x10);
    1808:	00445513          	srli	a0,s0,0x4
    180c:	01056513          	ori	a0,a0,16
    1810:	3749                	jal	1792 <oled_wrcmd>
C:\Users\29275\Desktop\WchWorkSPace\camCoreWithRTOS\obj/../Libraries/seekfree_peripheral/SEEKFREE_OLED.c:222
    oled_wrcmd((x&0x0f)|0x00);
    1812:	00f47513          	andi	a0,s0,15
    1816:	3fb5                	jal	1792 <oled_wrcmd>
C:\Users\29275\Desktop\WchWorkSPace\camCoreWithRTOS\obj/../Libraries/seekfree_peripheral/SEEKFREE_OLED.c:223
}
    1818:	40b2                	lw	ra,12(sp)
    181a:	4422                	lw	s0,8(sp)
    181c:	0141                	addi	sp,sp,16
    181e:	8082                	ret
C:\Users\29275\Desktop\WchWorkSPace\camCoreWithRTOS\obj/../Libraries/seekfree_peripheral/SEEKFREE_OLED.c:217 (discriminator 1)
    assert(X_WIDTH>x);      //
    1820:	000076b7          	lui	a3,0x7
    1824:	ce068693          	addi	a3,a3,-800 # 6ce0 <__func__.3175+0x10>
    1828:	661d                	lui	a2,0x7
    182a:	cd060613          	addi	a2,a2,-816 # 6cd0 <__func__.3175>
    182e:	0d900593          	li	a1,217
    1832:	00007537          	lui	a0,0x7
    1836:	cec50513          	addi	a0,a0,-788 # 6cec <__func__.3175+0x1c>
    183a:	23b030ef          	jal	ra,5274 <__assert_func>
C:\Users\29275\Desktop\WchWorkSPace\camCoreWithRTOS\obj/../Libraries/seekfree_peripheral/SEEKFREE_OLED.c:218 (discriminator 1)
    assert((Y_WIDTH/8)>y);
    183e:	000076b7          	lui	a3,0x7
    1842:	d2068693          	addi	a3,a3,-736 # 6d20 <__func__.3175+0x50>
    1846:	661d                	lui	a2,0x7
    1848:	cd060613          	addi	a2,a2,-816 # 6cd0 <__func__.3175>
    184c:	0da00593          	li	a1,218
    1850:	00007537          	lui	a0,0x7
    1854:	cec50513          	addi	a0,a0,-788 # 6cec <__func__.3175+0x1c>
    1858:	21d030ef          	jal	ra,5274 <__assert_func>

0000185c <oled_fill>:
oled_fill():
C:\Users\29275\Desktop\WchWorkSPace\camCoreWithRTOS\obj/../Libraries/seekfree_peripheral/SEEKFREE_OLED.c:233
//  @return     void
//  @since      v1.0
//  Sample usage:			
//-------------------------------------------------------------------------------------------------------------------
void oled_fill(uint8 bmp_data)
{
    185c:	1101                	addi	sp,sp,-32
    185e:	ce06                	sw	ra,28(sp)
    1860:	cc22                	sw	s0,24(sp)
    1862:	ca26                	sw	s1,20(sp)
    1864:	c84a                	sw	s2,16(sp)
    1866:	c64e                	sw	s3,12(sp)
    1868:	84aa                	mv	s1,a0
    186a:	0b000913          	li	s2,176
C:\Users\29275\Desktop\WchWorkSPace\camCoreWithRTOS\obj/../Libraries/seekfree_peripheral/SEEKFREE_OLED.c:236
	uint8 y,x;
	
	for(y=0;y<8;y++)
    186e:	0b800993          	li	s3,184
C:\Users\29275\Desktop\WchWorkSPace\camCoreWithRTOS\obj/../Libraries/seekfree_peripheral/SEEKFREE_OLED.c:238
	{
		oled_wrcmd(0xb0+y);
    1872:	854a                	mv	a0,s2
    1874:	3f39                	jal	1792 <oled_wrcmd>
C:\Users\29275\Desktop\WchWorkSPace\camCoreWithRTOS\obj/../Libraries/seekfree_peripheral/SEEKFREE_OLED.c:239
		oled_wrcmd(0x01);
    1876:	4505                	li	a0,1
    1878:	3f29                	jal	1792 <oled_wrcmd>
C:\Users\29275\Desktop\WchWorkSPace\camCoreWithRTOS\obj/../Libraries/seekfree_peripheral/SEEKFREE_OLED.c:240
		oled_wrcmd(0x10);
    187a:	4541                	li	a0,16
    187c:	3f19                	jal	1792 <oled_wrcmd>
    187e:	08000413          	li	s0,128
C:\Users\29275\Desktop\WchWorkSPace\camCoreWithRTOS\obj/../Libraries/seekfree_peripheral/SEEKFREE_OLED.c:241 (discriminator 3)
		for(x=0;x<X_WIDTH;x++)	oled_wrdat(bmp_data); 
    1882:	8526                	mv	a0,s1
    1884:	3d6d                	jal	173e <oled_wrdat>
    1886:	147d                	addi	s0,s0,-1
    1888:	fc6d                	bnez	s0,1882 <oled_fill+0x26>
    188a:	0905                	addi	s2,s2,1
    188c:	0ff97913          	andi	s2,s2,255
C:\Users\29275\Desktop\WchWorkSPace\camCoreWithRTOS\obj/../Libraries/seekfree_peripheral/SEEKFREE_OLED.c:236 (discriminator 2)
	for(y=0;y<8;y++)
    1890:	ff3911e3          	bne	s2,s3,1872 <oled_fill+0x16>
C:\Users\29275\Desktop\WchWorkSPace\camCoreWithRTOS\obj/../Libraries/seekfree_peripheral/SEEKFREE_OLED.c:243
	}
}
    1894:	40f2                	lw	ra,28(sp)
    1896:	4462                	lw	s0,24(sp)
    1898:	44d2                	lw	s1,20(sp)
    189a:	4942                	lw	s2,16(sp)
    189c:	49b2                	lw	s3,12(sp)
    189e:	6105                	addi	sp,sp,32
    18a0:	8082                	ret

000018a2 <oled_init>:
oled_init():
C:\Users\29275\Desktop\WchWorkSPace\camCoreWithRTOS\obj/../Libraries/seekfree_peripheral/SEEKFREE_OLED.c:156
{
    18a2:	1141                	addi	sp,sp,-16
    18a4:	c606                	sw	ra,12(sp)
    18a6:	c422                	sw	s0,8(sp)
    18a8:	c226                	sw	s1,4(sp)
C:\Users\29275\Desktop\WchWorkSPace\camCoreWithRTOS\obj/../Libraries/seekfree_peripheral/SEEKFREE_OLED.c:157
	gpio_init (OLED_SCL_PIN, GPO,1,GPIO_PIN_CONFIG);
    18aa:	31000693          	li	a3,784
    18ae:	4605                	li	a2,1
    18b0:	4585                	li	a1,1
    18b2:	4515                	li	a0,5
    18b4:	2cd1                	jal	1b88 <gpio_init>
C:\Users\29275\Desktop\WchWorkSPace\camCoreWithRTOS\obj/../Libraries/seekfree_peripheral/SEEKFREE_OLED.c:158
    gpio_init (OLED_SDA_PIN, GPO,0,GPIO_PIN_CONFIG);
    18b6:	31000693          	li	a3,784
    18ba:	4601                	li	a2,0
    18bc:	4585                	li	a1,1
    18be:	451d                	li	a0,7
    18c0:	24e1                	jal	1b88 <gpio_init>
C:\Users\29275\Desktop\WchWorkSPace\camCoreWithRTOS\obj/../Libraries/seekfree_peripheral/SEEKFREE_OLED.c:159
    gpio_init (OLED_RST_PIN, GPO,1,GPIO_PIN_CONFIG);
    18c2:	31000693          	li	a3,784
    18c6:	4605                	li	a2,1
    18c8:	4585                	li	a1,1
    18ca:	04d00513          	li	a0,77
    18ce:	2c6d                	jal	1b88 <gpio_init>
C:\Users\29275\Desktop\WchWorkSPace\camCoreWithRTOS\obj/../Libraries/seekfree_peripheral/SEEKFREE_OLED.c:160
    gpio_init (OLED_DC_PIN , GPO,1,GPIO_PIN_CONFIG);
    18d0:	31000693          	li	a3,784
    18d4:	4605                	li	a2,1
    18d6:	4585                	li	a1,1
    18d8:	04e00513          	li	a0,78
    18dc:	2475                	jal	1b88 <gpio_init>
C:\Users\29275\Desktop\WchWorkSPace\camCoreWithRTOS\obj/../Libraries/seekfree_peripheral/SEEKFREE_OLED.c:161
    gpio_init (OLED_CS_PIN , GPO,1,GPIO_PIN_CONFIG);
    18de:	31000693          	li	a3,784
    18e2:	4605                	li	a2,1
    18e4:	4585                	li	a1,1
    18e6:	04f00513          	li	a0,79
    18ea:	2c79                	jal	1b88 <gpio_init>
C:\Users\29275\Desktop\WchWorkSPace\camCoreWithRTOS\obj/../Libraries/seekfree_peripheral/SEEKFREE_OLED.c:163
	OLED_SCL(1);
    18ec:	679d                	lui	a5,0x7
    18ee:	d307a703          	lw	a4,-720(a5) # 6d30 <GPION>
    18f2:	02000693          	li	a3,32
    18f6:	cb14                	sw	a3,16(a4)
C:\Users\29275\Desktop\WchWorkSPace\camCoreWithRTOS\obj/../Libraries/seekfree_peripheral/SEEKFREE_OLED.c:164
	OLED_RST(0);
    18f8:	d3078793          	addi	a5,a5,-720
    18fc:	4780                	lw	s0,8(a5)
    18fe:	6489                	lui	s1,0x2
    1900:	c844                	sw	s1,20(s0)
C:\Users\29275\Desktop\WchWorkSPace\camCoreWithRTOS\obj/../Libraries/seekfree_peripheral/SEEKFREE_OLED.c:165
	systick_delay_ms(50);
    1902:	03200513          	li	a0,50
    1906:	4581                	li	a1,0
    1908:	678000ef          	jal	ra,1f80 <systick_delay2>
C:\Users\29275\Desktop\WchWorkSPace\camCoreWithRTOS\obj/../Libraries/seekfree_peripheral/SEEKFREE_OLED.c:166
	OLED_RST(1);
    190c:	c804                	sw	s1,16(s0)
C:\Users\29275\Desktop\WchWorkSPace\camCoreWithRTOS\obj/../Libraries/seekfree_peripheral/SEEKFREE_OLED.c:168
	oled_wrcmd(0xae);//--turn off oled panel
    190e:	0ae00513          	li	a0,174
    1912:	3541                	jal	1792 <oled_wrcmd>
C:\Users\29275\Desktop\WchWorkSPace\camCoreWithRTOS\obj/../Libraries/seekfree_peripheral/SEEKFREE_OLED.c:169
	oled_wrcmd(0x00);//---set low column address
    1914:	4501                	li	a0,0
    1916:	3db5                	jal	1792 <oled_wrcmd>
C:\Users\29275\Desktop\WchWorkSPace\camCoreWithRTOS\obj/../Libraries/seekfree_peripheral/SEEKFREE_OLED.c:170
	oled_wrcmd(0x10);//---set high column address
    1918:	4541                	li	a0,16
    191a:	3da5                	jal	1792 <oled_wrcmd>
C:\Users\29275\Desktop\WchWorkSPace\camCoreWithRTOS\obj/../Libraries/seekfree_peripheral/SEEKFREE_OLED.c:171
	oled_wrcmd(0x40);//--set start line address  Set Mapping RAM Display Start Line (0x00~0x3F)
    191c:	04000513          	li	a0,64
    1920:	3d8d                	jal	1792 <oled_wrcmd>
C:\Users\29275\Desktop\WchWorkSPace\camCoreWithRTOS\obj/../Libraries/seekfree_peripheral/SEEKFREE_OLED.c:172
	oled_wrcmd(0x81);//--set contrast control register
    1922:	08100513          	li	a0,129
    1926:	35b5                	jal	1792 <oled_wrcmd>
C:\Users\29275\Desktop\WchWorkSPace\camCoreWithRTOS\obj/../Libraries/seekfree_peripheral/SEEKFREE_OLED.c:173
	oled_wrcmd(Brightness); // Set SEG Output Current Brightness
    1928:	07f00513          	li	a0,127
    192c:	359d                	jal	1792 <oled_wrcmd>
C:\Users\29275\Desktop\WchWorkSPace\camCoreWithRTOS\obj/../Libraries/seekfree_peripheral/SEEKFREE_OLED.c:176
	oled_wrcmd(0xa1);//--Set SEG/Column Mapping     0xa0 0xa1
    192e:	0a100513          	li	a0,161
    1932:	3585                	jal	1792 <oled_wrcmd>
C:\Users\29275\Desktop\WchWorkSPace\camCoreWithRTOS\obj/../Libraries/seekfree_peripheral/SEEKFREE_OLED.c:177
	oled_wrcmd(0xc8);//Set COM/Row Scan Direction   0xc0 0xc8
    1934:	0c800513          	li	a0,200
    1938:	3da9                	jal	1792 <oled_wrcmd>
C:\Users\29275\Desktop\WchWorkSPace\camCoreWithRTOS\obj/../Libraries/seekfree_peripheral/SEEKFREE_OLED.c:183
	oled_wrcmd(0xa6);//--set normal display
    193a:	0a600513          	li	a0,166
    193e:	3d91                	jal	1792 <oled_wrcmd>
C:\Users\29275\Desktop\WchWorkSPace\camCoreWithRTOS\obj/../Libraries/seekfree_peripheral/SEEKFREE_OLED.c:184
	oled_wrcmd(0xa8);//--set multiplex ratio(1 to 64)
    1940:	0a800513          	li	a0,168
    1944:	35b9                	jal	1792 <oled_wrcmd>
C:\Users\29275\Desktop\WchWorkSPace\camCoreWithRTOS\obj/../Libraries/seekfree_peripheral/SEEKFREE_OLED.c:185
	oled_wrcmd(0x3f);//--1/64 duty
    1946:	03f00513          	li	a0,63
    194a:	35a1                	jal	1792 <oled_wrcmd>
C:\Users\29275\Desktop\WchWorkSPace\camCoreWithRTOS\obj/../Libraries/seekfree_peripheral/SEEKFREE_OLED.c:186
	oled_wrcmd(0xd3);//-set display offset	Shift Mapping RAM Counter (0x00~0x3F)
    194c:	0d300513          	li	a0,211
    1950:	3589                	jal	1792 <oled_wrcmd>
C:\Users\29275\Desktop\WchWorkSPace\camCoreWithRTOS\obj/../Libraries/seekfree_peripheral/SEEKFREE_OLED.c:187
	oled_wrcmd(0x00);//-not offset
    1952:	4501                	li	a0,0
    1954:	3d3d                	jal	1792 <oled_wrcmd>
C:\Users\29275\Desktop\WchWorkSPace\camCoreWithRTOS\obj/../Libraries/seekfree_peripheral/SEEKFREE_OLED.c:188
	oled_wrcmd(0xd5);//--set display clock divide ratio/oscillator frequency
    1956:	0d500513          	li	a0,213
    195a:	3d25                	jal	1792 <oled_wrcmd>
C:\Users\29275\Desktop\WchWorkSPace\camCoreWithRTOS\obj/../Libraries/seekfree_peripheral/SEEKFREE_OLED.c:189
	oled_wrcmd(0x80);//--set divide ratio, Set Clock as 100 Frames/Sec
    195c:	08000513          	li	a0,128
    1960:	3d0d                	jal	1792 <oled_wrcmd>
C:\Users\29275\Desktop\WchWorkSPace\camCoreWithRTOS\obj/../Libraries/seekfree_peripheral/SEEKFREE_OLED.c:190
	oled_wrcmd(0xd9);//--set pre-charge period
    1962:	0d900513          	li	a0,217
    1966:	3535                	jal	1792 <oled_wrcmd>
C:\Users\29275\Desktop\WchWorkSPace\camCoreWithRTOS\obj/../Libraries/seekfree_peripheral/SEEKFREE_OLED.c:191
	oled_wrcmd(0xf1);//Set Pre-Charge as 15 Clocks & Discharge as 1 Clock
    1968:	0f100513          	li	a0,241
    196c:	351d                	jal	1792 <oled_wrcmd>
C:\Users\29275\Desktop\WchWorkSPace\camCoreWithRTOS\obj/../Libraries/seekfree_peripheral/SEEKFREE_OLED.c:192
	oled_wrcmd(0xda);//--set com pins hardware configuration
    196e:	0da00513          	li	a0,218
    1972:	3505                	jal	1792 <oled_wrcmd>
C:\Users\29275\Desktop\WchWorkSPace\camCoreWithRTOS\obj/../Libraries/seekfree_peripheral/SEEKFREE_OLED.c:193
	oled_wrcmd(0x12);
    1974:	4549                	li	a0,18
    1976:	3d31                	jal	1792 <oled_wrcmd>
C:\Users\29275\Desktop\WchWorkSPace\camCoreWithRTOS\obj/../Libraries/seekfree_peripheral/SEEKFREE_OLED.c:194
	oled_wrcmd(0xdb);//--set vcomh
    1978:	0db00513          	li	a0,219
    197c:	3d19                	jal	1792 <oled_wrcmd>
C:\Users\29275\Desktop\WchWorkSPace\camCoreWithRTOS\obj/../Libraries/seekfree_peripheral/SEEKFREE_OLED.c:195
	oled_wrcmd(0x40);//Set VCOM Deselect Level
    197e:	04000513          	li	a0,64
    1982:	3d01                	jal	1792 <oled_wrcmd>
C:\Users\29275\Desktop\WchWorkSPace\camCoreWithRTOS\obj/../Libraries/seekfree_peripheral/SEEKFREE_OLED.c:196
	oled_wrcmd(0x20);//-Set Page Addressing Mode (0x00/0x01/0x02)
    1984:	02000513          	li	a0,32
    1988:	3529                	jal	1792 <oled_wrcmd>
C:\Users\29275\Desktop\WchWorkSPace\camCoreWithRTOS\obj/../Libraries/seekfree_peripheral/SEEKFREE_OLED.c:197
	oled_wrcmd(0x02);//
    198a:	4509                	li	a0,2
    198c:	3519                	jal	1792 <oled_wrcmd>
C:\Users\29275\Desktop\WchWorkSPace\camCoreWithRTOS\obj/../Libraries/seekfree_peripheral/SEEKFREE_OLED.c:198
	oled_wrcmd(0x8d);//--set Charge Pump enable/disable
    198e:	08d00513          	li	a0,141
    1992:	3501                	jal	1792 <oled_wrcmd>
C:\Users\29275\Desktop\WchWorkSPace\camCoreWithRTOS\obj/../Libraries/seekfree_peripheral/SEEKFREE_OLED.c:199
	oled_wrcmd(0x14);//--set(0x10) disable
    1994:	4551                	li	a0,20
    1996:	3bf5                	jal	1792 <oled_wrcmd>
C:\Users\29275\Desktop\WchWorkSPace\camCoreWithRTOS\obj/../Libraries/seekfree_peripheral/SEEKFREE_OLED.c:200
	oled_wrcmd(0xa4);// Disable Entire Display On (0xa4/0xa5)
    1998:	0a400513          	li	a0,164
    199c:	3bdd                	jal	1792 <oled_wrcmd>
C:\Users\29275\Desktop\WchWorkSPace\camCoreWithRTOS\obj/../Libraries/seekfree_peripheral/SEEKFREE_OLED.c:201
	oled_wrcmd(0xa6);// Disable Inverse Display On (0xa6/a7)
    199e:	0a600513          	li	a0,166
    19a2:	3bc5                	jal	1792 <oled_wrcmd>
C:\Users\29275\Desktop\WchWorkSPace\camCoreWithRTOS\obj/../Libraries/seekfree_peripheral/SEEKFREE_OLED.c:202
	oled_wrcmd(0xaf);//--turn on oled panel
    19a4:	0af00513          	li	a0,175
    19a8:	33ed                	jal	1792 <oled_wrcmd>
C:\Users\29275\Desktop\WchWorkSPace\camCoreWithRTOS\obj/../Libraries/seekfree_peripheral/SEEKFREE_OLED.c:203
	oled_fill(0x00);  //
    19aa:	4501                	li	a0,0
    19ac:	3d45                	jal	185c <oled_fill>
C:\Users\29275\Desktop\WchWorkSPace\camCoreWithRTOS\obj/../Libraries/seekfree_peripheral/SEEKFREE_OLED.c:204
	oled_set_pos(0,0);
    19ae:	4581                	li	a1,0
    19b0:	4501                	li	a0,0
    19b2:	3d15                	jal	17e6 <oled_set_pos>
C:\Users\29275\Desktop\WchWorkSPace\camCoreWithRTOS\obj/../Libraries/seekfree_peripheral/SEEKFREE_OLED.c:205
}
    19b4:	40b2                	lw	ra,12(sp)
    19b6:	4422                	lw	s0,8(sp)
    19b8:	4492                	lw	s1,4(sp)
    19ba:	0141                	addi	sp,sp,16
    19bc:	8082                	ret

000019be <oled_p6x8str>:
oled_p6x8str():
C:\Users\29275\Desktop\WchWorkSPace\camCoreWithRTOS\obj/../Libraries/seekfree_peripheral/SEEKFREE_OLED.c:293
//  @return     void
//  @since      v1.0
//  Sample usage:			
//-------------------------------------------------------------------------------------------------------------------
void oled_p6x8str(uint8 x,uint8 y,const int8 ch[])
{
    19be:	7179                	addi	sp,sp,-48
    19c0:	d606                	sw	ra,44(sp)
    19c2:	d422                	sw	s0,40(sp)
    19c4:	d226                	sw	s1,36(sp)
    19c6:	d04a                	sw	s2,32(sp)
    19c8:	ce4e                	sw	s3,28(sp)
    19ca:	cc52                	sw	s4,24(sp)
    19cc:	ca56                	sw	s5,20(sp)
    19ce:	c85a                	sw	s6,16(sp)
    19d0:	c65e                	sw	s7,12(sp)
    19d2:	c462                	sw	s8,8(sp)
    19d4:	c266                	sw	s9,4(sp)
C:\Users\29275\Desktop\WchWorkSPace\camCoreWithRTOS\obj/../Libraries/seekfree_peripheral/SEEKFREE_OLED.c:295
	uint8 c=0,i=0,j=0;
	while (ch[j]!='\0')
    19d6:	00060483          	lb	s1,0(a2)
    19da:	c0bd                	beqz	s1,1a40 <oled_p6x8str+0x82>
    19dc:	892a                	mv	s2,a0
    19de:	8b2e                	mv	s6,a1
    19e0:	8bb2                	mv	s7,a2
C:\Users\29275\Desktop\WchWorkSPace\camCoreWithRTOS\obj/../Libraries/seekfree_peripheral/SEEKFREE_OLED.c:294
	uint8 c=0,i=0,j=0;
    19e2:	4a81                	li	s5,0
C:\Users\29275\Desktop\WchWorkSPace\camCoreWithRTOS\obj/../Libraries/seekfree_peripheral/SEEKFREE_OLED.c:298
	{
	  	c =ch[j]-32;
	  	if(x>126){x=0;y++;}
    19e4:	07e00c13          	li	s8,126
    19e8:	4c81                	li	s9,0
C:\Users\29275\Desktop\WchWorkSPace\camCoreWithRTOS\obj/../Libraries/seekfree_peripheral/SEEKFREE_OLED.c:300
	  	oled_set_pos(x,y);
	  	for(i=0;i<6;i++)	oled_wrdat(oled_6x8[c][i]);
    19ea:	699d                	lui	s3,0x7
    19ec:	aa898993          	addi	s3,s3,-1368 # 6aa8 <oled_6x8>
    19f0:	4a19                	li	s4,6
    19f2:	a82d                	j	1a2c <oled_p6x8str+0x6e>
C:\Users\29275\Desktop\WchWorkSPace\camCoreWithRTOS\obj/../Libraries/seekfree_peripheral/SEEKFREE_OLED.c:299
	  	oled_set_pos(x,y);
    19f4:	85da                	mv	a1,s6
    19f6:	854a                	mv	a0,s2
    19f8:	33fd                	jal	17e6 <oled_set_pos>
C:\Users\29275\Desktop\WchWorkSPace\camCoreWithRTOS\obj/../Libraries/seekfree_peripheral/SEEKFREE_OLED.c:300
	  	for(i=0;i<6;i++)	oled_wrdat(oled_6x8[c][i]);
    19fa:	00141493          	slli	s1,s0,0x1
    19fe:	94a2                	add	s1,s1,s0
    1a00:	0486                	slli	s1,s1,0x1
C:\Users\29275\Desktop\WchWorkSPace\camCoreWithRTOS\obj/../Libraries/seekfree_peripheral/SEEKFREE_OLED.c:299
	  	oled_set_pos(x,y);
    1a02:	4401                	li	s0,0
C:\Users\29275\Desktop\WchWorkSPace\camCoreWithRTOS\obj/../Libraries/seekfree_peripheral/SEEKFREE_OLED.c:300 (discriminator 3)
	  	for(i=0;i<6;i++)	oled_wrdat(oled_6x8[c][i]);
    1a04:	008487b3          	add	a5,s1,s0
    1a08:	97ce                	add	a5,a5,s3
    1a0a:	0007c503          	lbu	a0,0(a5)
    1a0e:	3b05                	jal	173e <oled_wrdat>
    1a10:	0405                	addi	s0,s0,1
    1a12:	ff4419e3          	bne	s0,s4,1a04 <oled_p6x8str+0x46>
C:\Users\29275\Desktop\WchWorkSPace\camCoreWithRTOS\obj/../Libraries/seekfree_peripheral/SEEKFREE_OLED.c:301
	  	x+=6;
    1a16:	0919                	addi	s2,s2,6
    1a18:	0ff97913          	andi	s2,s2,255
C:\Users\29275\Desktop\WchWorkSPace\camCoreWithRTOS\obj/../Libraries/seekfree_peripheral/SEEKFREE_OLED.c:302
	  	j++;
    1a1c:	0a85                	addi	s5,s5,1
    1a1e:	0ffafa93          	andi	s5,s5,255
C:\Users\29275\Desktop\WchWorkSPace\camCoreWithRTOS\obj/../Libraries/seekfree_peripheral/SEEKFREE_OLED.c:295
	while (ch[j]!='\0')
    1a22:	015b87b3          	add	a5,s7,s5
    1a26:	00078483          	lb	s1,0(a5)
    1a2a:	c899                	beqz	s1,1a40 <oled_p6x8str+0x82>
C:\Users\29275\Desktop\WchWorkSPace\camCoreWithRTOS\obj/../Libraries/seekfree_peripheral/SEEKFREE_OLED.c:297
	  	c =ch[j]-32;
    1a2c:	1481                	addi	s1,s1,-32
    1a2e:	0ff4f413          	andi	s0,s1,255
C:\Users\29275\Desktop\WchWorkSPace\camCoreWithRTOS\obj/../Libraries/seekfree_peripheral/SEEKFREE_OLED.c:298
	  	if(x>126){x=0;y++;}
    1a32:	fd2c71e3          	bgeu	s8,s2,19f4 <oled_p6x8str+0x36>
C:\Users\29275\Desktop\WchWorkSPace\camCoreWithRTOS\obj/../Libraries/seekfree_peripheral/SEEKFREE_OLED.c:298 (discriminator 1)
    1a36:	0b05                	addi	s6,s6,1
    1a38:	0ffb7b13          	andi	s6,s6,255
    1a3c:	8966                	mv	s2,s9
    1a3e:	bf5d                	j	19f4 <oled_p6x8str+0x36>
C:\Users\29275\Desktop\WchWorkSPace\camCoreWithRTOS\obj/../Libraries/seekfree_peripheral/SEEKFREE_OLED.c:304
	}
}
    1a40:	50b2                	lw	ra,44(sp)
    1a42:	5422                	lw	s0,40(sp)
    1a44:	5492                	lw	s1,36(sp)
    1a46:	5902                	lw	s2,32(sp)
    1a48:	49f2                	lw	s3,28(sp)
    1a4a:	4a62                	lw	s4,24(sp)
    1a4c:	4ad2                	lw	s5,20(sp)
    1a4e:	4b42                	lw	s6,16(sp)
    1a50:	4bb2                	lw	s7,12(sp)
    1a52:	4c22                	lw	s8,8(sp)
    1a54:	4c92                	lw	s9,4(sp)
    1a56:	6145                	addi	sp,sp,48
    1a58:	8082                	ret

00001a5a <ccd_collect>:
ccd_collect():
C:\Users\29275\Desktop\WchWorkSPace\camCoreWithRTOS\obj/../Libraries/seekfree_peripheral/SEEKFREE_TSL1401.c:84
//  @return     void
//  @since      v1.0
//  Sample usage:               isr.c()
//-------------------------------------------------------------------------------------------------------------------
void ccd_collect(void)
{
    1a5a:	1101                	addi	sp,sp,-32
    1a5c:	ce06                	sw	ra,28(sp)
    1a5e:	cc22                	sw	s0,24(sp)
    1a60:	ca26                	sw	s1,20(sp)
    1a62:	c84a                	sw	s2,16(sp)
    1a64:	c64e                	sw	s3,12(sp)
C:\Users\29275\Desktop\WchWorkSPace\camCoreWithRTOS\obj/../Libraries/seekfree_peripheral/SEEKFREE_TSL1401.c:87
    uint8 i = 0;

    CCD_CLK(1);
    1a66:	679d                	lui	a5,0x7
    1a68:	d387a483          	lw	s1,-712(a5) # 6d38 <GPION+0x8>
    1a6c:	4711                	li	a4,4
    1a6e:	c898                	sw	a4,16(s1)
C:\Users\29275\Desktop\WchWorkSPace\camCoreWithRTOS\obj/../Libraries/seekfree_peripheral/SEEKFREE_TSL1401.c:88
    CCD_SI(0);
    1a70:	47a1                	li	a5,8
    1a72:	c8dc                	sw	a5,20(s1)
C:\Users\29275\Desktop\WchWorkSPace\camCoreWithRTOS\obj/../Libraries/seekfree_peripheral/SEEKFREE_TSL1401.c:89
    CCD_CLK(0);
    1a74:	c8d8                	sw	a4,20(s1)
C:\Users\29275\Desktop\WchWorkSPace\camCoreWithRTOS\obj/../Libraries/seekfree_peripheral/SEEKFREE_TSL1401.c:90
    CCD_SI(1);
    1a76:	c89c                	sw	a5,16(s1)
C:\Users\29275\Desktop\WchWorkSPace\camCoreWithRTOS\obj/../Libraries/seekfree_peripheral/SEEKFREE_TSL1401.c:91
    CCD_CLK(1);
    1a78:	c898                	sw	a4,16(s1)
C:\Users\29275\Desktop\WchWorkSPace\camCoreWithRTOS\obj/../Libraries/seekfree_peripheral/SEEKFREE_TSL1401.c:92
    CCD_SI(0);
    1a7a:	c8dc                	sw	a5,20(s1)
C:\Users\29275\Desktop\WchWorkSPace\camCoreWithRTOS\obj/../Libraries/seekfree_peripheral/SEEKFREE_TSL1401.c:94

    for(i=0;i<128;i++)
    1a7c:	8c818413          	addi	s0,gp,-1848 # 20000178 <ccd_data>
    1a80:	10040993          	addi	s3,s0,256
C:\Users\29275\Desktop\WchWorkSPace\camCoreWithRTOS\obj/../Libraries/seekfree_peripheral/SEEKFREE_TSL1401.c:96
    {
        CCD_CLK(0);
    1a84:	4911                	li	s2,4
C:\Users\29275\Desktop\WchWorkSPace\camCoreWithRTOS\obj/../Libraries/seekfree_peripheral/SEEKFREE_TSL1401.c:96 (discriminator 3)
    1a86:	0124aa23          	sw	s2,20(s1) # 2014 <uart_gpio_init+0x86>
C:\Users\29275\Desktop\WchWorkSPace\camCoreWithRTOS\obj/../Libraries/seekfree_peripheral/SEEKFREE_TSL1401.c:98 (discriminator 3)
        //CCD
        ccd_data[i] = adc_convert(AD_CHANNEL, AD_RESOLUTION);
    1a8a:	4581                	li	a1,0
    1a8c:	4529                	li	a0,10
    1a8e:	2065                	jal	1b36 <adc_convert>
    1a90:	00a41023          	sh	a0,0(s0)
C:\Users\29275\Desktop\WchWorkSPace\camCoreWithRTOS\obj/../Libraries/seekfree_peripheral/SEEKFREE_TSL1401.c:100 (discriminator 3)
        //ccd_data_two[i] = adc_convert(AD_CHANNEL, AD_RESOLUTION);
        CCD_CLK(1);
    1a94:	0124a823          	sw	s2,16(s1)
    1a98:	0409                	addi	s0,s0,2
C:\Users\29275\Desktop\WchWorkSPace\camCoreWithRTOS\obj/../Libraries/seekfree_peripheral/SEEKFREE_TSL1401.c:94 (discriminator 3)
    for(i=0;i<128;i++)
    1a9a:	ff3416e3          	bne	s0,s3,1a86 <ccd_collect+0x2c>
C:\Users\29275\Desktop\WchWorkSPace\camCoreWithRTOS\obj/../Libraries/seekfree_peripheral/SEEKFREE_TSL1401.c:104
    }

    //1
    tsl1401_finish_flag = 1;
    1a9e:	4705                	li	a4,1
    1aa0:	82e18ea3          	sb	a4,-1987(gp) # 200000ed <tsl1401_finish_flag>
C:\Users\29275\Desktop\WchWorkSPace\camCoreWithRTOS\obj/../Libraries/seekfree_peripheral/SEEKFREE_TSL1401.c:106

}
    1aa4:	40f2                	lw	ra,28(sp)
    1aa6:	4462                	lw	s0,24(sp)
    1aa8:	44d2                	lw	s1,20(sp)
    1aaa:	4942                	lw	s2,16(sp)
    1aac:	49b2                	lw	s3,12(sp)
    1aae:	6105                	addi	sp,sp,32
    1ab0:	8082                	ret

00001ab2 <ov7725_cof_uart_interrupt>:
ov7725_cof_uart_interrupt():
C:\Users\29275\Desktop\WchWorkSPace\camCoreWithRTOS\obj/../Libraries/seekfree_peripheral/SEEKFREE_UART_7725.c:81
//  Sample usage:
//  @note       ISR 3
//-------------------------------------------------------------------------------------------------------------------

void ov7725_cof_uart_interrupt(void)
{
    1ab2:	1141                	addi	sp,sp,-16
    1ab4:	c606                	sw	ra,12(sp)
    1ab6:	c422                	sw	s0,8(sp)
C:\Users\29275\Desktop\WchWorkSPace\camCoreWithRTOS\obj/../Libraries/seekfree_peripheral/SEEKFREE_UART_7725.c:82
    uart_query(OV7725_UART_COF_UART, &ov7725_uart_receive[ov7725_uart_receive_num]);
    1ab8:	84418413          	addi	s0,gp,-1980 # 200000f4 <ov7725_uart_receive_num>
    1abc:	00044583          	lbu	a1,0(s0)
    1ac0:	84018793          	addi	a5,gp,-1984 # 200000f0 <ov7725_uart_receive>
    1ac4:	95be                	add	a1,a1,a5
    1ac6:	4505                	li	a0,1
    1ac8:	700000ef          	jal	ra,21c8 <uart_query>
C:\Users\29275\Desktop\WchWorkSPace\camCoreWithRTOS\obj/../Libraries/seekfree_peripheral/SEEKFREE_UART_7725.c:83
    ov7725_uart_receive_num++;
    1acc:	00044783          	lbu	a5,0(s0)
    1ad0:	0785                	addi	a5,a5,1
    1ad2:	0ff7f793          	andi	a5,a5,255
    1ad6:	00f40023          	sb	a5,0(s0)
C:\Users\29275\Desktop\WchWorkSPace\camCoreWithRTOS\obj/../Libraries/seekfree_peripheral/SEEKFREE_UART_7725.c:85

    if(1==ov7725_uart_receive_num && 0XA5!=ov7725_uart_receive[0])  ov7725_uart_receive_num = 0;
    1ada:	4705                	li	a4,1
    1adc:	00e78e63          	beq	a5,a4,1af8 <ov7725_cof_uart_interrupt+0x46>
C:\Users\29275\Desktop\WchWorkSPace\camCoreWithRTOS\obj/../Libraries/seekfree_peripheral/SEEKFREE_UART_7725.c:86
    if(3 == ov7725_uart_receive_num)
    1ae0:	470d                	li	a4,3
    1ae2:	00e79763          	bne	a5,a4,1af0 <ov7725_cof_uart_interrupt+0x3e>
C:\Users\29275\Desktop\WchWorkSPace\camCoreWithRTOS\obj/../Libraries/seekfree_peripheral/SEEKFREE_UART_7725.c:88
    {
        ov7725_uart_receive_num = 0;
    1ae6:	84018223          	sb	zero,-1980(gp) # 200000f4 <ov7725_uart_receive_num>
C:\Users\29275\Desktop\WchWorkSPace\camCoreWithRTOS\obj/../Libraries/seekfree_peripheral/SEEKFREE_UART_7725.c:89
        ov7725_uart_receive_flag = 1;
    1aea:	4705                	li	a4,1
    1aec:	84e181a3          	sb	a4,-1981(gp) # 200000f3 <ov7725_uart_receive_flag>
C:\Users\29275\Desktop\WchWorkSPace\camCoreWithRTOS\obj/../Libraries/seekfree_peripheral/SEEKFREE_UART_7725.c:91
    }
}
    1af0:	40b2                	lw	ra,12(sp)
    1af2:	4422                	lw	s0,8(sp)
    1af4:	0141                	addi	sp,sp,16
    1af6:	8082                	ret
C:\Users\29275\Desktop\WchWorkSPace\camCoreWithRTOS\obj/../Libraries/seekfree_peripheral/SEEKFREE_UART_7725.c:85 (discriminator 1)
    if(1==ov7725_uart_receive_num && 0XA5!=ov7725_uart_receive[0])  ov7725_uart_receive_num = 0;
    1af8:	8401c703          	lbu	a4,-1984(gp) # 200000f0 <ov7725_uart_receive>
    1afc:	0a500793          	li	a5,165
    1b00:	fef708e3          	beq	a4,a5,1af0 <ov7725_cof_uart_interrupt+0x3e>
C:\Users\29275\Desktop\WchWorkSPace\camCoreWithRTOS\obj/../Libraries/seekfree_peripheral/SEEKFREE_UART_7725.c:85 (discriminator 2)
    1b04:	84018223          	sb	zero,-1980(gp) # 200000f4 <ov7725_uart_receive_num>
    1b08:	b7e5                	j	1af0 <ov7725_cof_uart_interrupt+0x3e>

00001b0a <ov7725_uart_vsync>:
ov7725_uart_vsync():
C:\Users\29275\Desktop\WchWorkSPace\camCoreWithRTOS\obj/../Libraries/seekfree_peripheral/SEEKFREE_UART_7725.c:103
//  Sample usage:                   isr.c()
//-------------------------------------------------------------------------------------------------------------------

void ov7725_uart_vsync(void)
{
    OV7725_UART_DMA_CH->CNTR = OV7725_UART_SIZE;             //DMADMA
    1b0a:	400207b7          	lui	a5,0x40020
    1b0e:	6705                	lui	a4,0x1
    1b10:	96070713          	addi	a4,a4,-1696 # 960 <TIM3_IRQHandler+0x34>
    1b14:	c7b8                	sw	a4,72(a5)
C:\Users\29275\Desktop\WchWorkSPace\camCoreWithRTOS\obj/../Libraries/seekfree_peripheral/SEEKFREE_UART_7725.c:104
    OV7725_UART_DMA_CH->CFGR |= DMA_CFGR1_EN;                //DMA1
    1b16:	43f8                	lw	a4,68(a5)
    1b18:	00176713          	ori	a4,a4,1
    1b1c:	c3f8                	sw	a4,68(a5)
C:\Users\29275\Desktop\WchWorkSPace\camCoreWithRTOS\obj/../Libraries/seekfree_peripheral/SEEKFREE_UART_7725.c:105
}
    1b1e:	8082                	ret

00001b20 <ov7725_uart_dma>:
ov7725_uart_dma():
C:\Users\29275\Desktop\WchWorkSPace\camCoreWithRTOS\obj/../Libraries/seekfree_peripheral/SEEKFREE_UART_7725.c:117
//  @since      v1.0
//  Sample usage:                   isr.c()
//-------------------------------------------------------------------------------------------------------------------
void ov7725_uart_dma(void)
{
    ov7725_uart_finish_flag = 1;                             //1
    1b20:	4705                	li	a4,1
    1b22:	82e18f23          	sb	a4,-1986(gp) # 200000ee <ov7725_uart_finish_flag>
C:\Users\29275\Desktop\WchWorkSPace\camCoreWithRTOS\obj/../Libraries/seekfree_peripheral/SEEKFREE_UART_7725.c:118
    OV7725_UART_DMA_CH->CFGR &= (uint16)(~DMA_CFGR1_EN);     //DMA1
    1b26:	400206b7          	lui	a3,0x40020
    1b2a:	42fc                	lw	a5,68(a3)
    1b2c:	6741                	lui	a4,0x10
    1b2e:	1779                	addi	a4,a4,-2
    1b30:	8ff9                	and	a5,a5,a4
    1b32:	c2fc                	sw	a5,68(a3)
C:\Users\29275\Desktop\WchWorkSPace\camCoreWithRTOS\obj/../Libraries/seekfree_peripheral/SEEKFREE_UART_7725.c:119
}
    1b34:	8082                	ret

00001b36 <adc_convert>:
adc_convert():
C:\Users\29275\Desktop\WchWorkSPace\camCoreWithRTOS\obj/../Libraries/seekfree_libraries/zf_adc.c:97
//  @param      resolution      (8 10 12)
//  @return     void
//  Sample usage:               adc_convert(ADC_IN0_A0, ADC_8BIT);  //A08AD
//-------------------------------------------------------------------------------------------------------------------
uint16 adc_convert(ADCCH_enum ch, ADCRES_enum resolution)
{
    1b36:	1141                	addi	sp,sp,-16
    1b38:	c606                	sw	ra,12(sp)
    1b3a:	c422                	sw	s0,8(sp)
    1b3c:	c226                	sw	s1,4(sp)
    1b3e:	84ae                	mv	s1,a1
C:\Users\29275\Desktop\WchWorkSPace\camCoreWithRTOS\obj/../Libraries/seekfree_libraries/zf_adc.c:99
    //ADC
    ADC_RegularChannelConfig(ADC1, (uint8)ch, 1, ADC_SampleTime_1Cycles5);  //ADC1,ADC,1.5
    1b40:	4681                	li	a3,0
    1b42:	4605                	li	a2,1
    1b44:	0ff57593          	andi	a1,a0,255
    1b48:	40012437          	lui	s0,0x40012
    1b4c:	40040513          	addi	a0,s0,1024 # 40012400 <_eusrstack+0x2000d400>
    1b50:	be0ff0ef          	jal	ra,f30 <ADC_RegularChannelConfig>
C:\Users\29275\Desktop\WchWorkSPace\camCoreWithRTOS\obj/../Libraries/seekfree_libraries/zf_adc.c:100
    ADC1->CTLR2 |= ((uint32_t)0x00500000);                                  //ADC1
    1b54:	40842783          	lw	a5,1032(s0)
    1b58:	00500737          	lui	a4,0x500
    1b5c:	8fd9                	or	a5,a5,a4
    1b5e:	40f42423          	sw	a5,1032(s0)
C:\Users\29275\Desktop\WchWorkSPace\camCoreWithRTOS\obj/../Libraries/seekfree_libraries/zf_adc.c:101
    while((ADC1->STATR & ADC_FLAG_EOC) == (uint8_t)RESET);                  //
    1b62:	40012737          	lui	a4,0x40012
C:\Users\29275\Desktop\WchWorkSPace\camCoreWithRTOS\obj/../Libraries/seekfree_libraries/zf_adc.c:101 (discriminator 1)
    1b66:	40072783          	lw	a5,1024(a4) # 40012400 <_eusrstack+0x2000d400>
    1b6a:	8b89                	andi	a5,a5,2
    1b6c:	dfed                	beqz	a5,1b66 <adc_convert+0x30>
C:\Users\29275\Desktop\WchWorkSPace\camCoreWithRTOS\obj/../Libraries/seekfree_libraries/zf_adc.c:102
    return ((ADC1->RDATAR)>>resolution);                                    //ADC1
    1b6e:	400127b7          	lui	a5,0x40012
    1b72:	44c7a503          	lw	a0,1100(a5) # 4001244c <_eusrstack+0x2000d44c>
    1b76:	00955533          	srl	a0,a0,s1
C:\Users\29275\Desktop\WchWorkSPace\camCoreWithRTOS\obj/../Libraries/seekfree_libraries/zf_adc.c:103
}
    1b7a:	0542                	slli	a0,a0,0x10
    1b7c:	8141                	srli	a0,a0,0x10
    1b7e:	40b2                	lw	ra,12(sp)
    1b80:	4422                	lw	s0,8(sp)
    1b82:	4492                	lw	s1,4(sp)
    1b84:	0141                	addi	sp,sp,16
    1b86:	8082                	ret

00001b88 <gpio_init>:
gpio_init():
C:\Users\29275\Desktop\WchWorkSPace\camCoreWithRTOS\obj/../Libraries/seekfree_libraries/zf_gpio.c:46
    GPIO_InitTypeDef GPIO_InitStructure;
    uint8 io_group = (pin & 0xE0) >> 5;
    uint8 io_pin = pin & 0x1F;


    if(PIN_NULL == pin) return;
    1b88:	08000713          	li	a4,128
    1b8c:	10e50663          	beq	a0,a4,1c98 <gpio_init+0x110>
C:\Users\29275\Desktop\WchWorkSPace\camCoreWithRTOS\obj/../Libraries/seekfree_libraries/zf_gpio.c:40
{
    1b90:	7179                	addi	sp,sp,-48
    1b92:	d606                	sw	ra,44(sp)
    1b94:	d422                	sw	s0,40(sp)
    1b96:	d226                	sw	s1,36(sp)
    1b98:	d04a                	sw	s2,32(sp)
    1b9a:	ce4e                	sw	s3,28(sp)
    1b9c:	cc52                	sw	s4,24(sp)
    1b9e:	00555793          	srli	a5,a0,0x5
    1ba2:	0077f913          	andi	s2,a5,7
    1ba6:	01f57413          	andi	s0,a0,31
    1baa:	8a36                	mv	s4,a3
    1bac:	89b2                	mv	s3,a2
    1bae:	84ae                	mv	s1,a1
C:\Users\29275\Desktop\WchWorkSPace\camCoreWithRTOS\obj/../Libraries/seekfree_libraries/zf_gpio.c:48
    //GPIO
    if(0 == (pin >> 5))      RCC_APB2PeriphClockCmd(RCC_APB2Periph_GPIOA, ENABLE);
    1bb0:	cb8d                	beqz	a5,1be2 <gpio_init+0x5a>
C:\Users\29275\Desktop\WchWorkSPace\camCoreWithRTOS\obj/../Libraries/seekfree_libraries/zf_gpio.c:49
    else if(1 == (pin >> 5)) RCC_APB2PeriphClockCmd(RCC_APB2Periph_GPIOB, ENABLE);
    1bb2:	4705                	li	a4,1
    1bb4:	06e78963          	beq	a5,a4,1c26 <gpio_init+0x9e>
C:\Users\29275\Desktop\WchWorkSPace\camCoreWithRTOS\obj/../Libraries/seekfree_libraries/zf_gpio.c:50
    else if(2 == (pin >> 5)) RCC_APB2PeriphClockCmd(RCC_APB2Periph_GPIOC, ENABLE);
    1bb8:	4709                	li	a4,2
    1bba:	06e78b63          	beq	a5,a4,1c30 <gpio_init+0xa8>
C:\Users\29275\Desktop\WchWorkSPace\camCoreWithRTOS\obj/../Libraries/seekfree_libraries/zf_gpio.c:51
    else if(3 == (pin >> 5)) RCC_APB2PeriphClockCmd(RCC_APB2Periph_GPIOD, ENABLE);
    1bbe:	470d                	li	a4,3
    1bc0:	06e78d63          	beq	a5,a4,1c3a <gpio_init+0xb2>
C:\Users\29275\Desktop\WchWorkSPace\camCoreWithRTOS\obj/../Libraries/seekfree_libraries/zf_gpio.c:52
    else if(4 == (pin >> 5)) RCC_APB2PeriphClockCmd(RCC_APB2Periph_GPIOE, ENABLE);
    1bc4:	4711                	li	a4,4
    1bc6:	08e78063          	beq	a5,a4,1c46 <gpio_init+0xbe>
C:\Users\29275\Desktop\WchWorkSPace\camCoreWithRTOS\obj/../Libraries/seekfree_libraries/zf_gpio.c:53
    else if(5 == (pin >> 5)) RCC_APB2PeriphClockCmd(RCC_APB2Periph_GPIOF, ENABLE);
    1bca:	4715                	li	a4,5
    1bcc:	08e78363          	beq	a5,a4,1c52 <gpio_init+0xca>
C:\Users\29275\Desktop\WchWorkSPace\camCoreWithRTOS\obj/../Libraries/seekfree_libraries/zf_gpio.c:54
    else if(6 == (pin >> 5)) RCC_APB2PeriphClockCmd(RCC_APB2Periph_GPIOG, ENABLE);
    1bd0:	4719                	li	a4,6
    1bd2:	00e79c63          	bne	a5,a4,1bea <gpio_init+0x62>
C:\Users\29275\Desktop\WchWorkSPace\camCoreWithRTOS\obj/../Libraries/seekfree_libraries/zf_gpio.c:54 (discriminator 1)
    1bd6:	4585                	li	a1,1
    1bd8:	10000513          	li	a0,256
    1bdc:	f7cff0ef          	jal	ra,1358 <RCC_APB2PeriphClockCmd>
    1be0:	a029                	j	1bea <gpio_init+0x62>
C:\Users\29275\Desktop\WchWorkSPace\camCoreWithRTOS\obj/../Libraries/seekfree_libraries/zf_gpio.c:48 (discriminator 1)
    if(0 == (pin >> 5))      RCC_APB2PeriphClockCmd(RCC_APB2Periph_GPIOA, ENABLE);
    1be2:	4585                	li	a1,1
    1be4:	4511                	li	a0,4
    1be6:	f72ff0ef          	jal	ra,1358 <RCC_APB2PeriphClockCmd>
C:\Users\29275\Desktop\WchWorkSPace\camCoreWithRTOS\obj/../Libraries/seekfree_libraries/zf_gpio.c:58


    //
    GPIO_InitStructure.GPIO_Pin = (uint16)(1 << io_pin);
    1bea:	4785                	li	a5,1
    1bec:	00879433          	sll	s0,a5,s0
    1bf0:	0442                	slli	s0,s0,0x10
    1bf2:	8041                	srli	s0,s0,0x10
    1bf4:	00811223          	sh	s0,4(sp)
C:\Users\29275\Desktop\WchWorkSPace\camCoreWithRTOS\obj/../Libraries/seekfree_libraries/zf_gpio.c:60

    if(GPO == dir)
    1bf8:	06f48363          	beq	s1,a5,1c5e <gpio_init+0xd6>
C:\Users\29275\Desktop\WchWorkSPace\camCoreWithRTOS\obj/../Libraries/seekfree_libraries/zf_gpio.c:68
        if((uint16)pinconf >> 8 == 0) GPIO_InitStructure.GPIO_Speed = (GPIOSpeed_TypeDef)(GPIO_Speed_50MHz);  //,50Mhz
        else GPIO_InitStructure.GPIO_Speed = (GPIOSpeed_TypeDef)((uint16)pinconf >> 8);                       //
    }

    //
    GPIO_InitStructure.GPIO_Mode = (GPIOMode_TypeDef)((uint16)pinconf & 0xff);
    1bfc:	0ffa7693          	andi	a3,s4,255
    1c00:	c636                	sw	a3,12(sp)
C:\Users\29275\Desktop\WchWorkSPace\camCoreWithRTOS\obj/../Libraries/seekfree_libraries/zf_gpio.c:69
    GPIO_Init((GPIO_TypeDef *)(GPION[io_group]), &GPIO_InitStructure);
    1c02:	00291713          	slli	a4,s2,0x2
    1c06:	679d                	lui	a5,0x7
    1c08:	d3078793          	addi	a5,a5,-720 # 6d30 <GPION>
    1c0c:	97ba                	add	a5,a5,a4
    1c0e:	004c                	addi	a1,sp,4
    1c10:	4388                	lw	a0,0(a5)
    1c12:	c38ff0ef          	jal	ra,104a <GPIO_Init>
C:\Users\29275\Desktop\WchWorkSPace\camCoreWithRTOS\obj/../Libraries/seekfree_libraries/zf_gpio.c:76
    if(GPO == dir)
    {
        //
        GPIO_WriteBit((GPIO_TypeDef *)(GPION[io_group]), (uint16)(1 << io_pin), dat);
    }
}
    1c16:	50b2                	lw	ra,44(sp)
    1c18:	5422                	lw	s0,40(sp)
    1c1a:	5492                	lw	s1,36(sp)
    1c1c:	5902                	lw	s2,32(sp)
    1c1e:	49f2                	lw	s3,28(sp)
    1c20:	4a62                	lw	s4,24(sp)
    1c22:	6145                	addi	sp,sp,48
    1c24:	8082                	ret
C:\Users\29275\Desktop\WchWorkSPace\camCoreWithRTOS\obj/../Libraries/seekfree_libraries/zf_gpio.c:49 (discriminator 1)
    else if(1 == (pin >> 5)) RCC_APB2PeriphClockCmd(RCC_APB2Periph_GPIOB, ENABLE);
    1c26:	4585                	li	a1,1
    1c28:	4521                	li	a0,8
    1c2a:	f2eff0ef          	jal	ra,1358 <RCC_APB2PeriphClockCmd>
    1c2e:	bf75                	j	1bea <gpio_init+0x62>
C:\Users\29275\Desktop\WchWorkSPace\camCoreWithRTOS\obj/../Libraries/seekfree_libraries/zf_gpio.c:50 (discriminator 1)
    else if(2 == (pin >> 5)) RCC_APB2PeriphClockCmd(RCC_APB2Periph_GPIOC, ENABLE);
    1c30:	4585                	li	a1,1
    1c32:	4541                	li	a0,16
    1c34:	f24ff0ef          	jal	ra,1358 <RCC_APB2PeriphClockCmd>
    1c38:	bf4d                	j	1bea <gpio_init+0x62>
C:\Users\29275\Desktop\WchWorkSPace\camCoreWithRTOS\obj/../Libraries/seekfree_libraries/zf_gpio.c:51 (discriminator 1)
    else if(3 == (pin >> 5)) RCC_APB2PeriphClockCmd(RCC_APB2Periph_GPIOD, ENABLE);
    1c3a:	4585                	li	a1,1
    1c3c:	02000513          	li	a0,32
    1c40:	f18ff0ef          	jal	ra,1358 <RCC_APB2PeriphClockCmd>
    1c44:	b75d                	j	1bea <gpio_init+0x62>
C:\Users\29275\Desktop\WchWorkSPace\camCoreWithRTOS\obj/../Libraries/seekfree_libraries/zf_gpio.c:52 (discriminator 1)
    else if(4 == (pin >> 5)) RCC_APB2PeriphClockCmd(RCC_APB2Periph_GPIOE, ENABLE);
    1c46:	4585                	li	a1,1
    1c48:	04000513          	li	a0,64
    1c4c:	f0cff0ef          	jal	ra,1358 <RCC_APB2PeriphClockCmd>
    1c50:	bf69                	j	1bea <gpio_init+0x62>
C:\Users\29275\Desktop\WchWorkSPace\camCoreWithRTOS\obj/../Libraries/seekfree_libraries/zf_gpio.c:53 (discriminator 1)
    else if(5 == (pin >> 5)) RCC_APB2PeriphClockCmd(RCC_APB2Periph_GPIOF, ENABLE);
    1c52:	4585                	li	a1,1
    1c54:	08000513          	li	a0,128
    1c58:	f00ff0ef          	jal	ra,1358 <RCC_APB2PeriphClockCmd>
    1c5c:	b779                	j	1bea <gpio_init+0x62>
C:\Users\29275\Desktop\WchWorkSPace\camCoreWithRTOS\obj/../Libraries/seekfree_libraries/zf_gpio.c:63
        if((uint16)pinconf >> 8 == 0) GPIO_InitStructure.GPIO_Speed = (GPIOSpeed_TypeDef)(GPIO_Speed_50MHz);  //,50Mhz
    1c5e:	010a1793          	slli	a5,s4,0x10
    1c62:	83c1                	srli	a5,a5,0x10
    1c64:	83a1                	srli	a5,a5,0x8
    1c66:	e79d                	bnez	a5,1c94 <gpio_init+0x10c>
C:\Users\29275\Desktop\WchWorkSPace\camCoreWithRTOS\obj/../Libraries/seekfree_libraries/zf_gpio.c:63 (discriminator 1)
    1c68:	478d                	li	a5,3
    1c6a:	c43e                	sw	a5,8(sp)
C:\Users\29275\Desktop\WchWorkSPace\camCoreWithRTOS\obj/../Libraries/seekfree_libraries/zf_gpio.c:68
    GPIO_InitStructure.GPIO_Mode = (GPIOMode_TypeDef)((uint16)pinconf & 0xff);
    1c6c:	0ffa7693          	andi	a3,s4,255
    1c70:	c636                	sw	a3,12(sp)
C:\Users\29275\Desktop\WchWorkSPace\camCoreWithRTOS\obj/../Libraries/seekfree_libraries/zf_gpio.c:69
    GPIO_Init((GPIO_TypeDef *)(GPION[io_group]), &GPIO_InitStructure);
    1c72:	00291713          	slli	a4,s2,0x2
    1c76:	669d                	lui	a3,0x7
    1c78:	d3068693          	addi	a3,a3,-720 # 6d30 <GPION>
    1c7c:	9736                	add	a4,a4,a3
    1c7e:	4304                	lw	s1,0(a4)
    1c80:	004c                	addi	a1,sp,4
    1c82:	8526                	mv	a0,s1
    1c84:	bc6ff0ef          	jal	ra,104a <GPIO_Init>
C:\Users\29275\Desktop\WchWorkSPace\camCoreWithRTOS\obj/../Libraries/seekfree_libraries/zf_gpio.c:74
        GPIO_WriteBit((GPIO_TypeDef *)(GPION[io_group]), (uint16)(1 << io_pin), dat);
    1c88:	864e                	mv	a2,s3
    1c8a:	85a2                	mv	a1,s0
    1c8c:	8526                	mv	a0,s1
    1c8e:	c86ff0ef          	jal	ra,1114 <GPIO_WriteBit>
    1c92:	b751                	j	1c16 <gpio_init+0x8e>
C:\Users\29275\Desktop\WchWorkSPace\camCoreWithRTOS\obj/../Libraries/seekfree_libraries/zf_gpio.c:64
        else GPIO_InitStructure.GPIO_Speed = (GPIOSpeed_TypeDef)((uint16)pinconf >> 8);                       //
    1c94:	c43e                	sw	a5,8(sp)
    1c96:	bfd9                	j	1c6c <gpio_init+0xe4>
    1c98:	8082                	ret

00001c9a <gpio_get>:
gpio_get():
C:\Users\29275\Desktop\WchWorkSPace\camCoreWithRTOS\obj/../Libraries/seekfree_libraries/zf_gpio.c:107
uint8 gpio_get(PIN_enum pin)
{
    uint8 io_group = (pin & 0xE0) >> 5;
    uint8 io_pin = pin & 0x1F;

    if((((GPIO_TypeDef *)(GPION[io_group]))->INDR & (1 << io_pin)) != 0)
    1c9a:	00355713          	srli	a4,a0,0x3
    1c9e:	01c77693          	andi	a3,a4,28
    1ca2:	671d                	lui	a4,0x7
    1ca4:	d3070713          	addi	a4,a4,-720 # 6d30 <GPION>
    1ca8:	9736                	add	a4,a4,a3
    1caa:	431c                	lw	a5,0(a4)
    1cac:	4798                	lw	a4,8(a5)
    1cae:	4785                	li	a5,1
    1cb0:	00a79533          	sll	a0,a5,a0
    1cb4:	8d79                	and	a0,a0,a4
C:\Users\29275\Desktop\WchWorkSPace\camCoreWithRTOS\obj/../Libraries/seekfree_libraries/zf_gpio.c:114
        return 1;
    }
    return 0;


}
    1cb6:	00a03533          	snez	a0,a0
    1cba:	8082                	ret

00001cbc <gpio_toggle>:
gpio_toggle():
C:\Users\29275\Desktop\WchWorkSPace\camCoreWithRTOS\obj/../Libraries/seekfree_libraries/zf_gpio.c:128
void gpio_toggle(PIN_enum pin)
{
    uint8 io_group = (pin & 0xE0) >> 5;
    uint8 io_pin = pin & 0x1F;

    ((GPIO_TypeDef *)(GPION[io_group]))->OUTDR ^= (uint16)(1 << io_pin);
    1cbc:	00355713          	srli	a4,a0,0x3
    1cc0:	01c77693          	andi	a3,a4,28
    1cc4:	671d                	lui	a4,0x7
    1cc6:	d3070713          	addi	a4,a4,-720 # 6d30 <GPION>
    1cca:	9736                	add	a4,a4,a3
    1ccc:	4318                	lw	a4,0(a4)
    1cce:	4754                	lw	a3,12(a4)
    1cd0:	4785                	li	a5,1
    1cd2:	00a797b3          	sll	a5,a5,a0
    1cd6:	07c2                	slli	a5,a5,0x10
    1cd8:	83c1                	srli	a5,a5,0x10
    1cda:	8fb5                	xor	a5,a5,a3
    1cdc:	c75c                	sw	a5,12(a4)
C:\Users\29275\Desktop\WchWorkSPace\camCoreWithRTOS\obj/../Libraries/seekfree_libraries/zf_gpio.c:129
}
    1cde:	8082                	ret

00001ce0 <close_all_irq>:
close_all_irq():
C:\Users\29275\Desktop\WchWorkSPace\camCoreWithRTOS\obj/../Libraries/seekfree_libraries/zf_nvic.c:65
//  Sample usage:
//-------------------------------------------------------------------------------------------------------------------
void close_all_irq(void)
{
    //1
    PFIC->IRER[0] = 0xffffffff;
    1ce0:	e000e7b7          	lui	a5,0xe000e
    1ce4:	577d                	li	a4,-1
    1ce6:	18e7a023          	sw	a4,384(a5) # e000e180 <_eusrstack+0xc0009180>
C:\Users\29275\Desktop\WchWorkSPace\camCoreWithRTOS\obj/../Libraries/seekfree_libraries/zf_nvic.c:66
    PFIC->IRER[1] = 0xffffffff;
    1cea:	18e7a223          	sw	a4,388(a5)
C:\Users\29275\Desktop\WchWorkSPace\camCoreWithRTOS\obj/../Libraries/seekfree_libraries/zf_nvic.c:67
}
    1cee:	8082                	ret

00001cf0 <nvic_init>:
nvic_init():
C:\Users\29275\Desktop\WchWorkSPace\camCoreWithRTOS\obj/../Libraries/seekfree_libraries/zf_nvic.c:38
{
    1cf0:	1101                	addi	sp,sp,-32
    1cf2:	ce06                	sw	ra,28(sp)
C:\Users\29275\Desktop\WchWorkSPace\camCoreWithRTOS\obj/../Libraries/seekfree_libraries/zf_nvic.c:41
    NVIC_InitStructure.NVIC_IRQChannel = irqn;                                  //
    1cf4:	00a10423          	sb	a0,8(sp)
C:\Users\29275\Desktop\WchWorkSPace\camCoreWithRTOS\obj/../Libraries/seekfree_libraries/zf_nvic.c:42
    NVIC_InitStructure.NVIC_IRQChannelPreemptionPriority=preemption_priority;   //
    1cf8:	00b104a3          	sb	a1,9(sp)
C:\Users\29275\Desktop\WchWorkSPace\camCoreWithRTOS\obj/../Libraries/seekfree_libraries/zf_nvic.c:43
    NVIC_InitStructure.NVIC_IRQChannelSubPriority = sub_priority;               //
    1cfc:	00c10523          	sb	a2,10(sp)
C:\Users\29275\Desktop\WchWorkSPace\camCoreWithRTOS\obj/../Libraries/seekfree_libraries/zf_nvic.c:44
    NVIC_InitStructure.NVIC_IRQChannelCmd = status;                             //
    1d00:	c636                	sw	a3,12(sp)
C:\Users\29275\Desktop\WchWorkSPace\camCoreWithRTOS\obj/../Libraries/seekfree_libraries/zf_nvic.c:45
    NVIC_Init(&NVIC_InitStructure);
    1d02:	0028                	addi	a0,sp,8
    1d04:	cb4ff0ef          	jal	ra,11b8 <NVIC_Init>
C:\Users\29275\Desktop\WchWorkSPace\camCoreWithRTOS\obj/../Libraries/seekfree_libraries/zf_nvic.c:48
    irq_status.ienr0 |= (PFIC->ISR[0] & 0xFFFFF000);    //[31:12]
    1d08:	e000e637          	lui	a2,0xe000e
    1d0c:	4218                	lw	a4,0(a2)
    1d0e:	76fd                	lui	a3,0xfffff
    1d10:	8ef9                	and	a3,a3,a4
    1d12:	9c81a703          	lw	a4,-1592(gp) # 20000278 <irq_status>
    1d16:	8f55                	or	a4,a4,a3
    1d18:	9ce1a423          	sw	a4,-1592(gp) # 20000278 <irq_status>
C:\Users\29275\Desktop\WchWorkSPace\camCoreWithRTOS\obj/../Libraries/seekfree_libraries/zf_nvic.c:49
    irq_status.ienr1 |= (PFIC->ISR[1] & 0x0FFFFFFF);    //[27:0]
    1d1c:	4258                	lw	a4,4(a2)
    1d1e:	9c818793          	addi	a5,gp,-1592 # 20000278 <irq_status>
    1d22:	0712                	slli	a4,a4,0x4
    1d24:	8311                	srli	a4,a4,0x4
    1d26:	43d4                	lw	a3,4(a5)
    1d28:	8f55                	or	a4,a4,a3
    1d2a:	c3d8                	sw	a4,4(a5)
C:\Users\29275\Desktop\WchWorkSPace\camCoreWithRTOS\obj/../Libraries/seekfree_libraries/zf_nvic.c:50
    if(irq_status.flag == 1)
    1d2c:	0087c703          	lbu	a4,8(a5)
    1d30:	4785                	li	a5,1
    1d32:	00f70563          	beq	a4,a5,1d3c <nvic_init+0x4c>
C:\Users\29275\Desktop\WchWorkSPace\camCoreWithRTOS\obj/../Libraries/seekfree_libraries/zf_nvic.c:54
}
    1d36:	40f2                	lw	ra,28(sp)
    1d38:	6105                	addi	sp,sp,32
    1d3a:	8082                	ret
C:\Users\29275\Desktop\WchWorkSPace\camCoreWithRTOS\obj/../Libraries/seekfree_libraries/zf_nvic.c:52
        close_all_irq();
    1d3c:	3755                	jal	1ce0 <close_all_irq>
C:\Users\29275\Desktop\WchWorkSPace\camCoreWithRTOS\obj/../Libraries/seekfree_libraries/zf_nvic.c:54
}
    1d3e:	bfe5                	j	1d36 <nvic_init+0x46>

00001d40 <timer_gpio_quad_init>:
timer_gpio_quad_init():
C:\Users\29275\Desktop\WchWorkSPace\camCoreWithRTOS\obj/../Libraries/seekfree_libraries/zf_qtimer.c:40
//  @param      phaseB      B
//  @return     void
//  Sample usage:           
//-------------------------------------------------------------------------------------------------------------------
void timer_gpio_quad_init(TIMER_PIN_enum phaseA, TIMER_PIN_enum phaseB)
{
    1d40:	1141                	addi	sp,sp,-16
    1d42:	c606                	sw	ra,12(sp)
    1d44:	c422                	sw	s0,8(sp)
    1d46:	842e                	mv	s0,a1
C:\Users\29275\Desktop\WchWorkSPace\camCoreWithRTOS\obj/../Libraries/seekfree_libraries/zf_qtimer.c:41
    if(TIMER1_CHA_A8 == phaseA)       gpio_init(A8, GPI, 0, IN_FLOAT);
    1d48:	c915                	beqz	a0,1d7c <timer_gpio_quad_init+0x3c>
C:\Users\29275\Desktop\WchWorkSPace\camCoreWithRTOS\obj/../Libraries/seekfree_libraries/zf_qtimer.c:42
    else if(TIMER2_CHA_A0 == phaseA)  gpio_init(A0, GPI, 0, IN_FLOAT);
    1d4a:	4789                	li	a5,2
    1d4c:	06f50663          	beq	a0,a5,1db8 <timer_gpio_quad_init+0x78>
C:\Users\29275\Desktop\WchWorkSPace\camCoreWithRTOS\obj/../Libraries/seekfree_libraries/zf_qtimer.c:43
    else if(TIMER2_CHA_A15 == phaseA) gpio_init(A15, GPI, 0, IN_FLOAT);
    1d50:	4791                	li	a5,4
    1d52:	06f50963          	beq	a0,a5,1dc4 <timer_gpio_quad_init+0x84>
C:\Users\29275\Desktop\WchWorkSPace\camCoreWithRTOS\obj/../Libraries/seekfree_libraries/zf_qtimer.c:44
    else if(TIMER3_CHA_A6 == phaseA)  gpio_init(A6, GPI, 0, IN_FLOAT);
    1d56:	4799                	li	a5,6
    1d58:	06f50c63          	beq	a0,a5,1dd0 <timer_gpio_quad_init+0x90>
C:\Users\29275\Desktop\WchWorkSPace\camCoreWithRTOS\obj/../Libraries/seekfree_libraries/zf_qtimer.c:45
    else if(TIMER3_CHA_C6 == phaseA)  gpio_init(C6, GPI, 0, IN_FLOAT);
    1d5c:	47a1                	li	a5,8
    1d5e:	06f50f63          	beq	a0,a5,1ddc <timer_gpio_quad_init+0x9c>
C:\Users\29275\Desktop\WchWorkSPace\camCoreWithRTOS\obj/../Libraries/seekfree_libraries/zf_qtimer.c:46
    else if(TIMER3_CHA_B4 == phaseA)  gpio_init(B4, GPI, 0, IN_FLOAT);
    1d62:	47a9                	li	a5,10
    1d64:	08f50363          	beq	a0,a5,1dea <timer_gpio_quad_init+0xaa>
C:\Users\29275\Desktop\WchWorkSPace\camCoreWithRTOS\obj/../Libraries/seekfree_libraries/zf_qtimer.c:47
    else if(TIMER4_CHA_B6 == phaseA)  gpio_init(B6, GPI, 0, IN_FLOAT);
    1d68:	47b1                	li	a5,12
    1d6a:	00f51e63          	bne	a0,a5,1d86 <timer_gpio_quad_init+0x46>
C:\Users\29275\Desktop\WchWorkSPace\camCoreWithRTOS\obj/../Libraries/seekfree_libraries/zf_qtimer.c:47 (discriminator 1)
    1d6e:	4691                	li	a3,4
    1d70:	4601                	li	a2,0
    1d72:	4581                	li	a1,0
    1d74:	02600513          	li	a0,38
    1d78:	3d01                	jal	1b88 <gpio_init>
    1d7a:	a031                	j	1d86 <timer_gpio_quad_init+0x46>
C:\Users\29275\Desktop\WchWorkSPace\camCoreWithRTOS\obj/../Libraries/seekfree_libraries/zf_qtimer.c:41 (discriminator 1)
    if(TIMER1_CHA_A8 == phaseA)       gpio_init(A8, GPI, 0, IN_FLOAT);
    1d7c:	4691                	li	a3,4
    1d7e:	4601                	li	a2,0
    1d80:	4581                	li	a1,0
    1d82:	4521                	li	a0,8
    1d84:	3511                	jal	1b88 <gpio_init>
C:\Users\29275\Desktop\WchWorkSPace\camCoreWithRTOS\obj/../Libraries/seekfree_libraries/zf_qtimer.c:49

    if(TIMER1_CHB_A9 == phaseB)       gpio_init(A9, GPI, 0, IN_FLOAT);
    1d86:	4785                	li	a5,1
    1d88:	06f40863          	beq	s0,a5,1df8 <timer_gpio_quad_init+0xb8>
C:\Users\29275\Desktop\WchWorkSPace\camCoreWithRTOS\obj/../Libraries/seekfree_libraries/zf_qtimer.c:50
    else if(TIMER2_CHB_A1 == phaseB)  gpio_init(A1, GPI, 0, IN_FLOAT);
    1d8c:	478d                	li	a5,3
    1d8e:	06f40b63          	beq	s0,a5,1e04 <timer_gpio_quad_init+0xc4>
C:\Users\29275\Desktop\WchWorkSPace\camCoreWithRTOS\obj/../Libraries/seekfree_libraries/zf_qtimer.c:51
    else if(TIMER2_CHB_B3 == phaseB)  gpio_init(B3, GPI, 0, IN_FLOAT);
    1d92:	4795                	li	a5,5
    1d94:	06f40e63          	beq	s0,a5,1e10 <timer_gpio_quad_init+0xd0>
C:\Users\29275\Desktop\WchWorkSPace\camCoreWithRTOS\obj/../Libraries/seekfree_libraries/zf_qtimer.c:52
    else if(TIMER3_CHB_A7 == phaseB)  gpio_init(A7, GPI, 0, IN_FLOAT);
    1d98:	479d                	li	a5,7
    1d9a:	08f40263          	beq	s0,a5,1e1e <timer_gpio_quad_init+0xde>
C:\Users\29275\Desktop\WchWorkSPace\camCoreWithRTOS\obj/../Libraries/seekfree_libraries/zf_qtimer.c:53
    else if(TIMER3_CHB_C7 == phaseB)  gpio_init(C7, GPI, 0, IN_FLOAT);
    1d9e:	47a5                	li	a5,9
    1da0:	08f40563          	beq	s0,a5,1e2a <timer_gpio_quad_init+0xea>
C:\Users\29275\Desktop\WchWorkSPace\camCoreWithRTOS\obj/../Libraries/seekfree_libraries/zf_qtimer.c:54
    else if(TIMER3_CHB_B5 == phaseB)  gpio_init(B5, GPI, 0, IN_FLOAT);
    1da4:	47ad                	li	a5,11
    1da6:	08f40963          	beq	s0,a5,1e38 <timer_gpio_quad_init+0xf8>
C:\Users\29275\Desktop\WchWorkSPace\camCoreWithRTOS\obj/../Libraries/seekfree_libraries/zf_qtimer.c:55
    else if(TIMER4_CHB_B7 == phaseB)  gpio_init(B7, GPI, 0, IN_FLOAT);
    1daa:	47b5                	li	a5,13
    1dac:	08f40d63          	beq	s0,a5,1e46 <timer_gpio_quad_init+0x106>
C:\Users\29275\Desktop\WchWorkSPace\camCoreWithRTOS\obj/../Libraries/seekfree_libraries/zf_qtimer.c:57

}
    1db0:	40b2                	lw	ra,12(sp)
    1db2:	4422                	lw	s0,8(sp)
    1db4:	0141                	addi	sp,sp,16
    1db6:	8082                	ret
C:\Users\29275\Desktop\WchWorkSPace\camCoreWithRTOS\obj/../Libraries/seekfree_libraries/zf_qtimer.c:42 (discriminator 1)
    else if(TIMER2_CHA_A0 == phaseA)  gpio_init(A0, GPI, 0, IN_FLOAT);
    1db8:	4691                	li	a3,4
    1dba:	4601                	li	a2,0
    1dbc:	4581                	li	a1,0
    1dbe:	4501                	li	a0,0
    1dc0:	33e1                	jal	1b88 <gpio_init>
    1dc2:	b7d1                	j	1d86 <timer_gpio_quad_init+0x46>
C:\Users\29275\Desktop\WchWorkSPace\camCoreWithRTOS\obj/../Libraries/seekfree_libraries/zf_qtimer.c:43 (discriminator 1)
    else if(TIMER2_CHA_A15 == phaseA) gpio_init(A15, GPI, 0, IN_FLOAT);
    1dc4:	4691                	li	a3,4
    1dc6:	4601                	li	a2,0
    1dc8:	4581                	li	a1,0
    1dca:	453d                	li	a0,15
    1dcc:	3b75                	jal	1b88 <gpio_init>
    1dce:	bf65                	j	1d86 <timer_gpio_quad_init+0x46>
C:\Users\29275\Desktop\WchWorkSPace\camCoreWithRTOS\obj/../Libraries/seekfree_libraries/zf_qtimer.c:44 (discriminator 1)
    else if(TIMER3_CHA_A6 == phaseA)  gpio_init(A6, GPI, 0, IN_FLOAT);
    1dd0:	4691                	li	a3,4
    1dd2:	4601                	li	a2,0
    1dd4:	4581                	li	a1,0
    1dd6:	4519                	li	a0,6
    1dd8:	3b45                	jal	1b88 <gpio_init>
    1dda:	b775                	j	1d86 <timer_gpio_quad_init+0x46>
C:\Users\29275\Desktop\WchWorkSPace\camCoreWithRTOS\obj/../Libraries/seekfree_libraries/zf_qtimer.c:45 (discriminator 1)
    else if(TIMER3_CHA_C6 == phaseA)  gpio_init(C6, GPI, 0, IN_FLOAT);
    1ddc:	4691                	li	a3,4
    1dde:	4601                	li	a2,0
    1de0:	4581                	li	a1,0
    1de2:	04600513          	li	a0,70
    1de6:	334d                	jal	1b88 <gpio_init>
    1de8:	bf79                	j	1d86 <timer_gpio_quad_init+0x46>
C:\Users\29275\Desktop\WchWorkSPace\camCoreWithRTOS\obj/../Libraries/seekfree_libraries/zf_qtimer.c:46 (discriminator 1)
    else if(TIMER3_CHA_B4 == phaseA)  gpio_init(B4, GPI, 0, IN_FLOAT);
    1dea:	4691                	li	a3,4
    1dec:	4601                	li	a2,0
    1dee:	4581                	li	a1,0
    1df0:	02400513          	li	a0,36
    1df4:	3b51                	jal	1b88 <gpio_init>
    1df6:	bf41                	j	1d86 <timer_gpio_quad_init+0x46>
C:\Users\29275\Desktop\WchWorkSPace\camCoreWithRTOS\obj/../Libraries/seekfree_libraries/zf_qtimer.c:49 (discriminator 1)
    if(TIMER1_CHB_A9 == phaseB)       gpio_init(A9, GPI, 0, IN_FLOAT);
    1df8:	4691                	li	a3,4
    1dfa:	4601                	li	a2,0
    1dfc:	4581                	li	a1,0
    1dfe:	4525                	li	a0,9
    1e00:	3361                	jal	1b88 <gpio_init>
    1e02:	b77d                	j	1db0 <timer_gpio_quad_init+0x70>
C:\Users\29275\Desktop\WchWorkSPace\camCoreWithRTOS\obj/../Libraries/seekfree_libraries/zf_qtimer.c:50 (discriminator 1)
    else if(TIMER2_CHB_A1 == phaseB)  gpio_init(A1, GPI, 0, IN_FLOAT);
    1e04:	4691                	li	a3,4
    1e06:	4601                	li	a2,0
    1e08:	4581                	li	a1,0
    1e0a:	4505                	li	a0,1
    1e0c:	3bb5                	jal	1b88 <gpio_init>
    1e0e:	b74d                	j	1db0 <timer_gpio_quad_init+0x70>
C:\Users\29275\Desktop\WchWorkSPace\camCoreWithRTOS\obj/../Libraries/seekfree_libraries/zf_qtimer.c:51 (discriminator 1)
    else if(TIMER2_CHB_B3 == phaseB)  gpio_init(B3, GPI, 0, IN_FLOAT);
    1e10:	4691                	li	a3,4
    1e12:	4601                	li	a2,0
    1e14:	4581                	li	a1,0
    1e16:	02300513          	li	a0,35
    1e1a:	33bd                	jal	1b88 <gpio_init>
    1e1c:	bf51                	j	1db0 <timer_gpio_quad_init+0x70>
C:\Users\29275\Desktop\WchWorkSPace\camCoreWithRTOS\obj/../Libraries/seekfree_libraries/zf_qtimer.c:52 (discriminator 1)
    else if(TIMER3_CHB_A7 == phaseB)  gpio_init(A7, GPI, 0, IN_FLOAT);
    1e1e:	4691                	li	a3,4
    1e20:	4601                	li	a2,0
    1e22:	4581                	li	a1,0
    1e24:	451d                	li	a0,7
    1e26:	338d                	jal	1b88 <gpio_init>
    1e28:	b761                	j	1db0 <timer_gpio_quad_init+0x70>
C:\Users\29275\Desktop\WchWorkSPace\camCoreWithRTOS\obj/../Libraries/seekfree_libraries/zf_qtimer.c:53 (discriminator 1)
    else if(TIMER3_CHB_C7 == phaseB)  gpio_init(C7, GPI, 0, IN_FLOAT);
    1e2a:	4691                	li	a3,4
    1e2c:	4601                	li	a2,0
    1e2e:	4581                	li	a1,0
    1e30:	04700513          	li	a0,71
    1e34:	3b91                	jal	1b88 <gpio_init>
    1e36:	bfad                	j	1db0 <timer_gpio_quad_init+0x70>
C:\Users\29275\Desktop\WchWorkSPace\camCoreWithRTOS\obj/../Libraries/seekfree_libraries/zf_qtimer.c:54 (discriminator 1)
    else if(TIMER3_CHB_B5 == phaseB)  gpio_init(B5, GPI, 0, IN_FLOAT);
    1e38:	4691                	li	a3,4
    1e3a:	4601                	li	a2,0
    1e3c:	4581                	li	a1,0
    1e3e:	02500513          	li	a0,37
    1e42:	3399                	jal	1b88 <gpio_init>
    1e44:	b7b5                	j	1db0 <timer_gpio_quad_init+0x70>
C:\Users\29275\Desktop\WchWorkSPace\camCoreWithRTOS\obj/../Libraries/seekfree_libraries/zf_qtimer.c:55 (discriminator 1)
    else if(TIMER4_CHB_B7 == phaseB)  gpio_init(B7, GPI, 0, IN_FLOAT);
    1e46:	4691                	li	a3,4
    1e48:	4601                	li	a2,0
    1e4a:	4581                	li	a1,0
    1e4c:	02700513          	li	a0,39
    1e50:	3b25                	jal	1b88 <gpio_init>
C:\Users\29275\Desktop\WchWorkSPace\camCoreWithRTOS\obj/../Libraries/seekfree_libraries/zf_qtimer.c:57 (discriminator 1)
}
    1e52:	bfb9                	j	1db0 <timer_gpio_quad_init+0x70>

00001e54 <timer_quad_init>:
timer_quad_init():
C:\Users\29275\Desktop\WchWorkSPace\camCoreWithRTOS\obj/../Libraries/seekfree_libraries/zf_qtimer.c:69
//  @param      phaseB      B
//  @return     void
//  Sample usage:           
//-------------------------------------------------------------------------------------------------------------------
void timer_quad_init(TIMERN_enum timern, TIMER_PIN_enum phaseA, TIMER_PIN_enum phaseB)
{
    1e54:	1101                	addi	sp,sp,-32
    1e56:	ce06                	sw	ra,28(sp)
    1e58:	cc22                	sw	s0,24(sp)
    1e5a:	ca26                	sw	s1,20(sp)
    1e5c:	c84a                	sw	s2,16(sp)
    1e5e:	842a                	mv	s0,a0
    1e60:	84ae                	mv	s1,a1
    1e62:	8932                	mv	s2,a2
C:\Users\29275\Desktop\WchWorkSPace\camCoreWithRTOS\obj/../Libraries/seekfree_libraries/zf_qtimer.c:72
    TIM_TimeBaseInitTypeDef TIM_TimeBaseStructure;

    if(TIMER_1 == timern)       RCC_APB2PeriphClockCmd(RCC_APB2Periph_TIM1, ENABLE);//1
    1e64:	c529                	beqz	a0,1eae <timer_quad_init+0x5a>
C:\Users\29275\Desktop\WchWorkSPace\camCoreWithRTOS\obj/../Libraries/seekfree_libraries/zf_qtimer.c:73
    else  if(TIMER_2 == timern) RCC_APB1PeriphClockCmd(RCC_APB1Periph_TIM2, ENABLE);//2
    1e66:	4785                	li	a5,1
    1e68:	04f50a63          	beq	a0,a5,1ebc <timer_quad_init+0x68>
C:\Users\29275\Desktop\WchWorkSPace\camCoreWithRTOS\obj/../Libraries/seekfree_libraries/zf_qtimer.c:74
    else  if(TIMER_3 == timern) RCC_APB1PeriphClockCmd(RCC_APB1Periph_TIM3, ENABLE);//3
    1e6c:	4789                	li	a5,2
    1e6e:	04f50c63          	beq	a0,a5,1ec6 <timer_quad_init+0x72>
C:\Users\29275\Desktop\WchWorkSPace\camCoreWithRTOS\obj/../Libraries/seekfree_libraries/zf_qtimer.c:75
    else  if(TIMER_4 == timern) RCC_APB1PeriphClockCmd(RCC_APB1Periph_TIM4, ENABLE);//4
    1e72:	478d                	li	a5,3
    1e74:	04f50e63          	beq	a0,a5,1ed0 <timer_quad_init+0x7c>
C:\Users\29275\Desktop\WchWorkSPace\camCoreWithRTOS\obj/../Libraries/seekfree_libraries/zf_qtimer.c:77

    timer_gpio_quad_init(phaseA, phaseB);                                           //
    1e78:	85ca                	mv	a1,s2
    1e7a:	8526                	mv	a0,s1
    1e7c:	35d1                	jal	1d40 <timer_gpio_quad_init>
C:\Users\29275\Desktop\WchWorkSPace\camCoreWithRTOS\obj/../Libraries/seekfree_libraries/zf_qtimer.c:79

    RCC_APB2PeriphClockCmd(RCC_APB2Periph_AFIO, ENABLE);                            //AFIO
    1e7e:	4585                	li	a1,1
    1e80:	4505                	li	a0,1
    1e82:	cd6ff0ef          	jal	ra,1358 <RCC_APB2PeriphClockCmd>
C:\Users\29275\Desktop\WchWorkSPace\camCoreWithRTOS\obj/../Libraries/seekfree_libraries/zf_qtimer.c:81

    if(TIMER2_CHA_A15 == phaseA && TIMER2_CHB_B3 == phaseB)                         //
    1e86:	4791                	li	a5,4
    1e88:	04f48963          	beq	s1,a5,1eda <timer_quad_init+0x86>
C:\Users\29275\Desktop\WchWorkSPace\camCoreWithRTOS\obj/../Libraries/seekfree_libraries/zf_qtimer.c:83
        GPIO_PinRemapConfig(GPIO_FullRemap_TIM2, ENABLE);
    else    if(TIMER3_CHA_C6 == phaseA && TIMER3_CHB_C7 == phaseB)
    1e8c:	47a1                	li	a5,8
    1e8e:	0af48a63          	beq	s1,a5,1f42 <timer_quad_init+0xee>
C:\Users\29275\Desktop\WchWorkSPace\camCoreWithRTOS\obj/../Libraries/seekfree_libraries/zf_qtimer.c:85
        GPIO_PinRemapConfig(GPIO_FullRemap_TIM3, ENABLE);
    else    if(TIMER3_CHA_B4 == phaseA && TIMER3_CHB_B5 == phaseB)
    1e92:	47a9                	li	a5,10
    1e94:	04f49663          	bne	s1,a5,1ee0 <timer_quad_init+0x8c>
C:\Users\29275\Desktop\WchWorkSPace\camCoreWithRTOS\obj/../Libraries/seekfree_libraries/zf_qtimer.c:85 (discriminator 1)
    1e98:	47ad                	li	a5,11
    1e9a:	04f91363          	bne	s2,a5,1ee0 <timer_quad_init+0x8c>
C:\Users\29275\Desktop\WchWorkSPace\camCoreWithRTOS\obj/../Libraries/seekfree_libraries/zf_qtimer.c:86
        GPIO_PinRemapConfig(GPIO_PartialRemap_TIM3, ENABLE);
    1e9e:	4585                	li	a1,1
    1ea0:	001a1537          	lui	a0,0x1a1
    1ea4:	80050513          	addi	a0,a0,-2048 # 1a0800 <__fsymtab_end+0x1990e0>
    1ea8:	a76ff0ef          	jal	ra,111e <GPIO_PinRemapConfig>
    1eac:	a815                	j	1ee0 <timer_quad_init+0x8c>
C:\Users\29275\Desktop\WchWorkSPace\camCoreWithRTOS\obj/../Libraries/seekfree_libraries/zf_qtimer.c:72 (discriminator 1)
    if(TIMER_1 == timern)       RCC_APB2PeriphClockCmd(RCC_APB2Periph_TIM1, ENABLE);//1
    1eae:	4585                	li	a1,1
    1eb0:	6505                	lui	a0,0x1
    1eb2:	80050513          	addi	a0,a0,-2048 # 800 <TIM1_TRG_COM_IRQHandler+0x6a>
    1eb6:	ca2ff0ef          	jal	ra,1358 <RCC_APB2PeriphClockCmd>
    1eba:	bf7d                	j	1e78 <timer_quad_init+0x24>
C:\Users\29275\Desktop\WchWorkSPace\camCoreWithRTOS\obj/../Libraries/seekfree_libraries/zf_qtimer.c:73 (discriminator 1)
    else  if(TIMER_2 == timern) RCC_APB1PeriphClockCmd(RCC_APB1Periph_TIM2, ENABLE);//2
    1ebc:	4585                	li	a1,1
    1ebe:	4505                	li	a0,1
    1ec0:	cb6ff0ef          	jal	ra,1376 <RCC_APB1PeriphClockCmd>
    1ec4:	bf55                	j	1e78 <timer_quad_init+0x24>
C:\Users\29275\Desktop\WchWorkSPace\camCoreWithRTOS\obj/../Libraries/seekfree_libraries/zf_qtimer.c:74 (discriminator 1)
    else  if(TIMER_3 == timern) RCC_APB1PeriphClockCmd(RCC_APB1Periph_TIM3, ENABLE);//3
    1ec6:	4585                	li	a1,1
    1ec8:	4509                	li	a0,2
    1eca:	cacff0ef          	jal	ra,1376 <RCC_APB1PeriphClockCmd>
    1ece:	b76d                	j	1e78 <timer_quad_init+0x24>
C:\Users\29275\Desktop\WchWorkSPace\camCoreWithRTOS\obj/../Libraries/seekfree_libraries/zf_qtimer.c:75 (discriminator 1)
    else  if(TIMER_4 == timern) RCC_APB1PeriphClockCmd(RCC_APB1Periph_TIM4, ENABLE);//4
    1ed0:	4585                	li	a1,1
    1ed2:	4511                	li	a0,4
    1ed4:	ca2ff0ef          	jal	ra,1376 <RCC_APB1PeriphClockCmd>
    1ed8:	b745                	j	1e78 <timer_quad_init+0x24>
C:\Users\29275\Desktop\WchWorkSPace\camCoreWithRTOS\obj/../Libraries/seekfree_libraries/zf_qtimer.c:81 (discriminator 1)
    if(TIMER2_CHA_A15 == phaseA && TIMER2_CHB_B3 == phaseB)                         //
    1eda:	4795                	li	a5,5
    1edc:	04f90b63          	beq	s2,a5,1f32 <timer_quad_init+0xde>
C:\Users\29275\Desktop\WchWorkSPace\camCoreWithRTOS\obj/../Libraries/seekfree_libraries/zf_qtimer.c:88

    TIM_TimeBaseStructInit(&TIM_TimeBaseStructure);
    1ee0:	0048                	addi	a0,sp,4
    1ee2:	d68ff0ef          	jal	ra,144a <TIM_TimeBaseStructInit>
C:\Users\29275\Desktop\WchWorkSPace\camCoreWithRTOS\obj/../Libraries/seekfree_libraries/zf_qtimer.c:89
    TIM_TimeBaseStructure.TIM_Prescaler = 1;                                        //
    1ee6:	4785                	li	a5,1
    1ee8:	00f11223          	sh	a5,4(sp)
C:\Users\29275\Desktop\WchWorkSPace\camCoreWithRTOS\obj/../Libraries/seekfree_libraries/zf_qtimer.c:90
    TIM_TimeBaseStructure.TIM_Period = 0xFFFF;                                      //
    1eec:	57fd                	li	a5,-1
    1eee:	00f11423          	sh	a5,8(sp)
C:\Users\29275\Desktop\WchWorkSPace\camCoreWithRTOS\obj/../Libraries/seekfree_libraries/zf_qtimer.c:91
    TIM_TimeBaseStructure.TIM_ClockDivision = TIM_CKD_DIV1;                         //
    1ef2:	00011523          	sh	zero,10(sp)
C:\Users\29275\Desktop\WchWorkSPace\camCoreWithRTOS\obj/../Libraries/seekfree_libraries/zf_qtimer.c:92
    TIM_TimeBaseStructure.TIM_CounterMode = TIM_CounterMode_Up;                     //TIM
    1ef6:	00011323          	sh	zero,6(sp)
C:\Users\29275\Desktop\WchWorkSPace\camCoreWithRTOS\obj/../Libraries/seekfree_libraries/zf_qtimer.c:93
    TIM_TimeBaseStructure.TIM_RepetitionCounter = 0;                                //
    1efa:	00010623          	sb	zero,12(sp)
C:\Users\29275\Desktop\WchWorkSPace\camCoreWithRTOS\obj/../Libraries/seekfree_libraries/zf_qtimer.c:94
    TIM_TimeBaseInit((TIM_TypeDef*)(TIMERN[timern]), &TIM_TimeBaseStructure);       //
    1efe:	040a                	slli	s0,s0,0x2
    1f00:	679d                	lui	a5,0x7
    1f02:	d4078793          	addi	a5,a5,-704 # 6d40 <TIMERN>
    1f06:	943e                	add	s0,s0,a5
    1f08:	4000                	lw	s0,0(s0)
    1f0a:	004c                	addi	a1,sp,4
    1f0c:	8522                	mv	a0,s0
    1f0e:	c86ff0ef          	jal	ra,1394 <TIM_TimeBaseInit>
C:\Users\29275\Desktop\WchWorkSPace\camCoreWithRTOS\obj/../Libraries/seekfree_libraries/zf_qtimer.c:95
    TIM_EncoderInterfaceConfig((TIM_TypeDef*)(TIMERN[timern]), TIM_EncoderMode_TI2 , TIM_ICPolarity_Rising, TIM_ICPolarity_Rising);//
    1f12:	4681                	li	a3,0
    1f14:	4601                	li	a2,0
    1f16:	4589                	li	a1,2
    1f18:	8522                	mv	a0,s0
    1f1a:	d6cff0ef          	jal	ra,1486 <TIM_EncoderInterfaceConfig>
C:\Users\29275\Desktop\WchWorkSPace\camCoreWithRTOS\obj/../Libraries/seekfree_libraries/zf_qtimer.c:97

    TIM_Cmd((TIM_TypeDef*)(TIMERN[timern]), ENABLE);                                //
    1f1e:	4585                	li	a1,1
    1f20:	8522                	mv	a0,s0
    1f22:	d40ff0ef          	jal	ra,1462 <TIM_Cmd>
C:\Users\29275\Desktop\WchWorkSPace\camCoreWithRTOS\obj/../Libraries/seekfree_libraries/zf_qtimer.c:98
}
    1f26:	40f2                	lw	ra,28(sp)
    1f28:	4462                	lw	s0,24(sp)
    1f2a:	44d2                	lw	s1,20(sp)
    1f2c:	4942                	lw	s2,16(sp)
    1f2e:	6105                	addi	sp,sp,32
    1f30:	8082                	ret
C:\Users\29275\Desktop\WchWorkSPace\camCoreWithRTOS\obj/../Libraries/seekfree_libraries/zf_qtimer.c:82
        GPIO_PinRemapConfig(GPIO_FullRemap_TIM2, ENABLE);
    1f32:	4585                	li	a1,1
    1f34:	00180537          	lui	a0,0x180
    1f38:	30050513          	addi	a0,a0,768 # 180300 <__fsymtab_end+0x178be0>
    1f3c:	9e2ff0ef          	jal	ra,111e <GPIO_PinRemapConfig>
    1f40:	b745                	j	1ee0 <timer_quad_init+0x8c>
C:\Users\29275\Desktop\WchWorkSPace\camCoreWithRTOS\obj/../Libraries/seekfree_libraries/zf_qtimer.c:83 (discriminator 1)
    else    if(TIMER3_CHA_C6 == phaseA && TIMER3_CHB_C7 == phaseB)
    1f42:	47a5                	li	a5,9
    1f44:	f8f91ee3          	bne	s2,a5,1ee0 <timer_quad_init+0x8c>
C:\Users\29275\Desktop\WchWorkSPace\camCoreWithRTOS\obj/../Libraries/seekfree_libraries/zf_qtimer.c:84
        GPIO_PinRemapConfig(GPIO_FullRemap_TIM3, ENABLE);
    1f48:	4585                	li	a1,1
    1f4a:	001a1537          	lui	a0,0x1a1
    1f4e:	c0050513          	addi	a0,a0,-1024 # 1a0c00 <__fsymtab_end+0x1994e0>
    1f52:	9ccff0ef          	jal	ra,111e <GPIO_PinRemapConfig>
    1f56:	b769                	j	1ee0 <timer_quad_init+0x8c>

00001f58 <timer_quad_get>:
timer_quad_get():
C:\Users\29275\Desktop\WchWorkSPace\camCoreWithRTOS\obj/../Libraries/seekfree_libraries/zf_qtimer.c:108
//  @return     void
//  Sample usage:
//-------------------------------------------------------------------------------------------------------------------
int16 timer_quad_get(TIMERN_enum timern)
{
    int16 count = ((TIM_TypeDef*)(TIMERN[timern]))->CNT;
    1f58:	050a                	slli	a0,a0,0x2
    1f5a:	679d                	lui	a5,0x7
    1f5c:	d4078793          	addi	a5,a5,-704 # 6d40 <TIMERN>
    1f60:	97aa                	add	a5,a5,a0
    1f62:	439c                	lw	a5,0(a5)
    1f64:	0247d503          	lhu	a0,36(a5)
C:\Users\29275\Desktop\WchWorkSPace\camCoreWithRTOS\obj/../Libraries/seekfree_libraries/zf_qtimer.c:110
    return count;
}
    1f68:	0542                	slli	a0,a0,0x10
    1f6a:	8541                	srai	a0,a0,0x10
    1f6c:	8082                	ret

00001f6e <timer_quad_clear>:
timer_quad_clear():
C:\Users\29275\Desktop\WchWorkSPace\camCoreWithRTOS\obj/../Libraries/seekfree_libraries/zf_qtimer.c:120
//  @return     void
//  Sample usage:
//-------------------------------------------------------------------------------------------------------------------
void timer_quad_clear(TIMERN_enum timern)
{
    ((TIM_TypeDef*)(TIMERN[timern]))->CNT = 0;
    1f6e:	050a                	slli	a0,a0,0x2
    1f70:	679d                	lui	a5,0x7
    1f72:	d4078793          	addi	a5,a5,-704 # 6d40 <TIMERN>
    1f76:	97aa                	add	a5,a5,a0
    1f78:	439c                	lw	a5,0(a5)
    1f7a:	02079223          	sh	zero,36(a5)
C:\Users\29275\Desktop\WchWorkSPace\camCoreWithRTOS\obj/../Libraries/seekfree_libraries/zf_qtimer.c:121
}
    1f7e:	8082                	ret

00001f80 <systick_delay2>:
systick_delay2():
C:\Users\29275\Desktop\WchWorkSPace\camCoreWithRTOS\obj/../Libraries/seekfree_libraries/zf_systick.c:44
//  @param      time                ms
//  @return     void
//  Sample usage:                   
//-------------------------------------------------------------------------------------------------------------------
void systick_delay2(uint64 time)
{
    1f80:	1141                	addi	sp,sp,-16
    1f82:	c606                	sw	ra,12(sp)
C:\Users\29275\Desktop\WchWorkSPace\camCoreWithRTOS\obj/../Libraries/seekfree_libraries/zf_systick.c:45
    rt_thread_mdelay(time);
    1f84:	32f010ef          	jal	ra,3ab2 <rt_thread_mdelay>
C:\Users\29275\Desktop\WchWorkSPace\camCoreWithRTOS\obj/../Libraries/seekfree_libraries/zf_systick.c:46
}
    1f88:	40b2                	lw	ra,12(sp)
    1f8a:	0141                	addi	sp,sp,16
    1f8c:	8082                	ret

00001f8e <uart_gpio_init>:
uart_gpio_init():
C:\Users\29275\Desktop\WchWorkSPace\camCoreWithRTOS\obj/../Libraries/seekfree_libraries/zf_uart.c:38
//  @param      rx_pin      
//  @return     void
//  Sample usage:           
//-------------------------------------------------------------------------------------------------------------------
void uart_gpio_init(UARTPIN_enum tx_pin, UARTPIN_enum rx_pin)
{
    1f8e:	1141                	addi	sp,sp,-16
    1f90:	c606                	sw	ra,12(sp)
C:\Users\29275\Desktop\WchWorkSPace\camCoreWithRTOS\obj/../Libraries/seekfree_libraries/zf_uart.c:39
    if(tx_pin == UART1_TX_A9 && rx_pin == UART1_RX_A10)
    1f92:	e50d                	bnez	a0,1fbc <uart_gpio_init+0x2e>
C:\Users\29275\Desktop\WchWorkSPace\camCoreWithRTOS\obj/../Libraries/seekfree_libraries/zf_uart.c:39 (discriminator 1)
    1f94:	4785                	li	a5,1
    1f96:	00f58563          	beq	a1,a5,1fa0 <uart_gpio_init+0x12>
C:\Users\29275\Desktop\WchWorkSPace\camCoreWithRTOS\obj/../Libraries/seekfree_libraries/zf_uart.c:67
    else if(tx_pin == UART3_TX_C10)
    {
        gpio_init(C10, GPO, 0, SPEED_50MHZ|OUT_AF_PP);
        gpio_init(C11, GPI, 0, IN_FLOAT);
    }
}
    1f9a:	40b2                	lw	ra,12(sp)
    1f9c:	0141                	addi	sp,sp,16
    1f9e:	8082                	ret
C:\Users\29275\Desktop\WchWorkSPace\camCoreWithRTOS\obj/../Libraries/seekfree_libraries/zf_uart.c:41
        gpio_init(A9, GPO, 0, SPEED_50MHZ|OUT_AF_PP);
    1fa0:	31800693          	li	a3,792
    1fa4:	4601                	li	a2,0
    1fa6:	4585                	li	a1,1
    1fa8:	4525                	li	a0,9
    1faa:	bdfff0ef          	jal	ra,1b88 <gpio_init>
C:\Users\29275\Desktop\WchWorkSPace\camCoreWithRTOS\obj/../Libraries/seekfree_libraries/zf_uart.c:42
        gpio_init(A10, GPI, 0, IN_FLOAT);
    1fae:	4691                	li	a3,4
    1fb0:	4601                	li	a2,0
    1fb2:	4581                	li	a1,0
    1fb4:	4529                	li	a0,10
    1fb6:	bd3ff0ef          	jal	ra,1b88 <gpio_init>
    1fba:	b7c5                	j	1f9a <uart_gpio_init+0xc>
C:\Users\29275\Desktop\WchWorkSPace\camCoreWithRTOS\obj/../Libraries/seekfree_libraries/zf_uart.c:44
    else if(tx_pin == UART1_TX_B6)
    1fbc:	4789                	li	a5,2
    1fbe:	02f50963          	beq	a0,a5,1ff0 <uart_gpio_init+0x62>
C:\Users\29275\Desktop\WchWorkSPace\camCoreWithRTOS\obj/../Libraries/seekfree_libraries/zf_uart.c:50
    else if(tx_pin == UART2_TX_A2)
    1fc2:	47c1                	li	a5,16
    1fc4:	04f50663          	beq	a0,a5,2010 <uart_gpio_init+0x82>
C:\Users\29275\Desktop\WchWorkSPace\camCoreWithRTOS\obj/../Libraries/seekfree_libraries/zf_uart.c:56
    else if(tx_pin == UART3_TX_B10)
    1fc8:	02000793          	li	a5,32
    1fcc:	06f51063          	bne	a0,a5,202c <uart_gpio_init+0x9e>
C:\Users\29275\Desktop\WchWorkSPace\camCoreWithRTOS\obj/../Libraries/seekfree_libraries/zf_uart.c:58
        gpio_init(B10, GPO, 0, SPEED_50MHZ|OUT_AF_PP);
    1fd0:	31800693          	li	a3,792
    1fd4:	4601                	li	a2,0
    1fd6:	4585                	li	a1,1
    1fd8:	02a00513          	li	a0,42
    1fdc:	badff0ef          	jal	ra,1b88 <gpio_init>
C:\Users\29275\Desktop\WchWorkSPace\camCoreWithRTOS\obj/../Libraries/seekfree_libraries/zf_uart.c:59
        gpio_init(B11, GPI, 0, IN_FLOAT);
    1fe0:	4691                	li	a3,4
    1fe2:	4601                	li	a2,0
    1fe4:	4581                	li	a1,0
    1fe6:	02b00513          	li	a0,43
    1fea:	b9fff0ef          	jal	ra,1b88 <gpio_init>
    1fee:	b775                	j	1f9a <uart_gpio_init+0xc>
C:\Users\29275\Desktop\WchWorkSPace\camCoreWithRTOS\obj/../Libraries/seekfree_libraries/zf_uart.c:46
        gpio_init(B6, GPO, 0, SPEED_50MHZ|OUT_AF_PP);
    1ff0:	31800693          	li	a3,792
    1ff4:	4601                	li	a2,0
    1ff6:	4585                	li	a1,1
    1ff8:	02600513          	li	a0,38
    1ffc:	b8dff0ef          	jal	ra,1b88 <gpio_init>
C:\Users\29275\Desktop\WchWorkSPace\camCoreWithRTOS\obj/../Libraries/seekfree_libraries/zf_uart.c:47
        gpio_init(B7, GPI, 0, IN_FLOAT);
    2000:	4691                	li	a3,4
    2002:	4601                	li	a2,0
    2004:	4581                	li	a1,0
    2006:	02700513          	li	a0,39
    200a:	b7fff0ef          	jal	ra,1b88 <gpio_init>
    200e:	b771                	j	1f9a <uart_gpio_init+0xc>
C:\Users\29275\Desktop\WchWorkSPace\camCoreWithRTOS\obj/../Libraries/seekfree_libraries/zf_uart.c:52
        gpio_init(A2, GPO, 0, SPEED_50MHZ|OUT_AF_PP);
    2010:	31800693          	li	a3,792
    2014:	4601                	li	a2,0
    2016:	4585                	li	a1,1
    2018:	4509                	li	a0,2
    201a:	b6fff0ef          	jal	ra,1b88 <gpio_init>
C:\Users\29275\Desktop\WchWorkSPace\camCoreWithRTOS\obj/../Libraries/seekfree_libraries/zf_uart.c:53
        gpio_init(A3, GPI, 0, IN_FLOAT);
    201e:	4691                	li	a3,4
    2020:	4601                	li	a2,0
    2022:	4581                	li	a1,0
    2024:	450d                	li	a0,3
    2026:	b63ff0ef          	jal	ra,1b88 <gpio_init>
    202a:	bf85                	j	1f9a <uart_gpio_init+0xc>
C:\Users\29275\Desktop\WchWorkSPace\camCoreWithRTOS\obj/../Libraries/seekfree_libraries/zf_uart.c:62
    else if(tx_pin == UART3_TX_C10)
    202c:	02200793          	li	a5,34
    2030:	f6f515e3          	bne	a0,a5,1f9a <uart_gpio_init+0xc>
C:\Users\29275\Desktop\WchWorkSPace\camCoreWithRTOS\obj/../Libraries/seekfree_libraries/zf_uart.c:64
        gpio_init(C10, GPO, 0, SPEED_50MHZ|OUT_AF_PP);
    2034:	31800693          	li	a3,792
    2038:	4601                	li	a2,0
    203a:	4585                	li	a1,1
    203c:	04a00513          	li	a0,74
    2040:	b49ff0ef          	jal	ra,1b88 <gpio_init>
C:\Users\29275\Desktop\WchWorkSPace\camCoreWithRTOS\obj/../Libraries/seekfree_libraries/zf_uart.c:65
        gpio_init(C11, GPI, 0, IN_FLOAT);
    2044:	4691                	li	a3,4
    2046:	4601                	li	a2,0
    2048:	4581                	li	a1,0
    204a:	04b00513          	li	a0,75
    204e:	b3bff0ef          	jal	ra,1b88 <gpio_init>
C:\Users\29275\Desktop\WchWorkSPace\camCoreWithRTOS\obj/../Libraries/seekfree_libraries/zf_uart.c:67
}
    2052:	b7a1                	j	1f9a <uart_gpio_init+0xc>

00002054 <uart_init>:
uart_init():
C:\Users\29275\Desktop\WchWorkSPace\camCoreWithRTOS\obj/../Libraries/seekfree_libraries/zf_uart.c:79
//  @param      rx_pin      
//  @return     void
//  Sample usage:           uart_init(UART_1, 115200, UART1_TX_A9, UART1_RX_A10); //1,TXA9,RXA10
//-------------------------------------------------------------------------------------------------------------------
void uart_init(UARTN_enum uartn, uint32 baud, UARTPIN_enum tx_pin, UARTPIN_enum rx_pin)
{
    2054:	7179                	addi	sp,sp,-48
    2056:	d606                	sw	ra,44(sp)
    2058:	d422                	sw	s0,40(sp)
    205a:	d226                	sw	s1,36(sp)
    205c:	d04a                	sw	s2,32(sp)
    205e:	ce4e                	sw	s3,28(sp)
    2060:	842a                	mv	s0,a0
    2062:	89ae                	mv	s3,a1
    2064:	84b2                	mv	s1,a2
    2066:	8936                	mv	s2,a3
C:\Users\29275\Desktop\WchWorkSPace\camCoreWithRTOS\obj/../Libraries/seekfree_libraries/zf_uart.c:83
    USART_InitTypeDef USART_InitStructure;


    RCC_APB2PeriphClockCmd(RCC_APB2Periph_AFIO, ENABLE);
    2068:	4585                	li	a1,1
    206a:	4505                	li	a0,1
    206c:	aecff0ef          	jal	ra,1358 <RCC_APB2PeriphClockCmd>
C:\Users\29275\Desktop\WchWorkSPace\camCoreWithRTOS\obj/../Libraries/seekfree_libraries/zf_uart.c:86

    //
    uart_gpio_init(tx_pin, rx_pin);
    2070:	85ca                	mv	a1,s2
    2072:	8526                	mv	a0,s1
    2074:	3f29                	jal	1f8e <uart_gpio_init>
C:\Users\29275\Desktop\WchWorkSPace\camCoreWithRTOS\obj/../Libraries/seekfree_libraries/zf_uart.c:88

    if(UART1_TX_B6 == tx_pin && UART1_RX_B7 == rx_pin)                         //
    2076:	4789                	li	a5,2
    2078:	02f48163          	beq	s1,a5,209a <uart_init+0x46>
C:\Users\29275\Desktop\WchWorkSPace\camCoreWithRTOS\obj/../Libraries/seekfree_libraries/zf_uart.c:90
        GPIO_PinRemapConfig(GPIO_Remap_USART1, ENABLE);
    if(UART3_TX_C10 == tx_pin && UART3_RX_C11 == rx_pin)
    207c:	02200793          	li	a5,34
    2080:	02f49063          	bne	s1,a5,20a0 <uart_init+0x4c>
C:\Users\29275\Desktop\WchWorkSPace\camCoreWithRTOS\obj/../Libraries/seekfree_libraries/zf_uart.c:90 (discriminator 1)
    2084:	02300793          	li	a5,35
    2088:	00f91c63          	bne	s2,a5,20a0 <uart_init+0x4c>
C:\Users\29275\Desktop\WchWorkSPace\camCoreWithRTOS\obj/../Libraries/seekfree_libraries/zf_uart.c:91
        GPIO_PinRemapConfig(GPIO_PartialRemap_USART3, ENABLE);
    208c:	4585                	li	a1,1
    208e:	00140537          	lui	a0,0x140
    2092:	0541                	addi	a0,a0,16
    2094:	88aff0ef          	jal	ra,111e <GPIO_PinRemapConfig>
    2098:	a021                	j	20a0 <uart_init+0x4c>
C:\Users\29275\Desktop\WchWorkSPace\camCoreWithRTOS\obj/../Libraries/seekfree_libraries/zf_uart.c:88 (discriminator 1)
    if(UART1_TX_B6 == tx_pin && UART1_RX_B7 == rx_pin)                         //
    209a:	478d                	li	a5,3
    209c:	04f90a63          	beq	s2,a5,20f0 <uart_init+0x9c>
C:\Users\29275\Desktop\WchWorkSPace\camCoreWithRTOS\obj/../Libraries/seekfree_libraries/zf_uart.c:94

    //
    if(UART_1 == uartn) RCC_APB2PeriphClockCmd(RCC_APB2Periph_USART1, ENABLE);
    20a0:	cc29                	beqz	s0,20fa <uart_init+0xa6>
C:\Users\29275\Desktop\WchWorkSPace\camCoreWithRTOS\obj/../Libraries/seekfree_libraries/zf_uart.c:95
    else if(UART_2 == uartn) RCC_APB1PeriphClockCmd(RCC_APB1Periph_USART2, ENABLE);
    20a2:	4785                	li	a5,1
    20a4:	06f40063          	beq	s0,a5,2104 <uart_init+0xb0>
C:\Users\29275\Desktop\WchWorkSPace\camCoreWithRTOS\obj/../Libraries/seekfree_libraries/zf_uart.c:96
    else if(UART_3 == uartn) RCC_APB1PeriphClockCmd(RCC_APB1Periph_USART3, ENABLE);
    20a8:	4789                	li	a5,2
    20aa:	06f40363          	beq	s0,a5,2110 <uart_init+0xbc>
C:\Users\29275\Desktop\WchWorkSPace\camCoreWithRTOS\obj/../Libraries/seekfree_libraries/zf_uart.c:99

    //
    USART_InitStructure.USART_BaudRate = baud;
    20ae:	c04e                	sw	s3,0(sp)
C:\Users\29275\Desktop\WchWorkSPace\camCoreWithRTOS\obj/../Libraries/seekfree_libraries/zf_uart.c:100
    USART_InitStructure.USART_WordLength = USART_WordLength_8b;
    20b0:	00011223          	sh	zero,4(sp)
C:\Users\29275\Desktop\WchWorkSPace\camCoreWithRTOS\obj/../Libraries/seekfree_libraries/zf_uart.c:101
    USART_InitStructure.USART_StopBits = USART_StopBits_1;
    20b4:	00011323          	sh	zero,6(sp)
C:\Users\29275\Desktop\WchWorkSPace\camCoreWithRTOS\obj/../Libraries/seekfree_libraries/zf_uart.c:102
    USART_InitStructure.USART_Parity = USART_Parity_No;
    20b8:	00011423          	sh	zero,8(sp)
C:\Users\29275\Desktop\WchWorkSPace\camCoreWithRTOS\obj/../Libraries/seekfree_libraries/zf_uart.c:103
    USART_InitStructure.USART_HardwareFlowControl = USART_HardwareFlowControl_None;
    20bc:	00011623          	sh	zero,12(sp)
C:\Users\29275\Desktop\WchWorkSPace\camCoreWithRTOS\obj/../Libraries/seekfree_libraries/zf_uart.c:104
    USART_InitStructure.USART_Mode = USART_Mode_Tx | USART_Mode_Rx;
    20c0:	47b1                	li	a5,12
    20c2:	00f11523          	sh	a5,10(sp)
C:\Users\29275\Desktop\WchWorkSPace\camCoreWithRTOS\obj/../Libraries/seekfree_libraries/zf_uart.c:107

    //
    USART_Init((USART_TypeDef*)UARTN[uartn], &USART_InitStructure);
    20c6:	040a                	slli	s0,s0,0x2
    20c8:	679d                	lui	a5,0x7
    20ca:	d5078793          	addi	a5,a5,-688 # 6d50 <UARTN>
    20ce:	943e                	add	s0,s0,a5
    20d0:	4000                	lw	s0,0(s0)
    20d2:	858a                	mv	a1,sp
    20d4:	8522                	mv	a0,s0
    20d6:	c20ff0ef          	jal	ra,14f6 <USART_Init>
C:\Users\29275\Desktop\WchWorkSPace\camCoreWithRTOS\obj/../Libraries/seekfree_libraries/zf_uart.c:108
    USART_Cmd((USART_TypeDef*)UARTN[uartn], ENABLE);
    20da:	4585                	li	a1,1
    20dc:	8522                	mv	a0,s0
    20de:	d0eff0ef          	jal	ra,15ec <USART_Cmd>
C:\Users\29275\Desktop\WchWorkSPace\camCoreWithRTOS\obj/../Libraries/seekfree_libraries/zf_uart.c:111


}
    20e2:	50b2                	lw	ra,44(sp)
    20e4:	5422                	lw	s0,40(sp)
    20e6:	5492                	lw	s1,36(sp)
    20e8:	5902                	lw	s2,32(sp)
    20ea:	49f2                	lw	s3,28(sp)
    20ec:	6145                	addi	sp,sp,48
    20ee:	8082                	ret
C:\Users\29275\Desktop\WchWorkSPace\camCoreWithRTOS\obj/../Libraries/seekfree_libraries/zf_uart.c:89
        GPIO_PinRemapConfig(GPIO_Remap_USART1, ENABLE);
    20f0:	4585                	li	a1,1
    20f2:	4511                	li	a0,4
    20f4:	82aff0ef          	jal	ra,111e <GPIO_PinRemapConfig>
    20f8:	b765                	j	20a0 <uart_init+0x4c>
C:\Users\29275\Desktop\WchWorkSPace\camCoreWithRTOS\obj/../Libraries/seekfree_libraries/zf_uart.c:94 (discriminator 1)
    if(UART_1 == uartn) RCC_APB2PeriphClockCmd(RCC_APB2Periph_USART1, ENABLE);
    20fa:	4585                	li	a1,1
    20fc:	6511                	lui	a0,0x4
    20fe:	a5aff0ef          	jal	ra,1358 <RCC_APB2PeriphClockCmd>
    2102:	b775                	j	20ae <uart_init+0x5a>
C:\Users\29275\Desktop\WchWorkSPace\camCoreWithRTOS\obj/../Libraries/seekfree_libraries/zf_uart.c:95 (discriminator 1)
    else if(UART_2 == uartn) RCC_APB1PeriphClockCmd(RCC_APB1Periph_USART2, ENABLE);
    2104:	4585                	li	a1,1
    2106:	00020537          	lui	a0,0x20
    210a:	a6cff0ef          	jal	ra,1376 <RCC_APB1PeriphClockCmd>
    210e:	b745                	j	20ae <uart_init+0x5a>
C:\Users\29275\Desktop\WchWorkSPace\camCoreWithRTOS\obj/../Libraries/seekfree_libraries/zf_uart.c:96 (discriminator 1)
    else if(UART_3 == uartn) RCC_APB1PeriphClockCmd(RCC_APB1Periph_USART3, ENABLE);
    2110:	4585                	li	a1,1
    2112:	00040537          	lui	a0,0x40
    2116:	a60ff0ef          	jal	ra,1376 <RCC_APB1PeriphClockCmd>
    211a:	bf51                	j	20ae <uart_init+0x5a>

0000211c <uart_putchar>:
uart_putchar():
C:\Users\29275\Desktop\WchWorkSPace\camCoreWithRTOS\obj/../Libraries/seekfree_libraries/zf_uart.c:123
//  @return     void
//  Sample usage:           uart_putchar(UART_1, 0x43);        //10x43
//-------------------------------------------------------------------------------------------------------------------
void uart_putchar(UARTN_enum uartn, uint8 dat)
{
    while((((USART_TypeDef*)UARTN[uartn])->STATR & USART_FLAG_TXE)==0);
    211c:	050a                	slli	a0,a0,0x2
    211e:	679d                	lui	a5,0x7
    2120:	d5078793          	addi	a5,a5,-688 # 6d50 <UARTN>
    2124:	97aa                	add	a5,a5,a0
    2126:	4398                	lw	a4,0(a5)
C:\Users\29275\Desktop\WchWorkSPace\camCoreWithRTOS\obj/../Libraries/seekfree_libraries/zf_uart.c:123 (discriminator 1)
    2128:	00075783          	lhu	a5,0(a4)
    212c:	0807f793          	andi	a5,a5,128
    2130:	dfe5                	beqz	a5,2128 <uart_putchar+0xc>
C:\Users\29275\Desktop\WchWorkSPace\camCoreWithRTOS\obj/../Libraries/seekfree_libraries/zf_uart.c:124
    ((USART_TypeDef*)UARTN[uartn])->DATAR = dat;
    2132:	05c2                	slli	a1,a1,0x10
    2134:	81c1                	srli	a1,a1,0x10
    2136:	00b71223          	sh	a1,4(a4)
C:\Users\29275\Desktop\WchWorkSPace\camCoreWithRTOS\obj/../Libraries/seekfree_libraries/zf_uart.c:125
}
    213a:	8082                	ret

0000213c <uart_putbuff>:
uart_putbuff():
C:\Users\29275\Desktop\WchWorkSPace\camCoreWithRTOS\obj/../Libraries/seekfree_libraries/zf_uart.c:137
//  @return     void
//  Sample usage:           uart_putbuff(UART_1, buff, 10);     //110buff
//-------------------------------------------------------------------------------------------------------------------
void uart_putbuff(UARTN_enum uartn, uint8 *buff, uint32 len)
{
    while(len--)
    213c:	c61d                	beqz	a2,216a <uart_putbuff+0x2e>
C:\Users\29275\Desktop\WchWorkSPace\camCoreWithRTOS\obj/../Libraries/seekfree_libraries/zf_uart.c:136
{
    213e:	1141                	addi	sp,sp,-16
    2140:	c606                	sw	ra,12(sp)
    2142:	c422                	sw	s0,8(sp)
    2144:	c226                	sw	s1,4(sp)
    2146:	c04a                	sw	s2,0(sp)
    2148:	892a                	mv	s2,a0
    214a:	842e                	mv	s0,a1
    214c:	00c584b3          	add	s1,a1,a2
C:\Users\29275\Desktop\WchWorkSPace\camCoreWithRTOS\obj/../Libraries/seekfree_libraries/zf_uart.c:138
        uart_putchar(uartn, *buff++);
    2150:	0405                	addi	s0,s0,1
    2152:	fff44583          	lbu	a1,-1(s0)
    2156:	854a                	mv	a0,s2
    2158:	37d1                	jal	211c <uart_putchar>
C:\Users\29275\Desktop\WchWorkSPace\camCoreWithRTOS\obj/../Libraries/seekfree_libraries/zf_uart.c:137
    while(len--)
    215a:	fe849be3          	bne	s1,s0,2150 <uart_putbuff+0x14>
C:\Users\29275\Desktop\WchWorkSPace\camCoreWithRTOS\obj/../Libraries/seekfree_libraries/zf_uart.c:139
}
    215e:	40b2                	lw	ra,12(sp)
    2160:	4422                	lw	s0,8(sp)
    2162:	4492                	lw	s1,4(sp)
    2164:	4902                	lw	s2,0(sp)
    2166:	0141                	addi	sp,sp,16
    2168:	8082                	ret
    216a:	8082                	ret

0000216c <uart_rx_irq>:
uart_rx_irq():
C:\Users\29275\Desktop\WchWorkSPace\camCoreWithRTOS\obj/../Libraries/seekfree_libraries/zf_uart.c:165
//  @param      status      
//  @return     void
//  Sample usage:           uart_rx_irq(UART_1, ENABLE);        //1
//-------------------------------------------------------------------------------------------------------------------
void uart_rx_irq(UARTN_enum uartn,uint8 status)
{
    216c:	1141                	addi	sp,sp,-16
    216e:	c606                	sw	ra,12(sp)
    2170:	c422                	sw	s0,8(sp)
    2172:	c226                	sw	s1,4(sp)
    2174:	842a                	mv	s0,a0
    2176:	84ae                	mv	s1,a1
C:\Users\29275\Desktop\WchWorkSPace\camCoreWithRTOS\obj/../Libraries/seekfree_libraries/zf_uart.c:166
    USART_ITConfig(((USART_TypeDef*)UARTN[uartn]), USART_IT_RXNE, ENABLE);
    2178:	00251713          	slli	a4,a0,0x2
    217c:	679d                	lui	a5,0x7
    217e:	d5078793          	addi	a5,a5,-688 # 6d50 <UARTN>
    2182:	97ba                	add	a5,a5,a4
    2184:	4605                	li	a2,1
    2186:	52500593          	li	a1,1317
    218a:	4388                	lw	a0,0(a5)
    218c:	c80ff0ef          	jal	ra,160c <USART_ITConfig>
C:\Users\29275\Desktop\WchWorkSPace\camCoreWithRTOS\obj/../Libraries/seekfree_libraries/zf_uart.c:167
    nvic_init(USART1_IRQn + uartn, 1, 0, status);
    2190:	86a6                	mv	a3,s1
    2192:	4601                	li	a2,0
    2194:	4585                	li	a1,1
    2196:	03540513          	addi	a0,s0,53
    219a:	b57ff0ef          	jal	ra,1cf0 <nvic_init>
C:\Users\29275\Desktop\WchWorkSPace\camCoreWithRTOS\obj/../Libraries/seekfree_libraries/zf_uart.c:168
}
    219e:	40b2                	lw	ra,12(sp)
    21a0:	4422                	lw	s0,8(sp)
    21a2:	4492                	lw	s1,4(sp)
    21a4:	0141                	addi	sp,sp,16
    21a6:	8082                	ret

000021a8 <uart_getchar>:
uart_getchar():
C:\Users\29275\Desktop\WchWorkSPace\camCoreWithRTOS\obj/../Libraries/seekfree_libraries/zf_uart.c:193
//  @return     void
//  Sample usage:               uint8 dat; uart_getchar(USART_1,&dat);       // 1  dat
//-------------------------------------------------------------------------------------------------------------------
void uart_getchar(UARTN_enum uartn, uint8 *dat)
{
    while((((USART_TypeDef*)UARTN[uartn])->STATR & USART_FLAG_RXNE) == 0);
    21a8:	050a                	slli	a0,a0,0x2
    21aa:	679d                	lui	a5,0x7
    21ac:	d5078793          	addi	a5,a5,-688 # 6d50 <UARTN>
    21b0:	97aa                	add	a5,a5,a0
    21b2:	4398                	lw	a4,0(a5)
C:\Users\29275\Desktop\WchWorkSPace\camCoreWithRTOS\obj/../Libraries/seekfree_libraries/zf_uart.c:193 (discriminator 1)
    21b4:	00075783          	lhu	a5,0(a4)
    21b8:	0207f793          	andi	a5,a5,32
    21bc:	dfe5                	beqz	a5,21b4 <uart_getchar+0xc>
C:\Users\29275\Desktop\WchWorkSPace\camCoreWithRTOS\obj/../Libraries/seekfree_libraries/zf_uart.c:194
    *dat = (uint16_t)(((USART_TypeDef*)UARTN[uartn])->DATAR & (uint16_t)0x01FF);
    21be:	00475783          	lhu	a5,4(a4)
    21c2:	00f58023          	sb	a5,0(a1)
C:\Users\29275\Desktop\WchWorkSPace\camCoreWithRTOS\obj/../Libraries/seekfree_libraries/zf_uart.c:195
}
    21c6:	8082                	ret

000021c8 <uart_query>:
uart_query():
C:\Users\29275\Desktop\WchWorkSPace\camCoreWithRTOS\obj/../Libraries/seekfree_libraries/zf_uart.c:206
//  @return     uint8           1   0
//  Sample usage:               uint8 dat; uart_query(USART_1,&dat);       // 1  dat
//-------------------------------------------------------------------------------------------------------------------
uint8 uart_query(UARTN_enum uartn, uint8 *dat)
{
    if((((USART_TypeDef*)UARTN[uartn])->STATR & USART_FLAG_RXNE) != 0)
    21c8:	050a                	slli	a0,a0,0x2
    21ca:	679d                	lui	a5,0x7
    21cc:	d5078793          	addi	a5,a5,-688 # 6d50 <UARTN>
    21d0:	97aa                	add	a5,a5,a0
    21d2:	4398                	lw	a4,0(a5)
    21d4:	00075783          	lhu	a5,0(a4)
    21d8:	0207f793          	andi	a5,a5,32
    21dc:	e399                	bnez	a5,21e2 <uart_query+0x1a>
C:\Users\29275\Desktop\WchWorkSPace\camCoreWithRTOS\obj/../Libraries/seekfree_libraries/zf_uart.c:211
    {
        *dat = (uint16_t)(((USART_TypeDef*)UARTN[uartn])->DATAR & (uint16_t)0x01FF);
        return 1;
    }
    return 0;
    21de:	4501                	li	a0,0
C:\Users\29275\Desktop\WchWorkSPace\camCoreWithRTOS\obj/../Libraries/seekfree_libraries/zf_uart.c:212
}
    21e0:	8082                	ret
C:\Users\29275\Desktop\WchWorkSPace\camCoreWithRTOS\obj/../Libraries/seekfree_libraries/zf_uart.c:208
        *dat = (uint16_t)(((USART_TypeDef*)UARTN[uartn])->DATAR & (uint16_t)0x01FF);
    21e2:	00475783          	lhu	a5,4(a4)
    21e6:	00f58023          	sb	a5,0(a1)
C:\Users\29275\Desktop\WchWorkSPace\camCoreWithRTOS\obj/../Libraries/seekfree_libraries/zf_uart.c:209
        return 1;
    21ea:	4505                	li	a0,1
    21ec:	8082                	ret

000021ee <rt_tick_get>:
rt_tick_get():
C:\Users\29275\Desktop\WchWorkSPace\camCoreWithRTOS\obj/../Libraries/rtthread_libraries/src/clock.c:48
 */
rt_tick_t rt_tick_get(void)
{
    /* return the global tick */
    return rt_tick;
}
    21ee:	84c1a503          	lw	a0,-1972(gp) # 200000fc <rt_tick>
    21f2:	8082                	ret

000021f4 <rt_tick_increase>:
rt_tick_increase():
C:\Users\29275\Desktop\WchWorkSPace\camCoreWithRTOS\obj/../Libraries/rtthread_libraries/src/clock.c:68
/**
 * This function will notify kernel there is one tick passed. Normally,
 * this function is invoked by clock ISR.
 */
void rt_tick_increase(void)
{
    21f4:	1141                	addi	sp,sp,-16
    21f6:	c606                	sw	ra,12(sp)
C:\Users\29275\Desktop\WchWorkSPace\camCoreWithRTOS\obj/../Libraries/rtthread_libraries/src/clock.c:72
    struct rt_thread *thread;

    /* increase the global tick */
    ++ rt_tick;
    21f8:	84c18793          	addi	a5,gp,-1972 # 200000fc <rt_tick>
    21fc:	4398                	lw	a4,0(a5)
    21fe:	0705                	addi	a4,a4,1
    2200:	c398                	sw	a4,0(a5)
C:\Users\29275\Desktop\WchWorkSPace\camCoreWithRTOS\obj/../Libraries/rtthread_libraries/src/clock.c:75

    /* check time slice */
    thread = rt_thread_self();
    2202:	6f0010ef          	jal	ra,38f2 <rt_thread_self>
C:\Users\29275\Desktop\WchWorkSPace\camCoreWithRTOS\obj/../Libraries/rtthread_libraries/src/clock.c:77

    -- thread->remaining_tick;
    2206:	413c                	lw	a5,64(a0)
    2208:	17fd                	addi	a5,a5,-1
    220a:	c13c                	sw	a5,64(a0)
C:\Users\29275\Desktop\WchWorkSPace\camCoreWithRTOS\obj/../Libraries/rtthread_libraries/src/clock.c:78
    if (thread->remaining_tick == 0)
    220c:	c791                	beqz	a5,2218 <rt_tick_increase+0x24>
C:\Users\29275\Desktop\WchWorkSPace\camCoreWithRTOS\obj/../Libraries/rtthread_libraries/src/clock.c:88
        /* yield */
        rt_thread_yield();
    }

    /* check timer */
    rt_timer_check();
    220e:	31d010ef          	jal	ra,3d2a <rt_timer_check>
C:\Users\29275\Desktop\WchWorkSPace\camCoreWithRTOS\obj/../Libraries/rtthread_libraries/src/clock.c:89
}
    2212:	40b2                	lw	ra,12(sp)
    2214:	0141                	addi	sp,sp,16
    2216:	8082                	ret
C:\Users\29275\Desktop\WchWorkSPace\camCoreWithRTOS\obj/../Libraries/rtthread_libraries/src/clock.c:81
        thread->remaining_tick = thread->init_tick;
    2218:	5d5c                	lw	a5,60(a0)
    221a:	c13c                	sw	a5,64(a0)
C:\Users\29275\Desktop\WchWorkSPace\camCoreWithRTOS\obj/../Libraries/rtthread_libraries/src/clock.c:84
        rt_thread_yield();
    221c:	79c010ef          	jal	ra,39b8 <rt_thread_yield>
    2220:	b7fd                	j	220e <rt_tick_increase+0x1a>

00002222 <rt_tick_from_millisecond>:
rt_tick_from_millisecond():
C:\Users\29275\Desktop\WchWorkSPace\camCoreWithRTOS\obj/../Libraries/rtthread_libraries/src/clock.c:105
 */
rt_tick_t rt_tick_from_millisecond(rt_int32_t ms)
{
    rt_tick_t tick;

    if (ms < 0)
    2222:	02054263          	bltz	a0,2246 <rt_tick_from_millisecond+0x24>
C:\Users\29275\Desktop\WchWorkSPace\camCoreWithRTOS\obj/../Libraries/rtthread_libraries/src/clock.c:111
    {
        tick = (rt_tick_t)RT_WAITING_FOREVER;
    }
    else
    {
        tick = RT_TICK_PER_SECOND * (ms / 1000);
    2226:	3e800793          	li	a5,1000
    222a:	02f54733          	div	a4,a0,a5
    222e:	02f70733          	mul	a4,a4,a5
C:\Users\29275\Desktop\WchWorkSPace\camCoreWithRTOS\obj/../Libraries/rtthread_libraries/src/clock.c:112
        tick += (RT_TICK_PER_SECOND * (ms % 1000) + 999) / 1000;
    2232:	02f56533          	rem	a0,a0,a5
    2236:	02f50533          	mul	a0,a0,a5
    223a:	3e750513          	addi	a0,a0,999 # 403e7 <__fsymtab_end+0x38cc7>
    223e:	02f54533          	div	a0,a0,a5
    2242:	953a                	add	a0,a0,a4
    2244:	8082                	ret
C:\Users\29275\Desktop\WchWorkSPace\camCoreWithRTOS\obj/../Libraries/rtthread_libraries/src/clock.c:107
        tick = (rt_tick_t)RT_WAITING_FOREVER;
    2246:	557d                	li	a0,-1
C:\Users\29275\Desktop\WchWorkSPace\camCoreWithRTOS\obj/../Libraries/rtthread_libraries/src/clock.c:117
    }
    
    /* return the calculated tick */
    return tick;
}
    2248:	8082                	ret

0000224a <rti_start>:
rti_start():
C:\Users\29275\Desktop\WchWorkSPace\camCoreWithRTOS\obj/../Libraries/rtthread_libraries/src/components.c:61
 * etc.
 */
static int rti_start(void)
{
    return 0;
}
    224a:	4501                	li	a0,0
    224c:	8082                	ret

0000224e <rti_board_start>:
rti_board_start():
C:\Users\29275\Desktop\WchWorkSPace\camCoreWithRTOS\obj/../Libraries/rtthread_libraries/src/components.c:67
INIT_EXPORT(rti_start, "0");

static int rti_board_start(void)
{
    return 0;
}
    224e:	4501                	li	a0,0
    2250:	8082                	ret

00002252 <rti_board_end>:
rti_board_end():
C:\Users\29275\Desktop\WchWorkSPace\camCoreWithRTOS\obj/../Libraries/rtthread_libraries/src/components.c:73
INIT_EXPORT(rti_board_start, "0.end");

static int rti_board_end(void)
{
    return 0;
}
    2252:	4501                	li	a0,0
    2254:	8082                	ret

00002256 <rti_end>:
rti_end():
C:\Users\29275\Desktop\WchWorkSPace\camCoreWithRTOS\obj/../Libraries/rtthread_libraries/src/components.c:79
INIT_EXPORT(rti_board_end, "1.end");

static int rti_end(void)
{
    return 0;
}
    2256:	4501                	li	a0,0
    2258:	8082                	ret

0000225a <rt_components_board_init>:
rt_components_board_init():
C:\Users\29275\Desktop\WchWorkSPace\camCoreWithRTOS\obj/../Libraries/rtthread_libraries/src/components.c:99
        rt_kprintf(":%d done\n", result);
    }
#else
    const init_fn_t *fn_ptr;

    for (fn_ptr = &__rt_init_rti_board_start; fn_ptr < &__rt_init_rti_board_end; fn_ptr++)
    225a:	671d                	lui	a4,0x7
    225c:	69070713          	addi	a4,a4,1680 # 7690 <__rt_init_rti_board_start>
    2260:	679d                	lui	a5,0x7
    2262:	69478793          	addi	a5,a5,1684 # 7694 <__rt_init_rti_board_end>
    2266:	02f77c63          	bgeu	a4,a5,229e <rt_components_board_init+0x44>
C:\Users\29275\Desktop\WchWorkSPace\camCoreWithRTOS\obj/../Libraries/rtthread_libraries/src/components.c:86
{
    226a:	1141                	addi	sp,sp,-16
    226c:	c606                	sw	ra,12(sp)
    226e:	c422                	sw	s0,8(sp)
    2270:	c226                	sw	s1,4(sp)
    2272:	641d                	lui	s0,0x7
    2274:	69040493          	addi	s1,s0,1680 # 7690 <__rt_init_rti_board_start>
    2278:	679d                	lui	a5,0x7
    227a:	69378793          	addi	a5,a5,1683 # 7693 <__rt_init_rti_board_start+0x3>
    227e:	8f85                	sub	a5,a5,s1
    2280:	9bf1                	andi	a5,a5,-4
    2282:	0791                	addi	a5,a5,4
    2284:	94be                	add	s1,s1,a5
C:\Users\29275\Desktop\WchWorkSPace\camCoreWithRTOS\obj/../Libraries/rtthread_libraries/src/components.c:99
    for (fn_ptr = &__rt_init_rti_board_start; fn_ptr < &__rt_init_rti_board_end; fn_ptr++)
    2286:	69040413          	addi	s0,s0,1680
C:\Users\29275\Desktop\WchWorkSPace\camCoreWithRTOS\obj/../Libraries/rtthread_libraries/src/components.c:101 (discriminator 3)
    {
        (*fn_ptr)();
    228a:	401c                	lw	a5,0(s0)
    228c:	9782                	jalr	a5
C:\Users\29275\Desktop\WchWorkSPace\camCoreWithRTOS\obj/../Libraries/rtthread_libraries/src/components.c:99 (discriminator 3)
    for (fn_ptr = &__rt_init_rti_board_start; fn_ptr < &__rt_init_rti_board_end; fn_ptr++)
    228e:	0411                	addi	s0,s0,4
    2290:	fe941de3          	bne	s0,s1,228a <rt_components_board_init+0x30>
C:\Users\29275\Desktop\WchWorkSPace\camCoreWithRTOS\obj/../Libraries/rtthread_libraries/src/components.c:104
    }
#endif
}
    2294:	40b2                	lw	ra,12(sp)
    2296:	4422                	lw	s0,8(sp)
    2298:	4492                	lw	s1,4(sp)
    229a:	0141                	addi	sp,sp,16
    229c:	8082                	ret
    229e:	8082                	ret

000022a0 <rt_components_init>:
rt_components_init():
C:\Users\29275\Desktop\WchWorkSPace\camCoreWithRTOS\obj/../Libraries/rtthread_libraries/src/components.c:125
        rt_kprintf(":%d done\n", result);
    }
#else
    const init_fn_t *fn_ptr;

    for (fn_ptr = &__rt_init_rti_board_end; fn_ptr < &__rt_init_rti_end; fn_ptr ++)
    22a0:	671d                	lui	a4,0x7
    22a2:	69470713          	addi	a4,a4,1684 # 7694 <__rt_init_rti_board_end>
    22a6:	679d                	lui	a5,0x7
    22a8:	69c78793          	addi	a5,a5,1692 # 769c <__rt_init_rti_end>
    22ac:	02f77c63          	bgeu	a4,a5,22e4 <rt_components_init+0x44>
C:\Users\29275\Desktop\WchWorkSPace\camCoreWithRTOS\obj/../Libraries/rtthread_libraries/src/components.c:110
{
    22b0:	1141                	addi	sp,sp,-16
    22b2:	c606                	sw	ra,12(sp)
    22b4:	c422                	sw	s0,8(sp)
    22b6:	c226                	sw	s1,4(sp)
    22b8:	641d                	lui	s0,0x7
    22ba:	69440493          	addi	s1,s0,1684 # 7694 <__rt_init_rti_board_end>
    22be:	679d                	lui	a5,0x7
    22c0:	69b78793          	addi	a5,a5,1691 # 769b <__rt_init_finsh_system_init+0x3>
    22c4:	8f85                	sub	a5,a5,s1
    22c6:	9bf1                	andi	a5,a5,-4
    22c8:	0791                	addi	a5,a5,4
    22ca:	94be                	add	s1,s1,a5
C:\Users\29275\Desktop\WchWorkSPace\camCoreWithRTOS\obj/../Libraries/rtthread_libraries/src/components.c:125
    for (fn_ptr = &__rt_init_rti_board_end; fn_ptr < &__rt_init_rti_end; fn_ptr ++)
    22cc:	69440413          	addi	s0,s0,1684
C:\Users\29275\Desktop\WchWorkSPace\camCoreWithRTOS\obj/../Libraries/rtthread_libraries/src/components.c:127 (discriminator 3)
    {
        (*fn_ptr)();
    22d0:	401c                	lw	a5,0(s0)
    22d2:	9782                	jalr	a5
C:\Users\29275\Desktop\WchWorkSPace\camCoreWithRTOS\obj/../Libraries/rtthread_libraries/src/components.c:125 (discriminator 3)
    for (fn_ptr = &__rt_init_rti_board_end; fn_ptr < &__rt_init_rti_end; fn_ptr ++)
    22d4:	0411                	addi	s0,s0,4
    22d6:	fe941de3          	bne	s0,s1,22d0 <rt_components_init+0x30>
C:\Users\29275\Desktop\WchWorkSPace\camCoreWithRTOS\obj/../Libraries/rtthread_libraries/src/components.c:130
    }
#endif
}
    22da:	40b2                	lw	ra,12(sp)
    22dc:	4422                	lw	s0,8(sp)
    22de:	4492                	lw	s1,4(sp)
    22e0:	0141                	addi	sp,sp,16
    22e2:	8082                	ret
    22e4:	8082                	ret

000022e6 <main_thread_entry>:
main_thread_entry():
C:\Users\29275\Desktop\WchWorkSPace\camCoreWithRTOS\obj/../Libraries/rtthread_libraries/src/components.c:176
struct rt_thread main_thread;
#endif

/* the system main thread */
void main_thread_entry(void *parameter)
{
    22e6:	1141                	addi	sp,sp,-16
    22e8:	c606                	sw	ra,12(sp)
C:\Users\29275\Desktop\WchWorkSPace\camCoreWithRTOS\obj/../Libraries/rtthread_libraries/src/components.c:181
    extern int main(void);
    extern int $Super$$main(void);

    /* RT-Thread components initialization */
    rt_components_init();
    22ea:	3f5d                	jal	22a0 <rt_components_init>
C:\Users\29275\Desktop\WchWorkSPace\camCoreWithRTOS\obj/../Libraries/rtthread_libraries/src/components.c:187

    /* invoke system main function */
#if defined(__CC_ARM) || defined(__CLANG_ARM)
    $Super$$main(); /* for ARMCC. */
#elif defined(__ICCARM__) || defined(__GNUC__)
    main();
    22ec:	b61fe0ef          	jal	ra,e4c <main>
C:\Users\29275\Desktop\WchWorkSPace\camCoreWithRTOS\obj/../Libraries/rtthread_libraries/src/components.c:189
#endif
}
    22f0:	40b2                	lw	ra,12(sp)
    22f2:	0141                	addi	sp,sp,16
    22f4:	8082                	ret

000022f6 <rt_application_init>:
rt_application_init():
C:\Users\29275\Desktop\WchWorkSPace\camCoreWithRTOS\obj/../Libraries/rtthread_libraries/src/components.c:192

void rt_application_init(void)
{
    22f6:	1141                	addi	sp,sp,-16
    22f8:	c606                	sw	ra,12(sp)
C:\Users\29275\Desktop\WchWorkSPace\camCoreWithRTOS\obj/../Libraries/rtthread_libraries/src/components.c:197
    rt_thread_t tid;


#ifdef RT_USING_HEAP
    tid = rt_thread_create("main", main_thread_entry, RT_NULL,
    22fa:	47d1                	li	a5,20
    22fc:	4709                	li	a4,2
    22fe:	40000693          	li	a3,1024
    2302:	4601                	li	a2,0
    2304:	000025b7          	lui	a1,0x2
    2308:	2e658593          	addi	a1,a1,742 # 22e6 <main_thread_entry>
    230c:	00007537          	lui	a0,0x7
    2310:	d6050513          	addi	a0,a0,-672 # 6d60 <UARTN+0x10>
    2314:	5e4010ef          	jal	ra,38f8 <rt_thread_create>
C:\Users\29275\Desktop\WchWorkSPace\camCoreWithRTOS\obj/../Libraries/rtthread_libraries/src/components.c:212
	
    /* if not define RT_USING_HEAP, using to eliminate the warning */
    (void)result;
#endif

    rt_thread_startup(tid);
    2318:	7fc010ef          	jal	ra,3b14 <rt_thread_startup>
C:\Users\29275\Desktop\WchWorkSPace\camCoreWithRTOS\obj/../Libraries/rtthread_libraries/src/components.c:213
}
    231c:	40b2                	lw	ra,12(sp)
    231e:	0141                	addi	sp,sp,16
    2320:	8082                	ret

00002322 <rtthread_startup>:
rtthread_startup():
C:\Users\29275\Desktop\WchWorkSPace\camCoreWithRTOS\obj/../Libraries/rtthread_libraries/src/components.c:216

int rtthread_startup(void)
{
    2322:	1141                	addi	sp,sp,-16
    2324:	c606                	sw	ra,12(sp)
C:\Users\29275\Desktop\WchWorkSPace\camCoreWithRTOS\obj/../Libraries/rtthread_libraries/src/components.c:217
    rt_hw_interrupt_disable();
    2326:	e1bfd0ef          	jal	ra,140 <rt_hw_interrupt_disable>
C:\Users\29275\Desktop\WchWorkSPace\camCoreWithRTOS\obj/../Libraries/rtthread_libraries/src/components.c:222

    /* board level initialization
     * NOTE: please initialize heap inside board initialization.
     */
    rt_hw_board_init();
    232a:	257020ef          	jal	ra,4d80 <rt_hw_board_init>
C:\Users\29275\Desktop\WchWorkSPace\camCoreWithRTOS\obj/../Libraries/rtthread_libraries/src/components.c:225

    /* show RT-Thread version */
    rt_show_version();
    232e:	559000ef          	jal	ra,3086 <rt_show_version>
C:\Users\29275\Desktop\WchWorkSPace\camCoreWithRTOS\obj/../Libraries/rtthread_libraries/src/components.c:228

    /* timer system initialization */
    rt_system_timer_init();
    2332:	289010ef          	jal	ra,3dba <rt_system_timer_init>
C:\Users\29275\Desktop\WchWorkSPace\camCoreWithRTOS\obj/../Libraries/rtthread_libraries/src/components.c:231

    /* scheduler system initialization */
    rt_system_scheduler_init();
    2336:	2b6010ef          	jal	ra,35ec <rt_system_scheduler_init>
C:\Users\29275\Desktop\WchWorkSPace\camCoreWithRTOS\obj/../Libraries/rtthread_libraries/src/components.c:239
    /* signal system initialization */
    rt_system_signal_init();
#endif

    /* create init_thread */
    rt_application_init();
    233a:	3f75                	jal	22f6 <rt_application_init>
C:\Users\29275\Desktop\WchWorkSPace\camCoreWithRTOS\obj/../Libraries/rtthread_libraries/src/components.c:242

    /* timer thread initialization */
    rt_system_timer_thread_init();
    233c:	289010ef          	jal	ra,3dc4 <rt_system_timer_thread_init>
C:\Users\29275\Desktop\WchWorkSPace\camCoreWithRTOS\obj/../Libraries/rtthread_libraries/src/components.c:245

    /* idle thread initialization */
    rt_thread_idle_init();
    2340:	20f1                	jal	240c <rt_thread_idle_init>
C:\Users\29275\Desktop\WchWorkSPace\camCoreWithRTOS\obj/../Libraries/rtthread_libraries/src/components.c:248

    /* start scheduler */
    rt_system_scheduler_start();
    2342:	2d8010ef          	jal	ra,361a <rt_system_scheduler_start>
C:\Users\29275\Desktop\WchWorkSPace\camCoreWithRTOS\obj/../Libraries/rtthread_libraries/src/components.c:252

    /* never reach here */
    return 0;
}
    2346:	4501                	li	a0,0
    2348:	40b2                	lw	ra,12(sp)
    234a:	0141                	addi	sp,sp,16
    234c:	8082                	ret

0000234e <entry>:
entry():
C:\Users\29275\Desktop\WchWorkSPace\camCoreWithRTOS\obj/../Libraries/rtthread_libraries/src/components.c:161
{
    234e:	1141                	addi	sp,sp,-16
    2350:	c606                	sw	ra,12(sp)
C:\Users\29275\Desktop\WchWorkSPace\camCoreWithRTOS\obj/../Libraries/rtthread_libraries/src/components.c:162
    rtthread_startup();
    2352:	3fc1                	jal	2322 <rtthread_startup>
C:\Users\29275\Desktop\WchWorkSPace\camCoreWithRTOS\obj/../Libraries/rtthread_libraries/src/components.c:164
}
    2354:	4501                	li	a0,0
    2356:	40b2                	lw	ra,12(sp)
    2358:	0141                	addi	sp,sp,16
    235a:	8082                	ret

0000235c <rt_thread_idle_excute>:
_has_defunct_thread():
C:\Users\29275\Desktop\WchWorkSPace\camCoreWithRTOS\obj/../Libraries/rtthread_libraries/src/idle.c:134
     * into a "if".
     *
     * So add the volatile qualifier here. */
    const volatile rt_list_t *l = (const volatile rt_list_t *)&rt_thread_defunct;

    return l->next != l;
    235c:	8781a703          	lw	a4,-1928(gp) # 20000128 <rt_thread_defunct>
rt_thread_idle_excute():
C:\Users\29275\Desktop\WchWorkSPace\camCoreWithRTOS\obj/../Libraries/rtthread_libraries/src/idle.c:146
 */
void rt_thread_idle_excute(void)
{
    /* Loop until there is no dead thread. So one call to rt_thread_idle_excute
     * will do all the cleanups. */
    while (_has_defunct_thread())
    2360:	87818793          	addi	a5,gp,-1928 # 20000128 <rt_thread_defunct>
    2364:	08f70f63          	beq	a4,a5,2402 <rt_thread_idle_excute+0xa6>
C:\Users\29275\Desktop\WchWorkSPace\camCoreWithRTOS\obj/../Libraries/rtthread_libraries/src/idle.c:143
{
    2368:	1101                	addi	sp,sp,-32
    236a:	ce06                	sw	ra,28(sp)
    236c:	cc22                	sw	s0,24(sp)
    236e:	ca26                	sw	s1,20(sp)
    2370:	c84a                	sw	s2,16(sp)
    2372:	c64e                	sw	s3,12(sp)
    2374:	c452                	sw	s4,8(sp)
    2376:	c256                	sw	s5,4(sp)
C:\Users\29275\Desktop\WchWorkSPace\camCoreWithRTOS\obj/../Libraries/rtthread_libraries/src/idle.c:159

        /* disable interrupt */
        lock = rt_hw_interrupt_disable();

        /* re-check whether list is empty */
        if (_has_defunct_thread())
    2378:	87818993          	addi	s3,gp,-1928 # 20000128 <rt_thread_defunct>
C:\Users\29275\Desktop\WchWorkSPace\camCoreWithRTOS\obj/../Libraries/rtthread_libraries/src/idle.c:187
#ifdef RT_USING_SIGNALS
            rt_thread_free_sig(thread);
#endif

            /* if it's a system object, not delete it */
            if (rt_object_is_systemobject((rt_object_t)thread) == RT_TRUE)
    237c:	4a85                	li	s5,1
    237e:	a02d                	j	23a8 <rt_thread_idle_excute+0x4c>
    2380:	8526                	mv	a0,s1
    2382:	262010ef          	jal	ra,35e4 <rt_object_is_systemobject>
    2386:	05550a63          	beq	a0,s5,23da <rt_thread_idle_excute+0x7e>
C:\Users\29275\Desktop\WchWorkSPace\camCoreWithRTOS\obj/../Libraries/rtthread_libraries/src/idle.c:201

                return;
            }

            /* unlock scheduler */
            rt_exit_critical();
    238a:	3ee010ef          	jal	ra,3778 <rt_exit_critical>
C:\Users\29275\Desktop\WchWorkSPace\camCoreWithRTOS\obj/../Libraries/rtthread_libraries/src/idle.c:213
            /* may the defunct thread list is removed by others, just return */
            return;
        }

        /* enable interrupt */
        rt_hw_interrupt_enable(lock);
    238e:	8552                	mv	a0,s4
    2390:	db7fd0ef          	jal	ra,146 <rt_hw_interrupt_enable>
C:\Users\29275\Desktop\WchWorkSPace\camCoreWithRTOS\obj/../Libraries/rtthread_libraries/src/idle.c:217

#ifdef RT_USING_HEAP
        /* release thread's stack */
        RT_KERNEL_FREE(thread->stack_addr);
    2394:	4848                	lw	a0,20(s0)
    2396:	018010ef          	jal	ra,33ae <rt_free>
C:\Users\29275\Desktop\WchWorkSPace\camCoreWithRTOS\obj/../Libraries/rtthread_libraries/src/idle.c:219
        /* delete thread object */
        rt_object_delete((rt_object_t)thread);
    239a:	8526                	mv	a0,s1
    239c:	214010ef          	jal	ra,35b0 <rt_object_delete>
_has_defunct_thread():
C:\Users\29275\Desktop\WchWorkSPace\camCoreWithRTOS\obj/../Libraries/rtthread_libraries/src/idle.c:134
    return l->next != l;
    23a0:	8781a783          	lw	a5,-1928(gp) # 20000128 <rt_thread_defunct>
rt_thread_idle_excute():
C:\Users\29275\Desktop\WchWorkSPace\camCoreWithRTOS\obj/../Libraries/rtthread_libraries/src/idle.c:146
    while (_has_defunct_thread())
    23a4:	05378663          	beq	a5,s3,23f0 <rt_thread_idle_excute+0x94>
C:\Users\29275\Desktop\WchWorkSPace\camCoreWithRTOS\obj/../Libraries/rtthread_libraries/src/idle.c:156
        lock = rt_hw_interrupt_disable();
    23a8:	d99fd0ef          	jal	ra,140 <rt_hw_interrupt_disable>
    23ac:	8a2a                	mv	s4,a0
_has_defunct_thread():
C:\Users\29275\Desktop\WchWorkSPace\camCoreWithRTOS\obj/../Libraries/rtthread_libraries/src/idle.c:134
    return l->next != l;
    23ae:	8781a783          	lw	a5,-1928(gp) # 20000128 <rt_thread_defunct>
rt_thread_idle_excute():
C:\Users\29275\Desktop\WchWorkSPace\camCoreWithRTOS\obj/../Libraries/rtthread_libraries/src/idle.c:159
        if (_has_defunct_thread())
    23b2:	03378d63          	beq	a5,s3,23ec <rt_thread_idle_excute+0x90>
C:\Users\29275\Desktop\WchWorkSPace\camCoreWithRTOS\obj/../Libraries/rtthread_libraries/src/idle.c:162
            thread = rt_list_entry(rt_thread_defunct.next,
    23b6:	8781a403          	lw	s0,-1928(gp) # 20000128 <rt_thread_defunct>
    23ba:	fec40493          	addi	s1,s0,-20
rt_list_remove():
C:\Users\29275\Desktop\WchWorkSPace\camCoreWithRTOS\Libraries\rtthread_libraries\include/rtservice.h:88
 * @brief remove node from list.
 * @param n the node to remove from the list.
 */
rt_inline void rt_list_remove(rt_list_t *n)
{
    n->next->prev = n->prev;
    23be:	4018                	lw	a4,0(s0)
    23c0:	405c                	lw	a5,4(s0)
    23c2:	c35c                	sw	a5,4(a4)
C:\Users\29275\Desktop\WchWorkSPace\camCoreWithRTOS\Libraries\rtthread_libraries\include/rtservice.h:89
    n->prev->next = n->next;
    23c4:	4018                	lw	a4,0(s0)
    23c6:	c398                	sw	a4,0(a5)
C:\Users\29275\Desktop\WchWorkSPace\camCoreWithRTOS\Libraries\rtthread_libraries\include/rtservice.h:91

    n->next = n->prev = n;
    23c8:	c040                	sw	s0,4(s0)
    23ca:	c000                	sw	s0,0(s0)
rt_thread_idle_excute():
C:\Users\29275\Desktop\WchWorkSPace\camCoreWithRTOS\obj/../Libraries/rtthread_libraries/src/idle.c:176
            rt_enter_critical();
    23cc:	38c010ef          	jal	ra,3758 <rt_enter_critical>
C:\Users\29275\Desktop\WchWorkSPace\camCoreWithRTOS\obj/../Libraries/rtthread_libraries/src/idle.c:179
            if (thread->cleanup != RT_NULL)
    23d0:	4c7c                	lw	a5,92(s0)
    23d2:	d7dd                	beqz	a5,2380 <rt_thread_idle_excute+0x24>
C:\Users\29275\Desktop\WchWorkSPace\camCoreWithRTOS\obj/../Libraries/rtthread_libraries/src/idle.c:180
                thread->cleanup(thread);
    23d4:	8526                	mv	a0,s1
    23d6:	9782                	jalr	a5
    23d8:	b765                	j	2380 <rt_thread_idle_excute+0x24>
C:\Users\29275\Desktop\WchWorkSPace\camCoreWithRTOS\obj/../Libraries/rtthread_libraries/src/idle.c:190
                rt_object_detach((rt_object_t)thread);
    23da:	8526                	mv	a0,s1
    23dc:	142010ef          	jal	ra,351e <rt_object_detach>
C:\Users\29275\Desktop\WchWorkSPace\camCoreWithRTOS\obj/../Libraries/rtthread_libraries/src/idle.c:192
                rt_exit_critical();
    23e0:	398010ef          	jal	ra,3778 <rt_exit_critical>
C:\Users\29275\Desktop\WchWorkSPace\camCoreWithRTOS\obj/../Libraries/rtthread_libraries/src/idle.c:195
                rt_hw_interrupt_enable(lock);
    23e4:	8552                	mv	a0,s4
    23e6:	d61fd0ef          	jal	ra,146 <rt_hw_interrupt_enable>
C:\Users\29275\Desktop\WchWorkSPace\camCoreWithRTOS\obj/../Libraries/rtthread_libraries/src/idle.c:197
                return;
    23ea:	a019                	j	23f0 <rt_thread_idle_excute+0x94>
C:\Users\29275\Desktop\WchWorkSPace\camCoreWithRTOS\obj/../Libraries/rtthread_libraries/src/idle.c:206
            rt_hw_interrupt_enable(lock);
    23ec:	d5bfd0ef          	jal	ra,146 <rt_hw_interrupt_enable>
C:\Users\29275\Desktop\WchWorkSPace\camCoreWithRTOS\obj/../Libraries/rtthread_libraries/src/idle.c:222
#endif
    }
}
    23f0:	40f2                	lw	ra,28(sp)
    23f2:	4462                	lw	s0,24(sp)
    23f4:	44d2                	lw	s1,20(sp)
    23f6:	4942                	lw	s2,16(sp)
    23f8:	49b2                	lw	s3,12(sp)
    23fa:	4a22                	lw	s4,8(sp)
    23fc:	4a92                	lw	s5,4(sp)
    23fe:	6105                	addi	sp,sp,32
    2400:	8082                	ret
    2402:	8082                	ret

00002404 <rt_thread_idle_entry>:
rt_thread_idle_entry():
C:\Users\29275\Desktop\WchWorkSPace\camCoreWithRTOS\obj/../Libraries/rtthread_libraries/src/idle.c:226

extern void rt_system_power_manager(void); // @suppress("Unused function declaration")
static void rt_thread_idle_entry(void *parameter)
{
    2404:	1141                	addi	sp,sp,-16
    2406:	c606                	sw	ra,12(sp)
C:\Users\29275\Desktop\WchWorkSPace\camCoreWithRTOS\obj/../Libraries/rtthread_libraries/src/idle.c:242 (discriminator 1)
                idle_hook_list[i]();
            }
        }
#endif

        rt_thread_idle_excute();
    2408:	3f91                	jal	235c <rt_thread_idle_excute>
    240a:	bffd                	j	2408 <rt_thread_idle_entry+0x4>

0000240c <rt_thread_idle_init>:
rt_thread_idle_init():
C:\Users\29275\Desktop\WchWorkSPace\camCoreWithRTOS\obj/../Libraries/rtthread_libraries/src/idle.c:257
 * This function will initialize idle thread, then start it.
 *
 * @note this function must be invoked when system init.
 */
void rt_thread_idle_init(void)
{
    240c:	1141                	addi	sp,sp,-16
    240e:	c606                	sw	ra,12(sp)
    2410:	c422                	sw	s0,8(sp)
C:\Users\29275\Desktop\WchWorkSPace\camCoreWithRTOS\obj/../Libraries/rtthread_libraries/src/idle.c:259
    /* initialize thread */
    rt_thread_init(&idle,
    2412:	02000893          	li	a7,32
    2416:	481d                	li	a6,7
    2418:	30000793          	li	a5,768
    241c:	a4c18713          	addi	a4,gp,-1460 # 200002fc <rt_thread_stack>
    2420:	4681                	li	a3,0
    2422:	00002637          	lui	a2,0x2
    2426:	40460613          	addi	a2,a2,1028 # 2404 <rt_thread_idle_entry>
    242a:	000075b7          	lui	a1,0x7
    242e:	d6858593          	addi	a1,a1,-664 # 6d68 <UARTN+0x18>
    2432:	9d418513          	addi	a0,gp,-1580 # 20000284 <idle>
    2436:	40c010ef          	jal	ra,3842 <rt_thread_init>
C:\Users\29275\Desktop\WchWorkSPace\camCoreWithRTOS\obj/../Libraries/rtthread_libraries/src/idle.c:269
                   sizeof(rt_thread_stack),
                   RT_THREAD_PRIORITY_MAX - 1,
                   32);

    /* startup */
    rt_thread_startup(&idle);
    243a:	9d418513          	addi	a0,gp,-1580 # 20000284 <idle>
    243e:	6d6010ef          	jal	ra,3b14 <rt_thread_startup>
C:\Users\29275\Desktop\WchWorkSPace\camCoreWithRTOS\obj/../Libraries/rtthread_libraries/src/idle.c:270
}
    2442:	40b2                	lw	ra,12(sp)
    2444:	4422                	lw	s0,8(sp)
    2446:	0141                	addi	sp,sp,16
    2448:	8082                	ret

0000244a <rt_sem_init>:
rt_sem_init():
C:\Users\29275\Desktop\WchWorkSPace\camCoreWithRTOS\obj/../Libraries/rtthread_libraries/src/ipc.c:201
 */
rt_err_t rt_sem_init(rt_sem_t    sem,
                     const char *name,
                     rt_uint32_t value,
                     rt_uint8_t  flag)
{
    244a:	1141                	addi	sp,sp,-16
    244c:	c606                	sw	ra,12(sp)
    244e:	c422                	sw	s0,8(sp)
    2450:	c226                	sw	s1,4(sp)
    2452:	c04a                	sw	s2,0(sp)
    2454:	842a                	mv	s0,a0
    2456:	8932                	mv	s2,a2
    2458:	84b6                	mv	s1,a3
C:\Users\29275\Desktop\WchWorkSPace\camCoreWithRTOS\obj/../Libraries/rtthread_libraries/src/ipc.c:206
    RT_ASSERT(sem != RT_NULL);
    RT_ASSERT(value < 0x10000U);

    /* init object */
    rt_object_init(&(sem->parent.parent), RT_Object_Class_Semaphore, name);
    245a:	862e                	mv	a2,a1
    245c:	4589                	li	a1,2
    245e:	050010ef          	jal	ra,34ae <rt_object_init>
rt_ipc_object_init():
C:\Users\29275\Desktop\WchWorkSPace\camCoreWithRTOS\obj/../Libraries/rtthread_libraries/src/ipc.c:62
    rt_list_init(&(ipc->suspend_thread));
    2462:	01440793          	addi	a5,s0,20
rt_list_init():
C:\Users\29275\Desktop\WchWorkSPace\camCoreWithRTOS\Libraries\rtthread_libraries\include/rtservice.h:49
    l->next = l->prev = l;
    2466:	cc1c                	sw	a5,24(s0)
    2468:	c85c                	sw	a5,20(s0)
rt_sem_init():
C:\Users\29275\Desktop\WchWorkSPace\camCoreWithRTOS\obj/../Libraries/rtthread_libraries/src/ipc.c:212

    /* init ipc object */
    rt_ipc_object_init(&(sem->parent));

    /* set init value */
    sem->value = (rt_uint16_t)value;
    246a:	01241e23          	sh	s2,28(s0)
C:\Users\29275\Desktop\WchWorkSPace\camCoreWithRTOS\obj/../Libraries/rtthread_libraries/src/ipc.c:215

    /* set parent */
    sem->parent.parent.flag = flag;
    246e:	009404a3          	sb	s1,9(s0)
C:\Users\29275\Desktop\WchWorkSPace\camCoreWithRTOS\obj/../Libraries/rtthread_libraries/src/ipc.c:218

    return RT_EOK;
}
    2472:	4501                	li	a0,0
    2474:	40b2                	lw	ra,12(sp)
    2476:	4422                	lw	s0,8(sp)
    2478:	4492                	lw	s1,4(sp)
    247a:	4902                	lw	s2,0(sp)
    247c:	0141                	addi	sp,sp,16
    247e:	8082                	ret

00002480 <rt_sem_take>:
rt_sem_take():
C:\Users\29275\Desktop\WchWorkSPace\camCoreWithRTOS\obj/../Libraries/rtthread_libraries/src/ipc.c:323
 * @param time the waiting time
 *
 * @return the error code
 */
rt_err_t rt_sem_take(rt_sem_t sem, rt_int32_t time)
{
    2480:	7179                	addi	sp,sp,-48
    2482:	d606                	sw	ra,44(sp)
    2484:	d422                	sw	s0,40(sp)
    2486:	d226                	sw	s1,36(sp)
    2488:	d04a                	sw	s2,32(sp)
    248a:	ce4e                	sw	s3,28(sp)
    248c:	cc52                	sw	s4,24(sp)
    248e:	842a                	mv	s0,a0
    2490:	c62e                	sw	a1,12(sp)
C:\Users\29275\Desktop\WchWorkSPace\camCoreWithRTOS\obj/../Libraries/rtthread_libraries/src/ipc.c:334
    RT_ASSERT(rt_object_get_type(&sem->parent.parent) == RT_Object_Class_Semaphore);

    RT_OBJECT_HOOK_CALL(rt_object_trytake_hook, (&(sem->parent.parent)));

    /* disable interrupt */
    temp = rt_hw_interrupt_disable();
    2492:	caffd0ef          	jal	ra,140 <rt_hw_interrupt_disable>
    2496:	89aa                	mv	s3,a0
C:\Users\29275\Desktop\WchWorkSPace\camCoreWithRTOS\obj/../Libraries/rtthread_libraries/src/ipc.c:341
    RT_DEBUG_LOG(RT_DEBUG_IPC, ("thread %s take sem:%s, which value is: %d\n",
                                rt_thread_self()->name,
                                ((struct rt_object *)sem)->name,
                                sem->value));

    if (sem->value > 0)
    2498:	01c45783          	lhu	a5,28(s0)
    249c:	e7a1                	bnez	a5,24e4 <rt_sem_take+0x64>
C:\Users\29275\Desktop\WchWorkSPace\camCoreWithRTOS\obj/../Libraries/rtthread_libraries/src/ipc.c:352
        rt_hw_interrupt_enable(temp);
    }
    else
    {
        /* no waiting, return with timeout */
        if (time == 0)
    249e:	47b2                	lw	a5,12(sp)
    24a0:	cba9                	beqz	a5,24f2 <rt_sem_take+0x72>
C:\Users\29275\Desktop\WchWorkSPace\camCoreWithRTOS\obj/../Libraries/rtthread_libraries/src/ipc.c:365
            /* current context checking */
            RT_DEBUG_IN_THREAD_CONTEXT;

            /* semaphore is unavailable, push to suspend list */
            /* get current thread */
            thread = rt_thread_self();
    24a2:	450010ef          	jal	ra,38f2 <rt_thread_self>
    24a6:	84aa                	mv	s1,a0
C:\Users\29275\Desktop\WchWorkSPace\camCoreWithRTOS\obj/../Libraries/rtthread_libraries/src/ipc.c:368

            /* reset thread error number */
            thread->error = RT_EOK;
    24a8:	02052823          	sw	zero,48(a0)
C:\Users\29275\Desktop\WchWorkSPace\camCoreWithRTOS\obj/../Libraries/rtthread_libraries/src/ipc.c:374

            RT_DEBUG_LOG(RT_DEBUG_IPC, ("sem take: suspend thread - %s\n",
                                        thread->name));

            /* suspend thread */
            rt_ipc_list_suspend(&(sem->parent.suspend_thread),
    24ac:	01440913          	addi	s2,s0,20
    24b0:	00944a03          	lbu	s4,9(s0)
rt_ipc_list_suspend():
C:\Users\29275\Desktop\WchWorkSPace\camCoreWithRTOS\obj/../Libraries/rtthread_libraries/src/ipc.c:83
    rt_thread_suspend(thread);
    24b4:	560010ef          	jal	ra,3a14 <rt_thread_suspend>
C:\Users\29275\Desktop\WchWorkSPace\camCoreWithRTOS\obj/../Libraries/rtthread_libraries/src/ipc.c:85
    switch (flag)
    24b8:	040a0163          	beqz	s4,24fa <rt_sem_take+0x7a>
    24bc:	4785                	li	a5,1
    24be:	04fa0863          	beq	s4,a5,250e <rt_sem_take+0x8e>
rt_sem_take():
C:\Users\29275\Desktop\WchWorkSPace\camCoreWithRTOS\obj/../Libraries/rtthread_libraries/src/ipc.c:379
                                thread,
                                sem->parent.parent.flag);

            /* has waiting time, start thread timer */
            if (time > 0)
    24c2:	47b2                	lw	a5,12(sp)
    24c4:	08f04863          	bgtz	a5,2554 <rt_sem_take+0xd4>
C:\Users\29275\Desktop\WchWorkSPace\camCoreWithRTOS\obj/../Libraries/rtthread_libraries/src/ipc.c:392
                                 &time);
                rt_timer_start(&(thread->thread_timer));
            }

            /* enable interrupt */
            rt_hw_interrupt_enable(temp);
    24c8:	854e                	mv	a0,s3
    24ca:	c7dfd0ef          	jal	ra,146 <rt_hw_interrupt_enable>
C:\Users\29275\Desktop\WchWorkSPace\camCoreWithRTOS\obj/../Libraries/rtthread_libraries/src/ipc.c:395

            /* do schedule */
            rt_schedule();
    24ce:	17a010ef          	jal	ra,3648 <rt_schedule>
C:\Users\29275\Desktop\WchWorkSPace\camCoreWithRTOS\obj/../Libraries/rtthread_libraries/src/ipc.c:397

            if (thread->error != RT_EOK)
    24d2:	5888                	lw	a0,48(s1)
C:\Users\29275\Desktop\WchWorkSPace\camCoreWithRTOS\obj/../Libraries/rtthread_libraries/src/ipc.c:407
    }

    RT_OBJECT_HOOK_CALL(rt_object_take_hook, (&(sem->parent.parent)));

    return RT_EOK;
}
    24d4:	50b2                	lw	ra,44(sp)
    24d6:	5422                	lw	s0,40(sp)
    24d8:	5492                	lw	s1,36(sp)
    24da:	5902                	lw	s2,32(sp)
    24dc:	49f2                	lw	s3,28(sp)
    24de:	4a62                	lw	s4,24(sp)
    24e0:	6145                	addi	sp,sp,48
    24e2:	8082                	ret
C:\Users\29275\Desktop\WchWorkSPace\camCoreWithRTOS\obj/../Libraries/rtthread_libraries/src/ipc.c:344
        sem->value --;
    24e4:	17fd                	addi	a5,a5,-1
    24e6:	00f41e23          	sh	a5,28(s0)
C:\Users\29275\Desktop\WchWorkSPace\camCoreWithRTOS\obj/../Libraries/rtthread_libraries/src/ipc.c:347
        rt_hw_interrupt_enable(temp);
    24ea:	c5dfd0ef          	jal	ra,146 <rt_hw_interrupt_enable>
C:\Users\29275\Desktop\WchWorkSPace\camCoreWithRTOS\obj/../Libraries/rtthread_libraries/src/ipc.c:406
    return RT_EOK;
    24ee:	4501                	li	a0,0
    24f0:	b7d5                	j	24d4 <rt_sem_take+0x54>
C:\Users\29275\Desktop\WchWorkSPace\camCoreWithRTOS\obj/../Libraries/rtthread_libraries/src/ipc.c:354
            rt_hw_interrupt_enable(temp);
    24f2:	c55fd0ef          	jal	ra,146 <rt_hw_interrupt_enable>
C:\Users\29275\Desktop\WchWorkSPace\camCoreWithRTOS\obj/../Libraries/rtthread_libraries/src/ipc.c:356
            return -RT_ETIMEOUT;
    24f6:	5579                	li	a0,-2
    24f8:	bff1                	j	24d4 <rt_sem_take+0x54>
rt_ipc_list_suspend():
C:\Users\29275\Desktop\WchWorkSPace\camCoreWithRTOS\obj/../Libraries/rtthread_libraries/src/ipc.c:88
        rt_list_insert_before(list, &(thread->tlist));
    24fa:	01448793          	addi	a5,s1,20
rt_list_insert_before():
C:\Users\29275\Desktop\WchWorkSPace\camCoreWithRTOS\Libraries\rtthread_libraries\include/rtservice.h:75
    l->prev->next = n;
    24fe:	4c18                	lw	a4,24(s0)
    2500:	c31c                	sw	a5,0(a4)
C:\Users\29275\Desktop\WchWorkSPace\camCoreWithRTOS\Libraries\rtthread_libraries\include/rtservice.h:76
    n->prev = l->prev;
    2502:	4c18                	lw	a4,24(s0)
    2504:	cc98                	sw	a4,24(s1)
C:\Users\29275\Desktop\WchWorkSPace\camCoreWithRTOS\Libraries\rtthread_libraries\include/rtservice.h:78
    l->prev = n;
    2506:	cc1c                	sw	a5,24(s0)
C:\Users\29275\Desktop\WchWorkSPace\camCoreWithRTOS\Libraries\rtthread_libraries\include/rtservice.h:79
    n->next = l;
    2508:	0124aa23          	sw	s2,20(s1)
    250c:	bf5d                	j	24c2 <rt_sem_take+0x42>
rt_ipc_list_suspend():
C:\Users\29275\Desktop\WchWorkSPace\camCoreWithRTOS\obj/../Libraries/rtthread_libraries/src/ipc.c:97
            for (n = list->next; n != list; n = n->next)
    250e:	485c                	lw	a5,20(s0)
    2510:	02f90863          	beq	s2,a5,2540 <rt_sem_take+0xc0>
C:\Users\29275\Desktop\WchWorkSPace\camCoreWithRTOS\obj/../Libraries/rtthread_libraries/src/ipc.c:102
                if (thread->current_priority < sthread->current_priority)
    2514:	0354c683          	lbu	a3,53(s1)
    2518:	0217c703          	lbu	a4,33(a5)
    251c:	00e6e963          	bltu	a3,a4,252e <rt_sem_take+0xae>
C:\Users\29275\Desktop\WchWorkSPace\camCoreWithRTOS\obj/../Libraries/rtthread_libraries/src/ipc.c:97
            for (n = list->next; n != list; n = n->next)
    2520:	439c                	lw	a5,0(a5)
    2522:	00f90f63          	beq	s2,a5,2540 <rt_sem_take+0xc0>
C:\Users\29275\Desktop\WchWorkSPace\camCoreWithRTOS\obj/../Libraries/rtthread_libraries/src/ipc.c:102
                if (thread->current_priority < sthread->current_priority)
    2526:	0217c703          	lbu	a4,33(a5)
    252a:	fee6fbe3          	bgeu	a3,a4,2520 <rt_sem_take+0xa0>
C:\Users\29275\Desktop\WchWorkSPace\camCoreWithRTOS\obj/../Libraries/rtthread_libraries/src/ipc.c:105
                    rt_list_insert_before(&(sthread->tlist), &(thread->tlist));
    252e:	01448713          	addi	a4,s1,20
rt_list_insert_before():
C:\Users\29275\Desktop\WchWorkSPace\camCoreWithRTOS\Libraries\rtthread_libraries\include/rtservice.h:75
    l->prev->next = n;
    2532:	43d4                	lw	a3,4(a5)
    2534:	c298                	sw	a4,0(a3)
C:\Users\29275\Desktop\WchWorkSPace\camCoreWithRTOS\Libraries\rtthread_libraries\include/rtservice.h:76
    n->prev = l->prev;
    2536:	43d4                	lw	a3,4(a5)
    2538:	cc94                	sw	a3,24(s1)
C:\Users\29275\Desktop\WchWorkSPace\camCoreWithRTOS\Libraries\rtthread_libraries\include/rtservice.h:78
    l->prev = n;
    253a:	c3d8                	sw	a4,4(a5)
C:\Users\29275\Desktop\WchWorkSPace\camCoreWithRTOS\Libraries\rtthread_libraries\include/rtservice.h:79
    n->next = l;
    253c:	c8dc                	sw	a5,20(s1)
rt_ipc_list_suspend():
C:\Users\29275\Desktop\WchWorkSPace\camCoreWithRTOS\obj/../Libraries/rtthread_libraries/src/ipc.c:114
            if (n == list)
    253e:	b751                	j	24c2 <rt_sem_take+0x42>
C:\Users\29275\Desktop\WchWorkSPace\camCoreWithRTOS\obj/../Libraries/rtthread_libraries/src/ipc.c:115
                rt_list_insert_before(list, &(thread->tlist));
    2540:	01448793          	addi	a5,s1,20
rt_list_insert_before():
C:\Users\29275\Desktop\WchWorkSPace\camCoreWithRTOS\Libraries\rtthread_libraries\include/rtservice.h:75
    l->prev->next = n;
    2544:	4c18                	lw	a4,24(s0)
    2546:	c31c                	sw	a5,0(a4)
C:\Users\29275\Desktop\WchWorkSPace\camCoreWithRTOS\Libraries\rtthread_libraries\include/rtservice.h:76
    n->prev = l->prev;
    2548:	4c18                	lw	a4,24(s0)
    254a:	cc98                	sw	a4,24(s1)
C:\Users\29275\Desktop\WchWorkSPace\camCoreWithRTOS\Libraries\rtthread_libraries\include/rtservice.h:78
    l->prev = n;
    254c:	cc1c                	sw	a5,24(s0)
C:\Users\29275\Desktop\WchWorkSPace\camCoreWithRTOS\Libraries\rtthread_libraries\include/rtservice.h:79
    n->next = l;
    254e:	0124aa23          	sw	s2,20(s1)
    2552:	bf85                	j	24c2 <rt_sem_take+0x42>
rt_sem_take():
C:\Users\29275\Desktop\WchWorkSPace\camCoreWithRTOS\obj/../Libraries/rtthread_libraries/src/ipc.c:385
                rt_timer_control(&(thread->thread_timer),
    2554:	04448413          	addi	s0,s1,68
    2558:	0070                	addi	a2,sp,12
    255a:	4581                	li	a1,0
    255c:	8522                	mv	a0,s0
    255e:	78c010ef          	jal	ra,3cea <rt_timer_control>
C:\Users\29275\Desktop\WchWorkSPace\camCoreWithRTOS\obj/../Libraries/rtthread_libraries/src/ipc.c:388
                rt_timer_start(&(thread->thread_timer));
    2562:	8522                	mv	a0,s0
    2564:	6a8010ef          	jal	ra,3c0c <rt_timer_start>
    2568:	b785                	j	24c8 <rt_sem_take+0x48>

0000256a <rt_sem_release>:
rt_sem_release():
C:\Users\29275\Desktop\WchWorkSPace\camCoreWithRTOS\obj/../Libraries/rtthread_libraries/src/ipc.c:432
 * @param sem the semaphore object
 *
 * @return the error code
 */
rt_err_t rt_sem_release(rt_sem_t sem)
{
    256a:	1141                	addi	sp,sp,-16
    256c:	c606                	sw	ra,12(sp)
    256e:	c422                	sw	s0,8(sp)
    2570:	c226                	sw	s1,4(sp)
    2572:	842a                	mv	s0,a0
C:\Users\29275\Desktop\WchWorkSPace\camCoreWithRTOS\obj/../Libraries/rtthread_libraries/src/ipc.c:445
    RT_OBJECT_HOOK_CALL(rt_object_put_hook, (&(sem->parent.parent)));

    need_schedule = RT_FALSE;

    /* disable interrupt */
    temp = rt_hw_interrupt_disable();
    2574:	bcdfd0ef          	jal	ra,140 <rt_hw_interrupt_disable>
    2578:	84aa                	mv	s1,a0
rt_list_isempty():
C:\Users\29275\Desktop\WchWorkSPace\camCoreWithRTOS\Libraries\rtthread_libraries\include/rtservice.h:100
 * @brief tests whether a list is empty
 * @param l the list to test.
 */
rt_inline int rt_list_isempty(const rt_list_t *l)
{
    return l->next == l;
    257a:	4848                	lw	a0,20(s0)
rt_sem_release():
C:\Users\29275\Desktop\WchWorkSPace\camCoreWithRTOS\obj/../Libraries/rtthread_libraries/src/ipc.c:452
    RT_DEBUG_LOG(RT_DEBUG_IPC, ("thread %s releases sem:%s, which value is: %d\n",
                                rt_thread_self()->name,
                                ((struct rt_object *)sem)->name,
                                sem->value));

    if (!rt_list_isempty(&sem->parent.suspend_thread))
    257c:	01440793          	addi	a5,s0,20
    2580:	02f50063          	beq	a0,a5,25a0 <rt_sem_release+0x36>
rt_ipc_list_resume():
C:\Users\29275\Desktop\WchWorkSPace\camCoreWithRTOS\obj/../Libraries/rtthread_libraries/src/ipc.c:142
    rt_thread_resume(thread);
    2584:	1531                	addi	a0,a0,-20
    2586:	53e010ef          	jal	ra,3ac4 <rt_thread_resume>
rt_sem_release():
C:\Users\29275\Desktop\WchWorkSPace\camCoreWithRTOS\obj/../Libraries/rtthread_libraries/src/ipc.c:462
    }
    else
        sem->value ++; /* increase value */

    /* enable interrupt */
    rt_hw_interrupt_enable(temp);
    258a:	8526                	mv	a0,s1
    258c:	bbbfd0ef          	jal	ra,146 <rt_hw_interrupt_enable>
C:\Users\29275\Desktop\WchWorkSPace\camCoreWithRTOS\obj/../Libraries/rtthread_libraries/src/ipc.c:466

    /* resume a thread, re-schedule */
    if (need_schedule == RT_TRUE)
        rt_schedule();
    2590:	0b8010ef          	jal	ra,3648 <rt_schedule>
C:\Users\29275\Desktop\WchWorkSPace\camCoreWithRTOS\obj/../Libraries/rtthread_libraries/src/ipc.c:469

    return RT_EOK;
}
    2594:	4501                	li	a0,0
    2596:	40b2                	lw	ra,12(sp)
    2598:	4422                	lw	s0,8(sp)
    259a:	4492                	lw	s1,4(sp)
    259c:	0141                	addi	sp,sp,16
    259e:	8082                	ret
C:\Users\29275\Desktop\WchWorkSPace\camCoreWithRTOS\obj/../Libraries/rtthread_libraries/src/ipc.c:459
        sem->value ++; /* increase value */
    25a0:	01c45783          	lhu	a5,28(s0)
    25a4:	0785                	addi	a5,a5,1
    25a6:	00f41e23          	sh	a5,28(s0)
C:\Users\29275\Desktop\WchWorkSPace\camCoreWithRTOS\obj/../Libraries/rtthread_libraries/src/ipc.c:462
    rt_hw_interrupt_enable(temp);
    25aa:	8526                	mv	a0,s1
    25ac:	b9bfd0ef          	jal	ra,146 <rt_hw_interrupt_enable>
C:\Users\29275\Desktop\WchWorkSPace\camCoreWithRTOS\obj/../Libraries/rtthread_libraries/src/ipc.c:465
    if (need_schedule == RT_TRUE)
    25b0:	b7d5                	j	2594 <rt_sem_release+0x2a>

000025b2 <rt_mb_create>:
rt_mb_create():
C:\Users\29275\Desktop\WchWorkSPace\camCoreWithRTOS\obj/../Libraries/rtthread_libraries/src/ipc.c:1360
 * @param flag the flag of mailbox
 *
 * @return the created mailbox, RT_NULL on error happen
 */
rt_mailbox_t rt_mb_create(const char *name, rt_size_t size, rt_uint8_t flag)
{
    25b2:	1141                	addi	sp,sp,-16
    25b4:	c606                	sw	ra,12(sp)
    25b6:	c422                	sw	s0,8(sp)
    25b8:	c226                	sw	s1,4(sp)
    25ba:	c04a                	sw	s2,0(sp)
    25bc:	84ae                	mv	s1,a1
    25be:	8932                	mv	s2,a2
C:\Users\29275\Desktop\WchWorkSPace\camCoreWithRTOS\obj/../Libraries/rtthread_libraries/src/ipc.c:1366
    rt_mailbox_t mb;

    RT_DEBUG_NOT_IN_INTERRUPT;

    /* allocate object */
    mb = (rt_mailbox_t)rt_object_allocate(RT_Object_Class_MailBox, name);
    25c0:	85aa                	mv	a1,a0
    25c2:	4515                	li	a0,5
    25c4:	789000ef          	jal	ra,354c <rt_object_allocate>
    25c8:	842a                	mv	s0,a0
C:\Users\29275\Desktop\WchWorkSPace\camCoreWithRTOS\obj/../Libraries/rtthread_libraries/src/ipc.c:1367
    if (mb == RT_NULL)
    25ca:	c91d                	beqz	a0,2600 <rt_mb_create+0x4e>
C:\Users\29275\Desktop\WchWorkSPace\camCoreWithRTOS\obj/../Libraries/rtthread_libraries/src/ipc.c:1371
        return mb;

    /* set parent */
    mb->parent.parent.flag = flag;
    25cc:	012504a3          	sb	s2,9(a0)
rt_ipc_object_init():
C:\Users\29275\Desktop\WchWorkSPace\camCoreWithRTOS\obj/../Libraries/rtthread_libraries/src/ipc.c:62
    rt_list_init(&(ipc->suspend_thread));
    25d0:	01450793          	addi	a5,a0,20
rt_list_init():
C:\Users\29275\Desktop\WchWorkSPace\camCoreWithRTOS\Libraries\rtthread_libraries\include/rtservice.h:49
    l->next = l->prev = l;
    25d4:	cd1c                	sw	a5,24(a0)
    25d6:	c95c                	sw	a5,20(a0)
rt_mb_create():
C:\Users\29275\Desktop\WchWorkSPace\camCoreWithRTOS\obj/../Libraries/rtthread_libraries/src/ipc.c:1377

    /* init ipc object */
    rt_ipc_object_init(&(mb->parent));

    /* init mailbox */
    mb->size     = size;
    25d8:	02951023          	sh	s1,32(a0)
C:\Users\29275\Desktop\WchWorkSPace\camCoreWithRTOS\obj/../Libraries/rtthread_libraries/src/ipc.c:1378
    mb->msg_pool = RT_KERNEL_MALLOC(mb->size * sizeof(rt_uint32_t));
    25dc:	01049513          	slli	a0,s1,0x10
    25e0:	8141                	srli	a0,a0,0x10
    25e2:	050a                	slli	a0,a0,0x2
    25e4:	471000ef          	jal	ra,3254 <rt_malloc>
    25e8:	cc48                	sw	a0,28(s0)
C:\Users\29275\Desktop\WchWorkSPace\camCoreWithRTOS\obj/../Libraries/rtthread_libraries/src/ipc.c:1379
    if (mb->msg_pool == RT_NULL)
    25ea:	c115                	beqz	a0,260e <rt_mb_create+0x5c>
C:\Users\29275\Desktop\WchWorkSPace\camCoreWithRTOS\obj/../Libraries/rtthread_libraries/src/ipc.c:1386
        /* delete mailbox object */
        rt_object_delete(&(mb->parent.parent));

        return RT_NULL;
    }
    mb->entry      = 0;
    25ec:	02041123          	sh	zero,34(s0)
C:\Users\29275\Desktop\WchWorkSPace\camCoreWithRTOS\obj/../Libraries/rtthread_libraries/src/ipc.c:1387
    mb->in_offset  = 0;
    25f0:	02041223          	sh	zero,36(s0)
C:\Users\29275\Desktop\WchWorkSPace\camCoreWithRTOS\obj/../Libraries/rtthread_libraries/src/ipc.c:1388
    mb->out_offset = 0;
    25f4:	02041323          	sh	zero,38(s0)
C:\Users\29275\Desktop\WchWorkSPace\camCoreWithRTOS\obj/../Libraries/rtthread_libraries/src/ipc.c:1391

    /* init an additional list of sender suspend thread */
    rt_list_init(&(mb->suspend_sender_thread));
    25f8:	02840793          	addi	a5,s0,40
rt_list_init():
C:\Users\29275\Desktop\WchWorkSPace\camCoreWithRTOS\Libraries\rtthread_libraries\include/rtservice.h:49
    25fc:	d45c                	sw	a5,44(s0)
    25fe:	d41c                	sw	a5,40(s0)
rt_mb_create():
C:\Users\29275\Desktop\WchWorkSPace\camCoreWithRTOS\obj/../Libraries/rtthread_libraries/src/ipc.c:1394

    return mb;
}
    2600:	8522                	mv	a0,s0
    2602:	40b2                	lw	ra,12(sp)
    2604:	4422                	lw	s0,8(sp)
    2606:	4492                	lw	s1,4(sp)
    2608:	4902                	lw	s2,0(sp)
    260a:	0141                	addi	sp,sp,16
    260c:	8082                	ret
C:\Users\29275\Desktop\WchWorkSPace\camCoreWithRTOS\obj/../Libraries/rtthread_libraries/src/ipc.c:1382
        rt_object_delete(&(mb->parent.parent));
    260e:	8522                	mv	a0,s0
    2610:	7a1000ef          	jal	ra,35b0 <rt_object_delete>
C:\Users\29275\Desktop\WchWorkSPace\camCoreWithRTOS\obj/../Libraries/rtthread_libraries/src/ipc.c:1384
        return RT_NULL;
    2614:	4401                	li	s0,0
    2616:	b7ed                	j	2600 <rt_mb_create+0x4e>

00002618 <rt_mb_send_wait>:
rt_mb_send_wait():
C:\Users\29275\Desktop\WchWorkSPace\camCoreWithRTOS\obj/../Libraries/rtthread_libraries/src/ipc.c:1443
 * @return the error code
 */
rt_err_t rt_mb_send_wait(rt_mailbox_t mb,
                         rt_uint32_t  value,
                         rt_int32_t   timeout)
{
    2618:	7139                	addi	sp,sp,-64
    261a:	de06                	sw	ra,60(sp)
    261c:	dc22                	sw	s0,56(sp)
    261e:	da26                	sw	s1,52(sp)
    2620:	d84a                	sw	s2,48(sp)
    2622:	d64e                	sw	s3,44(sp)
    2624:	d452                	sw	s4,40(sp)
    2626:	d256                	sw	s5,36(sp)
    2628:	d05a                	sw	s6,32(sp)
    262a:	ce5e                	sw	s7,28(sp)
    262c:	cc62                	sw	s8,24(sp)
    262e:	ca66                	sw	s9,20(sp)
    2630:	842a                	mv	s0,a0
    2632:	8c2e                	mv	s8,a1
    2634:	c632                	sw	a2,12(sp)
C:\Users\29275\Desktop\WchWorkSPace\camCoreWithRTOS\obj/../Libraries/rtthread_libraries/src/ipc.c:1455
    RT_ASSERT(rt_object_get_type(&mb->parent.parent) == RT_Object_Class_MailBox);

    /* initialize delta tick */
    tick_delta = 0;
    /* get current thread */
    thread = rt_thread_self();
    2636:	2bc010ef          	jal	ra,38f2 <rt_thread_self>
    263a:	84aa                	mv	s1,a0
C:\Users\29275\Desktop\WchWorkSPace\camCoreWithRTOS\obj/../Libraries/rtthread_libraries/src/ipc.c:1460

    RT_OBJECT_HOOK_CALL(rt_object_put_hook, (&(mb->parent.parent)));

    /* disable interrupt */
    temp = rt_hw_interrupt_disable();
    263c:	b05fd0ef          	jal	ra,140 <rt_hw_interrupt_disable>
    2640:	89aa                	mv	s3,a0
C:\Users\29275\Desktop\WchWorkSPace\camCoreWithRTOS\obj/../Libraries/rtthread_libraries/src/ipc.c:1463

    /* for non-blocking call */
    if (mb->entry == mb->size && timeout == 0)
    2642:	02245703          	lhu	a4,34(s0)
    2646:	02045783          	lhu	a5,32(s0)
    264a:	04f70963          	beq	a4,a5,269c <rt_mb_send_wait+0x84>
C:\Users\29275\Desktop\WchWorkSPace\camCoreWithRTOS\obj/../Libraries/rtthread_libraries/src/ipc.c:1534
                timeout = 0;
        }
    }

    /* set ptr */
    mb->msg_pool[mb->in_offset] = value;
    264e:	02445703          	lhu	a4,36(s0)
    2652:	4c5c                	lw	a5,28(s0)
    2654:	070a                	slli	a4,a4,0x2
    2656:	97ba                	add	a5,a5,a4
    2658:	0187a023          	sw	s8,0(a5)
C:\Users\29275\Desktop\WchWorkSPace\camCoreWithRTOS\obj/../Libraries/rtthread_libraries/src/ipc.c:1536
    /* increase input offset */
    ++ mb->in_offset;
    265c:	02445783          	lhu	a5,36(s0)
    2660:	0785                	addi	a5,a5,1
    2662:	07c2                	slli	a5,a5,0x10
    2664:	83c1                	srli	a5,a5,0x10
    2666:	02f41223          	sh	a5,36(s0)
C:\Users\29275\Desktop\WchWorkSPace\camCoreWithRTOS\obj/../Libraries/rtthread_libraries/src/ipc.c:1537
    if (mb->in_offset >= mb->size)
    266a:	02045703          	lhu	a4,32(s0)
    266e:	00e7e463          	bltu	a5,a4,2676 <rt_mb_send_wait+0x5e>
C:\Users\29275\Desktop\WchWorkSPace\camCoreWithRTOS\obj/../Libraries/rtthread_libraries/src/ipc.c:1538
        mb->in_offset = 0;
    2672:	02041223          	sh	zero,36(s0)
C:\Users\29275\Desktop\WchWorkSPace\camCoreWithRTOS\obj/../Libraries/rtthread_libraries/src/ipc.c:1540
    /* increase message entry */
    mb->entry ++;
    2676:	02245783          	lhu	a5,34(s0)
    267a:	0785                	addi	a5,a5,1
    267c:	02f41123          	sh	a5,34(s0)
rt_list_isempty():
C:\Users\29275\Desktop\WchWorkSPace\camCoreWithRTOS\Libraries\rtthread_libraries\include/rtservice.h:100
    return l->next == l;
    2680:	4848                	lw	a0,20(s0)
rt_mb_send_wait():
C:\Users\29275\Desktop\WchWorkSPace\camCoreWithRTOS\obj/../Libraries/rtthread_libraries/src/ipc.c:1543

    /* resume suspended thread */
    if (!rt_list_isempty(&mb->parent.suspend_thread))
    2682:	0451                	addi	s0,s0,20
    2684:	12850763          	beq	a0,s0,27b2 <rt_mb_send_wait+0x19a>
rt_ipc_list_resume():
C:\Users\29275\Desktop\WchWorkSPace\camCoreWithRTOS\obj/../Libraries/rtthread_libraries/src/ipc.c:142
    rt_thread_resume(thread);
    2688:	1531                	addi	a0,a0,-20
    268a:	43a010ef          	jal	ra,3ac4 <rt_thread_resume>
rt_mb_send_wait():
C:\Users\29275\Desktop\WchWorkSPace\camCoreWithRTOS\obj/../Libraries/rtthread_libraries/src/ipc.c:1548
    {
        rt_ipc_list_resume(&(mb->parent.suspend_thread));

        /* enable interrupt */
        rt_hw_interrupt_enable(temp);
    268e:	854e                	mv	a0,s3
    2690:	ab7fd0ef          	jal	ra,146 <rt_hw_interrupt_enable>
C:\Users\29275\Desktop\WchWorkSPace\camCoreWithRTOS\obj/../Libraries/rtthread_libraries/src/ipc.c:1550

        rt_schedule();
    2694:	7b5000ef          	jal	ra,3648 <rt_schedule>
C:\Users\29275\Desktop\WchWorkSPace\camCoreWithRTOS\obj/../Libraries/rtthread_libraries/src/ipc.c:1552

        return RT_EOK;
    2698:	4501                	li	a0,0
    269a:	a025                	j	26c2 <rt_mb_send_wait+0xaa>
C:\Users\29275\Desktop\WchWorkSPace\camCoreWithRTOS\obj/../Libraries/rtthread_libraries/src/ipc.c:1463 (discriminator 1)
    if (mb->entry == mb->size && timeout == 0)
    269c:	47b2                	lw	a5,12(sp)
    269e:	4c81                	li	s9,0
    26a0:	cb89                	beqz	a5,26b2 <rt_mb_send_wait+0x9a>
C:\Users\29275\Desktop\WchWorkSPace\camCoreWithRTOS\obj/../Libraries/rtthread_libraries/src/ipc.c:1487
        rt_ipc_list_suspend(&(mb->suspend_sender_thread),
    26a2:	02840a13          	addi	s4,s0,40
rt_ipc_list_suspend():
C:\Users\29275\Desktop\WchWorkSPace\camCoreWithRTOS\obj/../Libraries/rtthread_libraries/src/ipc.c:88
        rt_list_insert_before(list, &(thread->tlist));
    26a6:	01448a93          	addi	s5,s1,20
    26aa:	4b05                	li	s6,1
rt_mb_send_wait():
C:\Users\29275\Desktop\WchWorkSPace\camCoreWithRTOS\obj/../Libraries/rtthread_libraries/src/ipc.c:1501
            rt_timer_control(&(thread->thread_timer),
    26ac:	04448b93          	addi	s7,s1,68
    26b0:	a8b9                	j	270e <rt_mb_send_wait+0xf6>
C:\Users\29275\Desktop\WchWorkSPace\camCoreWithRTOS\obj/../Libraries/rtthread_libraries/src/ipc.c:1465
        rt_hw_interrupt_enable(temp);
    26b2:	a95fd0ef          	jal	ra,146 <rt_hw_interrupt_enable>
C:\Users\29275\Desktop\WchWorkSPace\camCoreWithRTOS\obj/../Libraries/rtthread_libraries/src/ipc.c:1467
        return -RT_EFULL;
    26b6:	5575                	li	a0,-3
    26b8:	a029                	j	26c2 <rt_mb_send_wait+0xaa>
C:\Users\29275\Desktop\WchWorkSPace\camCoreWithRTOS\obj/../Libraries/rtthread_libraries/src/ipc.c:1480
            rt_hw_interrupt_enable(temp);
    26ba:	854e                	mv	a0,s3
    26bc:	a8bfd0ef          	jal	ra,146 <rt_hw_interrupt_enable>
C:\Users\29275\Desktop\WchWorkSPace\camCoreWithRTOS\obj/../Libraries/rtthread_libraries/src/ipc.c:1482
            return -RT_EFULL;
    26c0:	5575                	li	a0,-3
C:\Users\29275\Desktop\WchWorkSPace\camCoreWithRTOS\obj/../Libraries/rtthread_libraries/src/ipc.c:1559

    /* enable interrupt */
    rt_hw_interrupt_enable(temp);

    return RT_EOK;
}
    26c2:	50f2                	lw	ra,60(sp)
    26c4:	5462                	lw	s0,56(sp)
    26c6:	54d2                	lw	s1,52(sp)
    26c8:	5942                	lw	s2,48(sp)
    26ca:	59b2                	lw	s3,44(sp)
    26cc:	5a22                	lw	s4,40(sp)
    26ce:	5a92                	lw	s5,36(sp)
    26d0:	5b02                	lw	s6,32(sp)
    26d2:	4bf2                	lw	s7,28(sp)
    26d4:	4c62                	lw	s8,24(sp)
    26d6:	4cd2                	lw	s9,20(sp)
    26d8:	6121                	addi	sp,sp,64
    26da:	8082                	ret
rt_list_insert_before():
C:\Users\29275\Desktop\WchWorkSPace\camCoreWithRTOS\Libraries\rtthread_libraries\include/rtservice.h:75
    l->prev->next = n;
    26dc:	545c                	lw	a5,44(s0)
    26de:	0157a023          	sw	s5,0(a5)
C:\Users\29275\Desktop\WchWorkSPace\camCoreWithRTOS\Libraries\rtthread_libraries\include/rtservice.h:76
    n->prev = l->prev;
    26e2:	545c                	lw	a5,44(s0)
    26e4:	cc9c                	sw	a5,24(s1)
C:\Users\29275\Desktop\WchWorkSPace\camCoreWithRTOS\Libraries\rtthread_libraries\include/rtservice.h:78
    l->prev = n;
    26e6:	03542623          	sw	s5,44(s0)
C:\Users\29275\Desktop\WchWorkSPace\camCoreWithRTOS\Libraries\rtthread_libraries\include/rtservice.h:79
    n->next = l;
    26ea:	0144aa23          	sw	s4,20(s1)
rt_mb_send_wait():
C:\Users\29275\Desktop\WchWorkSPace\camCoreWithRTOS\obj/../Libraries/rtthread_libraries/src/ipc.c:1492
        if (timeout > 0)
    26ee:	47b2                	lw	a5,12(sp)
    26f0:	08f04563          	bgtz	a5,277a <rt_mb_send_wait+0x162>
C:\Users\29275\Desktop\WchWorkSPace\camCoreWithRTOS\obj/../Libraries/rtthread_libraries/src/ipc.c:1508
        rt_hw_interrupt_enable(temp);
    26f4:	854e                	mv	a0,s3
    26f6:	a51fd0ef          	jal	ra,146 <rt_hw_interrupt_enable>
C:\Users\29275\Desktop\WchWorkSPace\camCoreWithRTOS\obj/../Libraries/rtthread_libraries/src/ipc.c:1511
        rt_schedule();
    26fa:	74f000ef          	jal	ra,3648 <rt_schedule>
C:\Users\29275\Desktop\WchWorkSPace\camCoreWithRTOS\obj/../Libraries/rtthread_libraries/src/ipc.c:1514
        if (thread->error != RT_EOK)
    26fe:	5888                	lw	a0,48(s1)
    2700:	f169                	bnez	a0,26c2 <rt_mb_send_wait+0xaa>
C:\Users\29275\Desktop\WchWorkSPace\camCoreWithRTOS\obj/../Libraries/rtthread_libraries/src/ipc.c:1521
        temp = rt_hw_interrupt_disable();
    2702:	a3ffd0ef          	jal	ra,140 <rt_hw_interrupt_disable>
    2706:	89aa                	mv	s3,a0
C:\Users\29275\Desktop\WchWorkSPace\camCoreWithRTOS\obj/../Libraries/rtthread_libraries/src/ipc.c:1524
        if (timeout > 0)
    2708:	47b2                	lw	a5,12(sp)
    270a:	08f04463          	bgtz	a5,2792 <rt_mb_send_wait+0x17a>
C:\Users\29275\Desktop\WchWorkSPace\camCoreWithRTOS\obj/../Libraries/rtthread_libraries/src/ipc.c:1471
    while (mb->entry == mb->size)
    270e:	02245703          	lhu	a4,34(s0)
    2712:	02045783          	lhu	a5,32(s0)
    2716:	f2f71ce3          	bne	a4,a5,264e <rt_mb_send_wait+0x36>
C:\Users\29275\Desktop\WchWorkSPace\camCoreWithRTOS\obj/../Libraries/rtthread_libraries/src/ipc.c:1474
        thread->error = RT_EOK;
    271a:	0204a823          	sw	zero,48(s1)
C:\Users\29275\Desktop\WchWorkSPace\camCoreWithRTOS\obj/../Libraries/rtthread_libraries/src/ipc.c:1477
        if (timeout == 0)
    271e:	47b2                	lw	a5,12(sp)
    2720:	dfc9                	beqz	a5,26ba <rt_mb_send_wait+0xa2>
C:\Users\29275\Desktop\WchWorkSPace\camCoreWithRTOS\obj/../Libraries/rtthread_libraries/src/ipc.c:1487
        rt_ipc_list_suspend(&(mb->suspend_sender_thread),
    2722:	00944903          	lbu	s2,9(s0)
rt_ipc_list_suspend():
C:\Users\29275\Desktop\WchWorkSPace\camCoreWithRTOS\obj/../Libraries/rtthread_libraries/src/ipc.c:83
    rt_thread_suspend(thread);
    2726:	8526                	mv	a0,s1
    2728:	2ec010ef          	jal	ra,3a14 <rt_thread_suspend>
C:\Users\29275\Desktop\WchWorkSPace\camCoreWithRTOS\obj/../Libraries/rtthread_libraries/src/ipc.c:85
    switch (flag)
    272c:	fa0908e3          	beqz	s2,26dc <rt_mb_send_wait+0xc4>
    2730:	fb691fe3          	bne	s2,s6,26ee <rt_mb_send_wait+0xd6>
C:\Users\29275\Desktop\WchWorkSPace\camCoreWithRTOS\obj/../Libraries/rtthread_libraries/src/ipc.c:97
            for (n = list->next; n != list; n = n->next)
    2734:	541c                	lw	a5,40(s0)
    2736:	02fa0863          	beq	s4,a5,2766 <rt_mb_send_wait+0x14e>
C:\Users\29275\Desktop\WchWorkSPace\camCoreWithRTOS\obj/../Libraries/rtthread_libraries/src/ipc.c:102
                if (thread->current_priority < sthread->current_priority)
    273a:	0354c683          	lbu	a3,53(s1)
    273e:	0217c703          	lbu	a4,33(a5)
    2742:	00e6e963          	bltu	a3,a4,2754 <rt_mb_send_wait+0x13c>
C:\Users\29275\Desktop\WchWorkSPace\camCoreWithRTOS\obj/../Libraries/rtthread_libraries/src/ipc.c:97
            for (n = list->next; n != list; n = n->next)
    2746:	439c                	lw	a5,0(a5)
    2748:	00fa0f63          	beq	s4,a5,2766 <rt_mb_send_wait+0x14e>
C:\Users\29275\Desktop\WchWorkSPace\camCoreWithRTOS\obj/../Libraries/rtthread_libraries/src/ipc.c:102
                if (thread->current_priority < sthread->current_priority)
    274c:	0217c703          	lbu	a4,33(a5)
    2750:	fee6fbe3          	bgeu	a3,a4,2746 <rt_mb_send_wait+0x12e>
rt_list_insert_before():
C:\Users\29275\Desktop\WchWorkSPace\camCoreWithRTOS\Libraries\rtthread_libraries\include/rtservice.h:75
    l->prev->next = n;
    2754:	43d8                	lw	a4,4(a5)
    2756:	01572023          	sw	s5,0(a4)
C:\Users\29275\Desktop\WchWorkSPace\camCoreWithRTOS\Libraries\rtthread_libraries\include/rtservice.h:76
    n->prev = l->prev;
    275a:	43d8                	lw	a4,4(a5)
    275c:	cc98                	sw	a4,24(s1)
C:\Users\29275\Desktop\WchWorkSPace\camCoreWithRTOS\Libraries\rtthread_libraries\include/rtservice.h:78
    l->prev = n;
    275e:	0157a223          	sw	s5,4(a5)
C:\Users\29275\Desktop\WchWorkSPace\camCoreWithRTOS\Libraries\rtthread_libraries\include/rtservice.h:79
    n->next = l;
    2762:	c8dc                	sw	a5,20(s1)
rt_ipc_list_suspend():
C:\Users\29275\Desktop\WchWorkSPace\camCoreWithRTOS\obj/../Libraries/rtthread_libraries/src/ipc.c:114
            if (n == list)
    2764:	b769                	j	26ee <rt_mb_send_wait+0xd6>
rt_list_insert_before():
C:\Users\29275\Desktop\WchWorkSPace\camCoreWithRTOS\Libraries\rtthread_libraries\include/rtservice.h:75
    l->prev->next = n;
    2766:	545c                	lw	a5,44(s0)
    2768:	0157a023          	sw	s5,0(a5)
C:\Users\29275\Desktop\WchWorkSPace\camCoreWithRTOS\Libraries\rtthread_libraries\include/rtservice.h:76
    n->prev = l->prev;
    276c:	545c                	lw	a5,44(s0)
    276e:	cc9c                	sw	a5,24(s1)
C:\Users\29275\Desktop\WchWorkSPace\camCoreWithRTOS\Libraries\rtthread_libraries\include/rtservice.h:78
    l->prev = n;
    2770:	03542623          	sw	s5,44(s0)
C:\Users\29275\Desktop\WchWorkSPace\camCoreWithRTOS\Libraries\rtthread_libraries\include/rtservice.h:79
    n->next = l;
    2774:	0144aa23          	sw	s4,20(s1)
    2778:	bf9d                	j	26ee <rt_mb_send_wait+0xd6>
rt_mb_send_wait():
C:\Users\29275\Desktop\WchWorkSPace\camCoreWithRTOS\obj/../Libraries/rtthread_libraries/src/ipc.c:1495
            tick_delta = rt_tick_get();
    277a:	a75ff0ef          	jal	ra,21ee <rt_tick_get>
    277e:	8caa                	mv	s9,a0
C:\Users\29275\Desktop\WchWorkSPace\camCoreWithRTOS\obj/../Libraries/rtthread_libraries/src/ipc.c:1501
            rt_timer_control(&(thread->thread_timer),
    2780:	0070                	addi	a2,sp,12
    2782:	4581                	li	a1,0
    2784:	855e                	mv	a0,s7
    2786:	564010ef          	jal	ra,3cea <rt_timer_control>
C:\Users\29275\Desktop\WchWorkSPace\camCoreWithRTOS\obj/../Libraries/rtthread_libraries/src/ipc.c:1504
            rt_timer_start(&(thread->thread_timer));
    278a:	855e                	mv	a0,s7
    278c:	480010ef          	jal	ra,3c0c <rt_timer_start>
    2790:	b795                	j	26f4 <rt_mb_send_wait+0xdc>
C:\Users\29275\Desktop\WchWorkSPace\camCoreWithRTOS\obj/../Libraries/rtthread_libraries/src/ipc.c:1526
            tick_delta = rt_tick_get() - tick_delta;
    2792:	a5dff0ef          	jal	ra,21ee <rt_tick_get>
    2796:	41950733          	sub	a4,a0,s9
C:\Users\29275\Desktop\WchWorkSPace\camCoreWithRTOS\obj/../Libraries/rtthread_libraries/src/ipc.c:1527
            timeout -= tick_delta;
    279a:	47b2                	lw	a5,12(sp)
    279c:	97e6                	add	a5,a5,s9
    279e:	40a78533          	sub	a0,a5,a0
C:\Users\29275\Desktop\WchWorkSPace\camCoreWithRTOS\obj/../Libraries/rtthread_libraries/src/ipc.c:1528
            if (timeout < 0)
    27a2:	00054563          	bltz	a0,27ac <rt_mb_send_wait+0x194>
C:\Users\29275\Desktop\WchWorkSPace\camCoreWithRTOS\obj/../Libraries/rtthread_libraries/src/ipc.c:1527
            timeout -= tick_delta;
    27a6:	c62a                	sw	a0,12(sp)
C:\Users\29275\Desktop\WchWorkSPace\camCoreWithRTOS\obj/../Libraries/rtthread_libraries/src/ipc.c:1526
            tick_delta = rt_tick_get() - tick_delta;
    27a8:	8cba                	mv	s9,a4
    27aa:	b795                	j	270e <rt_mb_send_wait+0xf6>
C:\Users\29275\Desktop\WchWorkSPace\camCoreWithRTOS\obj/../Libraries/rtthread_libraries/src/ipc.c:1529
                timeout = 0;
    27ac:	c602                	sw	zero,12(sp)
C:\Users\29275\Desktop\WchWorkSPace\camCoreWithRTOS\obj/../Libraries/rtthread_libraries/src/ipc.c:1526
            tick_delta = rt_tick_get() - tick_delta;
    27ae:	8cba                	mv	s9,a4
    27b0:	bfb9                	j	270e <rt_mb_send_wait+0xf6>
C:\Users\29275\Desktop\WchWorkSPace\camCoreWithRTOS\obj/../Libraries/rtthread_libraries/src/ipc.c:1556
    rt_hw_interrupt_enable(temp);
    27b2:	854e                	mv	a0,s3
    27b4:	993fd0ef          	jal	ra,146 <rt_hw_interrupt_enable>
C:\Users\29275\Desktop\WchWorkSPace\camCoreWithRTOS\obj/../Libraries/rtthread_libraries/src/ipc.c:1558
    return RT_EOK;
    27b8:	4501                	li	a0,0
    27ba:	b721                	j	26c2 <rt_mb_send_wait+0xaa>

000027bc <rt_mb_send>:
rt_mb_send():
C:\Users\29275\Desktop\WchWorkSPace\camCoreWithRTOS\obj/../Libraries/rtthread_libraries/src/ipc.c:1573
 * @param value the mail
 *
 * @return the error code
 */
rt_err_t rt_mb_send(rt_mailbox_t mb, rt_uint32_t value)
{
    27bc:	1141                	addi	sp,sp,-16
    27be:	c606                	sw	ra,12(sp)
C:\Users\29275\Desktop\WchWorkSPace\camCoreWithRTOS\obj/../Libraries/rtthread_libraries/src/ipc.c:1574
    return rt_mb_send_wait(mb, value, 0);
    27c0:	4601                	li	a2,0
    27c2:	3d99                	jal	2618 <rt_mb_send_wait>
C:\Users\29275\Desktop\WchWorkSPace\camCoreWithRTOS\obj/../Libraries/rtthread_libraries/src/ipc.c:1575
}
    27c4:	40b2                	lw	ra,12(sp)
    27c6:	0141                	addi	sp,sp,16
    27c8:	8082                	ret

000027ca <rt_mb_recv>:
rt_mb_recv():
C:\Users\29275\Desktop\WchWorkSPace\camCoreWithRTOS\obj/../Libraries/rtthread_libraries/src/ipc.c:1589
 * @param timeout the waiting time
 *
 * @return the error code
 */
rt_err_t rt_mb_recv(rt_mailbox_t mb, rt_uint32_t *value, rt_int32_t timeout)
{
    27ca:	7139                	addi	sp,sp,-64
    27cc:	de06                	sw	ra,60(sp)
    27ce:	dc22                	sw	s0,56(sp)
    27d0:	da26                	sw	s1,52(sp)
    27d2:	d84a                	sw	s2,48(sp)
    27d4:	d64e                	sw	s3,44(sp)
    27d6:	d452                	sw	s4,40(sp)
    27d8:	d256                	sw	s5,36(sp)
    27da:	d05a                	sw	s6,32(sp)
    27dc:	ce5e                	sw	s7,28(sp)
    27de:	cc62                	sw	s8,24(sp)
    27e0:	ca66                	sw	s9,20(sp)
    27e2:	84aa                	mv	s1,a0
    27e4:	8c2e                	mv	s8,a1
    27e6:	c632                	sw	a2,12(sp)
C:\Users\29275\Desktop\WchWorkSPace\camCoreWithRTOS\obj/../Libraries/rtthread_libraries/src/ipc.c:1601
    RT_ASSERT(rt_object_get_type(&mb->parent.parent) == RT_Object_Class_MailBox);

    /* initialize delta tick */
    tick_delta = 0;
    /* get current thread */
    thread = rt_thread_self();
    27e8:	10a010ef          	jal	ra,38f2 <rt_thread_self>
    27ec:	842a                	mv	s0,a0
C:\Users\29275\Desktop\WchWorkSPace\camCoreWithRTOS\obj/../Libraries/rtthread_libraries/src/ipc.c:1606

    RT_OBJECT_HOOK_CALL(rt_object_trytake_hook, (&(mb->parent.parent)));

    /* disable interrupt */
    temp = rt_hw_interrupt_disable();
    27ee:	953fd0ef          	jal	ra,140 <rt_hw_interrupt_disable>
    27f2:	89aa                	mv	s3,a0
C:\Users\29275\Desktop\WchWorkSPace\camCoreWithRTOS\obj/../Libraries/rtthread_libraries/src/ipc.c:1609

    /* for non-blocking call */
    if (mb->entry == 0 && timeout == 0)
    27f4:	0224d783          	lhu	a5,34(s1)
    27f8:	10079c63          	bnez	a5,2910 <rt_mb_recv+0x146>
C:\Users\29275\Desktop\WchWorkSPace\camCoreWithRTOS\obj/../Libraries/rtthread_libraries/src/ipc.c:1609 (discriminator 1)
    27fc:	47b2                	lw	a5,12(sp)
    27fe:	4c81                	li	s9,0
    2800:	cb89                	beqz	a5,2812 <rt_mb_recv+0x48>
C:\Users\29275\Desktop\WchWorkSPace\camCoreWithRTOS\obj/../Libraries/rtthread_libraries/src/ipc.c:1635
            return -RT_ETIMEOUT;
        }

        RT_DEBUG_IN_THREAD_CONTEXT;
        /* suspend current thread */
        rt_ipc_list_suspend(&(mb->parent.suspend_thread),
    2802:	01448a13          	addi	s4,s1,20
rt_ipc_list_suspend():
C:\Users\29275\Desktop\WchWorkSPace\camCoreWithRTOS\obj/../Libraries/rtthread_libraries/src/ipc.c:88
        rt_list_insert_before(list, &(thread->tlist));
    2806:	01440a93          	addi	s5,s0,20
    280a:	4b05                	li	s6,1
rt_mb_recv():
C:\Users\29275\Desktop\WchWorkSPace\camCoreWithRTOS\obj/../Libraries/rtthread_libraries/src/ipc.c:1649

            RT_DEBUG_LOG(RT_DEBUG_IPC, ("mb_recv: start timer of thread:%s\n",
                                        thread->name));

            /* reset the timeout of thread timer and start it */
            rt_timer_control(&(thread->thread_timer),
    280c:	04440b93          	addi	s7,s0,68
    2810:	a08d                	j	2872 <rt_mb_recv+0xa8>
C:\Users\29275\Desktop\WchWorkSPace\camCoreWithRTOS\obj/../Libraries/rtthread_libraries/src/ipc.c:1611
        rt_hw_interrupt_enable(temp);
    2812:	935fd0ef          	jal	ra,146 <rt_hw_interrupt_enable>
C:\Users\29275\Desktop\WchWorkSPace\camCoreWithRTOS\obj/../Libraries/rtthread_libraries/src/ipc.c:1613
        return -RT_ETIMEOUT;
    2816:	5579                	li	a0,-2
    2818:	a039                	j	2826 <rt_mb_recv+0x5c>
C:\Users\29275\Desktop\WchWorkSPace\camCoreWithRTOS\obj/../Libraries/rtthread_libraries/src/ipc.c:1626
            rt_hw_interrupt_enable(temp);
    281a:	854e                	mv	a0,s3
    281c:	92bfd0ef          	jal	ra,146 <rt_hw_interrupt_enable>
C:\Users\29275\Desktop\WchWorkSPace\camCoreWithRTOS\obj/../Libraries/rtthread_libraries/src/ipc.c:1628
            thread->error = -RT_ETIMEOUT;
    2820:	57f9                	li	a5,-2
    2822:	d81c                	sw	a5,48(s0)
C:\Users\29275\Desktop\WchWorkSPace\camCoreWithRTOS\obj/../Libraries/rtthread_libraries/src/ipc.c:1630
            return -RT_ETIMEOUT;
    2824:	5579                	li	a0,-2
C:\Users\29275\Desktop\WchWorkSPace\camCoreWithRTOS\obj/../Libraries/rtthread_libraries/src/ipc.c:1712
    rt_hw_interrupt_enable(temp);

    RT_OBJECT_HOOK_CALL(rt_object_take_hook, (&(mb->parent.parent)));

    return RT_EOK;
}
    2826:	50f2                	lw	ra,60(sp)
    2828:	5462                	lw	s0,56(sp)
    282a:	54d2                	lw	s1,52(sp)
    282c:	5942                	lw	s2,48(sp)
    282e:	59b2                	lw	s3,44(sp)
    2830:	5a22                	lw	s4,40(sp)
    2832:	5a92                	lw	s5,36(sp)
    2834:	5b02                	lw	s6,32(sp)
    2836:	4bf2                	lw	s7,28(sp)
    2838:	4c62                	lw	s8,24(sp)
    283a:	4cd2                	lw	s9,20(sp)
    283c:	6121                	addi	sp,sp,64
    283e:	8082                	ret
rt_list_insert_before():
C:\Users\29275\Desktop\WchWorkSPace\camCoreWithRTOS\Libraries\rtthread_libraries\include/rtservice.h:75
    l->prev->next = n;
    2840:	4c9c                	lw	a5,24(s1)
    2842:	0157a023          	sw	s5,0(a5)
C:\Users\29275\Desktop\WchWorkSPace\camCoreWithRTOS\Libraries\rtthread_libraries\include/rtservice.h:76
    n->prev = l->prev;
    2846:	4c9c                	lw	a5,24(s1)
    2848:	cc1c                	sw	a5,24(s0)
C:\Users\29275\Desktop\WchWorkSPace\camCoreWithRTOS\Libraries\rtthread_libraries\include/rtservice.h:78
    l->prev = n;
    284a:	0154ac23          	sw	s5,24(s1)
C:\Users\29275\Desktop\WchWorkSPace\camCoreWithRTOS\Libraries\rtthread_libraries\include/rtservice.h:79
    n->next = l;
    284e:	01442a23          	sw	s4,20(s0)
rt_mb_recv():
C:\Users\29275\Desktop\WchWorkSPace\camCoreWithRTOS\obj/../Libraries/rtthread_libraries/src/ipc.c:1640
        if (timeout > 0)
    2852:	47b2                	lw	a5,12(sp)
    2854:	08f04263          	bgtz	a5,28d8 <rt_mb_recv+0x10e>
C:\Users\29275\Desktop\WchWorkSPace\camCoreWithRTOS\obj/../Libraries/rtthread_libraries/src/ipc.c:1656
        rt_hw_interrupt_enable(temp);
    2858:	854e                	mv	a0,s3
    285a:	8edfd0ef          	jal	ra,146 <rt_hw_interrupt_enable>
C:\Users\29275\Desktop\WchWorkSPace\camCoreWithRTOS\obj/../Libraries/rtthread_libraries/src/ipc.c:1659
        rt_schedule();
    285e:	5eb000ef          	jal	ra,3648 <rt_schedule>
C:\Users\29275\Desktop\WchWorkSPace\camCoreWithRTOS\obj/../Libraries/rtthread_libraries/src/ipc.c:1662
        if (thread->error != RT_EOK)
    2862:	5808                	lw	a0,48(s0)
    2864:	f169                	bnez	a0,2826 <rt_mb_recv+0x5c>
C:\Users\29275\Desktop\WchWorkSPace\camCoreWithRTOS\obj/../Libraries/rtthread_libraries/src/ipc.c:1669
        temp = rt_hw_interrupt_disable();
    2866:	8dbfd0ef          	jal	ra,140 <rt_hw_interrupt_disable>
    286a:	89aa                	mv	s3,a0
C:\Users\29275\Desktop\WchWorkSPace\camCoreWithRTOS\obj/../Libraries/rtthread_libraries/src/ipc.c:1672
        if (timeout > 0)
    286c:	47b2                	lw	a5,12(sp)
    286e:	08f04163          	bgtz	a5,28f0 <rt_mb_recv+0x126>
C:\Users\29275\Desktop\WchWorkSPace\camCoreWithRTOS\obj/../Libraries/rtthread_libraries/src/ipc.c:1617
    while (mb->entry == 0)
    2872:	0224d783          	lhu	a5,34(s1)
    2876:	efc9                	bnez	a5,2910 <rt_mb_recv+0x146>
C:\Users\29275\Desktop\WchWorkSPace\camCoreWithRTOS\obj/../Libraries/rtthread_libraries/src/ipc.c:1620
        thread->error = RT_EOK;
    2878:	02042823          	sw	zero,48(s0)
C:\Users\29275\Desktop\WchWorkSPace\camCoreWithRTOS\obj/../Libraries/rtthread_libraries/src/ipc.c:1623
        if (timeout == 0)
    287c:	47b2                	lw	a5,12(sp)
    287e:	dfd1                	beqz	a5,281a <rt_mb_recv+0x50>
C:\Users\29275\Desktop\WchWorkSPace\camCoreWithRTOS\obj/../Libraries/rtthread_libraries/src/ipc.c:1635
        rt_ipc_list_suspend(&(mb->parent.suspend_thread),
    2880:	0094c903          	lbu	s2,9(s1)
rt_ipc_list_suspend():
C:\Users\29275\Desktop\WchWorkSPace\camCoreWithRTOS\obj/../Libraries/rtthread_libraries/src/ipc.c:83
    rt_thread_suspend(thread);
    2884:	8522                	mv	a0,s0
    2886:	18e010ef          	jal	ra,3a14 <rt_thread_suspend>
C:\Users\29275\Desktop\WchWorkSPace\camCoreWithRTOS\obj/../Libraries/rtthread_libraries/src/ipc.c:85
    switch (flag)
    288a:	fa090be3          	beqz	s2,2840 <rt_mb_recv+0x76>
    288e:	fd6912e3          	bne	s2,s6,2852 <rt_mb_recv+0x88>
C:\Users\29275\Desktop\WchWorkSPace\camCoreWithRTOS\obj/../Libraries/rtthread_libraries/src/ipc.c:97
            for (n = list->next; n != list; n = n->next)
    2892:	48dc                	lw	a5,20(s1)
    2894:	02fa0863          	beq	s4,a5,28c4 <rt_mb_recv+0xfa>
C:\Users\29275\Desktop\WchWorkSPace\camCoreWithRTOS\obj/../Libraries/rtthread_libraries/src/ipc.c:102
                if (thread->current_priority < sthread->current_priority)
    2898:	03544683          	lbu	a3,53(s0)
    289c:	0217c703          	lbu	a4,33(a5)
    28a0:	00e6e963          	bltu	a3,a4,28b2 <rt_mb_recv+0xe8>
C:\Users\29275\Desktop\WchWorkSPace\camCoreWithRTOS\obj/../Libraries/rtthread_libraries/src/ipc.c:97
            for (n = list->next; n != list; n = n->next)
    28a4:	439c                	lw	a5,0(a5)
    28a6:	00fa0f63          	beq	s4,a5,28c4 <rt_mb_recv+0xfa>
C:\Users\29275\Desktop\WchWorkSPace\camCoreWithRTOS\obj/../Libraries/rtthread_libraries/src/ipc.c:102
                if (thread->current_priority < sthread->current_priority)
    28aa:	0217c703          	lbu	a4,33(a5)
    28ae:	fee6fbe3          	bgeu	a3,a4,28a4 <rt_mb_recv+0xda>
rt_list_insert_before():
C:\Users\29275\Desktop\WchWorkSPace\camCoreWithRTOS\Libraries\rtthread_libraries\include/rtservice.h:75
    l->prev->next = n;
    28b2:	43d8                	lw	a4,4(a5)
    28b4:	01572023          	sw	s5,0(a4)
C:\Users\29275\Desktop\WchWorkSPace\camCoreWithRTOS\Libraries\rtthread_libraries\include/rtservice.h:76
    n->prev = l->prev;
    28b8:	43d8                	lw	a4,4(a5)
    28ba:	cc18                	sw	a4,24(s0)
C:\Users\29275\Desktop\WchWorkSPace\camCoreWithRTOS\Libraries\rtthread_libraries\include/rtservice.h:78
    l->prev = n;
    28bc:	0157a223          	sw	s5,4(a5)
C:\Users\29275\Desktop\WchWorkSPace\camCoreWithRTOS\Libraries\rtthread_libraries\include/rtservice.h:79
    n->next = l;
    28c0:	c85c                	sw	a5,20(s0)
rt_ipc_list_suspend():
C:\Users\29275\Desktop\WchWorkSPace\camCoreWithRTOS\obj/../Libraries/rtthread_libraries/src/ipc.c:114
            if (n == list)
    28c2:	bf41                	j	2852 <rt_mb_recv+0x88>
rt_list_insert_before():
C:\Users\29275\Desktop\WchWorkSPace\camCoreWithRTOS\Libraries\rtthread_libraries\include/rtservice.h:75
    l->prev->next = n;
    28c4:	4c9c                	lw	a5,24(s1)
    28c6:	0157a023          	sw	s5,0(a5)
C:\Users\29275\Desktop\WchWorkSPace\camCoreWithRTOS\Libraries\rtthread_libraries\include/rtservice.h:76
    n->prev = l->prev;
    28ca:	4c9c                	lw	a5,24(s1)
    28cc:	cc1c                	sw	a5,24(s0)
C:\Users\29275\Desktop\WchWorkSPace\camCoreWithRTOS\Libraries\rtthread_libraries\include/rtservice.h:78
    l->prev = n;
    28ce:	0154ac23          	sw	s5,24(s1)
C:\Users\29275\Desktop\WchWorkSPace\camCoreWithRTOS\Libraries\rtthread_libraries\include/rtservice.h:79
    n->next = l;
    28d2:	01442a23          	sw	s4,20(s0)
    28d6:	bfb5                	j	2852 <rt_mb_recv+0x88>
rt_mb_recv():
C:\Users\29275\Desktop\WchWorkSPace\camCoreWithRTOS\obj/../Libraries/rtthread_libraries/src/ipc.c:1643
            tick_delta = rt_tick_get();
    28d8:	917ff0ef          	jal	ra,21ee <rt_tick_get>
    28dc:	8caa                	mv	s9,a0
C:\Users\29275\Desktop\WchWorkSPace\camCoreWithRTOS\obj/../Libraries/rtthread_libraries/src/ipc.c:1649
            rt_timer_control(&(thread->thread_timer),
    28de:	0070                	addi	a2,sp,12
    28e0:	4581                	li	a1,0
    28e2:	855e                	mv	a0,s7
    28e4:	406010ef          	jal	ra,3cea <rt_timer_control>
C:\Users\29275\Desktop\WchWorkSPace\camCoreWithRTOS\obj/../Libraries/rtthread_libraries/src/ipc.c:1652
            rt_timer_start(&(thread->thread_timer));
    28e8:	855e                	mv	a0,s7
    28ea:	322010ef          	jal	ra,3c0c <rt_timer_start>
    28ee:	b7ad                	j	2858 <rt_mb_recv+0x8e>
C:\Users\29275\Desktop\WchWorkSPace\camCoreWithRTOS\obj/../Libraries/rtthread_libraries/src/ipc.c:1674
            tick_delta = rt_tick_get() - tick_delta;
    28f0:	8ffff0ef          	jal	ra,21ee <rt_tick_get>
    28f4:	41950733          	sub	a4,a0,s9
C:\Users\29275\Desktop\WchWorkSPace\camCoreWithRTOS\obj/../Libraries/rtthread_libraries/src/ipc.c:1675
            timeout -= tick_delta;
    28f8:	47b2                	lw	a5,12(sp)
    28fa:	97e6                	add	a5,a5,s9
    28fc:	40a78533          	sub	a0,a5,a0
C:\Users\29275\Desktop\WchWorkSPace\camCoreWithRTOS\obj/../Libraries/rtthread_libraries/src/ipc.c:1676
            if (timeout < 0)
    2900:	00054563          	bltz	a0,290a <rt_mb_recv+0x140>
C:\Users\29275\Desktop\WchWorkSPace\camCoreWithRTOS\obj/../Libraries/rtthread_libraries/src/ipc.c:1675
            timeout -= tick_delta;
    2904:	c62a                	sw	a0,12(sp)
C:\Users\29275\Desktop\WchWorkSPace\camCoreWithRTOS\obj/../Libraries/rtthread_libraries/src/ipc.c:1674
            tick_delta = rt_tick_get() - tick_delta;
    2906:	8cba                	mv	s9,a4
    2908:	b7ad                	j	2872 <rt_mb_recv+0xa8>
C:\Users\29275\Desktop\WchWorkSPace\camCoreWithRTOS\obj/../Libraries/rtthread_libraries/src/ipc.c:1677
                timeout = 0;
    290a:	c602                	sw	zero,12(sp)
C:\Users\29275\Desktop\WchWorkSPace\camCoreWithRTOS\obj/../Libraries/rtthread_libraries/src/ipc.c:1674
            tick_delta = rt_tick_get() - tick_delta;
    290c:	8cba                	mv	s9,a4
    290e:	b795                	j	2872 <rt_mb_recv+0xa8>
C:\Users\29275\Desktop\WchWorkSPace\camCoreWithRTOS\obj/../Libraries/rtthread_libraries/src/ipc.c:1682
    *value = mb->msg_pool[mb->out_offset];
    2910:	0264d703          	lhu	a4,38(s1)
    2914:	4cdc                	lw	a5,28(s1)
    2916:	070a                	slli	a4,a4,0x2
    2918:	97ba                	add	a5,a5,a4
    291a:	439c                	lw	a5,0(a5)
    291c:	00fc2023          	sw	a5,0(s8)
C:\Users\29275\Desktop\WchWorkSPace\camCoreWithRTOS\obj/../Libraries/rtthread_libraries/src/ipc.c:1685
    ++ mb->out_offset;
    2920:	0264d783          	lhu	a5,38(s1)
    2924:	0785                	addi	a5,a5,1
    2926:	07c2                	slli	a5,a5,0x10
    2928:	83c1                	srli	a5,a5,0x10
    292a:	02f49323          	sh	a5,38(s1)
C:\Users\29275\Desktop\WchWorkSPace\camCoreWithRTOS\obj/../Libraries/rtthread_libraries/src/ipc.c:1686
    if (mb->out_offset >= mb->size)
    292e:	0204d703          	lhu	a4,32(s1)
    2932:	00e7e463          	bltu	a5,a4,293a <rt_mb_recv+0x170>
C:\Users\29275\Desktop\WchWorkSPace\camCoreWithRTOS\obj/../Libraries/rtthread_libraries/src/ipc.c:1687
        mb->out_offset = 0;
    2936:	02049323          	sh	zero,38(s1)
C:\Users\29275\Desktop\WchWorkSPace\camCoreWithRTOS\obj/../Libraries/rtthread_libraries/src/ipc.c:1689
    mb->entry --;
    293a:	0224d783          	lhu	a5,34(s1)
    293e:	17fd                	addi	a5,a5,-1
    2940:	02f49123          	sh	a5,34(s1)
rt_list_isempty():
C:\Users\29275\Desktop\WchWorkSPace\camCoreWithRTOS\Libraries\rtthread_libraries\include/rtservice.h:100
    return l->next == l;
    2944:	5488                	lw	a0,40(s1)
rt_mb_recv():
C:\Users\29275\Desktop\WchWorkSPace\camCoreWithRTOS\obj/../Libraries/rtthread_libraries/src/ipc.c:1692
    if (!rt_list_isempty(&(mb->suspend_sender_thread)))
    2946:	02848493          	addi	s1,s1,40
    294a:	00950c63          	beq	a0,s1,2962 <rt_mb_recv+0x198>
rt_ipc_list_resume():
C:\Users\29275\Desktop\WchWorkSPace\camCoreWithRTOS\obj/../Libraries/rtthread_libraries/src/ipc.c:142
    rt_thread_resume(thread);
    294e:	1531                	addi	a0,a0,-20
    2950:	174010ef          	jal	ra,3ac4 <rt_thread_resume>
rt_mb_recv():
C:\Users\29275\Desktop\WchWorkSPace\camCoreWithRTOS\obj/../Libraries/rtthread_libraries/src/ipc.c:1697
        rt_hw_interrupt_enable(temp);
    2954:	854e                	mv	a0,s3
    2956:	ff0fd0ef          	jal	ra,146 <rt_hw_interrupt_enable>
C:\Users\29275\Desktop\WchWorkSPace\camCoreWithRTOS\obj/../Libraries/rtthread_libraries/src/ipc.c:1701
        rt_schedule();
    295a:	4ef000ef          	jal	ra,3648 <rt_schedule>
C:\Users\29275\Desktop\WchWorkSPace\camCoreWithRTOS\obj/../Libraries/rtthread_libraries/src/ipc.c:1703
        return RT_EOK;
    295e:	4501                	li	a0,0
    2960:	b5d9                	j	2826 <rt_mb_recv+0x5c>
C:\Users\29275\Desktop\WchWorkSPace\camCoreWithRTOS\obj/../Libraries/rtthread_libraries/src/ipc.c:1707
    rt_hw_interrupt_enable(temp);
    2962:	854e                	mv	a0,s3
    2964:	fe2fd0ef          	jal	ra,146 <rt_hw_interrupt_enable>
C:\Users\29275\Desktop\WchWorkSPace\camCoreWithRTOS\obj/../Libraries/rtthread_libraries/src/ipc.c:1711
    return RT_EOK;
    2968:	4501                	li	a0,0
    296a:	bd75                	j	2826 <rt_mb_recv+0x5c>

0000296c <rt_interrupt_enter>:
rt_interrupt_enter():
C:\Users\29275\Desktop\WchWorkSPace\camCoreWithRTOS\obj/../Libraries/rtthread_libraries/src/irq.c:61
 * @note please don't invoke this routine in application
 *
 * @see rt_interrupt_leave
 */
void rt_interrupt_enter(void)
{
    296c:	1141                	addi	sp,sp,-16
    296e:	c606                	sw	ra,12(sp)
C:\Users\29275\Desktop\WchWorkSPace\camCoreWithRTOS\obj/../Libraries/rtthread_libraries/src/irq.c:67
    rt_base_t level;

    RT_DEBUG_LOG(RT_DEBUG_IRQ, ("irq coming..., irq nest:%d\n",
                                rt_interrupt_nest));

    level = rt_hw_interrupt_disable();
    2970:	fd0fd0ef          	jal	ra,140 <rt_hw_interrupt_disable>
C:\Users\29275\Desktop\WchWorkSPace\camCoreWithRTOS\obj/../Libraries/rtthread_libraries/src/irq.c:68
    rt_interrupt_nest ++;
    2974:	85018713          	addi	a4,gp,-1968 # 20000100 <rt_interrupt_nest>
    2978:	00074783          	lbu	a5,0(a4)
    297c:	0785                	addi	a5,a5,1
    297e:	0ff7f793          	andi	a5,a5,255
    2982:	00f70023          	sb	a5,0(a4)
C:\Users\29275\Desktop\WchWorkSPace\camCoreWithRTOS\obj/../Libraries/rtthread_libraries/src/irq.c:70
    RT_OBJECT_HOOK_CALL(rt_interrupt_enter_hook,());
    rt_hw_interrupt_enable(level);
    2986:	fc0fd0ef          	jal	ra,146 <rt_hw_interrupt_enable>
C:\Users\29275\Desktop\WchWorkSPace\camCoreWithRTOS\obj/../Libraries/rtthread_libraries/src/irq.c:71
}
    298a:	40b2                	lw	ra,12(sp)
    298c:	0141                	addi	sp,sp,16
    298e:	8082                	ret

00002990 <rt_interrupt_leave>:
rt_interrupt_leave():
C:\Users\29275\Desktop\WchWorkSPace\camCoreWithRTOS\obj/../Libraries/rtthread_libraries/src/irq.c:82
 * @note please don't invoke this routine in application
 *
 * @see rt_interrupt_enter
 */
void rt_interrupt_leave(void)
{
    2990:	1141                	addi	sp,sp,-16
    2992:	c606                	sw	ra,12(sp)
C:\Users\29275\Desktop\WchWorkSPace\camCoreWithRTOS\obj/../Libraries/rtthread_libraries/src/irq.c:88
    rt_base_t level;

    RT_DEBUG_LOG(RT_DEBUG_IRQ, ("irq leave, irq nest:%d\n",
                                rt_interrupt_nest));

    level = rt_hw_interrupt_disable();
    2994:	facfd0ef          	jal	ra,140 <rt_hw_interrupt_disable>
C:\Users\29275\Desktop\WchWorkSPace\camCoreWithRTOS\obj/../Libraries/rtthread_libraries/src/irq.c:89
    rt_interrupt_nest --;
    2998:	85018713          	addi	a4,gp,-1968 # 20000100 <rt_interrupt_nest>
    299c:	00074783          	lbu	a5,0(a4)
    29a0:	17fd                	addi	a5,a5,-1
    29a2:	0ff7f793          	andi	a5,a5,255
    29a6:	00f70023          	sb	a5,0(a4)
C:\Users\29275\Desktop\WchWorkSPace\camCoreWithRTOS\obj/../Libraries/rtthread_libraries/src/irq.c:91
    RT_OBJECT_HOOK_CALL(rt_interrupt_leave_hook,());
    rt_hw_interrupt_enable(level);
    29aa:	f9cfd0ef          	jal	ra,146 <rt_hw_interrupt_enable>
C:\Users\29275\Desktop\WchWorkSPace\camCoreWithRTOS\obj/../Libraries/rtthread_libraries/src/irq.c:92
}
    29ae:	40b2                	lw	ra,12(sp)
    29b0:	0141                	addi	sp,sp,16
    29b2:	8082                	ret

000029b4 <print_number>:
print_number():
C:\Users\29275\Desktop\WchWorkSPace\camCoreWithRTOS\obj/../Libraries/rtthread_libraries/src/kservice.c:629
#endif
                          int   base,
                          int   s,
                          int   type)
#endif
{
    29b4:	1141                	addi	sp,sp,-16
C:\Users\29275\Desktop\WchWorkSPace\camCoreWithRTOS\obj/../Libraries/rtthread_libraries/src/kservice.c:645
    register int i;
    register int size;

    size = s;

    digits = (type & LARGE) ? large_digits : small_digits;
    29b6:	04087893          	andi	a7,a6,64
    29ba:	02089f63          	bnez	a7,29f8 <print_number+0x44>
    29be:	6f1d                	lui	t5,0x7
    29c0:	064f0f13          	addi	t5,t5,100 # 7064 <small_digits.2239>
C:\Users\29275\Desktop\WchWorkSPace\camCoreWithRTOS\obj/../Libraries/rtthread_libraries/src/kservice.c:646 (discriminator 4)
    if (type & LEFT)
    29c4:	01087893          	andi	a7,a6,16
    29c8:	02088c63          	beqz	a7,2a00 <print_number+0x4c>
C:\Users\29275\Desktop\WchWorkSPace\camCoreWithRTOS\obj/../Libraries/rtthread_libraries/src/kservice.c:647
        type &= ~ZEROPAD;
    29cc:	ffe87813          	andi	a6,a6,-2
C:\Users\29275\Desktop\WchWorkSPace\camCoreWithRTOS\obj/../Libraries/rtthread_libraries/src/kservice.c:649

    c = (type & ZEROPAD) ? '0' : ' ';
    29d0:	02000293          	li	t0,32
C:\Users\29275\Desktop\WchWorkSPace\camCoreWithRTOS\obj/../Libraries/rtthread_libraries/src/kservice.c:653 (discriminator 4)

    /* get sign */
    sign = 0;
    if (type & SIGN)
    29d4:	00287893          	andi	a7,a6,2
    29d8:	04088463          	beqz	a7,2a20 <print_number+0x6c>
C:\Users\29275\Desktop\WchWorkSPace\camCoreWithRTOS\obj/../Libraries/rtthread_libraries/src/kservice.c:655
    {
        if (num < 0)
    29dc:	02064b63          	bltz	a2,2a12 <print_number+0x5e>
C:\Users\29275\Desktop\WchWorkSPace\camCoreWithRTOS\obj/../Libraries/rtthread_libraries/src/kservice.c:660
        {
            sign = '-';
            num = -num;
        }
        else if (type & PLUS)
    29e0:	00487893          	andi	a7,a6,4
C:\Users\29275\Desktop\WchWorkSPace\camCoreWithRTOS\obj/../Libraries/rtthread_libraries/src/kservice.c:661
            sign = '+';
    29e4:	02b00f93          	li	t6,43
C:\Users\29275\Desktop\WchWorkSPace\camCoreWithRTOS\obj/../Libraries/rtthread_libraries/src/kservice.c:660
        else if (type & PLUS)
    29e8:	02089d63          	bnez	a7,2a22 <print_number+0x6e>
C:\Users\29275\Desktop\WchWorkSPace\camCoreWithRTOS\obj/../Libraries/rtthread_libraries/src/kservice.c:662
        else if (type & SPACE)
    29ec:	00887f93          	andi	t6,a6,8
C:\Users\29275\Desktop\WchWorkSPace\camCoreWithRTOS\obj/../Libraries/rtthread_libraries/src/kservice.c:663
            sign = ' ';
    29f0:	01f03fb3          	snez	t6,t6
    29f4:	0f96                	slli	t6,t6,0x5
    29f6:	a035                	j	2a22 <print_number+0x6e>
C:\Users\29275\Desktop\WchWorkSPace\camCoreWithRTOS\obj/../Libraries/rtthread_libraries/src/kservice.c:645
    digits = (type & LARGE) ? large_digits : small_digits;
    29f8:	6f1d                	lui	t5,0x7
    29fa:	fc0f0f13          	addi	t5,t5,-64 # 6fc0 <large_digits.2240>
    29fe:	b7d9                	j	29c4 <print_number+0x10>
C:\Users\29275\Desktop\WchWorkSPace\camCoreWithRTOS\obj/../Libraries/rtthread_libraries/src/kservice.c:649
    c = (type & ZEROPAD) ? '0' : ' ';
    2a00:	00187893          	andi	a7,a6,1
    2a04:	03000293          	li	t0,48
    2a08:	fc0896e3          	bnez	a7,29d4 <print_number+0x20>
    2a0c:	02000293          	li	t0,32
    2a10:	b7d1                	j	29d4 <print_number+0x20>
C:\Users\29275\Desktop\WchWorkSPace\camCoreWithRTOS\obj/../Libraries/rtthread_libraries/src/kservice.c:658
            num = -num;
    2a12:	40c00633          	neg	a2,a2
C:\Users\29275\Desktop\WchWorkSPace\camCoreWithRTOS\obj/../Libraries/rtthread_libraries/src/kservice.c:657
            sign = '-';
    2a16:	02d00f93          	li	t6,45
C:\Users\29275\Desktop\WchWorkSPace\camCoreWithRTOS\obj/../Libraries/rtthread_libraries/src/kservice.c:676
        else if (base == 8)
            size--;
    }
#endif

    i = 0;
    2a1a:	4881                	li	a7,0
divide():
C:\Users\29275\Desktop\WchWorkSPace\camCoreWithRTOS\obj/../Libraries/rtthread_libraries/src/kservice.c:573
    if (base == 10)
    2a1c:	4ea9                	li	t4,10
    2a1e:	a881                	j	2a6e <print_number+0xba>
print_number():
C:\Users\29275\Desktop\WchWorkSPace\camCoreWithRTOS\obj/../Libraries/rtthread_libraries/src/kservice.c:652
    sign = 0;
    2a20:	4f81                	li	t6,0
C:\Users\29275\Desktop\WchWorkSPace\camCoreWithRTOS\obj/../Libraries/rtthread_libraries/src/kservice.c:677
    if (num == 0)
    2a22:	fe65                	bnez	a2,2a1a <print_number+0x66>
C:\Users\29275\Desktop\WchWorkSPace\camCoreWithRTOS\obj/../Libraries/rtthread_libraries/src/kservice.c:678
        tmp[i++] = '0';
    2a24:	03000693          	li	a3,48
    2a28:	00d10023          	sb	a3,0(sp)
    2a2c:	4885                	li	a7,1
C:\Users\29275\Desktop\WchWorkSPace\camCoreWithRTOS\obj/../Libraries/rtthread_libraries/src/kservice.c:686
        while (num != 0)
            tmp[i++] = digits[divide(&num, base)];
    }

#ifdef RT_PRINTF_PRECISION
    if (i > precision)
    2a2e:	8e46                	mv	t3,a7
    2a30:	00f8d363          	bge	a7,a5,2a36 <print_number+0x82>
    2a34:	8e3e                	mv	t3,a5
C:\Users\29275\Desktop\WchWorkSPace\camCoreWithRTOS\obj/../Libraries/rtthread_libraries/src/kservice.c:688
        precision = i;
    size -= precision;
    2a36:	41c70733          	sub	a4,a4,t3
C:\Users\29275\Desktop\WchWorkSPace\camCoreWithRTOS\obj/../Libraries/rtthread_libraries/src/kservice.c:693
#else
    size -= i;
#endif

    if (!(type & (ZEROPAD | LEFT)))
    2a3a:	01187693          	andi	a3,a6,17
    2a3e:	e2bd                	bnez	a3,2aa4 <print_number+0xf0>
C:\Users\29275\Desktop\WchWorkSPace\camCoreWithRTOS\obj/../Libraries/rtthread_libraries/src/kservice.c:695
    {
        if ((sign) && (size > 0))
    2a40:	100f8863          	beqz	t6,2b50 <print_number+0x19c>
C:\Users\29275\Desktop\WchWorkSPace\camCoreWithRTOS\obj/../Libraries/rtthread_libraries/src/kservice.c:695 (discriminator 1)
    2a44:	0ee05e63          	blez	a4,2b40 <print_number+0x18c>
C:\Users\29275\Desktop\WchWorkSPace\camCoreWithRTOS\obj/../Libraries/rtthread_libraries/src/kservice.c:698
            size--;

        while (size-- > 0)
    2a48:	ffe70313          	addi	t1,a4,-2
    2a4c:	4685                	li	a3,1
    2a4e:	10e6c563          	blt	a3,a4,2b58 <print_number+0x1a4>
    2a52:	871a                	mv	a4,t1
    2a54:	a0fd                	j	2b42 <print_number+0x18e>
divide():
C:\Users\29275\Desktop\WchWorkSPace\camCoreWithRTOS\obj/../Libraries/rtthread_libraries/src/kservice.c:580
        res = (int)(((unsigned long)*n) % 16U);
    2a56:	00f67313          	andi	t1,a2,15
C:\Users\29275\Desktop\WchWorkSPace\camCoreWithRTOS\obj/../Libraries/rtthread_libraries/src/kservice.c:581
        *n = (long)(((unsigned long)*n) / 16U);
    2a5a:	8211                	srli	a2,a2,0x4
print_number():
C:\Users\29275\Desktop\WchWorkSPace\camCoreWithRTOS\obj/../Libraries/rtthread_libraries/src/kservice.c:682
            tmp[i++] = digits[divide(&num, base)];
    2a5c:	0885                	addi	a7,a7,1
    2a5e:	01110e33          	add	t3,sp,a7
    2a62:	937a                	add	t1,t1,t5
    2a64:	00034303          	lbu	t1,0(t1)
    2a68:	fe6e0fa3          	sb	t1,-1(t3)
C:\Users\29275\Desktop\WchWorkSPace\camCoreWithRTOS\obj/../Libraries/rtthread_libraries/src/kservice.c:681
        while (num != 0)
    2a6c:	d269                	beqz	a2,2a2e <print_number+0x7a>
divide():
C:\Users\29275\Desktop\WchWorkSPace\camCoreWithRTOS\obj/../Libraries/rtthread_libraries/src/kservice.c:573
    if (base == 10)
    2a6e:	ffd694e3          	bne	a3,t4,2a56 <print_number+0xa2>
C:\Users\29275\Desktop\WchWorkSPace\camCoreWithRTOS\obj/../Libraries/rtthread_libraries/src/kservice.c:575
        res = (int)(((unsigned long)*n) % 10U);
    2a72:	03d67333          	remu	t1,a2,t4
C:\Users\29275\Desktop\WchWorkSPace\camCoreWithRTOS\obj/../Libraries/rtthread_libraries/src/kservice.c:576
        *n = (long)(((unsigned long)*n) / 10U);
    2a76:	03d65633          	divu	a2,a2,t4
    2a7a:	b7cd                	j	2a5c <print_number+0xa8>
print_number():
C:\Users\29275\Desktop\WchWorkSPace\camCoreWithRTOS\obj/../Libraries/rtthread_libraries/src/kservice.c:702
        {
            if (buf < end)
                *buf = ' ';
            ++ buf;
    2a7c:	0705                	addi	a4,a4,1
    2a7e:	40e606b3          	sub	a3,a2,a4
C:\Users\29275\Desktop\WchWorkSPace\camCoreWithRTOS\obj/../Libraries/rtthread_libraries/src/kservice.c:698
        while (size-- > 0)
    2a82:	00d05763          	blez	a3,2a90 <print_number+0xdc>
C:\Users\29275\Desktop\WchWorkSPace\camCoreWithRTOS\obj/../Libraries/rtthread_libraries/src/kservice.c:700
            if (buf < end)
    2a86:	feb77be3          	bgeu	a4,a1,2a7c <print_number+0xc8>
C:\Users\29275\Desktop\WchWorkSPace\camCoreWithRTOS\obj/../Libraries/rtthread_libraries/src/kservice.c:701
                *buf = ' ';
    2a8a:	01d70023          	sb	t4,0(a4)
    2a8e:	b7fd                	j	2a7c <print_number+0xc8>
    2a90:	fff30713          	addi	a4,t1,-1
    2a94:	fff34613          	not	a2,t1
    2a98:	867d                	srai	a2,a2,0x1f
    2a9a:	00c376b3          	and	a3,t1,a2
    2a9e:	8f15                	sub	a4,a4,a3
    2aa0:	0685                	addi	a3,a3,1
    2aa2:	9536                	add	a0,a0,a3
C:\Users\29275\Desktop\WchWorkSPace\camCoreWithRTOS\obj/../Libraries/rtthread_libraries/src/kservice.c:706
        }
    }

    if (sign)
    2aa4:	080f9f63          	bnez	t6,2b42 <print_number+0x18e>
C:\Users\29275\Desktop\WchWorkSPace\camCoreWithRTOS\obj/../Libraries/rtthread_libraries/src/kservice.c:740
        }
    }
#endif

    /* no align to the left */
    if (!(type & LEFT))
    2aa8:	01087813          	andi	a6,a6,16
    2aac:	02081263          	bnez	a6,2ad0 <print_number+0x11c>
C:\Users\29275\Desktop\WchWorkSPace\camCoreWithRTOS\obj/../Libraries/rtthread_libraries/src/kservice.c:742
    {
        while (size-- > 0)
    2ab0:	fff70693          	addi	a3,a4,-1
    2ab4:	04e05763          	blez	a4,2b02 <print_number+0x14e>
    2ab8:	972a                	add	a4,a4,a0
    2aba:	a021                	j	2ac2 <print_number+0x10e>
C:\Users\29275\Desktop\WchWorkSPace\camCoreWithRTOS\obj/../Libraries/rtthread_libraries/src/kservice.c:746
        {
            if (buf < end)
                *buf = c;
            ++ buf;
    2abc:	0505                	addi	a0,a0,1
C:\Users\29275\Desktop\WchWorkSPace\camCoreWithRTOS\obj/../Libraries/rtthread_libraries/src/kservice.c:742
        while (size-- > 0)
    2abe:	00e50763          	beq	a0,a4,2acc <print_number+0x118>
C:\Users\29275\Desktop\WchWorkSPace\camCoreWithRTOS\obj/../Libraries/rtthread_libraries/src/kservice.c:744
            if (buf < end)
    2ac2:	feb57de3          	bgeu	a0,a1,2abc <print_number+0x108>
C:\Users\29275\Desktop\WchWorkSPace\camCoreWithRTOS\obj/../Libraries/rtthread_libraries/src/kservice.c:745
                *buf = c;
    2ac6:	00550023          	sb	t0,0(a0)
    2aca:	bfcd                	j	2abc <print_number+0x108>
C:\Users\29275\Desktop\WchWorkSPace\camCoreWithRTOS\obj/../Libraries/rtthread_libraries/src/kservice.c:746
            ++ buf;
    2acc:	853a                	mv	a0,a4
C:\Users\29275\Desktop\WchWorkSPace\camCoreWithRTOS\obj/../Libraries/rtthread_libraries/src/kservice.c:742
        while (size-- > 0)
    2ace:	577d                	li	a4,-1
    2ad0:	411e06b3          	sub	a3,t3,a7
    2ad4:	96aa                	add	a3,a3,a0
C:\Users\29275\Desktop\WchWorkSPace\camCoreWithRTOS\obj/../Libraries/rtthread_libraries/src/kservice.c:754

#ifdef RT_PRINTF_PRECISION
    while (i < precision--)
    {
        if (buf < end)
            *buf = '0';
    2ad6:	03000613          	li	a2,48
C:\Users\29275\Desktop\WchWorkSPace\camCoreWithRTOS\obj/../Libraries/rtthread_libraries/src/kservice.c:751
    while (i < precision--)
    2ada:	01c8cf63          	blt	a7,t3,2af8 <print_number+0x144>
    2ade:	86aa                	mv	a3,a0
C:\Users\29275\Desktop\WchWorkSPace\camCoreWithRTOS\obj/../Libraries/rtthread_libraries/src/kservice.c:760
        ++ buf;
    }
#endif

    /* put number in the temporary buffer */
    while (i-- > 0 && (precision_bak != 0))
    2ae0:	03105f63          	blez	a7,2b1e <print_number+0x16a>
    2ae4:	cf8d                	beqz	a5,2b1e <print_number+0x16a>
    2ae6:	8346                	mv	t1,a7
    2ae8:	850a                	mv	a0,sp
    2aea:	01150633          	add	a2,a0,a7
    2aee:	87b6                	mv	a5,a3
    2af0:	a839                	j	2b0e <print_number+0x15a>
C:\Users\29275\Desktop\WchWorkSPace\camCoreWithRTOS\obj/../Libraries/rtthread_libraries/src/kservice.c:755
        ++ buf;
    2af2:	0505                	addi	a0,a0,1
C:\Users\29275\Desktop\WchWorkSPace\camCoreWithRTOS\obj/../Libraries/rtthread_libraries/src/kservice.c:751
    while (i < precision--)
    2af4:	fed506e3          	beq	a0,a3,2ae0 <print_number+0x12c>
C:\Users\29275\Desktop\WchWorkSPace\camCoreWithRTOS\obj/../Libraries/rtthread_libraries/src/kservice.c:753
        if (buf < end)
    2af8:	feb57de3          	bgeu	a0,a1,2af2 <print_number+0x13e>
C:\Users\29275\Desktop\WchWorkSPace\camCoreWithRTOS\obj/../Libraries/rtthread_libraries/src/kservice.c:754
            *buf = '0';
    2afc:	00c50023          	sb	a2,0(a0)
    2b00:	bfcd                	j	2af2 <print_number+0x13e>
C:\Users\29275\Desktop\WchWorkSPace\camCoreWithRTOS\obj/../Libraries/rtthread_libraries/src/kservice.c:742
        while (size-- > 0)
    2b02:	8736                	mv	a4,a3
    2b04:	b7f1                	j	2ad0 <print_number+0x11c>
C:\Users\29275\Desktop\WchWorkSPace\camCoreWithRTOS\obj/../Libraries/rtthread_libraries/src/kservice.c:764
    {
        if (buf < end)
            *buf = tmp[i];
        ++ buf;
    2b06:	0785                	addi	a5,a5,1
    2b08:	167d                	addi	a2,a2,-1
C:\Users\29275\Desktop\WchWorkSPace\camCoreWithRTOS\obj/../Libraries/rtthread_libraries/src/kservice.c:760
    while (i-- > 0 && (precision_bak != 0))
    2b0a:	00a60963          	beq	a2,a0,2b1c <print_number+0x168>
C:\Users\29275\Desktop\WchWorkSPace\camCoreWithRTOS\obj/../Libraries/rtthread_libraries/src/kservice.c:762
        if (buf < end)
    2b0e:	feb7fce3          	bgeu	a5,a1,2b06 <print_number+0x152>
C:\Users\29275\Desktop\WchWorkSPace\camCoreWithRTOS\obj/../Libraries/rtthread_libraries/src/kservice.c:763
            *buf = tmp[i];
    2b12:	fff64803          	lbu	a6,-1(a2)
    2b16:	01078023          	sb	a6,0(a5)
    2b1a:	b7f5                	j	2b06 <print_number+0x152>
    2b1c:	969a                	add	a3,a3,t1
    2b1e:	00e68533          	add	a0,a3,a4
C:\Users\29275\Desktop\WchWorkSPace\camCoreWithRTOS\obj/../Libraries/rtthread_libraries/src/kservice.c:770
    }

    while (size-- > 0)
    {
        if (buf < end)
            *buf = ' ';
    2b22:	02000793          	li	a5,32
C:\Users\29275\Desktop\WchWorkSPace\camCoreWithRTOS\obj/../Libraries/rtthread_libraries/src/kservice.c:767
    while (size-- > 0)
    2b26:	00e04863          	bgtz	a4,2b36 <print_number+0x182>
    2b2a:	8536                	mv	a0,a3
C:\Users\29275\Desktop\WchWorkSPace\camCoreWithRTOS\obj/../Libraries/rtthread_libraries/src/kservice.c:775
        ++ buf;
    }

    return buf;
}
    2b2c:	0141                	addi	sp,sp,16
    2b2e:	8082                	ret
C:\Users\29275\Desktop\WchWorkSPace\camCoreWithRTOS\obj/../Libraries/rtthread_libraries/src/kservice.c:771
        ++ buf;
    2b30:	0685                	addi	a3,a3,1
C:\Users\29275\Desktop\WchWorkSPace\camCoreWithRTOS\obj/../Libraries/rtthread_libraries/src/kservice.c:767
    while (size-- > 0)
    2b32:	fea68de3          	beq	a3,a0,2b2c <print_number+0x178>
C:\Users\29275\Desktop\WchWorkSPace\camCoreWithRTOS\obj/../Libraries/rtthread_libraries/src/kservice.c:769
        if (buf < end)
    2b36:	feb6fde3          	bgeu	a3,a1,2b30 <print_number+0x17c>
C:\Users\29275\Desktop\WchWorkSPace\camCoreWithRTOS\obj/../Libraries/rtthread_libraries/src/kservice.c:770
            *buf = ' ';
    2b3a:	00f68023          	sb	a5,0(a3) # fffff000 <_eusrstack+0xdfffa000>
    2b3e:	bfcd                	j	2b30 <print_number+0x17c>
C:\Users\29275\Desktop\WchWorkSPace\camCoreWithRTOS\obj/../Libraries/rtthread_libraries/src/kservice.c:698
        while (size-- > 0)
    2b40:	177d                	addi	a4,a4,-1
C:\Users\29275\Desktop\WchWorkSPace\camCoreWithRTOS\obj/../Libraries/rtthread_libraries/src/kservice.c:708
        if (buf < end)
    2b42:	00b57463          	bgeu	a0,a1,2b4a <print_number+0x196>
C:\Users\29275\Desktop\WchWorkSPace\camCoreWithRTOS\obj/../Libraries/rtthread_libraries/src/kservice.c:710
            *buf = sign;
    2b46:	01f50023          	sb	t6,0(a0)
C:\Users\29275\Desktop\WchWorkSPace\camCoreWithRTOS\obj/../Libraries/rtthread_libraries/src/kservice.c:712
        -- size;
    2b4a:	177d                	addi	a4,a4,-1
C:\Users\29275\Desktop\WchWorkSPace\camCoreWithRTOS\obj/../Libraries/rtthread_libraries/src/kservice.c:713
        ++ buf;
    2b4c:	0505                	addi	a0,a0,1
    2b4e:	bfa9                	j	2aa8 <print_number+0xf4>
C:\Users\29275\Desktop\WchWorkSPace\camCoreWithRTOS\obj/../Libraries/rtthread_libraries/src/kservice.c:698
        while (size-- > 0)
    2b50:	fff70313          	addi	t1,a4,-1
    2b54:	00e05963          	blez	a4,2b66 <print_number+0x1b2>
C:\Users\29275\Desktop\WchWorkSPace\camCoreWithRTOS\obj/../Libraries/rtthread_libraries/src/kservice.c:678
        tmp[i++] = '0';
    2b58:	872a                	mv	a4,a0
C:\Users\29275\Desktop\WchWorkSPace\camCoreWithRTOS\obj/../Libraries/rtthread_libraries/src/kservice.c:701
                *buf = ' ';
    2b5a:	02000e93          	li	t4,32
    2b5e:	00150613          	addi	a2,a0,1
    2b62:	961a                	add	a2,a2,t1
    2b64:	b70d                	j	2a86 <print_number+0xd2>
C:\Users\29275\Desktop\WchWorkSPace\camCoreWithRTOS\obj/../Libraries/rtthread_libraries/src/kservice.c:698
        while (size-- > 0)
    2b66:	871a                	mv	a4,t1
    2b68:	b781                	j	2aa8 <print_number+0xf4>

00002b6a <rt_memset>:
rt_memset():
C:\Users\29275\Desktop\WchWorkSPace\camCoreWithRTOS\obj/../Libraries/rtthread_libraries/src/kservice.c:147
    if (!TOO_SMALL(count) && !UNALIGNED(s))
    2b6a:	478d                	li	a5,3
    2b6c:	00c7f963          	bgeu	a5,a2,2b7e <rt_memset+0x14>
C:\Users\29275\Desktop\WchWorkSPace\camCoreWithRTOS\obj/../Libraries/rtthread_libraries/src/kservice.c:147 (discriminator 1)
    2b70:	00357793          	andi	a5,a0,3
    2b74:	c78d                	beqz	a5,2b9e <rt_memset+0x34>
C:\Users\29275\Desktop\WchWorkSPace\camCoreWithRTOS\obj/../Libraries/rtthread_libraries/src/kservice.c:186
    while (count--)
    2b76:	fff60713          	addi	a4,a2,-1
C:\Users\29275\Desktop\WchWorkSPace\camCoreWithRTOS\obj/../Libraries/rtthread_libraries/src/kservice.c:141
    char *m = (char *)s;
    2b7a:	87aa                	mv	a5,a0
    2b7c:	a029                	j	2b86 <rt_memset+0x1c>
    2b7e:	87aa                	mv	a5,a0
C:\Users\29275\Desktop\WchWorkSPace\camCoreWithRTOS\obj/../Libraries/rtthread_libraries/src/kservice.c:186
    while (count--)
    2b80:	fff60713          	addi	a4,a2,-1
    2b84:	ce01                	beqz	a2,2b9c <rt_memset+0x32>
    2b86:	0705                	addi	a4,a4,1
    2b88:	973e                	add	a4,a4,a5
C:\Users\29275\Desktop\WchWorkSPace\camCoreWithRTOS\obj/../Libraries/rtthread_libraries/src/kservice.c:188
        *m++ = (char)d;
    2b8a:	0785                	addi	a5,a5,1
    2b8c:	feb78fa3          	sb	a1,-1(a5)
C:\Users\29275\Desktop\WchWorkSPace\camCoreWithRTOS\obj/../Libraries/rtthread_libraries/src/kservice.c:186
    while (count--)
    2b90:	fee79de3          	bne	a5,a4,2b8a <rt_memset+0x20>
    2b94:	8082                	ret
C:\Users\29275\Desktop\WchWorkSPace\camCoreWithRTOS\obj/../Libraries/rtthread_libraries/src/kservice.c:172
            *aligned_addr++ = buffer;
    2b96:	87ba                	mv	a5,a4
C:\Users\29275\Desktop\WchWorkSPace\camCoreWithRTOS\obj/../Libraries/rtthread_libraries/src/kservice.c:173
            count -= 4 * LBLOCKSIZE;
    2b98:	8642                	mv	a2,a6
    2b9a:	b7dd                	j	2b80 <rt_memset+0x16>
    2b9c:	8082                	ret
C:\Users\29275\Desktop\WchWorkSPace\camCoreWithRTOS\obj/../Libraries/rtthread_libraries/src/kservice.c:144
    unsigned int d = c & 0xff;  /* To avoid sign extension, copy C to an
    2b9e:	0ff5f793          	andi	a5,a1,255
C:\Users\29275\Desktop\WchWorkSPace\camCoreWithRTOS\obj/../Libraries/rtthread_libraries/src/kservice.c:157
            buffer = (d << 8) | d;
    2ba2:	00879693          	slli	a3,a5,0x8
    2ba6:	8fd5                	or	a5,a5,a3
C:\Users\29275\Desktop\WchWorkSPace\camCoreWithRTOS\obj/../Libraries/rtthread_libraries/src/kservice.c:158
            buffer |= (buffer << 16);
    2ba8:	01079693          	slli	a3,a5,0x10
    2bac:	8edd                	or	a3,a3,a5
C:\Users\29275\Desktop\WchWorkSPace\camCoreWithRTOS\obj/../Libraries/rtthread_libraries/src/kservice.c:167
        while (count >= LBLOCKSIZE * 4)
    2bae:	47bd                	li	a5,15
    2bb0:	04c7f163          	bgeu	a5,a2,2bf2 <rt_memset+0x88>
    2bb4:	ff060793          	addi	a5,a2,-16
    2bb8:	9bc1                	andi	a5,a5,-16
    2bba:	07c1                	addi	a5,a5,16
    2bbc:	97aa                	add	a5,a5,a0
C:\Users\29275\Desktop\WchWorkSPace\camCoreWithRTOS\obj/../Libraries/rtthread_libraries/src/kservice.c:150
        aligned_addr = (unsigned long *)s;
    2bbe:	872a                	mv	a4,a0
C:\Users\29275\Desktop\WchWorkSPace\camCoreWithRTOS\obj/../Libraries/rtthread_libraries/src/kservice.c:169
            *aligned_addr++ = buffer;
    2bc0:	c314                	sw	a3,0(a4)
C:\Users\29275\Desktop\WchWorkSPace\camCoreWithRTOS\obj/../Libraries/rtthread_libraries/src/kservice.c:170
            *aligned_addr++ = buffer;
    2bc2:	c354                	sw	a3,4(a4)
C:\Users\29275\Desktop\WchWorkSPace\camCoreWithRTOS\obj/../Libraries/rtthread_libraries/src/kservice.c:171
            *aligned_addr++ = buffer;
    2bc4:	c714                	sw	a3,8(a4)
C:\Users\29275\Desktop\WchWorkSPace\camCoreWithRTOS\obj/../Libraries/rtthread_libraries/src/kservice.c:172
            *aligned_addr++ = buffer;
    2bc6:	0741                	addi	a4,a4,16
    2bc8:	fed72e23          	sw	a3,-4(a4)
C:\Users\29275\Desktop\WchWorkSPace\camCoreWithRTOS\obj/../Libraries/rtthread_libraries/src/kservice.c:167
        while (count >= LBLOCKSIZE * 4)
    2bcc:	fee79ae3          	bne	a5,a4,2bc0 <rt_memset+0x56>
    2bd0:	00f67813          	andi	a6,a2,15
C:\Users\29275\Desktop\WchWorkSPace\camCoreWithRTOS\obj/../Libraries/rtthread_libraries/src/kservice.c:176
        while (count >= LBLOCKSIZE)
    2bd4:	8a31                	andi	a2,a2,12
    2bd6:	d261                	beqz	a2,2b96 <rt_memset+0x2c>
    2bd8:	ffc80793          	addi	a5,a6,-4
    2bdc:	9bf1                	andi	a5,a5,-4
    2bde:	0791                	addi	a5,a5,4
    2be0:	97ba                	add	a5,a5,a4
C:\Users\29275\Desktop\WchWorkSPace\camCoreWithRTOS\obj/../Libraries/rtthread_libraries/src/kservice.c:178
            *aligned_addr++ = buffer;
    2be2:	0711                	addi	a4,a4,4
    2be4:	fed72e23          	sw	a3,-4(a4)
C:\Users\29275\Desktop\WchWorkSPace\camCoreWithRTOS\obj/../Libraries/rtthread_libraries/src/kservice.c:176
        while (count >= LBLOCKSIZE)
    2be8:	fef71de3          	bne	a4,a5,2be2 <rt_memset+0x78>
    2bec:	00387613          	andi	a2,a6,3
    2bf0:	bf41                	j	2b80 <rt_memset+0x16>
C:\Users\29275\Desktop\WchWorkSPace\camCoreWithRTOS\obj/../Libraries/rtthread_libraries/src/kservice.c:150
        aligned_addr = (unsigned long *)s;
    2bf2:	872a                	mv	a4,a0
C:\Users\29275\Desktop\WchWorkSPace\camCoreWithRTOS\obj/../Libraries/rtthread_libraries/src/kservice.c:167
        while (count >= LBLOCKSIZE * 4)
    2bf4:	8832                	mv	a6,a2
    2bf6:	b7cd                	j	2bd8 <rt_memset+0x6e>

00002bf8 <rt_memmove>:
rt_memmove():
C:\Users\29275\Desktop\WchWorkSPace\camCoreWithRTOS\obj/../Libraries/rtthread_libraries/src/kservice.c:297
    if (s < tmp && tmp < s + n)
    2bf8:	02a5e063          	bltu	a1,a0,2c18 <rt_memmove+0x20>
    2bfc:	00c506b3          	add	a3,a0,a2
C:\Users\29275\Desktop\WchWorkSPace\camCoreWithRTOS\obj/../Libraries/rtthread_libraries/src/kservice.c:307
        while (n--)
    2c00:	87aa                	mv	a5,a0
    2c02:	ca11                	beqz	a2,2c16 <rt_memmove+0x1e>
C:\Users\29275\Desktop\WchWorkSPace\camCoreWithRTOS\obj/../Libraries/rtthread_libraries/src/kservice.c:308
            *tmp++ = *s++;
    2c04:	0585                	addi	a1,a1,1
    2c06:	0785                	addi	a5,a5,1
    2c08:	fff58703          	lb	a4,-1(a1)
    2c0c:	fee78fa3          	sb	a4,-1(a5)
C:\Users\29275\Desktop\WchWorkSPace\camCoreWithRTOS\obj/../Libraries/rtthread_libraries/src/kservice.c:307
        while (n--)
    2c10:	fed79ae3          	bne	a5,a3,2c04 <rt_memmove+0xc>
C:\Users\29275\Desktop\WchWorkSPace\camCoreWithRTOS\obj/../Libraries/rtthread_libraries/src/kservice.c:312
}
    2c14:	8082                	ret
    2c16:	8082                	ret
C:\Users\29275\Desktop\WchWorkSPace\camCoreWithRTOS\obj/../Libraries/rtthread_libraries/src/kservice.c:297 (discriminator 1)
    if (s < tmp && tmp < s + n)
    2c18:	00c58733          	add	a4,a1,a2
    2c1c:	fee570e3          	bgeu	a0,a4,2bfc <rt_memmove+0x4>
C:\Users\29275\Desktop\WchWorkSPace\camCoreWithRTOS\obj/../Libraries/rtthread_libraries/src/kservice.c:299
        tmp += n;
    2c20:	00c507b3          	add	a5,a0,a2
C:\Users\29275\Desktop\WchWorkSPace\camCoreWithRTOS\obj/../Libraries/rtthread_libraries/src/kservice.c:302
        while (n--)
    2c24:	da65                	beqz	a2,2c14 <rt_memmove+0x1c>
C:\Users\29275\Desktop\WchWorkSPace\camCoreWithRTOS\obj/../Libraries/rtthread_libraries/src/kservice.c:303
            *(--tmp) = *(--s);
    2c26:	177d                	addi	a4,a4,-1
    2c28:	17fd                	addi	a5,a5,-1
    2c2a:	00070683          	lb	a3,0(a4)
    2c2e:	00d78023          	sb	a3,0(a5)
C:\Users\29275\Desktop\WchWorkSPace\camCoreWithRTOS\obj/../Libraries/rtthread_libraries/src/kservice.c:302
        while (n--)
    2c32:	fef51ae3          	bne	a0,a5,2c26 <rt_memmove+0x2e>
    2c36:	8082                	ret

00002c38 <rt_strncpy>:
rt_strncpy():
C:\Users\29275\Desktop\WchWorkSPace\camCoreWithRTOS\obj/../Libraries/rtthread_libraries/src/kservice.c:403
    if (n != 0)
    2c38:	ce09                	beqz	a2,2c52 <rt_strncpy+0x1a>
C:\Users\29275\Desktop\WchWorkSPace\camCoreWithRTOS\obj/../Libraries/rtthread_libraries/src/kservice.c:405
        char *d = dst;
    2c3a:	86aa                	mv	a3,a0
C:\Users\29275\Desktop\WchWorkSPace\camCoreWithRTOS\obj/../Libraries/rtthread_libraries/src/kservice.c:410
            if ((*d++ = *s++) == 0)
    2c3c:	0585                	addi	a1,a1,1
    2c3e:	00168793          	addi	a5,a3,1
    2c42:	fff58703          	lb	a4,-1(a1)
    2c46:	fee78fa3          	sb	a4,-1(a5)
    2c4a:	c709                	beqz	a4,2c54 <rt_strncpy+0x1c>
C:\Users\29275\Desktop\WchWorkSPace\camCoreWithRTOS\obj/../Libraries/rtthread_libraries/src/kservice.c:417
        } while (--n != 0);
    2c4c:	167d                	addi	a2,a2,-1
C:\Users\29275\Desktop\WchWorkSPace\camCoreWithRTOS\obj/../Libraries/rtthread_libraries/src/kservice.c:410
            if ((*d++ = *s++) == 0)
    2c4e:	86be                	mv	a3,a5
C:\Users\29275\Desktop\WchWorkSPace\camCoreWithRTOS\obj/../Libraries/rtthread_libraries/src/kservice.c:417
        } while (--n != 0);
    2c50:	f675                	bnez	a2,2c3c <rt_strncpy+0x4>
C:\Users\29275\Desktop\WchWorkSPace\camCoreWithRTOS\obj/../Libraries/rtthread_libraries/src/kservice.c:421
}
    2c52:	8082                	ret
C:\Users\29275\Desktop\WchWorkSPace\camCoreWithRTOS\obj/../Libraries/rtthread_libraries/src/kservice.c:413
                while (--n != 0)
    2c54:	fff60713          	addi	a4,a2,-1
    2c58:	df6d                	beqz	a4,2c52 <rt_strncpy+0x1a>
    2c5a:	9636                	add	a2,a2,a3
C:\Users\29275\Desktop\WchWorkSPace\camCoreWithRTOS\obj/../Libraries/rtthread_libraries/src/kservice.c:414
                    *d++ = 0;
    2c5c:	0785                	addi	a5,a5,1
    2c5e:	fe078fa3          	sb	zero,-1(a5)
C:\Users\29275\Desktop\WchWorkSPace\camCoreWithRTOS\obj/../Libraries/rtthread_libraries/src/kservice.c:413
                while (--n != 0)
    2c62:	fef61de3          	bne	a2,a5,2c5c <rt_strncpy+0x24>
    2c66:	8082                	ret

00002c68 <rt_strlen>:
rt_strlen():
C:\Users\29275\Desktop\WchWorkSPace\camCoreWithRTOS\obj/../Libraries/rtthread_libraries/src/kservice.c:499
    for (sc = s; *sc != '\0'; ++sc) /* nothing */
    2c68:	00050783          	lb	a5,0(a0)
    2c6c:	cb89                	beqz	a5,2c7e <rt_strlen+0x16>
    2c6e:	87aa                	mv	a5,a0
C:\Users\29275\Desktop\WchWorkSPace\camCoreWithRTOS\obj/../Libraries/rtthread_libraries/src/kservice.c:499 (discriminator 3)
    2c70:	0785                	addi	a5,a5,1
    2c72:	00078703          	lb	a4,0(a5)
    2c76:	ff6d                	bnez	a4,2c70 <rt_strlen+0x8>
C:\Users\29275\Desktop\WchWorkSPace\camCoreWithRTOS\obj/../Libraries/rtthread_libraries/src/kservice.c:503
}
    2c78:	40a78533          	sub	a0,a5,a0
    2c7c:	8082                	ret
C:\Users\29275\Desktop\WchWorkSPace\camCoreWithRTOS\obj/../Libraries/rtthread_libraries/src/kservice.c:499
    for (sc = s; *sc != '\0'; ++sc) /* nothing */
    2c7e:	87aa                	mv	a5,a0
    2c80:	bfe5                	j	2c78 <rt_strlen+0x10>

00002c82 <rt_vsnprintf>:
rt_vsnprintf():
C:\Users\29275\Desktop\WchWorkSPace\camCoreWithRTOS\obj/../Libraries/rtthread_libraries/src/kservice.c:781

rt_int32_t rt_vsnprintf(char       *buf,
                        rt_size_t   size,
                        const char *fmt,
                        va_list     args)
{
    2c82:	715d                	addi	sp,sp,-80
    2c84:	c686                	sw	ra,76(sp)
    2c86:	c4a2                	sw	s0,72(sp)
    2c88:	c2a6                	sw	s1,68(sp)
    2c8a:	c0ca                	sw	s2,64(sp)
    2c8c:	de4e                	sw	s3,60(sp)
    2c8e:	dc52                	sw	s4,56(sp)
    2c90:	da56                	sw	s5,52(sp)
    2c92:	d85a                	sw	s6,48(sp)
    2c94:	d65e                	sw	s7,44(sp)
    2c96:	d462                	sw	s8,40(sp)
    2c98:	d266                	sw	s9,36(sp)
    2c9a:	d06a                	sw	s10,32(sp)
    2c9c:	ce6e                	sw	s11,28(sp)
    2c9e:	8caa                	mv	s9,a0
    2ca0:	8d2e                	mv	s10,a1
    2ca2:	8c36                	mv	s8,a3
C:\Users\29275\Desktop\WchWorkSPace\camCoreWithRTOS\obj/../Libraries/rtthread_libraries/src/kservice.c:801
#ifdef RT_PRINTF_PRECISION
    int precision;      /* min. # of digits for integers and max for a string */
#endif

    str = buf;
    end = buf + size;
    2ca4:	00b50ab3          	add	s5,a0,a1
C:\Users\29275\Desktop\WchWorkSPace\camCoreWithRTOS\obj/../Libraries/rtthread_libraries/src/kservice.c:804

    /* Make sure end is always >= buf */
    if (end < buf)
    2ca8:	00aaf563          	bgeu	s5,a0,2cb2 <rt_vsnprintf+0x30>
C:\Users\29275\Desktop\WchWorkSPace\camCoreWithRTOS\obj/../Libraries/rtthread_libraries/src/kservice.c:807
    {
        end  = ((char *) - 1);
        size = end - buf;
    2cac:	fff54d13          	not	s10,a0
C:\Users\29275\Desktop\WchWorkSPace\camCoreWithRTOS\obj/../Libraries/rtthread_libraries/src/kservice.c:806
        end  = ((char *) - 1);
    2cb0:	5afd                	li	s5,-1
C:\Users\29275\Desktop\WchWorkSPace\camCoreWithRTOS\obj/../Libraries/rtthread_libraries/src/kservice.c:810 (discriminator 1)
    }

    for (; *fmt ; ++fmt)
    2cb2:	00060783          	lb	a5,0(a2)
    2cb6:	89e6                	mv	s3,s9
    2cb8:	36078263          	beqz	a5,301c <rt_vsnprintf+0x39a>
C:\Users\29275\Desktop\WchWorkSPace\camCoreWithRTOS\obj/../Libraries/rtthread_libraries/src/kservice.c:812
    {
        if (*fmt != '%')
    2cbc:	02500b93          	li	s7,37
C:\Users\29275\Desktop\WchWorkSPace\camCoreWithRTOS\obj/../Libraries/rtthread_libraries/src/kservice.c:828
        while (1)
        {
            /* skips the first '%' also */
            ++ fmt;
            if (*fmt == '-') flags |= LEFT;
            else if (*fmt == '+') flags |= PLUS;
    2cc0:	02b00913          	li	s2,43
C:\Users\29275\Desktop\WchWorkSPace\camCoreWithRTOS\obj/../Libraries/rtthread_libraries/src/kservice.c:888
        }

        /* the default base */
        base = 10;

        switch (*fmt)
    2cc4:	671d                	lui	a4,0x7
    2cc6:	d7070d93          	addi	s11,a4,-656 # 6d70 <UARTN+0x20>
C:\Users\29275\Desktop\WchWorkSPace\camCoreWithRTOS\obj/../Libraries/rtthread_libraries/src/kservice.c:1012
            num = va_arg(args, rt_uint32_t);
            if (flags & SIGN) num = (rt_int32_t)num;
        }
        else if (qualifier == 'h')
        {
            num = (rt_uint16_t)va_arg(args, rt_int32_t);
    2cca:	6741                	lui	a4,0x10
    2ccc:	177d                	addi	a4,a4,-1
    2cce:	c43a                	sw	a4,8(sp)
    2cd0:	a809                	j	2ce2 <rt_vsnprintf+0x60>
C:\Users\29275\Desktop\WchWorkSPace\camCoreWithRTOS\obj/../Libraries/rtthread_libraries/src/kservice.c:816
            ++ str;
    2cd2:	0985                	addi	s3,s3,1
C:\Users\29275\Desktop\WchWorkSPace\camCoreWithRTOS\obj/../Libraries/rtthread_libraries/src/kservice.c:817
            continue;
    2cd4:	8432                	mv	s0,a2
C:\Users\29275\Desktop\WchWorkSPace\camCoreWithRTOS\obj/../Libraries/rtthread_libraries/src/kservice.c:810
    for (; *fmt ; ++fmt)
    2cd6:	00140613          	addi	a2,s0,1
    2cda:	00140783          	lb	a5,1(s0)
    2cde:	32078f63          	beqz	a5,301c <rt_vsnprintf+0x39a>
C:\Users\29275\Desktop\WchWorkSPace\camCoreWithRTOS\obj/../Libraries/rtthread_libraries/src/kservice.c:812
        if (*fmt != '%')
    2ce2:	01778763          	beq	a5,s7,2cf0 <rt_vsnprintf+0x6e>
C:\Users\29275\Desktop\WchWorkSPace\camCoreWithRTOS\obj/../Libraries/rtthread_libraries/src/kservice.c:814
            if (str < end)
    2ce6:	ff59f6e3          	bgeu	s3,s5,2cd2 <rt_vsnprintf+0x50>
C:\Users\29275\Desktop\WchWorkSPace\camCoreWithRTOS\obj/../Libraries/rtthread_libraries/src/kservice.c:815
                *str = *fmt;
    2cea:	00f98023          	sb	a5,0(s3)
    2cee:	b7d5                	j	2cd2 <rt_vsnprintf+0x50>
C:\Users\29275\Desktop\WchWorkSPace\camCoreWithRTOS\obj/../Libraries/rtthread_libraries/src/kservice.c:821
        flags = 0;
    2cf0:	4481                	li	s1,0
C:\Users\29275\Desktop\WchWorkSPace\camCoreWithRTOS\obj/../Libraries/rtthread_libraries/src/kservice.c:827
            if (*fmt == '-') flags |= LEFT;
    2cf2:	02d00713          	li	a4,45
C:\Users\29275\Desktop\WchWorkSPace\camCoreWithRTOS\obj/../Libraries/rtthread_libraries/src/kservice.c:829
            else if (*fmt == ' ') flags |= SPACE;
    2cf6:	02000693          	li	a3,32
C:\Users\29275\Desktop\WchWorkSPace\camCoreWithRTOS\obj/../Libraries/rtthread_libraries/src/kservice.c:830
            else if (*fmt == '#') flags |= SPECIAL;
    2cfa:	02300593          	li	a1,35
C:\Users\29275\Desktop\WchWorkSPace\camCoreWithRTOS\obj/../Libraries/rtthread_libraries/src/kservice.c:831
            else if (*fmt == '0') flags |= ZEROPAD;
    2cfe:	03000513          	li	a0,48
    2d02:	a021                	j	2d0a <rt_vsnprintf+0x88>
C:\Users\29275\Desktop\WchWorkSPace\camCoreWithRTOS\obj/../Libraries/rtthread_libraries/src/kservice.c:827 (discriminator 1)
            if (*fmt == '-') flags |= LEFT;
    2d04:	0104e493          	ori	s1,s1,16
C:\Users\29275\Desktop\WchWorkSPace\camCoreWithRTOS\obj/../Libraries/rtthread_libraries/src/kservice.c:826
            ++ fmt;
    2d08:	8622                	mv	a2,s0
    2d0a:	00160413          	addi	s0,a2,1
C:\Users\29275\Desktop\WchWorkSPace\camCoreWithRTOS\obj/../Libraries/rtthread_libraries/src/kservice.c:827
            if (*fmt == '-') flags |= LEFT;
    2d0e:	00160783          	lb	a5,1(a2)
    2d12:	fee789e3          	beq	a5,a4,2d04 <rt_vsnprintf+0x82>
C:\Users\29275\Desktop\WchWorkSPace\camCoreWithRTOS\obj/../Libraries/rtthread_libraries/src/kservice.c:828
            else if (*fmt == '+') flags |= PLUS;
    2d16:	01278b63          	beq	a5,s2,2d2c <rt_vsnprintf+0xaa>
C:\Users\29275\Desktop\WchWorkSPace\camCoreWithRTOS\obj/../Libraries/rtthread_libraries/src/kservice.c:829
            else if (*fmt == ' ') flags |= SPACE;
    2d1a:	00d78c63          	beq	a5,a3,2d32 <rt_vsnprintf+0xb0>
C:\Users\29275\Desktop\WchWorkSPace\camCoreWithRTOS\obj/../Libraries/rtthread_libraries/src/kservice.c:830
            else if (*fmt == '#') flags |= SPECIAL;
    2d1e:	00b78d63          	beq	a5,a1,2d38 <rt_vsnprintf+0xb6>
C:\Users\29275\Desktop\WchWorkSPace\camCoreWithRTOS\obj/../Libraries/rtthread_libraries/src/kservice.c:831
            else if (*fmt == '0') flags |= ZEROPAD;
    2d22:	00a79e63          	bne	a5,a0,2d3e <rt_vsnprintf+0xbc>
C:\Users\29275\Desktop\WchWorkSPace\camCoreWithRTOS\obj/../Libraries/rtthread_libraries/src/kservice.c:831 (discriminator 1)
    2d26:	0014e493          	ori	s1,s1,1
    2d2a:	bff9                	j	2d08 <rt_vsnprintf+0x86>
C:\Users\29275\Desktop\WchWorkSPace\camCoreWithRTOS\obj/../Libraries/rtthread_libraries/src/kservice.c:828 (discriminator 1)
            else if (*fmt == '+') flags |= PLUS;
    2d2c:	0044e493          	ori	s1,s1,4
    2d30:	bfe1                	j	2d08 <rt_vsnprintf+0x86>
C:\Users\29275\Desktop\WchWorkSPace\camCoreWithRTOS\obj/../Libraries/rtthread_libraries/src/kservice.c:829 (discriminator 1)
            else if (*fmt == ' ') flags |= SPACE;
    2d32:	0084e493          	ori	s1,s1,8
    2d36:	bfc9                	j	2d08 <rt_vsnprintf+0x86>
C:\Users\29275\Desktop\WchWorkSPace\camCoreWithRTOS\obj/../Libraries/rtthread_libraries/src/kservice.c:830 (discriminator 1)
            else if (*fmt == '#') flags |= SPECIAL;
    2d38:	0204e493          	ori	s1,s1,32
    2d3c:	b7f1                	j	2d08 <rt_vsnprintf+0x86>
C:\Users\29275\Desktop\WchWorkSPace\camCoreWithRTOS\obj/../Libraries/rtthread_libraries/src/kservice.c:837
        if (isdigit(*fmt)) field_width = skip_atoi(&fmt);
    2d3e:	873e                	mv	a4,a5
    2d40:	fd078693          	addi	a3,a5,-48
    2d44:	45a5                	li	a1,9
    2d46:	04d5f663          	bgeu	a1,a3,2d92 <rt_vsnprintf+0x110>
C:\Users\29275\Desktop\WchWorkSPace\camCoreWithRTOS\obj/../Libraries/rtthread_libraries/src/kservice.c:838
        else if (*fmt == '*')
    2d4a:	02a00713          	li	a4,42
C:\Users\29275\Desktop\WchWorkSPace\camCoreWithRTOS\obj/../Libraries/rtthread_libraries/src/kservice.c:836
        field_width = -1;
    2d4e:	5a7d                	li	s4,-1
C:\Users\29275\Desktop\WchWorkSPace\camCoreWithRTOS\obj/../Libraries/rtthread_libraries/src/kservice.c:838
        else if (*fmt == '*')
    2d50:	06e78263          	beq	a5,a4,2db4 <rt_vsnprintf+0x132>
C:\Users\29275\Desktop\WchWorkSPace\camCoreWithRTOS\obj/../Libraries/rtthread_libraries/src/kservice.c:853
        if (*fmt == '.')
    2d54:	00040703          	lb	a4,0(s0)
    2d58:	02e00793          	li	a5,46
C:\Users\29275\Desktop\WchWorkSPace\camCoreWithRTOS\obj/../Libraries/rtthread_libraries/src/kservice.c:852
        precision = -1;
    2d5c:	5b7d                	li	s6,-1
C:\Users\29275\Desktop\WchWorkSPace\camCoreWithRTOS\obj/../Libraries/rtthread_libraries/src/kservice.c:853
        if (*fmt == '.')
    2d5e:	06f70963          	beq	a4,a5,2dd0 <rt_vsnprintf+0x14e>
C:\Users\29275\Desktop\WchWorkSPace\camCoreWithRTOS\obj/../Libraries/rtthread_libraries/src/kservice.c:871
        if (*fmt == 'h' || *fmt == 'l')
    2d62:	00040783          	lb	a5,0(s0)
    2d66:	ffb7f613          	andi	a2,a5,-5
    2d6a:	06800693          	li	a3,104
C:\Users\29275\Desktop\WchWorkSPace\camCoreWithRTOS\obj/../Libraries/rtthread_libraries/src/kservice.c:867
        qualifier = 0;
    2d6e:	4701                	li	a4,0
C:\Users\29275\Desktop\WchWorkSPace\camCoreWithRTOS\obj/../Libraries/rtthread_libraries/src/kservice.c:871
        if (*fmt == 'h' || *fmt == 'l')
    2d70:	0ad60c63          	beq	a2,a3,2e28 <rt_vsnprintf+0x1a6>
C:\Users\29275\Desktop\WchWorkSPace\camCoreWithRTOS\obj/../Libraries/rtthread_libraries/src/kservice.c:888
        switch (*fmt)
    2d74:	00044783          	lbu	a5,0(s0)
    2d78:	fdb78793          	addi	a5,a5,-37
    2d7c:	0ff7f613          	andi	a2,a5,255
    2d80:	05300693          	li	a3,83
    2d84:	20c6e863          	bltu	a3,a2,2f94 <rt_vsnprintf+0x312>
    2d88:	00261793          	slli	a5,a2,0x2
    2d8c:	97ee                	add	a5,a5,s11
    2d8e:	439c                	lw	a5,0(a5)
    2d90:	8782                	jr	a5
skip_atoi():
C:\Users\29275\Desktop\WchWorkSPace\camCoreWithRTOS\obj/../Libraries/rtthread_libraries/src/kservice.c:590
    register int i = 0;
    2d92:	4a01                	li	s4,0
C:\Users\29275\Desktop\WchWorkSPace\camCoreWithRTOS\obj/../Libraries/rtthread_libraries/src/kservice.c:591
    while (isdigit(**s))
    2d94:	46a5                	li	a3,9
C:\Users\29275\Desktop\WchWorkSPace\camCoreWithRTOS\obj/../Libraries/rtthread_libraries/src/kservice.c:592
        i = i * 10 + *((*s)++) - '0';
    2d96:	0405                	addi	s0,s0,1
    2d98:	002a1793          	slli	a5,s4,0x2
    2d9c:	9a3e                	add	s4,s4,a5
    2d9e:	0a06                	slli	s4,s4,0x1
    2da0:	9a3a                	add	s4,s4,a4
    2da2:	fd0a0a13          	addi	s4,s4,-48
C:\Users\29275\Desktop\WchWorkSPace\camCoreWithRTOS\obj/../Libraries/rtthread_libraries/src/kservice.c:591
    while (isdigit(**s))
    2da6:	00040703          	lb	a4,0(s0)
    2daa:	fd070793          	addi	a5,a4,-48 # ffd0 <__fsymtab_end+0x88b0>
    2dae:	fef6f4e3          	bgeu	a3,a5,2d96 <rt_vsnprintf+0x114>
    2db2:	b74d                	j	2d54 <rt_vsnprintf+0xd2>
rt_vsnprintf():
C:\Users\29275\Desktop\WchWorkSPace\camCoreWithRTOS\obj/../Libraries/rtthread_libraries/src/kservice.c:840
            ++ fmt;
    2db4:	00260413          	addi	s0,a2,2
C:\Users\29275\Desktop\WchWorkSPace\camCoreWithRTOS\obj/../Libraries/rtthread_libraries/src/kservice.c:842
            field_width = va_arg(args, int);
    2db8:	004c0793          	addi	a5,s8,4
    2dbc:	000c2a03          	lw	s4,0(s8)
    2dc0:	8c3e                	mv	s8,a5
C:\Users\29275\Desktop\WchWorkSPace\camCoreWithRTOS\obj/../Libraries/rtthread_libraries/src/kservice.c:843
            if (field_width < 0)
    2dc2:	f80a59e3          	bgez	s4,2d54 <rt_vsnprintf+0xd2>
C:\Users\29275\Desktop\WchWorkSPace\camCoreWithRTOS\obj/../Libraries/rtthread_libraries/src/kservice.c:845
                field_width = -field_width;
    2dc6:	41400a33          	neg	s4,s4
C:\Users\29275\Desktop\WchWorkSPace\camCoreWithRTOS\obj/../Libraries/rtthread_libraries/src/kservice.c:846
                flags |= LEFT;
    2dca:	0104e493          	ori	s1,s1,16
    2dce:	b759                	j	2d54 <rt_vsnprintf+0xd2>
C:\Users\29275\Desktop\WchWorkSPace\camCoreWithRTOS\obj/../Libraries/rtthread_libraries/src/kservice.c:855
            ++ fmt;
    2dd0:	00140713          	addi	a4,s0,1
C:\Users\29275\Desktop\WchWorkSPace\camCoreWithRTOS\obj/../Libraries/rtthread_libraries/src/kservice.c:856
            if (isdigit(*fmt)) precision = skip_atoi(&fmt);
    2dd4:	00140783          	lb	a5,1(s0)
    2dd8:	86be                	mv	a3,a5
    2dda:	fd078593          	addi	a1,a5,-48
    2dde:	4625                	li	a2,9
    2de0:	00b67963          	bgeu	a2,a1,2df2 <rt_vsnprintf+0x170>
C:\Users\29275\Desktop\WchWorkSPace\camCoreWithRTOS\obj/../Libraries/rtthread_libraries/src/kservice.c:857
            else if (*fmt == '*')
    2de4:	02a00693          	li	a3,42
    2de8:	02d78663          	beq	a5,a3,2e14 <rt_vsnprintf+0x192>
C:\Users\29275\Desktop\WchWorkSPace\camCoreWithRTOS\obj/../Libraries/rtthread_libraries/src/kservice.c:855
            ++ fmt;
    2dec:	843a                	mv	s0,a4
C:\Users\29275\Desktop\WchWorkSPace\camCoreWithRTOS\obj/../Libraries/rtthread_libraries/src/kservice.c:863
            if (precision < 0) precision = 0;
    2dee:	4b01                	li	s6,0
    2df0:	bf8d                	j	2d62 <rt_vsnprintf+0xe0>
skip_atoi():
C:\Users\29275\Desktop\WchWorkSPace\camCoreWithRTOS\obj/../Libraries/rtthread_libraries/src/kservice.c:590
    register int i = 0;
    2df2:	4b01                	li	s6,0
C:\Users\29275\Desktop\WchWorkSPace\camCoreWithRTOS\obj/../Libraries/rtthread_libraries/src/kservice.c:592
        i = i * 10 + *((*s)++) - '0';
    2df4:	0705                	addi	a4,a4,1
    2df6:	002b1793          	slli	a5,s6,0x2
    2dfa:	97da                	add	a5,a5,s6
    2dfc:	0786                	slli	a5,a5,0x1
    2dfe:	97b6                	add	a5,a5,a3
    2e00:	fd078b13          	addi	s6,a5,-48
C:\Users\29275\Desktop\WchWorkSPace\camCoreWithRTOS\obj/../Libraries/rtthread_libraries/src/kservice.c:591
    while (isdigit(**s))
    2e04:	00070683          	lb	a3,0(a4)
    2e08:	fd068793          	addi	a5,a3,-48
    2e0c:	fef674e3          	bgeu	a2,a5,2df4 <rt_vsnprintf+0x172>
C:\Users\29275\Desktop\WchWorkSPace\camCoreWithRTOS\obj/../Libraries/rtthread_libraries/src/kservice.c:592
        i = i * 10 + *((*s)++) - '0';
    2e10:	843a                	mv	s0,a4
    2e12:	a029                	j	2e1c <rt_vsnprintf+0x19a>
rt_vsnprintf():
C:\Users\29275\Desktop\WchWorkSPace\camCoreWithRTOS\obj/../Libraries/rtthread_libraries/src/kservice.c:859
                ++ fmt;
    2e14:	0409                	addi	s0,s0,2
C:\Users\29275\Desktop\WchWorkSPace\camCoreWithRTOS\obj/../Libraries/rtthread_libraries/src/kservice.c:861
                precision = va_arg(args, int);
    2e16:	000c2b03          	lw	s6,0(s8)
    2e1a:	0c11                	addi	s8,s8,4
C:\Users\29275\Desktop\WchWorkSPace\camCoreWithRTOS\obj/../Libraries/rtthread_libraries/src/kservice.c:863
            if (precision < 0) precision = 0;
    2e1c:	fffb4793          	not	a5,s6
    2e20:	87fd                	srai	a5,a5,0x1f
    2e22:	00fb7b33          	and	s6,s6,a5
    2e26:	bf35                	j	2d62 <rt_vsnprintf+0xe0>
C:\Users\29275\Desktop\WchWorkSPace\camCoreWithRTOS\obj/../Libraries/rtthread_libraries/src/kservice.c:874
            qualifier = *fmt;
    2e28:	0ff7f713          	andi	a4,a5,255
C:\Users\29275\Desktop\WchWorkSPace\camCoreWithRTOS\obj/../Libraries/rtthread_libraries/src/kservice.c:875
            ++ fmt;
    2e2c:	0405                	addi	s0,s0,1
    2e2e:	b799                	j	2d74 <rt_vsnprintf+0xf2>
C:\Users\29275\Desktop\WchWorkSPace\camCoreWithRTOS\obj/../Libraries/rtthread_libraries/src/kservice.c:975
            base = 16;
    2e30:	46c1                	li	a3,16
    2e32:	aa41                	j	2fc2 <rt_vsnprintf+0x340>
C:\Users\29275\Desktop\WchWorkSPace\camCoreWithRTOS\obj/../Libraries/rtthread_libraries/src/kservice.c:891
            if (!(flags & LEFT))
    2e34:	88c1                	andi	s1,s1,16
    2e36:	c09d                	beqz	s1,2e5c <rt_vsnprintf+0x1da>
C:\Users\29275\Desktop\WchWorkSPace\camCoreWithRTOS\obj/../Libraries/rtthread_libraries/src/kservice.c:901
            c = (rt_uint8_t)va_arg(args, int);
    2e38:	004c0693          	addi	a3,s8,4
C:\Users\29275\Desktop\WchWorkSPace\camCoreWithRTOS\obj/../Libraries/rtthread_libraries/src/kservice.c:902
            if (str < end) *str = c;
    2e3c:	0159f663          	bgeu	s3,s5,2e48 <rt_vsnprintf+0x1c6>
C:\Users\29275\Desktop\WchWorkSPace\camCoreWithRTOS\obj/../Libraries/rtthread_libraries/src/kservice.c:901 (discriminator 1)
            c = (rt_uint8_t)va_arg(args, int);
    2e40:	000c2783          	lw	a5,0(s8)
    2e44:	00f98023          	sb	a5,0(s3)
C:\Users\29275\Desktop\WchWorkSPace\camCoreWithRTOS\obj/../Libraries/rtthread_libraries/src/kservice.c:903
            ++ str;
    2e48:	00198793          	addi	a5,s3,1
C:\Users\29275\Desktop\WchWorkSPace\camCoreWithRTOS\obj/../Libraries/rtthread_libraries/src/kservice.c:906
            while (--field_width > 0)
    2e4c:	4705                	li	a4,1
    2e4e:	1d475163          	bge	a4,s4,3010 <rt_vsnprintf+0x38e>
    2e52:	8652                	mv	a2,s4
    2e54:	9a4e                	add	s4,s4,s3
C:\Users\29275\Desktop\WchWorkSPace\camCoreWithRTOS\obj/../Libraries/rtthread_libraries/src/kservice.c:908
                if (str < end) *str = ' ';
    2e56:	02000713          	li	a4,32
    2e5a:	a80d                	j	2e8c <rt_vsnprintf+0x20a>
C:\Users\29275\Desktop\WchWorkSPace\camCoreWithRTOS\obj/../Libraries/rtthread_libraries/src/kservice.c:893
                while (--field_width > 0)
    2e5c:	fffa0793          	addi	a5,s4,-1
    2e60:	02f05163          	blez	a5,2e82 <rt_vsnprintf+0x200>
    2e64:	97ce                	add	a5,a5,s3
C:\Users\29275\Desktop\WchWorkSPace\camCoreWithRTOS\obj/../Libraries/rtthread_libraries/src/kservice.c:895
                    if (str < end) *str = ' ';
    2e66:	02000713          	li	a4,32
    2e6a:	a021                	j	2e72 <rt_vsnprintf+0x1f0>
C:\Users\29275\Desktop\WchWorkSPace\camCoreWithRTOS\obj/../Libraries/rtthread_libraries/src/kservice.c:896
                    ++ str;
    2e6c:	0985                	addi	s3,s3,1
C:\Users\29275\Desktop\WchWorkSPace\camCoreWithRTOS\obj/../Libraries/rtthread_libraries/src/kservice.c:893
                while (--field_width > 0)
    2e6e:	01378763          	beq	a5,s3,2e7c <rt_vsnprintf+0x1fa>
C:\Users\29275\Desktop\WchWorkSPace\camCoreWithRTOS\obj/../Libraries/rtthread_libraries/src/kservice.c:895
                    if (str < end) *str = ' ';
    2e72:	ff59fde3          	bgeu	s3,s5,2e6c <rt_vsnprintf+0x1ea>
C:\Users\29275\Desktop\WchWorkSPace\camCoreWithRTOS\obj/../Libraries/rtthread_libraries/src/kservice.c:895 (discriminator 1)
    2e76:	00e98023          	sb	a4,0(s3)
    2e7a:	bfcd                	j	2e6c <rt_vsnprintf+0x1ea>
C:\Users\29275\Desktop\WchWorkSPace\camCoreWithRTOS\obj/../Libraries/rtthread_libraries/src/kservice.c:896
                    ++ str;
    2e7c:	89be                	mv	s3,a5
C:\Users\29275\Desktop\WchWorkSPace\camCoreWithRTOS\obj/../Libraries/rtthread_libraries/src/kservice.c:893
                while (--field_width > 0)
    2e7e:	4a01                	li	s4,0
    2e80:	bf65                	j	2e38 <rt_vsnprintf+0x1b6>
    2e82:	8a3e                	mv	s4,a5
    2e84:	bf55                	j	2e38 <rt_vsnprintf+0x1b6>
C:\Users\29275\Desktop\WchWorkSPace\camCoreWithRTOS\obj/../Libraries/rtthread_libraries/src/kservice.c:909
                ++ str;
    2e86:	0785                	addi	a5,a5,1
C:\Users\29275\Desktop\WchWorkSPace\camCoreWithRTOS\obj/../Libraries/rtthread_libraries/src/kservice.c:906
            while (--field_width > 0)
    2e88:	01478763          	beq	a5,s4,2e96 <rt_vsnprintf+0x214>
C:\Users\29275\Desktop\WchWorkSPace\camCoreWithRTOS\obj/../Libraries/rtthread_libraries/src/kservice.c:908
                if (str < end) *str = ' ';
    2e8c:	ff57fde3          	bgeu	a5,s5,2e86 <rt_vsnprintf+0x204>
C:\Users\29275\Desktop\WchWorkSPace\camCoreWithRTOS\obj/../Libraries/rtthread_libraries/src/kservice.c:908 (discriminator 1)
    2e90:	00e78023          	sb	a4,0(a5)
    2e94:	bfcd                	j	2e86 <rt_vsnprintf+0x204>
    2e96:	99b2                	add	s3,s3,a2
C:\Users\29275\Desktop\WchWorkSPace\camCoreWithRTOS\obj/../Libraries/rtthread_libraries/src/kservice.c:901
            c = (rt_uint8_t)va_arg(args, int);
    2e98:	8c36                	mv	s8,a3
    2e9a:	bd35                	j	2cd6 <rt_vsnprintf+0x54>
C:\Users\29275\Desktop\WchWorkSPace\camCoreWithRTOS\obj/../Libraries/rtthread_libraries/src/kservice.c:914
            s = va_arg(args, char *);
    2e9c:	004c0793          	addi	a5,s8,4
    2ea0:	c63e                	sw	a5,12(sp)
    2ea2:	000c2c03          	lw	s8,0(s8)
C:\Users\29275\Desktop\WchWorkSPace\camCoreWithRTOS\obj/../Libraries/rtthread_libraries/src/kservice.c:915
            if (!s) s = "(NULL)";
    2ea6:	020c0163          	beqz	s8,2ec8 <rt_vsnprintf+0x246>
C:\Users\29275\Desktop\WchWorkSPace\camCoreWithRTOS\obj/../Libraries/rtthread_libraries/src/kservice.c:917
            len = rt_strlen(s);
    2eaa:	8562                	mv	a0,s8
    2eac:	dbdff0ef          	jal	ra,2c68 <rt_strlen>
C:\Users\29275\Desktop\WchWorkSPace\camCoreWithRTOS\obj/../Libraries/rtthread_libraries/src/kservice.c:919
            if (precision > 0 && len > precision) len = precision;
    2eb0:	01605563          	blez	s6,2eba <rt_vsnprintf+0x238>
    2eb4:	00ab5363          	bge	s6,a0,2eba <rt_vsnprintf+0x238>
    2eb8:	855a                	mv	a0,s6
C:\Users\29275\Desktop\WchWorkSPace\camCoreWithRTOS\obj/../Libraries/rtthread_libraries/src/kservice.c:922
            if (!(flags & LEFT))
    2eba:	88c1                	andi	s1,s1,16
    2ebc:	c899                	beqz	s1,2ed2 <rt_vsnprintf+0x250>
C:\Users\29275\Desktop\WchWorkSPace\camCoreWithRTOS\obj/../Libraries/rtthread_libraries/src/kservice.c:931
            for (i = 0; i < len; ++i)
    2ebe:	06a05063          	blez	a0,2f1e <rt_vsnprintf+0x29c>
    2ec2:	00a987b3          	add	a5,s3,a0
    2ec6:	a0a9                	j	2f10 <rt_vsnprintf+0x28e>
C:\Users\29275\Desktop\WchWorkSPace\camCoreWithRTOS\obj/../Libraries/rtthread_libraries/src/kservice.c:915
            if (!s) s = "(NULL)";
    2ec8:	000077b7          	lui	a5,0x7
    2ecc:	05c78c13          	addi	s8,a5,92 # 705c <large_digits.2240+0x9c>
    2ed0:	bfe9                	j	2eaa <rt_vsnprintf+0x228>
C:\Users\29275\Desktop\WchWorkSPace\camCoreWithRTOS\obj/../Libraries/rtthread_libraries/src/kservice.c:924
                while (len < field_width--)
    2ed2:	fffa0693          	addi	a3,s4,-1
    2ed6:	03455763          	bge	a0,s4,2f04 <rt_vsnprintf+0x282>
    2eda:	85d2                	mv	a1,s4
    2edc:	872a                	mv	a4,a0
    2ede:	40aa07b3          	sub	a5,s4,a0
    2ee2:	97ce                	add	a5,a5,s3
C:\Users\29275\Desktop\WchWorkSPace\camCoreWithRTOS\obj/../Libraries/rtthread_libraries/src/kservice.c:926
                    if (str < end) *str = ' ';
    2ee4:	02000613          	li	a2,32
    2ee8:	a021                	j	2ef0 <rt_vsnprintf+0x26e>
C:\Users\29275\Desktop\WchWorkSPace\camCoreWithRTOS\obj/../Libraries/rtthread_libraries/src/kservice.c:927
                    ++ str;
    2eea:	0985                	addi	s3,s3,1
C:\Users\29275\Desktop\WchWorkSPace\camCoreWithRTOS\obj/../Libraries/rtthread_libraries/src/kservice.c:924
                while (len < field_width--)
    2eec:	00f98763          	beq	s3,a5,2efa <rt_vsnprintf+0x278>
C:\Users\29275\Desktop\WchWorkSPace\camCoreWithRTOS\obj/../Libraries/rtthread_libraries/src/kservice.c:926
                    if (str < end) *str = ' ';
    2ef0:	ff59fde3          	bgeu	s3,s5,2eea <rt_vsnprintf+0x268>
C:\Users\29275\Desktop\WchWorkSPace\camCoreWithRTOS\obj/../Libraries/rtthread_libraries/src/kservice.c:926 (discriminator 1)
    2ef4:	00c98023          	sb	a2,0(s3)
    2ef8:	bfcd                	j	2eea <rt_vsnprintf+0x268>
    2efa:	40b70a33          	sub	s4,a4,a1
    2efe:	9a36                	add	s4,s4,a3
C:\Users\29275\Desktop\WchWorkSPace\camCoreWithRTOS\obj/../Libraries/rtthread_libraries/src/kservice.c:927
                    ++ str;
    2f00:	89be                	mv	s3,a5
    2f02:	bf75                	j	2ebe <rt_vsnprintf+0x23c>
C:\Users\29275\Desktop\WchWorkSPace\camCoreWithRTOS\obj/../Libraries/rtthread_libraries/src/kservice.c:924
                while (len < field_width--)
    2f04:	8a36                	mv	s4,a3
    2f06:	bf65                	j	2ebe <rt_vsnprintf+0x23c>
C:\Users\29275\Desktop\WchWorkSPace\camCoreWithRTOS\obj/../Libraries/rtthread_libraries/src/kservice.c:934 (discriminator 2)
                ++ str;
    2f08:	0985                	addi	s3,s3,1
C:\Users\29275\Desktop\WchWorkSPace\camCoreWithRTOS\obj/../Libraries/rtthread_libraries/src/kservice.c:935 (discriminator 2)
                ++ s;
    2f0a:	0c05                	addi	s8,s8,1
C:\Users\29275\Desktop\WchWorkSPace\camCoreWithRTOS\obj/../Libraries/rtthread_libraries/src/kservice.c:931 (discriminator 2)
            for (i = 0; i < len; ++i)
    2f0c:	00f98a63          	beq	s3,a5,2f20 <rt_vsnprintf+0x29e>
C:\Users\29275\Desktop\WchWorkSPace\camCoreWithRTOS\obj/../Libraries/rtthread_libraries/src/kservice.c:933
                if (str < end) *str = *s;
    2f10:	ff59fce3          	bgeu	s3,s5,2f08 <rt_vsnprintf+0x286>
C:\Users\29275\Desktop\WchWorkSPace\camCoreWithRTOS\obj/../Libraries/rtthread_libraries/src/kservice.c:933 (discriminator 1)
    2f14:	000c0703          	lb	a4,0(s8)
    2f18:	00e98023          	sb	a4,0(s3)
    2f1c:	b7f5                	j	2f08 <rt_vsnprintf+0x286>
C:\Users\29275\Desktop\WchWorkSPace\camCoreWithRTOS\obj/../Libraries/rtthread_libraries/src/kservice.c:931
            for (i = 0; i < len; ++i)
    2f1e:	87ce                	mv	a5,s3
C:\Users\29275\Desktop\WchWorkSPace\camCoreWithRTOS\obj/../Libraries/rtthread_libraries/src/kservice.c:938
            while (len < field_width--)
    2f20:	0f455b63          	bge	a0,s4,3016 <rt_vsnprintf+0x394>
    2f24:	40aa0533          	sub	a0,s4,a0
    2f28:	00a789b3          	add	s3,a5,a0
C:\Users\29275\Desktop\WchWorkSPace\camCoreWithRTOS\obj/../Libraries/rtthread_libraries/src/kservice.c:940
                if (str < end) *str = ' ';
    2f2c:	02000713          	li	a4,32
    2f30:	a021                	j	2f38 <rt_vsnprintf+0x2b6>
C:\Users\29275\Desktop\WchWorkSPace\camCoreWithRTOS\obj/../Libraries/rtthread_libraries/src/kservice.c:941
                ++ str;
    2f32:	0785                	addi	a5,a5,1
C:\Users\29275\Desktop\WchWorkSPace\camCoreWithRTOS\obj/../Libraries/rtthread_libraries/src/kservice.c:938
            while (len < field_width--)
    2f34:	01378763          	beq	a5,s3,2f42 <rt_vsnprintf+0x2c0>
C:\Users\29275\Desktop\WchWorkSPace\camCoreWithRTOS\obj/../Libraries/rtthread_libraries/src/kservice.c:940
                if (str < end) *str = ' ';
    2f38:	ff57fde3          	bgeu	a5,s5,2f32 <rt_vsnprintf+0x2b0>
C:\Users\29275\Desktop\WchWorkSPace\camCoreWithRTOS\obj/../Libraries/rtthread_libraries/src/kservice.c:940 (discriminator 1)
    2f3c:	00e78023          	sb	a4,0(a5)
    2f40:	bfcd                	j	2f32 <rt_vsnprintf+0x2b0>
C:\Users\29275\Desktop\WchWorkSPace\camCoreWithRTOS\obj/../Libraries/rtthread_libraries/src/kservice.c:914
            s = va_arg(args, char *);
    2f42:	4c32                	lw	s8,12(sp)
    2f44:	bb49                	j	2cd6 <rt_vsnprintf+0x54>
C:\Users\29275\Desktop\WchWorkSPace\camCoreWithRTOS\obj/../Libraries/rtthread_libraries/src/kservice.c:946
            if (field_width == -1)
    2f46:	57fd                	li	a5,-1
    2f48:	02fa0263          	beq	s4,a5,2f6c <rt_vsnprintf+0x2ea>
C:\Users\29275\Desktop\WchWorkSPace\camCoreWithRTOS\obj/../Libraries/rtthread_libraries/src/kservice.c:953
                               (long)va_arg(args, void *),
    2f4c:	004c0793          	addi	a5,s8,4
    2f50:	c63e                	sw	a5,12(sp)
C:\Users\29275\Desktop\WchWorkSPace\camCoreWithRTOS\obj/../Libraries/rtthread_libraries/src/kservice.c:952
            str = print_number(str, end,
    2f52:	8826                	mv	a6,s1
    2f54:	87da                	mv	a5,s6
    2f56:	8752                	mv	a4,s4
    2f58:	46c1                	li	a3,16
    2f5a:	000c2603          	lw	a2,0(s8)
    2f5e:	85d6                	mv	a1,s5
    2f60:	854e                	mv	a0,s3
    2f62:	a53ff0ef          	jal	ra,29b4 <print_number>
    2f66:	89aa                	mv	s3,a0
C:\Users\29275\Desktop\WchWorkSPace\camCoreWithRTOS\obj/../Libraries/rtthread_libraries/src/kservice.c:953
                               (long)va_arg(args, void *),
    2f68:	4c32                	lw	s8,12(sp)
C:\Users\29275\Desktop\WchWorkSPace\camCoreWithRTOS\obj/../Libraries/rtthread_libraries/src/kservice.c:960
            continue;
    2f6a:	b3b5                	j	2cd6 <rt_vsnprintf+0x54>
C:\Users\29275\Desktop\WchWorkSPace\camCoreWithRTOS\obj/../Libraries/rtthread_libraries/src/kservice.c:949
                flags |= ZEROPAD;
    2f6c:	0014e493          	ori	s1,s1,1
C:\Users\29275\Desktop\WchWorkSPace\camCoreWithRTOS\obj/../Libraries/rtthread_libraries/src/kservice.c:948
                field_width = sizeof(void *) << 1;
    2f70:	4a21                	li	s4,8
    2f72:	bfe9                	j	2f4c <rt_vsnprintf+0x2ca>
C:\Users\29275\Desktop\WchWorkSPace\camCoreWithRTOS\obj/../Libraries/rtthread_libraries/src/kservice.c:963
            if (str < end) *str = '%';
    2f74:	0159f663          	bgeu	s3,s5,2f80 <rt_vsnprintf+0x2fe>
C:\Users\29275\Desktop\WchWorkSPace\camCoreWithRTOS\obj/../Libraries/rtthread_libraries/src/kservice.c:963 (discriminator 1)
    2f78:	02500793          	li	a5,37
    2f7c:	00f98023          	sb	a5,0(s3)
C:\Users\29275\Desktop\WchWorkSPace\camCoreWithRTOS\obj/../Libraries/rtthread_libraries/src/kservice.c:964
            ++ str;
    2f80:	0985                	addi	s3,s3,1
C:\Users\29275\Desktop\WchWorkSPace\camCoreWithRTOS\obj/../Libraries/rtthread_libraries/src/kservice.c:965
            continue;
    2f82:	bb91                	j	2cd6 <rt_vsnprintf+0x54>
C:\Users\29275\Desktop\WchWorkSPace\camCoreWithRTOS\obj/../Libraries/rtthread_libraries/src/kservice.c:973
            flags |= LARGE; // @suppress("No break at end of case")
    2f84:	0404e493          	ori	s1,s1,64
C:\Users\29275\Desktop\WchWorkSPace\camCoreWithRTOS\obj/../Libraries/rtthread_libraries/src/kservice.c:975
            base = 16;
    2f88:	46c1                	li	a3,16
    2f8a:	a825                	j	2fc2 <rt_vsnprintf+0x340>
C:\Users\29275\Desktop\WchWorkSPace\camCoreWithRTOS\obj/../Libraries/rtthread_libraries/src/kservice.c:980
            flags |= SIGN; // @suppress("No break at end of case")
    2f8c:	0024e493          	ori	s1,s1,2
C:\Users\29275\Desktop\WchWorkSPace\camCoreWithRTOS\obj/../Libraries/rtthread_libraries/src/kservice.c:886
        base = 10;
    2f90:	46a9                	li	a3,10
    2f92:	a805                	j	2fc2 <rt_vsnprintf+0x340>
C:\Users\29275\Desktop\WchWorkSPace\camCoreWithRTOS\obj/../Libraries/rtthread_libraries/src/kservice.c:985
            if (str < end) *str = '%';
    2f94:	0159f663          	bgeu	s3,s5,2fa0 <rt_vsnprintf+0x31e>
C:\Users\29275\Desktop\WchWorkSPace\camCoreWithRTOS\obj/../Libraries/rtthread_libraries/src/kservice.c:985 (discriminator 1)
    2f98:	02500793          	li	a5,37
    2f9c:	00f98023          	sb	a5,0(s3)
C:\Users\29275\Desktop\WchWorkSPace\camCoreWithRTOS\obj/../Libraries/rtthread_libraries/src/kservice.c:986
            ++ str;
    2fa0:	00198713          	addi	a4,s3,1
C:\Users\29275\Desktop\WchWorkSPace\camCoreWithRTOS\obj/../Libraries/rtthread_libraries/src/kservice.c:988
            if (*fmt)
    2fa4:	00040783          	lb	a5,0(s0)
    2fa8:	c799                	beqz	a5,2fb6 <rt_vsnprintf+0x334>
C:\Users\29275\Desktop\WchWorkSPace\camCoreWithRTOS\obj/../Libraries/rtthread_libraries/src/kservice.c:990
                if (str < end) *str = *fmt;
    2faa:	01577463          	bgeu	a4,s5,2fb2 <rt_vsnprintf+0x330>
C:\Users\29275\Desktop\WchWorkSPace\camCoreWithRTOS\obj/../Libraries/rtthread_libraries/src/kservice.c:990 (discriminator 1)
    2fae:	00f980a3          	sb	a5,1(s3)
C:\Users\29275\Desktop\WchWorkSPace\camCoreWithRTOS\obj/../Libraries/rtthread_libraries/src/kservice.c:991
                ++ str;
    2fb2:	0989                	addi	s3,s3,2
    2fb4:	b30d                	j	2cd6 <rt_vsnprintf+0x54>
C:\Users\29275\Desktop\WchWorkSPace\camCoreWithRTOS\obj/../Libraries/rtthread_libraries/src/kservice.c:995
                -- fmt;
    2fb6:	147d                	addi	s0,s0,-1
C:\Users\29275\Desktop\WchWorkSPace\camCoreWithRTOS\obj/../Libraries/rtthread_libraries/src/kservice.c:986
            ++ str;
    2fb8:	89ba                	mv	s3,a4
    2fba:	bb31                	j	2cd6 <rt_vsnprintf+0x54>
C:\Users\29275\Desktop\WchWorkSPace\camCoreWithRTOS\obj/../Libraries/rtthread_libraries/src/kservice.c:886
        base = 10;
    2fbc:	46a9                	li	a3,10
    2fbe:	a011                	j	2fc2 <rt_vsnprintf+0x340>
C:\Users\29275\Desktop\WchWorkSPace\camCoreWithRTOS\obj/../Libraries/rtthread_libraries/src/kservice.c:969
            base = 8;
    2fc0:	46a1                	li	a3,8
C:\Users\29275\Desktop\WchWorkSPace\camCoreWithRTOS\obj/../Libraries/rtthread_libraries/src/kservice.c:1004
        if (qualifier == 'l')
    2fc2:	06c00793          	li	a5,108
    2fc6:	02f70263          	beq	a4,a5,2fea <rt_vsnprintf+0x368>
C:\Users\29275\Desktop\WchWorkSPace\camCoreWithRTOS\obj/../Libraries/rtthread_libraries/src/kservice.c:1010
        else if (qualifier == 'h')
    2fca:	06800793          	li	a5,104
    2fce:	02f70263          	beq	a4,a5,2ff2 <rt_vsnprintf+0x370>
C:\Users\29275\Desktop\WchWorkSPace\camCoreWithRTOS\obj/../Libraries/rtthread_libraries/src/kservice.c:1017
            if (flags & SIGN) num = (rt_int16_t)num;
        }
        else
        {
            num = va_arg(args, rt_uint32_t);
    2fd2:	000c2603          	lw	a2,0(s8)
    2fd6:	0c11                	addi	s8,s8,4
C:\Users\29275\Desktop\WchWorkSPace\camCoreWithRTOS\obj/../Libraries/rtthread_libraries/src/kservice.c:1021
            if (flags & SIGN) num = (rt_int32_t)num;
        }
#ifdef RT_PRINTF_PRECISION
        str = print_number(str, end, num, base, field_width, precision, flags);
    2fd8:	8826                	mv	a6,s1
    2fda:	87da                	mv	a5,s6
    2fdc:	8752                	mv	a4,s4
    2fde:	85d6                	mv	a1,s5
    2fe0:	854e                	mv	a0,s3
    2fe2:	9d3ff0ef          	jal	ra,29b4 <print_number>
    2fe6:	89aa                	mv	s3,a0
    2fe8:	b1fd                	j	2cd6 <rt_vsnprintf+0x54>
C:\Users\29275\Desktop\WchWorkSPace\camCoreWithRTOS\obj/../Libraries/rtthread_libraries/src/kservice.c:1007
            num = va_arg(args, rt_uint32_t);
    2fea:	000c2603          	lw	a2,0(s8)
    2fee:	0c11                	addi	s8,s8,4
    2ff0:	b7e5                	j	2fd8 <rt_vsnprintf+0x356>
C:\Users\29275\Desktop\WchWorkSPace\camCoreWithRTOS\obj/../Libraries/rtthread_libraries/src/kservice.c:1012
            num = (rt_uint16_t)va_arg(args, rt_int32_t);
    2ff2:	004c0793          	addi	a5,s8,4
    2ff6:	000c2603          	lw	a2,0(s8)
C:\Users\29275\Desktop\WchWorkSPace\camCoreWithRTOS\obj/../Libraries/rtthread_libraries/src/kservice.c:1013
            if (flags & SIGN) num = (rt_int16_t)num;
    2ffa:	0024f713          	andi	a4,s1,2
    2ffe:	e709                	bnez	a4,3008 <rt_vsnprintf+0x386>
C:\Users\29275\Desktop\WchWorkSPace\camCoreWithRTOS\obj/../Libraries/rtthread_libraries/src/kservice.c:1012
            num = (rt_uint16_t)va_arg(args, rt_int32_t);
    3000:	4722                	lw	a4,8(sp)
    3002:	8e79                	and	a2,a2,a4
    3004:	8c3e                	mv	s8,a5
    3006:	bfc9                	j	2fd8 <rt_vsnprintf+0x356>
C:\Users\29275\Desktop\WchWorkSPace\camCoreWithRTOS\obj/../Libraries/rtthread_libraries/src/kservice.c:1013 (discriminator 1)
            if (flags & SIGN) num = (rt_int16_t)num;
    3008:	0642                	slli	a2,a2,0x10
    300a:	8641                	srai	a2,a2,0x10
C:\Users\29275\Desktop\WchWorkSPace\camCoreWithRTOS\obj/../Libraries/rtthread_libraries/src/kservice.c:1012 (discriminator 1)
            num = (rt_uint16_t)va_arg(args, rt_int32_t);
    300c:	8c3e                	mv	s8,a5
    300e:	b7e9                	j	2fd8 <rt_vsnprintf+0x356>
C:\Users\29275\Desktop\WchWorkSPace\camCoreWithRTOS\obj/../Libraries/rtthread_libraries/src/kservice.c:901
            c = (rt_uint8_t)va_arg(args, int);
    3010:	8c36                	mv	s8,a3
C:\Users\29275\Desktop\WchWorkSPace\camCoreWithRTOS\obj/../Libraries/rtthread_libraries/src/kservice.c:903
            ++ str;
    3012:	89be                	mv	s3,a5
    3014:	b1c9                	j	2cd6 <rt_vsnprintf+0x54>
C:\Users\29275\Desktop\WchWorkSPace\camCoreWithRTOS\obj/../Libraries/rtthread_libraries/src/kservice.c:914
            s = va_arg(args, char *);
    3016:	4c32                	lw	s8,12(sp)
C:\Users\29275\Desktop\WchWorkSPace\camCoreWithRTOS\obj/../Libraries/rtthread_libraries/src/kservice.c:938
            while (len < field_width--)
    3018:	89be                	mv	s3,a5
    301a:	b975                	j	2cd6 <rt_vsnprintf+0x54>
C:\Users\29275\Desktop\WchWorkSPace\camCoreWithRTOS\obj/../Libraries/rtthread_libraries/src/kservice.c:1027
#else
        str = print_number(str, end, num, base, field_width, flags);
#endif
    }

    if (size > 0)
    301c:	000d0663          	beqz	s10,3028 <rt_vsnprintf+0x3a6>
C:\Users\29275\Desktop\WchWorkSPace\camCoreWithRTOS\obj/../Libraries/rtthread_libraries/src/kservice.c:1029
    {
        if (str < end) *str = '\0';
    3020:	0359f563          	bgeu	s3,s5,304a <rt_vsnprintf+0x3c8>
C:\Users\29275\Desktop\WchWorkSPace\camCoreWithRTOS\obj/../Libraries/rtthread_libraries/src/kservice.c:1029 (discriminator 1)
    3024:	00098023          	sb	zero,0(s3)
C:\Users\29275\Desktop\WchWorkSPace\camCoreWithRTOS\obj/../Libraries/rtthread_libraries/src/kservice.c:1040

    /* the trailing null byte doesn't count towards the total
    * ++str;
    */
    return str - buf;
}
    3028:	41998533          	sub	a0,s3,s9
    302c:	40b6                	lw	ra,76(sp)
    302e:	4426                	lw	s0,72(sp)
    3030:	4496                	lw	s1,68(sp)
    3032:	4906                	lw	s2,64(sp)
    3034:	59f2                	lw	s3,60(sp)
    3036:	5a62                	lw	s4,56(sp)
    3038:	5ad2                	lw	s5,52(sp)
    303a:	5b42                	lw	s6,48(sp)
    303c:	5bb2                	lw	s7,44(sp)
    303e:	5c22                	lw	s8,40(sp)
    3040:	5c92                	lw	s9,36(sp)
    3042:	5d02                	lw	s10,32(sp)
    3044:	4df2                	lw	s11,28(sp)
    3046:	6161                	addi	sp,sp,80
    3048:	8082                	ret
C:\Users\29275\Desktop\WchWorkSPace\camCoreWithRTOS\obj/../Libraries/rtthread_libraries/src/kservice.c:1032
            end[-1] = '\0';
    304a:	fe0a8fa3          	sb	zero,-1(s5)
    304e:	bfe9                	j	3028 <rt_vsnprintf+0x3a6>

00003050 <rt_kprintf>:
rt_kprintf():
C:\Users\29275\Desktop\WchWorkSPace\camCoreWithRTOS\obj/../Libraries/rtthread_libraries/src/kservice.c:1184
 * This function will print a formatted string on system console
 *
 * @param fmt the format
 */
void rt_kprintf(const char *fmt, ...)
{
    3050:	7139                	addi	sp,sp,-64
    3052:	ce06                	sw	ra,28(sp)
    3054:	cc22                	sw	s0,24(sp)
    3056:	d22e                	sw	a1,36(sp)
    3058:	d432                	sw	a2,40(sp)
    305a:	d636                	sw	a3,44(sp)
    305c:	d83a                	sw	a4,48(sp)
    305e:	da3e                	sw	a5,52(sp)
    3060:	dc42                	sw	a6,56(sp)
    3062:	de46                	sw	a7,60(sp)
C:\Users\29275\Desktop\WchWorkSPace\camCoreWithRTOS\obj/../Libraries/rtthread_libraries/src/kservice.c:1189
    va_list args;
    rt_size_t length;
    static char rt_log_buf[RT_CONSOLEBUF_SIZE];

    va_start(args, fmt);
    3064:	1054                	addi	a3,sp,36
    3066:	c636                	sw	a3,12(sp)
C:\Users\29275\Desktop\WchWorkSPace\camCoreWithRTOS\obj/../Libraries/rtthread_libraries/src/kservice.c:1195
    /* the return value of vsnprintf is the number of bytes that would be
     * written to buffer had if the size of the buffer been sufficiently
     * large excluding the terminating null byte. If the output string
     * would be larger than the rt_log_buf, we have to adjust the output
     * length. */
    length = rt_vsnprintf(rt_log_buf, sizeof(rt_log_buf) - 1, fmt, args);
    3068:	862a                	mv	a2,a0
    306a:	07f00593          	li	a1,127
    306e:	d4c18513          	addi	a0,gp,-692 # 200005fc <rt_log_buf.2341>
    3072:	c11ff0ef          	jal	ra,2c82 <rt_vsnprintf>
C:\Users\29275\Desktop\WchWorkSPace\camCoreWithRTOS\obj/../Libraries/rtthread_libraries/src/kservice.c:1212
        _console_device->open_flag |= RT_DEVICE_FLAG_STREAM;
        rt_device_write(_console_device, 0, rt_log_buf, length);
        _console_device->open_flag = old_flag;
    }
#else
    rt_hw_console_output(rt_log_buf);
    3076:	d4c18513          	addi	a0,gp,-692 # 200005fc <rt_log_buf.2341>
    307a:	621010ef          	jal	ra,4e9a <rt_hw_console_output>
C:\Users\29275\Desktop\WchWorkSPace\camCoreWithRTOS\obj/../Libraries/rtthread_libraries/src/kservice.c:1215
#endif
    va_end(args);
}
    307e:	40f2                	lw	ra,28(sp)
    3080:	4462                	lw	s0,24(sp)
    3082:	6121                	addi	sp,sp,64
    3084:	8082                	ret

00003086 <rt_show_version>:
rt_show_version():
C:\Users\29275\Desktop\WchWorkSPace\camCoreWithRTOS\obj/../Libraries/rtthread_libraries/src/kservice.c:536
{
    3086:	1141                	addi	sp,sp,-16
    3088:	c606                	sw	ra,12(sp)
C:\Users\29275\Desktop\WchWorkSPace\camCoreWithRTOS\obj/../Libraries/rtthread_libraries/src/kservice.c:537
    rt_kprintf("\n \\ | /\n");
    308a:	00007537          	lui	a0,0x7
    308e:	fd450513          	addi	a0,a0,-44 # 6fd4 <large_digits.2240+0x14>
    3092:	3f7d                	jal	3050 <rt_kprintf>
C:\Users\29275\Desktop\WchWorkSPace\camCoreWithRTOS\obj/../Libraries/rtthread_libraries/src/kservice.c:538
    rt_kprintf("- RT -     Thread Operating System\n");
    3094:	00007537          	lui	a0,0x7
    3098:	fe050513          	addi	a0,a0,-32 # 6fe0 <large_digits.2240+0x20>
    309c:	3f55                	jal	3050 <rt_kprintf>
C:\Users\29275\Desktop\WchWorkSPace\camCoreWithRTOS\obj/../Libraries/rtthread_libraries/src/kservice.c:539
    rt_kprintf(" / | \\     %d.%d.%d build %s\n",
    309e:	00007737          	lui	a4,0x7
    30a2:	00470713          	addi	a4,a4,4 # 7004 <large_digits.2240+0x44>
    30a6:	468d                	li	a3,3
    30a8:	4605                	li	a2,1
    30aa:	458d                	li	a1,3
    30ac:	00007537          	lui	a0,0x7
    30b0:	01050513          	addi	a0,a0,16 # 7010 <large_digits.2240+0x50>
    30b4:	3f71                	jal	3050 <rt_kprintf>
C:\Users\29275\Desktop\WchWorkSPace\camCoreWithRTOS\obj/../Libraries/rtthread_libraries/src/kservice.c:541
    rt_kprintf(" 2006 - 2019 Copyright by rt-thread team\n");
    30b6:	00007537          	lui	a0,0x7
    30ba:	03050513          	addi	a0,a0,48 # 7030 <large_digits.2240+0x70>
    30be:	3f49                	jal	3050 <rt_kprintf>
C:\Users\29275\Desktop\WchWorkSPace\camCoreWithRTOS\obj/../Libraries/rtthread_libraries/src/kservice.c:542
}
    30c0:	40b2                	lw	ra,12(sp)
    30c2:	0141                	addi	sp,sp,16
    30c4:	8082                	ret

000030c6 <__rt_ffs>:
__rt_ffs():
C:\Users\29275\Desktop\WchWorkSPace\camCoreWithRTOS\obj/../Libraries/rtthread_libraries/src/kservice.c:1313
 * @return return the index of the first bit set. If value is 0, then this function
 * shall return 0.
 */
int __rt_ffs(int value)
{
    if (value == 0) return 0;
    30c6:	c50d                	beqz	a0,30f0 <__rt_ffs+0x2a>
C:\Users\29275\Desktop\WchWorkSPace\camCoreWithRTOS\obj/../Libraries/rtthread_libraries/src/kservice.c:1315

    if (value & 0xff)
    30c8:	0ff57793          	andi	a5,a0,255
    30cc:	e39d                	bnez	a5,30f2 <__rt_ffs+0x2c>
C:\Users\29275\Desktop\WchWorkSPace\camCoreWithRTOS\obj/../Libraries/rtthread_libraries/src/kservice.c:1318
        return __lowest_bit_bitmap[value & 0xff] + 1;

    if (value & 0xff00)
    30ce:	67c1                	lui	a5,0x10
    30d0:	f0078793          	addi	a5,a5,-256 # ff00 <__fsymtab_end+0x87e0>
    30d4:	8fe9                	and	a5,a5,a0
    30d6:	e795                	bnez	a5,3102 <__rt_ffs+0x3c>
C:\Users\29275\Desktop\WchWorkSPace\camCoreWithRTOS\obj/../Libraries/rtthread_libraries/src/kservice.c:1321
        return __lowest_bit_bitmap[(value & 0xff00) >> 8] + 9;

    if (value & 0xff0000)
    30d8:	00ff07b7          	lui	a5,0xff0
    30dc:	8fe9                	and	a5,a5,a0
    30de:	ef8d                	bnez	a5,3118 <__rt_ffs+0x52>
C:\Users\29275\Desktop\WchWorkSPace\camCoreWithRTOS\obj/../Libraries/rtthread_libraries/src/kservice.c:1324
        return __lowest_bit_bitmap[(value & 0xff0000) >> 16] + 17;

    return __lowest_bit_bitmap[(value & 0xff000000) >> 24] + 25;
    30e0:	8161                	srli	a0,a0,0x18
    30e2:	679d                	lui	a5,0x7
    30e4:	ec078793          	addi	a5,a5,-320 # 6ec0 <__lowest_bit_bitmap>
    30e8:	953e                	add	a0,a0,a5
    30ea:	00054503          	lbu	a0,0(a0)
    30ee:	0565                	addi	a0,a0,25
C:\Users\29275\Desktop\WchWorkSPace\camCoreWithRTOS\obj/../Libraries/rtthread_libraries/src/kservice.c:1325
}
    30f0:	8082                	ret
C:\Users\29275\Desktop\WchWorkSPace\camCoreWithRTOS\obj/../Libraries/rtthread_libraries/src/kservice.c:1316
        return __lowest_bit_bitmap[value & 0xff] + 1;
    30f2:	671d                	lui	a4,0x7
    30f4:	ec070713          	addi	a4,a4,-320 # 6ec0 <__lowest_bit_bitmap>
    30f8:	97ba                	add	a5,a5,a4
    30fa:	0007c503          	lbu	a0,0(a5)
    30fe:	0505                	addi	a0,a0,1
    3100:	8082                	ret
C:\Users\29275\Desktop\WchWorkSPace\camCoreWithRTOS\obj/../Libraries/rtthread_libraries/src/kservice.c:1319
        return __lowest_bit_bitmap[(value & 0xff00) >> 8] + 9;
    3102:	8521                	srai	a0,a0,0x8
    3104:	0ff57513          	andi	a0,a0,255
    3108:	679d                	lui	a5,0x7
    310a:	ec078793          	addi	a5,a5,-320 # 6ec0 <__lowest_bit_bitmap>
    310e:	953e                	add	a0,a0,a5
    3110:	00054503          	lbu	a0,0(a0)
    3114:	0525                	addi	a0,a0,9
    3116:	8082                	ret
C:\Users\29275\Desktop\WchWorkSPace\camCoreWithRTOS\obj/../Libraries/rtthread_libraries/src/kservice.c:1322
        return __lowest_bit_bitmap[(value & 0xff0000) >> 16] + 17;
    3118:	8541                	srai	a0,a0,0x10
    311a:	0ff57513          	andi	a0,a0,255
    311e:	679d                	lui	a5,0x7
    3120:	ec078793          	addi	a5,a5,-320 # 6ec0 <__lowest_bit_bitmap>
    3124:	953e                	add	a0,a0,a5
    3126:	00054503          	lbu	a0,0(a0)
    312a:	0545                	addi	a0,a0,17
    312c:	8082                	ret

0000312e <plug_holes>:
plug_holes():
C:\Users\29275\Desktop\WchWorkSPace\camCoreWithRTOS\obj/../Libraries/rtthread_libraries/src/mem.c:153
    RT_ASSERT((rt_uint8_t *)mem >= heap_ptr);
    RT_ASSERT((rt_uint8_t *)mem < (rt_uint8_t *)heap_end);
    RT_ASSERT(mem->used == 0);

    /* plug hole forward */
    nmem = (struct heap_mem *)&heap_ptr[mem->next];
    312e:	8581a703          	lw	a4,-1960(gp) # 20000108 <heap_ptr>
    3132:	415c                	lw	a5,4(a0)
    3134:	97ba                	add	a5,a5,a4
C:\Users\29275\Desktop\WchWorkSPace\camCoreWithRTOS\obj/../Libraries/rtthread_libraries/src/mem.c:154
    if (mem != nmem &&
    3136:	02f50463          	beq	a0,a5,315e <plug_holes+0x30>
C:\Users\29275\Desktop\WchWorkSPace\camCoreWithRTOS\obj/../Libraries/rtthread_libraries/src/mem.c:154 (discriminator 1)
    313a:	0027d683          	lhu	a3,2(a5)
    313e:	e285                	bnez	a3,315e <plug_holes+0x30>
C:\Users\29275\Desktop\WchWorkSPace\camCoreWithRTOS\obj/../Libraries/rtthread_libraries/src/mem.c:155
        nmem->used == 0 &&
    3140:	8541a683          	lw	a3,-1964(gp) # 20000104 <heap_end>
    3144:	00f68d63          	beq	a3,a5,315e <plug_holes+0x30>
C:\Users\29275\Desktop\WchWorkSPace\camCoreWithRTOS\obj/../Libraries/rtthread_libraries/src/mem.c:161
        (rt_uint8_t *)nmem != (rt_uint8_t *)heap_end)
    {
        /* if mem->next is unused and not end of heap_ptr,
         * combine mem and mem->next
         */
        if (lfree == nmem)
    3148:	85c1a683          	lw	a3,-1956(gp) # 2000010c <lfree>
    314c:	02f68b63          	beq	a3,a5,3182 <plug_holes+0x54>
C:\Users\29275\Desktop\WchWorkSPace\camCoreWithRTOS\obj/../Libraries/rtthread_libraries/src/mem.c:165
        {
            lfree = mem;
        }
        mem->next = nmem->next;
    3150:	43d4                	lw	a3,4(a5)
    3152:	c154                	sw	a3,4(a0)
C:\Users\29275\Desktop\WchWorkSPace\camCoreWithRTOS\obj/../Libraries/rtthread_libraries/src/mem.c:166
        ((struct heap_mem *)&heap_ptr[nmem->next])->prev = (rt_uint8_t *)mem - heap_ptr;
    3154:	43dc                	lw	a5,4(a5)
    3156:	97ba                	add	a5,a5,a4
    3158:	40e506b3          	sub	a3,a0,a4
    315c:	c794                	sw	a3,8(a5)
C:\Users\29275\Desktop\WchWorkSPace\camCoreWithRTOS\obj/../Libraries/rtthread_libraries/src/mem.c:170
    }

    /* plug hole backward */
    pmem = (struct heap_mem *)&heap_ptr[mem->prev];
    315e:	4514                	lw	a3,8(a0)
    3160:	00d707b3          	add	a5,a4,a3
C:\Users\29275\Desktop\WchWorkSPace\camCoreWithRTOS\obj/../Libraries/rtthread_libraries/src/mem.c:171
    if (pmem != mem && pmem->used == 0)
    3164:	00f50e63          	beq	a0,a5,3180 <plug_holes+0x52>
C:\Users\29275\Desktop\WchWorkSPace\camCoreWithRTOS\obj/../Libraries/rtthread_libraries/src/mem.c:171 (discriminator 1)
    3168:	0027d603          	lhu	a2,2(a5)
    316c:	ea11                	bnez	a2,3180 <plug_holes+0x52>
C:\Users\29275\Desktop\WchWorkSPace\camCoreWithRTOS\obj/../Libraries/rtthread_libraries/src/mem.c:174
    {
        /* if mem->prev is unused, combine mem and mem->prev */
        if (lfree == mem)
    316e:	85c1a603          	lw	a2,-1956(gp) # 2000010c <lfree>
    3172:	00a60b63          	beq	a2,a0,3188 <plug_holes+0x5a>
C:\Users\29275\Desktop\WchWorkSPace\camCoreWithRTOS\obj/../Libraries/rtthread_libraries/src/mem.c:178
        {
            lfree = pmem;
        }
        pmem->next = mem->next;
    3176:	4150                	lw	a2,4(a0)
    3178:	c3d0                	sw	a2,4(a5)
C:\Users\29275\Desktop\WchWorkSPace\camCoreWithRTOS\obj/../Libraries/rtthread_libraries/src/mem.c:179
        ((struct heap_mem *)&heap_ptr[mem->next])->prev = (rt_uint8_t *)pmem - heap_ptr;
    317a:	415c                	lw	a5,4(a0)
    317c:	973e                	add	a4,a4,a5
    317e:	c714                	sw	a3,8(a4)
C:\Users\29275\Desktop\WchWorkSPace\camCoreWithRTOS\obj/../Libraries/rtthread_libraries/src/mem.c:181
    }
}
    3180:	8082                	ret
C:\Users\29275\Desktop\WchWorkSPace\camCoreWithRTOS\obj/../Libraries/rtthread_libraries/src/mem.c:163
            lfree = mem;
    3182:	84a1ae23          	sw	a0,-1956(gp) # 2000010c <lfree>
    3186:	b7e9                	j	3150 <plug_holes+0x22>
C:\Users\29275\Desktop\WchWorkSPace\camCoreWithRTOS\obj/../Libraries/rtthread_libraries/src/mem.c:176
            lfree = pmem;
    3188:	84f1ae23          	sw	a5,-1956(gp) # 2000010c <lfree>
    318c:	b7ed                	j	3176 <plug_holes+0x48>

0000318e <list_mem>:
list_mem():
C:\Users\29275\Desktop\WchWorkSPace\camCoreWithRTOS\obj/../Libraries/rtthread_libraries/src/mem.c:616

#ifdef RT_USING_FINSH
#include <finsh.h>

void list_mem(void)
{
    318e:	1141                	addi	sp,sp,-16
    3190:	c606                	sw	ra,12(sp)
C:\Users\29275\Desktop\WchWorkSPace\camCoreWithRTOS\obj/../Libraries/rtthread_libraries/src/mem.c:617
    rt_kprintf("total memory: %d\n", mem_size_aligned);
    3192:	8641a583          	lw	a1,-1948(gp) # 20000114 <mem_size_aligned>
    3196:	00007537          	lui	a0,0x7
    319a:	08450513          	addi	a0,a0,132 # 7084 <__fsym_list_mem_name+0xc>
    319e:	eb3ff0ef          	jal	ra,3050 <rt_kprintf>
C:\Users\29275\Desktop\WchWorkSPace\camCoreWithRTOS\obj/../Libraries/rtthread_libraries/src/mem.c:618
    rt_kprintf("used memory : %d\n", used_mem);
    31a2:	8681a583          	lw	a1,-1944(gp) # 20000118 <used_mem>
    31a6:	00007537          	lui	a0,0x7
    31aa:	09850513          	addi	a0,a0,152 # 7098 <__fsym_list_mem_name+0x20>
    31ae:	ea3ff0ef          	jal	ra,3050 <rt_kprintf>
C:\Users\29275\Desktop\WchWorkSPace\camCoreWithRTOS\obj/../Libraries/rtthread_libraries/src/mem.c:619
    rt_kprintf("maximum allocated memory: %d\n", max_mem);
    31b2:	8601a583          	lw	a1,-1952(gp) # 20000110 <max_mem>
    31b6:	00007537          	lui	a0,0x7
    31ba:	0ac50513          	addi	a0,a0,172 # 70ac <__fsym_list_mem_name+0x34>
    31be:	e93ff0ef          	jal	ra,3050 <rt_kprintf>
C:\Users\29275\Desktop\WchWorkSPace\camCoreWithRTOS\obj/../Libraries/rtthread_libraries/src/mem.c:620
}
    31c2:	40b2                	lw	ra,12(sp)
    31c4:	0141                	addi	sp,sp,16
    31c6:	8082                	ret

000031c8 <rt_system_heap_init>:
rt_system_heap_init():
C:\Users\29275\Desktop\WchWorkSPace\camCoreWithRTOS\obj/../Libraries/rtthread_libraries/src/mem.c:192
{
    31c8:	1141                	addi	sp,sp,-16
    31ca:	c606                	sw	ra,12(sp)
    31cc:	c422                	sw	s0,8(sp)
C:\Users\29275\Desktop\WchWorkSPace\camCoreWithRTOS\obj/../Libraries/rtthread_libraries/src/mem.c:195
    rt_uint32_t end_align = RT_ALIGN_DOWN((rt_uint32_t)end_addr, RT_ALIGN_SIZE);
    31ce:	ffc5f713          	andi	a4,a1,-4
C:\Users\29275\Desktop\WchWorkSPace\camCoreWithRTOS\obj/../Libraries/rtthread_libraries/src/mem.c:200
    if ((end_align > (2 * SIZEOF_STRUCT_MEM)) &&
    31d2:	46e1                	li	a3,24
    31d4:	00e6f963          	bgeu	a3,a4,31e6 <rt_system_heap_init+0x1e>
    31d8:	00350793          	addi	a5,a0,3
    31dc:	9bf1                	andi	a5,a5,-4
C:\Users\29275\Desktop\WchWorkSPace\camCoreWithRTOS\obj/../Libraries/rtthread_libraries/src/mem.c:201 (discriminator 1)
        ((end_align - 2 * SIZEOF_STRUCT_MEM) >= begin_align))
    31de:	fe870693          	addi	a3,a4,-24
C:\Users\29275\Desktop\WchWorkSPace\camCoreWithRTOS\obj/../Libraries/rtthread_libraries/src/mem.c:200 (discriminator 1)
    if ((end_align > (2 * SIZEOF_STRUCT_MEM)) &&
    31e2:	00f6fe63          	bgeu	a3,a5,31fe <rt_system_heap_init+0x36>
C:\Users\29275\Desktop\WchWorkSPace\camCoreWithRTOS\obj/../Libraries/rtthread_libraries/src/mem.c:208
        rt_kprintf("mem init, error begin address 0x%x, and end address 0x%x\n",
    31e6:	862e                	mv	a2,a1
    31e8:	85aa                	mv	a1,a0
    31ea:	00007537          	lui	a0,0x7
    31ee:	12050513          	addi	a0,a0,288 # 7120 <__fsym_list_mem_name+0xa8>
    31f2:	e5fff0ef          	jal	ra,3050 <rt_kprintf>
C:\Users\29275\Desktop\WchWorkSPace\camCoreWithRTOS\obj/../Libraries/rtthread_libraries/src/mem.c:244
}
    31f6:	40b2                	lw	ra,12(sp)
    31f8:	4422                	lw	s0,8(sp)
    31fa:	0141                	addi	sp,sp,16
    31fc:	8082                	ret
C:\Users\29275\Desktop\WchWorkSPace\camCoreWithRTOS\obj/../Libraries/rtthread_libraries/src/mem.c:204
        mem_size_aligned = end_align - begin_align - 2 * SIZEOF_STRUCT_MEM;
    31fe:	8f1d                	sub	a4,a4,a5
    3200:	fe870613          	addi	a2,a4,-24
    3204:	86c1a223          	sw	a2,-1948(gp) # 20000114 <mem_size_aligned>
C:\Users\29275\Desktop\WchWorkSPace\camCoreWithRTOS\obj/../Libraries/rtthread_libraries/src/mem.c:215
    heap_ptr = (rt_uint8_t *)begin_align;
    3208:	85818413          	addi	s0,gp,-1960 # 20000108 <heap_ptr>
    320c:	c01c                	sw	a5,0(s0)
C:\Users\29275\Desktop\WchWorkSPace\camCoreWithRTOS\obj/../Libraries/rtthread_libraries/src/mem.c:222
    mem->magic = HEAP_MAGIC;
    320e:	6689                	lui	a3,0x2
    3210:	ea068693          	addi	a3,a3,-352 # 1ea0 <timer_quad_init+0x4c>
    3214:	00d79023          	sh	a3,0(a5)
C:\Users\29275\Desktop\WchWorkSPace\camCoreWithRTOS\obj/../Libraries/rtthread_libraries/src/mem.c:223
    mem->next  = mem_size_aligned + SIZEOF_STRUCT_MEM;
    3218:	1751                	addi	a4,a4,-12
    321a:	c3d8                	sw	a4,4(a5)
C:\Users\29275\Desktop\WchWorkSPace\camCoreWithRTOS\obj/../Libraries/rtthread_libraries/src/mem.c:224
    mem->prev  = 0;
    321c:	0007a423          	sw	zero,8(a5)
C:\Users\29275\Desktop\WchWorkSPace\camCoreWithRTOS\obj/../Libraries/rtthread_libraries/src/mem.c:225
    mem->used  = 0;
    3220:	00079123          	sh	zero,2(a5)
C:\Users\29275\Desktop\WchWorkSPace\camCoreWithRTOS\obj/../Libraries/rtthread_libraries/src/mem.c:231
    heap_end        = (struct heap_mem *)&heap_ptr[mem->next];
    3224:	97ba                	add	a5,a5,a4
    3226:	84f1aa23          	sw	a5,-1964(gp) # 20000104 <heap_end>
C:\Users\29275\Desktop\WchWorkSPace\camCoreWithRTOS\obj/../Libraries/rtthread_libraries/src/mem.c:232
    heap_end->magic = HEAP_MAGIC;
    322a:	00d79023          	sh	a3,0(a5)
C:\Users\29275\Desktop\WchWorkSPace\camCoreWithRTOS\obj/../Libraries/rtthread_libraries/src/mem.c:233
    heap_end->used  = 1;
    322e:	4685                	li	a3,1
    3230:	00d79123          	sh	a3,2(a5)
C:\Users\29275\Desktop\WchWorkSPace\camCoreWithRTOS\obj/../Libraries/rtthread_libraries/src/mem.c:234
    heap_end->next  = mem_size_aligned + SIZEOF_STRUCT_MEM;
    3234:	c3d8                	sw	a4,4(a5)
C:\Users\29275\Desktop\WchWorkSPace\camCoreWithRTOS\obj/../Libraries/rtthread_libraries/src/mem.c:235
    heap_end->prev  = mem_size_aligned + SIZEOF_STRUCT_MEM;
    3236:	c798                	sw	a4,8(a5)
C:\Users\29275\Desktop\WchWorkSPace\camCoreWithRTOS\obj/../Libraries/rtthread_libraries/src/mem.c:240
    rt_sem_init(&heap_sem, "heap", 1, RT_IPC_FLAG_FIFO);
    3238:	4681                	li	a3,0
    323a:	4605                	li	a2,1
    323c:	000075b7          	lui	a1,0x7
    3240:	11858593          	addi	a1,a1,280 # 7118 <__fsym_list_mem_name+0xa0>
    3244:	dcc18513          	addi	a0,gp,-564 # 2000067c <heap_sem>
    3248:	a02ff0ef          	jal	ra,244a <rt_sem_init>
C:\Users\29275\Desktop\WchWorkSPace\camCoreWithRTOS\obj/../Libraries/rtthread_libraries/src/mem.c:243
    lfree = (struct heap_mem *)heap_ptr;
    324c:	4018                	lw	a4,0(s0)
    324e:	84e1ae23          	sw	a4,-1956(gp) # 2000010c <lfree>
    3252:	b755                	j	31f6 <rt_system_heap_init+0x2e>

00003254 <rt_malloc>:
rt_malloc():
C:\Users\29275\Desktop\WchWorkSPace\camCoreWithRTOS\obj/../Libraries/rtthread_libraries/src/mem.c:264
    if (size == 0)
    3254:	12050463          	beqz	a0,337c <rt_malloc+0x128>
C:\Users\29275\Desktop\WchWorkSPace\camCoreWithRTOS\obj/../Libraries/rtthread_libraries/src/mem.c:260
{
    3258:	1141                	addi	sp,sp,-16
    325a:	c606                	sw	ra,12(sp)
    325c:	c422                	sw	s0,8(sp)
    325e:	c226                	sw	s1,4(sp)
C:\Users\29275\Desktop\WchWorkSPace\camCoreWithRTOS\obj/../Libraries/rtthread_libraries/src/mem.c:269
    if (size != RT_ALIGN(size, RT_ALIGN_SIZE))
    3260:	00350493          	addi	s1,a0,3
    3264:	98f1                	andi	s1,s1,-4
C:\Users\29275\Desktop\WchWorkSPace\camCoreWithRTOS\obj/../Libraries/rtthread_libraries/src/mem.c:278
    if (size > mem_size_aligned)
    3266:	8641a783          	lw	a5,-1948(gp) # 20000114 <mem_size_aligned>
    326a:	1097eb63          	bltu	a5,s1,3380 <rt_malloc+0x12c>
C:\Users\29275\Desktop\WchWorkSPace\camCoreWithRTOS\obj/../Libraries/rtthread_libraries/src/mem.c:286
    if (size < MIN_SIZE_ALIGNED)
    326e:	47b1                	li	a5,12
    3270:	00f4f363          	bgeu	s1,a5,3276 <rt_malloc+0x22>
    3274:	44b1                	li	s1,12
C:\Users\29275\Desktop\WchWorkSPace\camCoreWithRTOS\obj/../Libraries/rtthread_libraries/src/mem.c:290
    rt_sem_take(&heap_sem, RT_WAITING_FOREVER);
    3276:	55fd                	li	a1,-1
    3278:	dcc18513          	addi	a0,gp,-564 # 2000067c <heap_sem>
    327c:	a04ff0ef          	jal	ra,2480 <rt_sem_take>
C:\Users\29275\Desktop\WchWorkSPace\camCoreWithRTOS\obj/../Libraries/rtthread_libraries/src/mem.c:292
    for (ptr = (rt_uint8_t *)lfree - heap_ptr;
    3280:	85c1a503          	lw	a0,-1956(gp) # 2000010c <lfree>
    3284:	8581a683          	lw	a3,-1960(gp) # 20000108 <heap_ptr>
    3288:	40d507b3          	sub	a5,a0,a3
C:\Users\29275\Desktop\WchWorkSPace\camCoreWithRTOS\obj/../Libraries/rtthread_libraries/src/mem.c:293
         ptr < mem_size_aligned - size;
    328c:	8641a803          	lw	a6,-1948(gp) # 20000114 <mem_size_aligned>
    3290:	40980633          	sub	a2,a6,s1
C:\Users\29275\Desktop\WchWorkSPace\camCoreWithRTOS\obj/../Libraries/rtthread_libraries/src/mem.c:292
    for (ptr = (rt_uint8_t *)lfree - heap_ptr;
    3294:	06c7e263          	bltu	a5,a2,32f8 <rt_malloc+0xa4>
C:\Users\29275\Desktop\WchWorkSPace\camCoreWithRTOS\obj/../Libraries/rtthread_libraries/src/mem.c:394
    rt_sem_release(&heap_sem);
    3298:	dcc18513          	addi	a0,gp,-564 # 2000067c <heap_sem>
    329c:	aceff0ef          	jal	ra,256a <rt_sem_release>
C:\Users\29275\Desktop\WchWorkSPace\camCoreWithRTOS\obj/../Libraries/rtthread_libraries/src/mem.c:396
    return RT_NULL;
    32a0:	4501                	li	a0,0
C:\Users\29275\Desktop\WchWorkSPace\camCoreWithRTOS\obj/../Libraries/rtthread_libraries/src/mem.c:397
}
    32a2:	40b2                	lw	ra,12(sp)
    32a4:	4422                	lw	s0,8(sp)
    32a6:	4492                	lw	s1,4(sp)
    32a8:	0141                	addi	sp,sp,16
    32aa:	8082                	ret
C:\Users\29275\Desktop\WchWorkSPace\camCoreWithRTOS\obj/../Libraries/rtthread_libraries/src/mem.c:351
                mem->used = 1;
    32ac:	4785                	li	a5,1
    32ae:	00f41123          	sh	a5,2(s0)
C:\Users\29275\Desktop\WchWorkSPace\camCoreWithRTOS\obj/../Libraries/rtthread_libraries/src/mem.c:353
                used_mem += mem->next - ((rt_uint8_t *)mem - heap_ptr);
    32b2:	86818793          	addi	a5,gp,-1944 # 20000118 <used_mem>
    32b6:	4390                	lw	a2,0(a5)
    32b8:	9732                	add	a4,a4,a2
    32ba:	c398                	sw	a4,0(a5)
C:\Users\29275\Desktop\WchWorkSPace\camCoreWithRTOS\obj/../Libraries/rtthread_libraries/src/mem.c:354
                if (max_mem < used_mem)
    32bc:	8601a783          	lw	a5,-1952(gp) # 20000110 <max_mem>
    32c0:	0ae7f063          	bgeu	a5,a4,3360 <rt_malloc+0x10c>
C:\Users\29275\Desktop\WchWorkSPace\camCoreWithRTOS\obj/../Libraries/rtthread_libraries/src/mem.c:355
                    max_mem = used_mem;
    32c4:	86e1a023          	sw	a4,-1952(gp) # 20000110 <max_mem>
    32c8:	a861                	j	3360 <rt_malloc+0x10c>
C:\Users\29275\Desktop\WchWorkSPace\camCoreWithRTOS\obj/../Libraries/rtthread_libraries/src/mem.c:370
                while (lfree->used && lfree != heap_end)
    32ca:	00255783          	lhu	a5,2(a0)
    32ce:	c3c5                	beqz	a5,336e <rt_malloc+0x11a>
    32d0:	8541a703          	lw	a4,-1964(gp) # 20000104 <heap_end>
    32d4:	08e50d63          	beq	a0,a4,336e <rt_malloc+0x11a>
C:\Users\29275\Desktop\WchWorkSPace\camCoreWithRTOS\obj/../Libraries/rtthread_libraries/src/mem.c:371
                    lfree = (struct heap_mem *)&heap_ptr[lfree->next];
    32d8:	4148                	lw	a0,4(a0)
    32da:	9536                	add	a0,a0,a3
C:\Users\29275\Desktop\WchWorkSPace\camCoreWithRTOS\obj/../Libraries/rtthread_libraries/src/mem.c:370
                while (lfree->used && lfree != heap_end)
    32dc:	00255783          	lhu	a5,2(a0)
    32e0:	c791                	beqz	a5,32ec <rt_malloc+0x98>
C:\Users\29275\Desktop\WchWorkSPace\camCoreWithRTOS\obj/../Libraries/rtthread_libraries/src/mem.c:370 (discriminator 1)
    32e2:	fea71be3          	bne	a4,a0,32d8 <rt_malloc+0x84>
    32e6:	84a1ae23          	sw	a0,-1956(gp) # 2000010c <lfree>
    32ea:	a051                	j	336e <rt_malloc+0x11a>
    32ec:	84a1ae23          	sw	a0,-1956(gp) # 2000010c <lfree>
    32f0:	a8bd                	j	336e <rt_malloc+0x11a>
C:\Users\29275\Desktop\WchWorkSPace\camCoreWithRTOS\obj/../Libraries/rtthread_libraries/src/mem.c:294
         ptr = ((struct heap_mem *)&heap_ptr[ptr])->next)
    32f2:	405c                	lw	a5,4(s0)
C:\Users\29275\Desktop\WchWorkSPace\camCoreWithRTOS\obj/../Libraries/rtthread_libraries/src/mem.c:292
    for (ptr = (rt_uint8_t *)lfree - heap_ptr;
    32f4:	fac7f2e3          	bgeu	a5,a2,3298 <rt_malloc+0x44>
C:\Users\29275\Desktop\WchWorkSPace\camCoreWithRTOS\obj/../Libraries/rtthread_libraries/src/mem.c:296
        mem = (struct heap_mem *)&heap_ptr[ptr];
    32f8:	00f68433          	add	s0,a3,a5
C:\Users\29275\Desktop\WchWorkSPace\camCoreWithRTOS\obj/../Libraries/rtthread_libraries/src/mem.c:298
        if ((!mem->used) && (mem->next - (ptr + SIZEOF_STRUCT_MEM)) >= size)
    32fc:	00245703          	lhu	a4,2(s0)
    3300:	fb6d                	bnez	a4,32f2 <rt_malloc+0x9e>
C:\Users\29275\Desktop\WchWorkSPace\camCoreWithRTOS\obj/../Libraries/rtthread_libraries/src/mem.c:298 (discriminator 1)
    3302:	4058                	lw	a4,4(s0)
    3304:	8f1d                	sub	a4,a4,a5
    3306:	ff470593          	addi	a1,a4,-12
    330a:	fe95e4e3          	bltu	a1,s1,32f2 <rt_malloc+0x9e>
C:\Users\29275\Desktop\WchWorkSPace\camCoreWithRTOS\obj/../Libraries/rtthread_libraries/src/mem.c:304
                (size + SIZEOF_STRUCT_MEM + MIN_SIZE_ALIGNED))
    330e:	01848613          	addi	a2,s1,24
C:\Users\29275\Desktop\WchWorkSPace\camCoreWithRTOS\obj/../Libraries/rtthread_libraries/src/mem.c:303
            if (mem->next - (ptr + SIZEOF_STRUCT_MEM) >=
    3312:	f8c5ede3          	bltu	a1,a2,32ac <rt_malloc+0x58>
C:\Users\29275\Desktop\WchWorkSPace\camCoreWithRTOS\obj/../Libraries/rtthread_libraries/src/mem.c:316
                ptr2 = ptr + SIZEOF_STRUCT_MEM + size;
    3316:	00c48613          	addi	a2,s1,12
    331a:	963e                	add	a2,a2,a5
C:\Users\29275\Desktop\WchWorkSPace\camCoreWithRTOS\obj/../Libraries/rtthread_libraries/src/mem.c:319
                mem2       = (struct heap_mem *)&heap_ptr[ptr2];
    331c:	00c68733          	add	a4,a3,a2
C:\Users\29275\Desktop\WchWorkSPace\camCoreWithRTOS\obj/../Libraries/rtthread_libraries/src/mem.c:320
                mem2->magic = HEAP_MAGIC;
    3320:	6589                	lui	a1,0x2
    3322:	ea058593          	addi	a1,a1,-352 # 1ea0 <timer_quad_init+0x4c>
    3326:	00b71023          	sh	a1,0(a4)
C:\Users\29275\Desktop\WchWorkSPace\camCoreWithRTOS\obj/../Libraries/rtthread_libraries/src/mem.c:321
                mem2->used = 0;
    332a:	00071123          	sh	zero,2(a4)
C:\Users\29275\Desktop\WchWorkSPace\camCoreWithRTOS\obj/../Libraries/rtthread_libraries/src/mem.c:322
                mem2->next = mem->next;
    332e:	404c                	lw	a1,4(s0)
    3330:	c34c                	sw	a1,4(a4)
C:\Users\29275\Desktop\WchWorkSPace\camCoreWithRTOS\obj/../Libraries/rtthread_libraries/src/mem.c:323
                mem2->prev = ptr;
    3332:	c71c                	sw	a5,8(a4)
C:\Users\29275\Desktop\WchWorkSPace\camCoreWithRTOS\obj/../Libraries/rtthread_libraries/src/mem.c:329
                mem->next = ptr2;
    3334:	c050                	sw	a2,4(s0)
C:\Users\29275\Desktop\WchWorkSPace\camCoreWithRTOS\obj/../Libraries/rtthread_libraries/src/mem.c:330
                mem->used = 1;
    3336:	4785                	li	a5,1
    3338:	00f41123          	sh	a5,2(s0)
C:\Users\29275\Desktop\WchWorkSPace\camCoreWithRTOS\obj/../Libraries/rtthread_libraries/src/mem.c:332
                if (mem2->next != mem_size_aligned + SIZEOF_STRUCT_MEM)
    333c:	435c                	lw	a5,4(a4)
    333e:	0831                	addi	a6,a6,12
    3340:	01078463          	beq	a5,a6,3348 <rt_malloc+0xf4>
C:\Users\29275\Desktop\WchWorkSPace\camCoreWithRTOS\obj/../Libraries/rtthread_libraries/src/mem.c:334
                    ((struct heap_mem *)&heap_ptr[mem2->next])->prev = ptr2;
    3344:	97b6                	add	a5,a5,a3
    3346:	c790                	sw	a2,8(a5)
C:\Users\29275\Desktop\WchWorkSPace\camCoreWithRTOS\obj/../Libraries/rtthread_libraries/src/mem.c:337
                used_mem += (size + SIZEOF_STRUCT_MEM);
    3348:	86818713          	addi	a4,gp,-1944 # 20000118 <used_mem>
    334c:	431c                	lw	a5,0(a4)
    334e:	07b1                	addi	a5,a5,12
    3350:	94be                	add	s1,s1,a5
    3352:	c304                	sw	s1,0(a4)
C:\Users\29275\Desktop\WchWorkSPace\camCoreWithRTOS\obj/../Libraries/rtthread_libraries/src/mem.c:338
                if (max_mem < used_mem)
    3354:	8601a783          	lw	a5,-1952(gp) # 20000110 <max_mem>
    3358:	0097f463          	bgeu	a5,s1,3360 <rt_malloc+0x10c>
C:\Users\29275\Desktop\WchWorkSPace\camCoreWithRTOS\obj/../Libraries/rtthread_libraries/src/mem.c:339
                    max_mem = used_mem;
    335c:	8691a023          	sw	s1,-1952(gp) # 20000110 <max_mem>
C:\Users\29275\Desktop\WchWorkSPace\camCoreWithRTOS\obj/../Libraries/rtthread_libraries/src/mem.c:359
            mem->magic = HEAP_MAGIC;
    3360:	6789                	lui	a5,0x2
    3362:	ea078793          	addi	a5,a5,-352 # 1ea0 <timer_quad_init+0x4c>
    3366:	00f41023          	sh	a5,0(s0)
C:\Users\29275\Desktop\WchWorkSPace\camCoreWithRTOS\obj/../Libraries/rtthread_libraries/src/mem.c:367
            if (mem == lfree)
    336a:	f68500e3          	beq	a0,s0,32ca <rt_malloc+0x76>
C:\Users\29275\Desktop\WchWorkSPace\camCoreWithRTOS\obj/../Libraries/rtthread_libraries/src/mem.c:376
            rt_sem_release(&heap_sem);
    336e:	dcc18513          	addi	a0,gp,-564 # 2000067c <heap_sem>
    3372:	9f8ff0ef          	jal	ra,256a <rt_sem_release>
C:\Users\29275\Desktop\WchWorkSPace\camCoreWithRTOS\obj/../Libraries/rtthread_libraries/src/mem.c:390
            return (rt_uint8_t *)mem + SIZEOF_STRUCT_MEM;
    3376:	00c40513          	addi	a0,s0,12
    337a:	b725                	j	32a2 <rt_malloc+0x4e>
C:\Users\29275\Desktop\WchWorkSPace\camCoreWithRTOS\obj/../Libraries/rtthread_libraries/src/mem.c:265
        return RT_NULL;
    337c:	4501                	li	a0,0
C:\Users\29275\Desktop\WchWorkSPace\camCoreWithRTOS\obj/../Libraries/rtthread_libraries/src/mem.c:397
}
    337e:	8082                	ret
C:\Users\29275\Desktop\WchWorkSPace\camCoreWithRTOS\obj/../Libraries/rtthread_libraries/src/mem.c:282
        return RT_NULL;
    3380:	4501                	li	a0,0
    3382:	b705                	j	32a2 <rt_malloc+0x4e>

00003384 <rt_calloc>:
rt_calloc():
C:\Users\29275\Desktop\WchWorkSPace\camCoreWithRTOS\obj/../Libraries/rtthread_libraries/src/mem.c:513
{
    3384:	1141                	addi	sp,sp,-16
    3386:	c606                	sw	ra,12(sp)
    3388:	c422                	sw	s0,8(sp)
    338a:	c226                	sw	s1,4(sp)
C:\Users\29275\Desktop\WchWorkSPace\camCoreWithRTOS\obj/../Libraries/rtthread_libraries/src/mem.c:517
    p = rt_malloc(count * size);
    338c:	02b504b3          	mul	s1,a0,a1
    3390:	8526                	mv	a0,s1
    3392:	ec3ff0ef          	jal	ra,3254 <rt_malloc>
    3396:	842a                	mv	s0,a0
C:\Users\29275\Desktop\WchWorkSPace\camCoreWithRTOS\obj/../Libraries/rtthread_libraries/src/mem.c:520
    if (p)
    3398:	c509                	beqz	a0,33a2 <rt_calloc+0x1e>
C:\Users\29275\Desktop\WchWorkSPace\camCoreWithRTOS\obj/../Libraries/rtthread_libraries/src/mem.c:521
        rt_memset(p, 0, count * size);
    339a:	8626                	mv	a2,s1
    339c:	4581                	li	a1,0
    339e:	fccff0ef          	jal	ra,2b6a <rt_memset>
C:\Users\29275\Desktop\WchWorkSPace\camCoreWithRTOS\obj/../Libraries/rtthread_libraries/src/mem.c:524
}
    33a2:	8522                	mv	a0,s0
    33a4:	40b2                	lw	ra,12(sp)
    33a6:	4422                	lw	s0,8(sp)
    33a8:	4492                	lw	s1,4(sp)
    33aa:	0141                	addi	sp,sp,16
    33ac:	8082                	ret

000033ae <rt_free>:
rt_free():
C:\Users\29275\Desktop\WchWorkSPace\camCoreWithRTOS\obj/../Libraries/rtthread_libraries/src/mem.c:537
    if (rmem == RT_NULL)
    33ae:	c909                	beqz	a0,33c0 <rt_free+0x12>
C:\Users\29275\Desktop\WchWorkSPace\camCoreWithRTOS\obj/../Libraries/rtthread_libraries/src/mem.c:548
    if ((rt_uint8_t *)rmem < (rt_uint8_t *)heap_ptr ||
    33b0:	8581a783          	lw	a5,-1960(gp) # 20000108 <heap_ptr>
    33b4:	00f56663          	bltu	a0,a5,33c0 <rt_free+0x12>
C:\Users\29275\Desktop\WchWorkSPace\camCoreWithRTOS\obj/../Libraries/rtthread_libraries/src/mem.c:548 (discriminator 1)
    33b8:	8541a783          	lw	a5,-1964(gp) # 20000104 <heap_end>
    33bc:	00f56363          	bltu	a0,a5,33c2 <rt_free+0x14>
    33c0:	8082                	ret
C:\Users\29275\Desktop\WchWorkSPace\camCoreWithRTOS\obj/../Libraries/rtthread_libraries/src/mem.c:534
{
    33c2:	1141                	addi	sp,sp,-16
    33c4:	c606                	sw	ra,12(sp)
    33c6:	c422                	sw	s0,8(sp)
    33c8:	c226                	sw	s1,4(sp)
    33ca:	842a                	mv	s0,a0
C:\Users\29275\Desktop\WchWorkSPace\camCoreWithRTOS\obj/../Libraries/rtthread_libraries/src/mem.c:557
    mem = (struct heap_mem *)((rt_uint8_t *)rmem - SIZEOF_STRUCT_MEM);
    33cc:	ff450493          	addi	s1,a0,-12
C:\Users\29275\Desktop\WchWorkSPace\camCoreWithRTOS\obj/../Libraries/rtthread_libraries/src/mem.c:566
    rt_sem_take(&heap_sem, RT_WAITING_FOREVER);
    33d0:	55fd                	li	a1,-1
    33d2:	dcc18513          	addi	a0,gp,-564 # 2000067c <heap_sem>
    33d6:	8aaff0ef          	jal	ra,2480 <rt_sem_take>
C:\Users\29275\Desktop\WchWorkSPace\camCoreWithRTOS\obj/../Libraries/rtthread_libraries/src/mem.c:569
    if (!mem->used || mem->magic != HEAP_MAGIC)
    33da:	ff645783          	lhu	a5,-10(s0)
    33de:	cb81                	beqz	a5,33ee <rt_free+0x40>
C:\Users\29275\Desktop\WchWorkSPace\camCoreWithRTOS\obj/../Libraries/rtthread_libraries/src/mem.c:569 (discriminator 1)
    33e0:	ff445703          	lhu	a4,-12(s0)
    33e4:	6789                	lui	a5,0x2
    33e6:	ea078793          	addi	a5,a5,-352 # 1ea0 <timer_quad_init+0x4c>
    33ea:	02f70363          	beq	a4,a5,3410 <rt_free+0x62>
C:\Users\29275\Desktop\WchWorkSPace\camCoreWithRTOS\obj/../Libraries/rtthread_libraries/src/mem.c:571
        rt_kprintf("to free a bad data block:\n");
    33ee:	00007537          	lui	a0,0x7
    33f2:	0cc50513          	addi	a0,a0,204 # 70cc <__fsym_list_mem_name+0x54>
    33f6:	c5bff0ef          	jal	ra,3050 <rt_kprintf>
C:\Users\29275\Desktop\WchWorkSPace\camCoreWithRTOS\obj/../Libraries/rtthread_libraries/src/mem.c:572
        rt_kprintf("mem: 0x%08x, used flag: %d, magic code: 0x%04x\n", mem, mem->used, mem->magic);
    33fa:	ff445683          	lhu	a3,-12(s0)
    33fe:	ff645603          	lhu	a2,-10(s0)
    3402:	85a6                	mv	a1,s1
    3404:	00007537          	lui	a0,0x7
    3408:	0e850513          	addi	a0,a0,232 # 70e8 <__fsym_list_mem_name+0x70>
    340c:	c45ff0ef          	jal	ra,3050 <rt_kprintf>
C:\Users\29275\Desktop\WchWorkSPace\camCoreWithRTOS\obj/../Libraries/rtthread_libraries/src/mem.c:577
    mem->used  = 0;
    3410:	fe041b23          	sh	zero,-10(s0)
C:\Users\29275\Desktop\WchWorkSPace\camCoreWithRTOS\obj/../Libraries/rtthread_libraries/src/mem.c:578
    mem->magic = HEAP_MAGIC;
    3414:	6789                	lui	a5,0x2
    3416:	ea078793          	addi	a5,a5,-352 # 1ea0 <timer_quad_init+0x4c>
    341a:	fef41a23          	sh	a5,-12(s0)
C:\Users\29275\Desktop\WchWorkSPace\camCoreWithRTOS\obj/../Libraries/rtthread_libraries/src/mem.c:583
    if (mem < lfree)
    341e:	85c1a783          	lw	a5,-1956(gp) # 2000010c <lfree>
    3422:	00f4f463          	bgeu	s1,a5,342a <rt_free+0x7c>
C:\Users\29275\Desktop\WchWorkSPace\camCoreWithRTOS\obj/../Libraries/rtthread_libraries/src/mem.c:586
        lfree = mem;
    3426:	8491ae23          	sw	s1,-1956(gp) # 2000010c <lfree>
C:\Users\29275\Desktop\WchWorkSPace\camCoreWithRTOS\obj/../Libraries/rtthread_libraries/src/mem.c:590
    used_mem -= (mem->next - ((rt_uint8_t *)mem - heap_ptr));
    342a:	86818713          	addi	a4,gp,-1944 # 20000118 <used_mem>
    342e:	431c                	lw	a5,0(a4)
    3430:	ff842683          	lw	a3,-8(s0)
    3434:	8f95                	sub	a5,a5,a3
    3436:	8581a683          	lw	a3,-1960(gp) # 20000108 <heap_ptr>
    343a:	40d486b3          	sub	a3,s1,a3
    343e:	97b6                	add	a5,a5,a3
    3440:	c31c                	sw	a5,0(a4)
C:\Users\29275\Desktop\WchWorkSPace\camCoreWithRTOS\obj/../Libraries/rtthread_libraries/src/mem.c:594
    plug_holes(mem);
    3442:	8526                	mv	a0,s1
    3444:	cebff0ef          	jal	ra,312e <plug_holes>
C:\Users\29275\Desktop\WchWorkSPace\camCoreWithRTOS\obj/../Libraries/rtthread_libraries/src/mem.c:595
    rt_sem_release(&heap_sem);
    3448:	dcc18513          	addi	a0,gp,-564 # 2000067c <heap_sem>
    344c:	91eff0ef          	jal	ra,256a <rt_sem_release>
C:\Users\29275\Desktop\WchWorkSPace\camCoreWithRTOS\obj/../Libraries/rtthread_libraries/src/mem.c:596
}
    3450:	40b2                	lw	ra,12(sp)
    3452:	4422                	lw	s0,8(sp)
    3454:	4492                	lw	s1,4(sp)
    3456:	0141                	addi	sp,sp,16
    3458:	8082                	ret

0000345a <rt_object_get_information>:
rt_object_get_information():
C:\Users\29275\Desktop\WchWorkSPace\camCoreWithRTOS\obj/../Libraries/rtthread_libraries/src/object.c:220
 * @param type the type of object
 * @return the object type information or RT_NULL
 */
struct rt_object_information *
rt_object_get_information(enum rt_object_class_type type)
{
    345a:	87aa                	mv	a5,a0
C:\Users\29275\Desktop\WchWorkSPace\camCoreWithRTOS\obj/../Libraries/rtthread_libraries/src/object.c:224
    int index;

    for (index = 0; index < RT_Object_Info_Unknown; index ++)
        if (rt_object_container[index].type == type) return &rt_object_container[index];
    345c:	20000737          	lui	a4,0x20000
    3460:	01072703          	lw	a4,16(a4) # 20000010 <rt_object_container>
    3464:	02e50c63          	beq	a0,a4,349c <rt_object_get_information+0x42>
    3468:	20000737          	lui	a4,0x20000
    346c:	02072703          	lw	a4,32(a4) # 20000020 <rt_object_container+0x10>
    3470:	02e50263          	beq	a0,a4,3494 <rt_object_get_information+0x3a>
    3474:	20000737          	lui	a4,0x20000
    3478:	03072703          	lw	a4,48(a4) # 20000030 <rt_object_container+0x20>
    347c:	00e50e63          	beq	a0,a4,3498 <rt_object_get_information+0x3e>
    3480:	20000737          	lui	a4,0x20000
    3484:	04072703          	lw	a4,64(a4) # 20000040 <rt_object_container+0x30>
C:\Users\29275\Desktop\WchWorkSPace\camCoreWithRTOS\obj/../Libraries/rtthread_libraries/src/object.c:226

    return RT_NULL;
    3488:	4501                	li	a0,0
C:\Users\29275\Desktop\WchWorkSPace\camCoreWithRTOS\obj/../Libraries/rtthread_libraries/src/object.c:224
        if (rt_object_container[index].type == type) return &rt_object_container[index];
    348a:	00f70363          	beq	a4,a5,3490 <rt_object_get_information+0x36>
C:\Users\29275\Desktop\WchWorkSPace\camCoreWithRTOS\obj/../Libraries/rtthread_libraries/src/object.c:227
}
    348e:	8082                	ret
C:\Users\29275\Desktop\WchWorkSPace\camCoreWithRTOS\obj/../Libraries/rtthread_libraries/src/object.c:223
    for (index = 0; index < RT_Object_Info_Unknown; index ++)
    3490:	450d                	li	a0,3
    3492:	a031                	j	349e <rt_object_get_information+0x44>
    3494:	4505                	li	a0,1
    3496:	a021                	j	349e <rt_object_get_information+0x44>
    3498:	4509                	li	a0,2
    349a:	a011                	j	349e <rt_object_get_information+0x44>
    349c:	4501                	li	a0,0
C:\Users\29275\Desktop\WchWorkSPace\camCoreWithRTOS\obj/../Libraries/rtthread_libraries/src/object.c:224 (discriminator 1)
        if (rt_object_container[index].type == type) return &rt_object_container[index];
    349e:	00451793          	slli	a5,a0,0x4
    34a2:	20000537          	lui	a0,0x20000
    34a6:	01050513          	addi	a0,a0,16 # 20000010 <rt_object_container>
    34aa:	953e                	add	a0,a0,a5
    34ac:	b7cd                	j	348e <rt_object_get_information+0x34>

000034ae <rt_object_init>:
rt_object_init():
C:\Users\29275\Desktop\WchWorkSPace\camCoreWithRTOS\obj/../Libraries/rtthread_libraries/src/object.c:241
 * @param name the object name. In system, the object's name must be unique.
 */
void rt_object_init(struct rt_object         *object,
                    enum rt_object_class_type type,
                    const char               *name)
{
    34ae:	1101                	addi	sp,sp,-32
    34b0:	ce06                	sw	ra,28(sp)
    34b2:	cc22                	sw	s0,24(sp)
    34b4:	ca26                	sw	s1,20(sp)
    34b6:	c84a                	sw	s2,16(sp)
    34b8:	c64e                	sw	s3,12(sp)
    34ba:	c452                	sw	s4,8(sp)
    34bc:	84aa                	mv	s1,a0
    34be:	89ae                	mv	s3,a1
    34c0:	8a32                	mv	s4,a2
C:\Users\29275\Desktop\WchWorkSPace\camCoreWithRTOS\obj/../Libraries/rtthread_libraries/src/object.c:250
#ifdef RT_USING_MODULE
    struct rt_dlmodule *module = dlmodule_self();
#endif

    /* get object information */
    information = rt_object_get_information(type);
    34c2:	852e                	mv	a0,a1
    34c4:	3f59                	jal	345a <rt_object_get_information>
    34c6:	892a                	mv	s2,a0
C:\Users\29275\Desktop\WchWorkSPace\camCoreWithRTOS\obj/../Libraries/rtthread_libraries/src/object.c:256
    RT_ASSERT(information != RT_NULL);

    /* check object type to avoid re-initialization */

    /* enter critical */
    rt_enter_critical();
    34c8:	2c41                	jal	3758 <rt_enter_critical>
C:\Users\29275\Desktop\WchWorkSPace\camCoreWithRTOS\obj/../Libraries/rtthread_libraries/src/object.c:258
    /* try to find object */
    for (node  = information->object_list.next;
    34ca:	00492783          	lw	a5,4(s2)
C:\Users\29275\Desktop\WchWorkSPace\camCoreWithRTOS\obj/../Libraries/rtthread_libraries/src/object.c:259
            node != &(information->object_list);
    34ce:	00490413          	addi	s0,s2,4
C:\Users\29275\Desktop\WchWorkSPace\camCoreWithRTOS\obj/../Libraries/rtthread_libraries/src/object.c:258
    for (node  = information->object_list.next;
    34d2:	00878563          	beq	a5,s0,34dc <rt_object_init+0x2e>
C:\Users\29275\Desktop\WchWorkSPace\camCoreWithRTOS\obj/../Libraries/rtthread_libraries/src/object.c:260
            node  = node->next)
    34d6:	439c                	lw	a5,0(a5)
C:\Users\29275\Desktop\WchWorkSPace\camCoreWithRTOS\obj/../Libraries/rtthread_libraries/src/object.c:258
    for (node  = information->object_list.next;
    34d8:	fe879fe3          	bne	a5,s0,34d6 <rt_object_init+0x28>
C:\Users\29275\Desktop\WchWorkSPace\camCoreWithRTOS\obj/../Libraries/rtthread_libraries/src/object.c:268

        obj = rt_list_entry(node, struct rt_object, list);
        RT_ASSERT(obj != object);
    }
    /* leave critical */
    rt_exit_critical();
    34dc:	2c71                	jal	3778 <rt_exit_critical>
C:\Users\29275\Desktop\WchWorkSPace\camCoreWithRTOS\obj/../Libraries/rtthread_libraries/src/object.c:272

    /* initialize object's parameters */
    /* set object type to static */
    object->type = type | RT_Object_Class_Static;
    34de:	f809e993          	ori	s3,s3,-128
    34e2:	01348423          	sb	s3,8(s1)
C:\Users\29275\Desktop\WchWorkSPace\camCoreWithRTOS\obj/../Libraries/rtthread_libraries/src/object.c:274
    /* copy name */
    rt_strncpy(object->name, name, RT_NAME_MAX);
    34e6:	4621                	li	a2,8
    34e8:	85d2                	mv	a1,s4
    34ea:	8526                	mv	a0,s1
    34ec:	f4cff0ef          	jal	ra,2c38 <rt_strncpy>
C:\Users\29275\Desktop\WchWorkSPace\camCoreWithRTOS\obj/../Libraries/rtthread_libraries/src/object.c:279

    RT_OBJECT_HOOK_CALL(rt_object_attach_hook, (object));

    /* lock interrupt */
    temp = rt_hw_interrupt_disable();
    34f0:	c51fc0ef          	jal	ra,140 <rt_hw_interrupt_disable>
C:\Users\29275\Desktop\WchWorkSPace\camCoreWithRTOS\obj/../Libraries/rtthread_libraries/src/object.c:291
    }
    else
#endif
    {
        /* insert object into information object list */
        rt_list_insert_after(&(information->object_list), &(object->list));
    34f4:	00c48793          	addi	a5,s1,12
rt_list_insert_after():
C:\Users\29275\Desktop\WchWorkSPace\camCoreWithRTOS\Libraries\rtthread_libraries\include/rtservice.h:60
    l->next->prev = n;
    34f8:	00492703          	lw	a4,4(s2)
    34fc:	c35c                	sw	a5,4(a4)
C:\Users\29275\Desktop\WchWorkSPace\camCoreWithRTOS\Libraries\rtthread_libraries\include/rtservice.h:61
    n->next = l->next;
    34fe:	00492703          	lw	a4,4(s2)
    3502:	c4d8                	sw	a4,12(s1)
C:\Users\29275\Desktop\WchWorkSPace\camCoreWithRTOS\Libraries\rtthread_libraries\include/rtservice.h:63
    l->next = n;
    3504:	00f92223          	sw	a5,4(s2)
C:\Users\29275\Desktop\WchWorkSPace\camCoreWithRTOS\Libraries\rtthread_libraries\include/rtservice.h:64
    n->prev = l;
    3508:	c880                	sw	s0,16(s1)
rt_object_init():
C:\Users\29275\Desktop\WchWorkSPace\camCoreWithRTOS\obj/../Libraries/rtthread_libraries/src/object.c:295
    }

    /* unlock interrupt */
    rt_hw_interrupt_enable(temp);
    350a:	c3dfc0ef          	jal	ra,146 <rt_hw_interrupt_enable>
C:\Users\29275\Desktop\WchWorkSPace\camCoreWithRTOS\obj/../Libraries/rtthread_libraries/src/object.c:296
}
    350e:	40f2                	lw	ra,28(sp)
    3510:	4462                	lw	s0,24(sp)
    3512:	44d2                	lw	s1,20(sp)
    3514:	4942                	lw	s2,16(sp)
    3516:	49b2                	lw	s3,12(sp)
    3518:	4a22                	lw	s4,8(sp)
    351a:	6105                	addi	sp,sp,32
    351c:	8082                	ret

0000351e <rt_object_detach>:
rt_object_detach():
C:\Users\29275\Desktop\WchWorkSPace\camCoreWithRTOS\obj/../Libraries/rtthread_libraries/src/object.c:305
 * and the memory of static object is not freed.
 *
 * @param object the specified object to be detached.
 */
void rt_object_detach(rt_object_t object)
{
    351e:	1141                	addi	sp,sp,-16
    3520:	c606                	sw	ra,12(sp)
    3522:	c422                	sw	s0,8(sp)
    3524:	842a                	mv	s0,a0
C:\Users\29275\Desktop\WchWorkSPace\camCoreWithRTOS\obj/../Libraries/rtthread_libraries/src/object.c:314
    RT_ASSERT(object != RT_NULL);

    RT_OBJECT_HOOK_CALL(rt_object_detach_hook, (object));

    /* reset object type */
    object->type = 0;
    3526:	00050423          	sb	zero,8(a0)
C:\Users\29275\Desktop\WchWorkSPace\camCoreWithRTOS\obj/../Libraries/rtthread_libraries/src/object.c:317

    /* lock interrupt */
    temp = rt_hw_interrupt_disable();
    352a:	c17fc0ef          	jal	ra,140 <rt_hw_interrupt_disable>
C:\Users\29275\Desktop\WchWorkSPace\camCoreWithRTOS\obj/../Libraries/rtthread_libraries/src/object.c:320

    /* remove from old list */
    rt_list_remove(&(object->list));
    352e:	00c40793          	addi	a5,s0,12
rt_list_remove():
C:\Users\29275\Desktop\WchWorkSPace\camCoreWithRTOS\Libraries\rtthread_libraries\include/rtservice.h:88
    n->next->prev = n->prev;
    3532:	4454                	lw	a3,12(s0)
    3534:	4818                	lw	a4,16(s0)
    3536:	c2d8                	sw	a4,4(a3)
C:\Users\29275\Desktop\WchWorkSPace\camCoreWithRTOS\Libraries\rtthread_libraries\include/rtservice.h:89
    n->prev->next = n->next;
    3538:	4454                	lw	a3,12(s0)
    353a:	c314                	sw	a3,0(a4)
C:\Users\29275\Desktop\WchWorkSPace\camCoreWithRTOS\Libraries\rtthread_libraries\include/rtservice.h:91
    n->next = n->prev = n;
    353c:	c81c                	sw	a5,16(s0)
    353e:	c45c                	sw	a5,12(s0)
rt_object_detach():
C:\Users\29275\Desktop\WchWorkSPace\camCoreWithRTOS\obj/../Libraries/rtthread_libraries/src/object.c:323

    /* unlock interrupt */
    rt_hw_interrupt_enable(temp);
    3540:	c07fc0ef          	jal	ra,146 <rt_hw_interrupt_enable>
C:\Users\29275\Desktop\WchWorkSPace\camCoreWithRTOS\obj/../Libraries/rtthread_libraries/src/object.c:324
}
    3544:	40b2                	lw	ra,12(sp)
    3546:	4422                	lw	s0,8(sp)
    3548:	0141                	addi	sp,sp,16
    354a:	8082                	ret

0000354c <rt_object_allocate>:
rt_object_allocate():
C:\Users\29275\Desktop\WchWorkSPace\camCoreWithRTOS\obj/../Libraries/rtthread_libraries/src/object.c:336
 * @param name the object name. In system, the object's name must be unique.
 *
 * @return object
 */
rt_object_t rt_object_allocate(enum rt_object_class_type type, const char *name)
{
    354c:	1101                	addi	sp,sp,-32
    354e:	ce06                	sw	ra,28(sp)
    3550:	cc22                	sw	s0,24(sp)
    3552:	ca26                	sw	s1,20(sp)
    3554:	c84a                	sw	s2,16(sp)
    3556:	c64e                	sw	s3,12(sp)
    3558:	89aa                	mv	s3,a0
    355a:	892e                	mv	s2,a1
C:\Users\29275\Desktop\WchWorkSPace\camCoreWithRTOS\obj/../Libraries/rtthread_libraries/src/object.c:347
#endif

    RT_DEBUG_NOT_IN_INTERRUPT;

    /* get object information */
    information = rt_object_get_information(type);
    355c:	effff0ef          	jal	ra,345a <rt_object_get_information>
    3560:	84aa                	mv	s1,a0
C:\Users\29275\Desktop\WchWorkSPace\camCoreWithRTOS\obj/../Libraries/rtthread_libraries/src/object.c:350
    RT_ASSERT(information != RT_NULL);

    object = (struct rt_object *)RT_KERNEL_MALLOC(information->object_size);
    3562:	4548                	lw	a0,12(a0)
    3564:	cf1ff0ef          	jal	ra,3254 <rt_malloc>
    3568:	842a                	mv	s0,a0
C:\Users\29275\Desktop\WchWorkSPace\camCoreWithRTOS\obj/../Libraries/rtthread_libraries/src/object.c:351
    if (object == RT_NULL)
    356a:	c91d                	beqz	a0,35a0 <rt_object_allocate+0x54>
C:\Users\29275\Desktop\WchWorkSPace\camCoreWithRTOS\obj/../Libraries/rtthread_libraries/src/object.c:358
        /* no memory can be allocated */
        return RT_NULL;
    }

    /* clean memory data of object */
    rt_memset(object, 0x0, information->object_size);
    356c:	44d0                	lw	a2,12(s1)
    356e:	4581                	li	a1,0
    3570:	dfaff0ef          	jal	ra,2b6a <rt_memset>
C:\Users\29275\Desktop\WchWorkSPace\camCoreWithRTOS\obj/../Libraries/rtthread_libraries/src/object.c:363

    /* initialize object's parameters */

    /* set object type */
    object->type = type;
    3574:	01340423          	sb	s3,8(s0)
C:\Users\29275\Desktop\WchWorkSPace\camCoreWithRTOS\obj/../Libraries/rtthread_libraries/src/object.c:366

    /* set object flag */
    object->flag = 0;
    3578:	000404a3          	sb	zero,9(s0)
C:\Users\29275\Desktop\WchWorkSPace\camCoreWithRTOS\obj/../Libraries/rtthread_libraries/src/object.c:369

    /* copy name */
    rt_strncpy(object->name, name, RT_NAME_MAX);
    357c:	4621                	li	a2,8
    357e:	85ca                	mv	a1,s2
    3580:	8522                	mv	a0,s0
    3582:	eb6ff0ef          	jal	ra,2c38 <rt_strncpy>
C:\Users\29275\Desktop\WchWorkSPace\camCoreWithRTOS\obj/../Libraries/rtthread_libraries/src/object.c:374

    RT_OBJECT_HOOK_CALL(rt_object_attach_hook, (object));

    /* lock interrupt */
    temp = rt_hw_interrupt_disable();
    3586:	bbbfc0ef          	jal	ra,140 <rt_hw_interrupt_disable>
C:\Users\29275\Desktop\WchWorkSPace\camCoreWithRTOS\obj/../Libraries/rtthread_libraries/src/object.c:386
    }
    else
#endif
    {
        /* insert object into information object list */
        rt_list_insert_after(&(information->object_list), &(object->list));
    358a:	00c40793          	addi	a5,s0,12
rt_list_insert_after():
C:\Users\29275\Desktop\WchWorkSPace\camCoreWithRTOS\Libraries\rtthread_libraries\include/rtservice.h:60
    l->next->prev = n;
    358e:	40d8                	lw	a4,4(s1)
    3590:	c35c                	sw	a5,4(a4)
C:\Users\29275\Desktop\WchWorkSPace\camCoreWithRTOS\Libraries\rtthread_libraries\include/rtservice.h:61
    n->next = l->next;
    3592:	40d8                	lw	a4,4(s1)
    3594:	c458                	sw	a4,12(s0)
C:\Users\29275\Desktop\WchWorkSPace\camCoreWithRTOS\Libraries\rtthread_libraries\include/rtservice.h:63
    l->next = n;
    3596:	c0dc                	sw	a5,4(s1)
rt_object_allocate():
C:\Users\29275\Desktop\WchWorkSPace\camCoreWithRTOS\obj/../Libraries/rtthread_libraries/src/object.c:386
    3598:	0491                	addi	s1,s1,4
rt_list_insert_after():
C:\Users\29275\Desktop\WchWorkSPace\camCoreWithRTOS\Libraries\rtthread_libraries\include/rtservice.h:64
    n->prev = l;
    359a:	c804                	sw	s1,16(s0)
rt_object_allocate():
C:\Users\29275\Desktop\WchWorkSPace\camCoreWithRTOS\obj/../Libraries/rtthread_libraries/src/object.c:390
    }

    /* unlock interrupt */
    rt_hw_interrupt_enable(temp);
    359c:	babfc0ef          	jal	ra,146 <rt_hw_interrupt_enable>
C:\Users\29275\Desktop\WchWorkSPace\camCoreWithRTOS\obj/../Libraries/rtthread_libraries/src/object.c:394

    /* return object */
    return object;
}
    35a0:	8522                	mv	a0,s0
    35a2:	40f2                	lw	ra,28(sp)
    35a4:	4462                	lw	s0,24(sp)
    35a6:	44d2                	lw	s1,20(sp)
    35a8:	4942                	lw	s2,16(sp)
    35aa:	49b2                	lw	s3,12(sp)
    35ac:	6105                	addi	sp,sp,32
    35ae:	8082                	ret

000035b0 <rt_object_delete>:
rt_object_delete():
C:\Users\29275\Desktop\WchWorkSPace\camCoreWithRTOS\obj/../Libraries/rtthread_libraries/src/object.c:402
 * This function will delete an object and release object memory.
 *
 * @param object the specified object to be deleted.
 */
void rt_object_delete(rt_object_t object)
{
    35b0:	1141                	addi	sp,sp,-16
    35b2:	c606                	sw	ra,12(sp)
    35b4:	c422                	sw	s0,8(sp)
    35b6:	842a                	mv	s0,a0
C:\Users\29275\Desktop\WchWorkSPace\camCoreWithRTOS\obj/../Libraries/rtthread_libraries/src/object.c:412
    RT_ASSERT(!(object->type & RT_Object_Class_Static));

    RT_OBJECT_HOOK_CALL(rt_object_detach_hook, (object));

    /* reset object type */
    object->type = 0;
    35b8:	00050423          	sb	zero,8(a0)
C:\Users\29275\Desktop\WchWorkSPace\camCoreWithRTOS\obj/../Libraries/rtthread_libraries/src/object.c:415

    /* lock interrupt */
    temp = rt_hw_interrupt_disable();
    35bc:	b85fc0ef          	jal	ra,140 <rt_hw_interrupt_disable>
C:\Users\29275\Desktop\WchWorkSPace\camCoreWithRTOS\obj/../Libraries/rtthread_libraries/src/object.c:418

    /* remove from old list */
    rt_list_remove(&(object->list));
    35c0:	00c40793          	addi	a5,s0,12
rt_list_remove():
C:\Users\29275\Desktop\WchWorkSPace\camCoreWithRTOS\Libraries\rtthread_libraries\include/rtservice.h:88
    n->next->prev = n->prev;
    35c4:	4454                	lw	a3,12(s0)
    35c6:	4818                	lw	a4,16(s0)
    35c8:	c2d8                	sw	a4,4(a3)
C:\Users\29275\Desktop\WchWorkSPace\camCoreWithRTOS\Libraries\rtthread_libraries\include/rtservice.h:89
    n->prev->next = n->next;
    35ca:	4454                	lw	a3,12(s0)
    35cc:	c314                	sw	a3,0(a4)
C:\Users\29275\Desktop\WchWorkSPace\camCoreWithRTOS\Libraries\rtthread_libraries\include/rtservice.h:91
    n->next = n->prev = n;
    35ce:	c81c                	sw	a5,16(s0)
    35d0:	c45c                	sw	a5,12(s0)
rt_object_delete():
C:\Users\29275\Desktop\WchWorkSPace\camCoreWithRTOS\obj/../Libraries/rtthread_libraries/src/object.c:421

    /* unlock interrupt */
    rt_hw_interrupt_enable(temp);
    35d2:	b75fc0ef          	jal	ra,146 <rt_hw_interrupt_enable>
C:\Users\29275\Desktop\WchWorkSPace\camCoreWithRTOS\obj/../Libraries/rtthread_libraries/src/object.c:424

    /* free the memory of object */
    RT_KERNEL_FREE(object);
    35d6:	8522                	mv	a0,s0
    35d8:	dd7ff0ef          	jal	ra,33ae <rt_free>
C:\Users\29275\Desktop\WchWorkSPace\camCoreWithRTOS\obj/../Libraries/rtthread_libraries/src/object.c:425
}
    35dc:	40b2                	lw	ra,12(sp)
    35de:	4422                	lw	s0,8(sp)
    35e0:	0141                	addi	sp,sp,16
    35e2:	8082                	ret

000035e4 <rt_object_is_systemobject>:
rt_object_is_systemobject():
C:\Users\29275\Desktop\WchWorkSPace\camCoreWithRTOS\obj/../Libraries/rtthread_libraries/src/object.c:442
rt_bool_t rt_object_is_systemobject(rt_object_t object)
{
    /* object check */
    RT_ASSERT(object != RT_NULL);

    if (object->type & RT_Object_Class_Static)
    35e4:	00850503          	lb	a0,8(a0)
C:\Users\29275\Desktop\WchWorkSPace\camCoreWithRTOS\obj/../Libraries/rtthread_libraries/src/object.c:446
        return RT_TRUE;

    return RT_FALSE;
}
    35e8:	817d                	srli	a0,a0,0x1f
    35ea:	8082                	ret

000035ec <rt_system_scheduler_init>:
rt_system_scheduler_init():
C:\Users\29275\Desktop\WchWorkSPace\camCoreWithRTOS\obj/../Libraries/rtthread_libraries/src/scheduler.c:122
 */
void rt_system_scheduler_init(void)
{
    register rt_base_t offset;

    rt_scheduler_lock_nest = 0;
    35ec:	86019a23          	sh	zero,-1932(gp) # 20000124 <rt_scheduler_lock_nest>
C:\Users\29275\Desktop\WchWorkSPace\camCoreWithRTOS\obj/../Libraries/rtthread_libraries/src/scheduler.c:127

    RT_DEBUG_LOG(RT_DEBUG_SCHEDULER, ("start scheduler: max priority 0x%02x\n",
                                      RT_THREAD_PRIORITY_MAX));

    for (offset = 0; offset < RT_THREAD_PRIORITY_MAX; offset ++)
    35f0:	dec18793          	addi	a5,gp,-532 # 2000069c <rt_thread_priority_table>
    35f4:	04078713          	addi	a4,a5,64
rt_list_init():
C:\Users\29275\Desktop\WchWorkSPace\camCoreWithRTOS\Libraries\rtthread_libraries\include/rtservice.h:49 (discriminator 3)
    l->next = l->prev = l;
    35f8:	c3dc                	sw	a5,4(a5)
    35fa:	c39c                	sw	a5,0(a5)
    35fc:	07a1                	addi	a5,a5,8
rt_system_scheduler_init():
C:\Users\29275\Desktop\WchWorkSPace\camCoreWithRTOS\obj/../Libraries/rtthread_libraries/src/scheduler.c:127 (discriminator 3)
    35fe:	fee79de3          	bne	a5,a4,35f8 <rt_system_scheduler_init+0xc>
C:\Users\29275\Desktop\WchWorkSPace\camCoreWithRTOS\obj/../Libraries/rtthread_libraries/src/scheduler.c:132
    {
        rt_list_init(&rt_thread_priority_table[offset]);
    }

    rt_current_priority = RT_THREAD_PRIORITY_MAX - 1;
    3602:	471d                	li	a4,7
    3604:	86e18623          	sb	a4,-1940(gp) # 2000011c <rt_current_priority>
C:\Users\29275\Desktop\WchWorkSPace\camCoreWithRTOS\obj/../Libraries/rtthread_libraries/src/scheduler.c:133
    rt_current_thread = RT_NULL;
    3608:	8601a823          	sw	zero,-1936(gp) # 20000120 <rt_current_thread>
C:\Users\29275\Desktop\WchWorkSPace\camCoreWithRTOS\obj/../Libraries/rtthread_libraries/src/scheduler.c:136

    /* initialize ready priority group */
    rt_thread_ready_priority_group = 0;
    360c:	8801a023          	sw	zero,-1920(gp) # 20000130 <rt_thread_ready_priority_group>
rt_list_init():
C:\Users\29275\Desktop\WchWorkSPace\camCoreWithRTOS\Libraries\rtthread_libraries\include/rtservice.h:49
    3610:	87818793          	addi	a5,gp,-1928 # 20000128 <rt_thread_defunct>
    3614:	c3dc                	sw	a5,4(a5)
    3616:	c39c                	sw	a5,0(a5)
rt_system_scheduler_init():
C:\Users\29275\Desktop\WchWorkSPace\camCoreWithRTOS\obj/../Libraries/rtthread_libraries/src/scheduler.c:145
    rt_memset(rt_thread_ready_table, 0, sizeof(rt_thread_ready_table));
#endif

    /* initialize thread defunct */
    rt_list_init(&rt_thread_defunct);
}
    3618:	8082                	ret

0000361a <rt_system_scheduler_start>:
rt_system_scheduler_start():
C:\Users\29275\Desktop\WchWorkSPace\camCoreWithRTOS\obj/../Libraries/rtthread_libraries/src/scheduler.c:153
 * @ingroup SystemInit
 * This function will startup scheduler. It will select one thread
 * with the highest priority level, then switch to it.
 */
void rt_system_scheduler_start(void)
{
    361a:	1141                	addi	sp,sp,-16
    361c:	c606                	sw	ra,12(sp)
C:\Users\29275\Desktop\WchWorkSPace\camCoreWithRTOS\obj/../Libraries/rtthread_libraries/src/scheduler.c:163
    register rt_ubase_t number;

    number = __rt_ffs(rt_thread_ready_priority_group) - 1;
    highest_ready_priority = (number << 3) + __rt_ffs(rt_thread_ready_table[number]) - 1;
#else
    highest_ready_priority = __rt_ffs(rt_thread_ready_priority_group) - 1;
    361e:	8801a503          	lw	a0,-1920(gp) # 20000130 <rt_thread_ready_priority_group>
    3622:	aa5ff0ef          	jal	ra,30c6 <__rt_ffs>
C:\Users\29275\Desktop\WchWorkSPace\camCoreWithRTOS\obj/../Libraries/rtthread_libraries/src/scheduler.c:167
#endif

    /* get switch to thread */
    to_thread = rt_list_entry(rt_thread_priority_table[highest_ready_priority].next,
    3626:	157d                	addi	a0,a0,-1
    3628:	00351793          	slli	a5,a0,0x3
    362c:	dec18513          	addi	a0,gp,-532 # 2000069c <rt_thread_priority_table>
    3630:	953e                	add	a0,a0,a5
    3632:	4108                	lw	a0,0(a0)
    3634:	fec50713          	addi	a4,a0,-20
C:\Users\29275\Desktop\WchWorkSPace\camCoreWithRTOS\obj/../Libraries/rtthread_libraries/src/scheduler.c:171
                              struct rt_thread,
                              tlist);

    rt_current_thread = to_thread;
    3638:	86e1a823          	sw	a4,-1936(gp) # 20000120 <rt_current_thread>
C:\Users\29275\Desktop\WchWorkSPace\camCoreWithRTOS\obj/../Libraries/rtthread_libraries/src/scheduler.c:174

    /* switch to new thread */
    rt_hw_context_switch_to((rt_uint32_t)&to_thread->sp);
    363c:	0521                	addi	a0,a0,8
    363e:	b0ffc0ef          	jal	ra,14c <rt_hw_context_switch_to>
C:\Users\29275\Desktop\WchWorkSPace\camCoreWithRTOS\obj/../Libraries/rtthread_libraries/src/scheduler.c:177

    /* never come back */
}
    3642:	40b2                	lw	ra,12(sp)
    3644:	0141                	addi	sp,sp,16
    3646:	8082                	ret

00003648 <rt_schedule>:
rt_schedule():
C:\Users\29275\Desktop\WchWorkSPace\camCoreWithRTOS\obj/../Libraries/rtthread_libraries/src/scheduler.c:190
/**
 * This function will perform one schedule. It will select one thread
 * with the highest priority level, then switch to it.
 */
void rt_schedule(void)
{
    3648:	1141                	addi	sp,sp,-16
    364a:	c606                	sw	ra,12(sp)
    364c:	c422                	sw	s0,8(sp)
C:\Users\29275\Desktop\WchWorkSPace\camCoreWithRTOS\obj/../Libraries/rtthread_libraries/src/scheduler.c:196
    rt_base_t level;
    struct rt_thread *to_thread;
    struct rt_thread *from_thread;

    /* disable interrupt */
    level = rt_hw_interrupt_disable();
    364e:	af3fc0ef          	jal	ra,140 <rt_hw_interrupt_disable>
    3652:	842a                	mv	s0,a0
C:\Users\29275\Desktop\WchWorkSPace\camCoreWithRTOS\obj/../Libraries/rtthread_libraries/src/scheduler.c:199

    /* check the scheduler is enabled or not */
    if (rt_scheduler_lock_nest == 0)
    3654:	87419783          	lh	a5,-1932(gp) # 20000124 <rt_scheduler_lock_nest>
    3658:	e3a1                	bnez	a5,3698 <rt_schedule+0x50>
C:\Users\29275\Desktop\WchWorkSPace\camCoreWithRTOS\obj/../Libraries/rtthread_libraries/src/scheduler.c:204
    {
        register rt_ubase_t highest_ready_priority;

#if RT_THREAD_PRIORITY_MAX <= 32
        highest_ready_priority = __rt_ffs(rt_thread_ready_priority_group) - 1;
    365a:	8801a503          	lw	a0,-1920(gp) # 20000130 <rt_thread_ready_priority_group>
    365e:	a69ff0ef          	jal	ra,30c6 <__rt_ffs>
    3662:	157d                	addi	a0,a0,-1
C:\Users\29275\Desktop\WchWorkSPace\camCoreWithRTOS\obj/../Libraries/rtthread_libraries/src/scheduler.c:213
        number = __rt_ffs(rt_thread_ready_priority_group) - 1;
        highest_ready_priority = (number << 3) + __rt_ffs(rt_thread_ready_table[number]) - 1;
#endif

        /* get switch to thread */
        to_thread = rt_list_entry(rt_thread_priority_table[highest_ready_priority].next,
    3664:	00351713          	slli	a4,a0,0x3
    3668:	dec18793          	addi	a5,gp,-532 # 2000069c <rt_thread_priority_table>
    366c:	97ba                	add	a5,a5,a4
    366e:	438c                	lw	a1,0(a5)
    3670:	fec58793          	addi	a5,a1,-20
C:\Users\29275\Desktop\WchWorkSPace\camCoreWithRTOS\obj/../Libraries/rtthread_libraries/src/scheduler.c:218
                                  struct rt_thread,
                                  tlist);

        /* if the destination thread is not the same as current thread */
        if (to_thread != rt_current_thread)
    3674:	8701a703          	lw	a4,-1936(gp) # 20000120 <rt_current_thread>
    3678:	02f70063          	beq	a4,a5,3698 <rt_schedule+0x50>
C:\Users\29275\Desktop\WchWorkSPace\camCoreWithRTOS\obj/../Libraries/rtthread_libraries/src/scheduler.c:220
        {
            rt_current_priority = (rt_uint8_t)highest_ready_priority;
    367c:	86a18623          	sb	a0,-1940(gp) # 2000011c <rt_current_priority>
C:\Users\29275\Desktop\WchWorkSPace\camCoreWithRTOS\obj/../Libraries/rtthread_libraries/src/scheduler.c:222
            from_thread         = rt_current_thread;
            rt_current_thread   = to_thread;
    3680:	86f1a823          	sw	a5,-1936(gp) # 20000120 <rt_current_thread>
C:\Users\29275\Desktop\WchWorkSPace\camCoreWithRTOS\obj/../Libraries/rtthread_libraries/src/scheduler.c:239

#ifdef RT_USING_OVERFLOW_CHECK
            _rt_scheduler_stack_check(to_thread);
#endif

            if (rt_interrupt_nest == 0)
    3684:	8501c783          	lbu	a5,-1968(gp) # 20000100 <rt_interrupt_nest>
    3688:	0ff7f793          	andi	a5,a5,255
    368c:	cf89                	beqz	a5,36a6 <rt_schedule+0x5e>
C:\Users\29275\Desktop\WchWorkSPace\camCoreWithRTOS\obj/../Libraries/rtthread_libraries/src/scheduler.c:269
            }
            else
            {
                RT_DEBUG_LOG(RT_DEBUG_SCHEDULER, ("switch in interrupt\n"));

                rt_hw_context_switch_interrupt((rt_uint32_t)&from_thread->sp,
    368e:	05a1                	addi	a1,a1,8
    3690:	01c70513          	addi	a0,a4,28
    3694:	780000ef          	jal	ra,3e14 <rt_hw_context_switch_interrupt>
C:\Users\29275\Desktop\WchWorkSPace\camCoreWithRTOS\obj/../Libraries/rtthread_libraries/src/scheduler.c:276
            }
        }
    }

    /* enable interrupt */
    rt_hw_interrupt_enable(level);
    3698:	8522                	mv	a0,s0
    369a:	aadfc0ef          	jal	ra,146 <rt_hw_interrupt_enable>
C:\Users\29275\Desktop\WchWorkSPace\camCoreWithRTOS\obj/../Libraries/rtthread_libraries/src/scheduler.c:277
}
    369e:	40b2                	lw	ra,12(sp)
    36a0:	4422                	lw	s0,8(sp)
    36a2:	0141                	addi	sp,sp,16
    36a4:	8082                	ret
C:\Users\29275\Desktop\WchWorkSPace\camCoreWithRTOS\obj/../Libraries/rtthread_libraries/src/scheduler.c:241
                rt_hw_context_switch((rt_uint32_t)&from_thread->sp,
    36a6:	05a1                	addi	a1,a1,8
    36a8:	01c70513          	addi	a0,a4,28
    36ac:	754000ef          	jal	ra,3e00 <rt_hw_context_switch>
C:\Users\29275\Desktop\WchWorkSPace\camCoreWithRTOS\obj/../Libraries/rtthread_libraries/src/scheduler.c:260
                    rt_hw_interrupt_enable(level);
    36b0:	8522                	mv	a0,s0
    36b2:	a95fc0ef          	jal	ra,146 <rt_hw_interrupt_enable>
C:\Users\29275\Desktop\WchWorkSPace\camCoreWithRTOS\obj/../Libraries/rtthread_libraries/src/scheduler.c:263
                return ;
    36b6:	b7e5                	j	369e <rt_schedule+0x56>

000036b8 <rt_schedule_insert_thread>:
rt_schedule_insert_thread():
C:\Users\29275\Desktop\WchWorkSPace\camCoreWithRTOS\obj/../Libraries/rtthread_libraries/src/scheduler.c:287
 *
 * @param thread the thread to be inserted
 * @note Please do not invoke this function in user application.
 */
void rt_schedule_insert_thread(struct rt_thread *thread)
{
    36b8:	1141                	addi	sp,sp,-16
    36ba:	c606                	sw	ra,12(sp)
    36bc:	c422                	sw	s0,8(sp)
    36be:	842a                	mv	s0,a0
C:\Users\29275\Desktop\WchWorkSPace\camCoreWithRTOS\obj/../Libraries/rtthread_libraries/src/scheduler.c:293
    register rt_base_t temp;

    RT_ASSERT(thread != RT_NULL);

    /* disable interrupt */
    temp = rt_hw_interrupt_disable();
    36c0:	a81fc0ef          	jal	ra,140 <rt_hw_interrupt_disable>
C:\Users\29275\Desktop\WchWorkSPace\camCoreWithRTOS\obj/../Libraries/rtthread_libraries/src/scheduler.c:296

    /* change stat */
    thread->stat = RT_THREAD_READY | (thread->stat & ~RT_THREAD_STAT_MASK);
    36c4:	03444783          	lbu	a5,52(s0)
    36c8:	9bc1                	andi	a5,a5,-16
    36ca:	0017e793          	ori	a5,a5,1
    36ce:	02f40a23          	sb	a5,52(s0)
C:\Users\29275\Desktop\WchWorkSPace\camCoreWithRTOS\obj/../Libraries/rtthread_libraries/src/scheduler.c:299

    /* insert thread to ready list */
    rt_list_insert_before(&(rt_thread_priority_table[thread->current_priority]),
    36d2:	03544783          	lbu	a5,53(s0)
    36d6:	01440693          	addi	a3,s0,20
rt_list_insert_before():
C:\Users\29275\Desktop\WchWorkSPace\camCoreWithRTOS\Libraries\rtthread_libraries\include/rtservice.h:75
    l->prev->next = n;
    36da:	00379713          	slli	a4,a5,0x3
    36de:	dec18793          	addi	a5,gp,-532 # 2000069c <rt_thread_priority_table>
    36e2:	97ba                	add	a5,a5,a4
    36e4:	43d8                	lw	a4,4(a5)
    36e6:	c314                	sw	a3,0(a4)
C:\Users\29275\Desktop\WchWorkSPace\camCoreWithRTOS\Libraries\rtthread_libraries\include/rtservice.h:76
    n->prev = l->prev;
    36e8:	43d8                	lw	a4,4(a5)
    36ea:	cc18                	sw	a4,24(s0)
C:\Users\29275\Desktop\WchWorkSPace\camCoreWithRTOS\Libraries\rtthread_libraries\include/rtservice.h:78
    l->prev = n;
    36ec:	c3d4                	sw	a3,4(a5)
C:\Users\29275\Desktop\WchWorkSPace\camCoreWithRTOS\Libraries\rtthread_libraries\include/rtservice.h:79
    n->next = l;
    36ee:	c85c                	sw	a5,20(s0)
rt_schedule_insert_thread():
C:\Users\29275\Desktop\WchWorkSPace\camCoreWithRTOS\obj/../Libraries/rtthread_libraries/src/scheduler.c:319
#endif

#if RT_THREAD_PRIORITY_MAX > 32
    rt_thread_ready_table[thread->number] |= thread->high_mask;
#endif
    rt_thread_ready_priority_group |= thread->number_mask;
    36f0:	88018793          	addi	a5,gp,-1920 # 20000130 <rt_thread_ready_priority_group>
    36f4:	5c18                	lw	a4,56(s0)
    36f6:	4394                	lw	a3,0(a5)
    36f8:	8f55                	or	a4,a4,a3
    36fa:	c398                	sw	a4,0(a5)
C:\Users\29275\Desktop\WchWorkSPace\camCoreWithRTOS\obj/../Libraries/rtthread_libraries/src/scheduler.c:322

    /* enable interrupt */
    rt_hw_interrupt_enable(temp);
    36fc:	a4bfc0ef          	jal	ra,146 <rt_hw_interrupt_enable>
C:\Users\29275\Desktop\WchWorkSPace\camCoreWithRTOS\obj/../Libraries/rtthread_libraries/src/scheduler.c:323
}
    3700:	40b2                	lw	ra,12(sp)
    3702:	4422                	lw	s0,8(sp)
    3704:	0141                	addi	sp,sp,16
    3706:	8082                	ret

00003708 <rt_schedule_remove_thread>:
rt_schedule_remove_thread():
C:\Users\29275\Desktop\WchWorkSPace\camCoreWithRTOS\obj/../Libraries/rtthread_libraries/src/scheduler.c:333
 * @param thread the thread to be removed
 *
 * @note Please do not invoke this function in user application.
 */
void rt_schedule_remove_thread(struct rt_thread *thread)
{
    3708:	1141                	addi	sp,sp,-16
    370a:	c606                	sw	ra,12(sp)
    370c:	c422                	sw	s0,8(sp)
    370e:	842a                	mv	s0,a0
C:\Users\29275\Desktop\WchWorkSPace\camCoreWithRTOS\obj/../Libraries/rtthread_libraries/src/scheduler.c:339
    register rt_base_t temp;

    RT_ASSERT(thread != RT_NULL);

    /* disable interrupt */
    temp = rt_hw_interrupt_disable();
    3710:	a31fc0ef          	jal	ra,140 <rt_hw_interrupt_disable>
C:\Users\29275\Desktop\WchWorkSPace\camCoreWithRTOS\obj/../Libraries/rtthread_libraries/src/scheduler.c:356
                  thread->number_mask,
                  thread->high_mask));
#endif

    /* remove thread from ready list */
    rt_list_remove(&(thread->tlist));
    3714:	01440793          	addi	a5,s0,20
rt_list_remove():
C:\Users\29275\Desktop\WchWorkSPace\camCoreWithRTOS\Libraries\rtthread_libraries\include/rtservice.h:88
    n->next->prev = n->prev;
    3718:	4854                	lw	a3,20(s0)
    371a:	4c18                	lw	a4,24(s0)
    371c:	c2d8                	sw	a4,4(a3)
C:\Users\29275\Desktop\WchWorkSPace\camCoreWithRTOS\Libraries\rtthread_libraries\include/rtservice.h:89
    n->prev->next = n->next;
    371e:	4854                	lw	a3,20(s0)
    3720:	c314                	sw	a3,0(a4)
C:\Users\29275\Desktop\WchWorkSPace\camCoreWithRTOS\Libraries\rtthread_libraries\include/rtservice.h:91
    n->next = n->prev = n;
    3722:	cc1c                	sw	a5,24(s0)
    3724:	c85c                	sw	a5,20(s0)
rt_schedule_remove_thread():
C:\Users\29275\Desktop\WchWorkSPace\camCoreWithRTOS\obj/../Libraries/rtthread_libraries/src/scheduler.c:357
    if (rt_list_isempty(&(rt_thread_priority_table[thread->current_priority])))
    3726:	03544783          	lbu	a5,53(s0)
    372a:	00379713          	slli	a4,a5,0x3
    372e:	dec18793          	addi	a5,gp,-532 # 2000069c <rt_thread_priority_table>
    3732:	97ba                	add	a5,a5,a4
    3734:	4398                	lw	a4,0(a5)
    3736:	00f70863          	beq	a4,a5,3746 <rt_schedule_remove_thread+0x3e>
C:\Users\29275\Desktop\WchWorkSPace\camCoreWithRTOS\obj/../Libraries/rtthread_libraries/src/scheduler.c:371
        rt_thread_ready_priority_group &= ~thread->number_mask;
#endif
    }

    /* enable interrupt */
    rt_hw_interrupt_enable(temp);
    373a:	a0dfc0ef          	jal	ra,146 <rt_hw_interrupt_enable>
C:\Users\29275\Desktop\WchWorkSPace\camCoreWithRTOS\obj/../Libraries/rtthread_libraries/src/scheduler.c:372
}
    373e:	40b2                	lw	ra,12(sp)
    3740:	4422                	lw	s0,8(sp)
    3742:	0141                	addi	sp,sp,16
    3744:	8082                	ret
C:\Users\29275\Desktop\WchWorkSPace\camCoreWithRTOS\obj/../Libraries/rtthread_libraries/src/scheduler.c:366
        rt_thread_ready_priority_group &= ~thread->number_mask;
    3746:	88018713          	addi	a4,gp,-1920 # 20000130 <rt_thread_ready_priority_group>
    374a:	5c1c                	lw	a5,56(s0)
    374c:	fff7c793          	not	a5,a5
    3750:	4314                	lw	a3,0(a4)
    3752:	8ff5                	and	a5,a5,a3
    3754:	c31c                	sw	a5,0(a4)
    3756:	b7d5                	j	373a <rt_schedule_remove_thread+0x32>

00003758 <rt_enter_critical>:
rt_enter_critical():
C:\Users\29275\Desktop\WchWorkSPace\camCoreWithRTOS\obj/../Libraries/rtthread_libraries/src/scheduler.c:378

/**
 * This function will lock the thread scheduler.
 */
void rt_enter_critical(void)
{
    3758:	1141                	addi	sp,sp,-16
    375a:	c606                	sw	ra,12(sp)
C:\Users\29275\Desktop\WchWorkSPace\camCoreWithRTOS\obj/../Libraries/rtthread_libraries/src/scheduler.c:382
    register rt_base_t level;

    /* disable interrupt */
    level = rt_hw_interrupt_disable();
    375c:	9e5fc0ef          	jal	ra,140 <rt_hw_interrupt_disable>
C:\Users\29275\Desktop\WchWorkSPace\camCoreWithRTOS\obj/../Libraries/rtthread_libraries/src/scheduler.c:388

    /*
     * the maximal number of nest is RT_UINT16_MAX, which is big
     * enough and does not check here
     */
    rt_scheduler_lock_nest ++;
    3760:	87418793          	addi	a5,gp,-1932 # 20000124 <rt_scheduler_lock_nest>
    3764:	0007d703          	lhu	a4,0(a5)
    3768:	0705                	addi	a4,a4,1
    376a:	00e79023          	sh	a4,0(a5)
C:\Users\29275\Desktop\WchWorkSPace\camCoreWithRTOS\obj/../Libraries/rtthread_libraries/src/scheduler.c:391

    /* enable interrupt */
    rt_hw_interrupt_enable(level);
    376e:	9d9fc0ef          	jal	ra,146 <rt_hw_interrupt_enable>
C:\Users\29275\Desktop\WchWorkSPace\camCoreWithRTOS\obj/../Libraries/rtthread_libraries/src/scheduler.c:392
}
    3772:	40b2                	lw	ra,12(sp)
    3774:	0141                	addi	sp,sp,16
    3776:	8082                	ret

00003778 <rt_exit_critical>:
rt_exit_critical():
C:\Users\29275\Desktop\WchWorkSPace\camCoreWithRTOS\obj/../Libraries/rtthread_libraries/src/scheduler.c:399

/**
 * This function will unlock the thread scheduler.
 */
void rt_exit_critical(void)
{
    3778:	1141                	addi	sp,sp,-16
    377a:	c606                	sw	ra,12(sp)
C:\Users\29275\Desktop\WchWorkSPace\camCoreWithRTOS\obj/../Libraries/rtthread_libraries/src/scheduler.c:403
    register rt_base_t level;

    /* disable interrupt */
    level = rt_hw_interrupt_disable();
    377c:	9c5fc0ef          	jal	ra,140 <rt_hw_interrupt_disable>
C:\Users\29275\Desktop\WchWorkSPace\camCoreWithRTOS\obj/../Libraries/rtthread_libraries/src/scheduler.c:405

    rt_scheduler_lock_nest --;
    3780:	87418713          	addi	a4,gp,-1932 # 20000124 <rt_scheduler_lock_nest>
    3784:	00075783          	lhu	a5,0(a4)
    3788:	17fd                	addi	a5,a5,-1
    378a:	07c2                	slli	a5,a5,0x10
    378c:	87c1                	srai	a5,a5,0x10
    378e:	00f71023          	sh	a5,0(a4)
C:\Users\29275\Desktop\WchWorkSPace\camCoreWithRTOS\obj/../Libraries/rtthread_libraries/src/scheduler.c:406
    if (rt_scheduler_lock_nest <= 0)
    3792:	00f05763          	blez	a5,37a0 <rt_exit_critical+0x28>
C:\Users\29275\Desktop\WchWorkSPace\camCoreWithRTOS\obj/../Libraries/rtthread_libraries/src/scheduler.c:421
        }
    }
    else
    {
        /* enable interrupt */
        rt_hw_interrupt_enable(level);
    3796:	9b1fc0ef          	jal	ra,146 <rt_hw_interrupt_enable>
C:\Users\29275\Desktop\WchWorkSPace\camCoreWithRTOS\obj/../Libraries/rtthread_libraries/src/scheduler.c:423
    }
}
    379a:	40b2                	lw	ra,12(sp)
    379c:	0141                	addi	sp,sp,16
    379e:	8082                	ret
C:\Users\29275\Desktop\WchWorkSPace\camCoreWithRTOS\obj/../Libraries/rtthread_libraries/src/scheduler.c:408
        rt_scheduler_lock_nest = 0;
    37a0:	86019a23          	sh	zero,-1932(gp) # 20000124 <rt_scheduler_lock_nest>
C:\Users\29275\Desktop\WchWorkSPace\camCoreWithRTOS\obj/../Libraries/rtthread_libraries/src/scheduler.c:410
        rt_hw_interrupt_enable(level);
    37a4:	9a3fc0ef          	jal	ra,146 <rt_hw_interrupt_enable>
C:\Users\29275\Desktop\WchWorkSPace\camCoreWithRTOS\obj/../Libraries/rtthread_libraries/src/scheduler.c:412
        if (rt_current_thread)
    37a8:	8701a783          	lw	a5,-1936(gp) # 20000120 <rt_current_thread>
    37ac:	d7fd                	beqz	a5,379a <rt_exit_critical+0x22>
C:\Users\29275\Desktop\WchWorkSPace\camCoreWithRTOS\obj/../Libraries/rtthread_libraries/src/scheduler.c:415
            rt_schedule();
    37ae:	e9bff0ef          	jal	ra,3648 <rt_schedule>
    37b2:	b7e5                	j	379a <rt_exit_critical+0x22>

000037b4 <rt_thread_exit>:
rt_thread_exit():
C:\Users\29275\Desktop\WchWorkSPace\camCoreWithRTOS\obj/../Libraries/rtthread_libraries/src/thread.c:82
}

#endif

void rt_thread_exit(void)
{
    37b4:	1141                	addi	sp,sp,-16
    37b6:	c606                	sw	ra,12(sp)
    37b8:	c422                	sw	s0,8(sp)
    37ba:	c226                	sw	s1,4(sp)
C:\Users\29275\Desktop\WchWorkSPace\camCoreWithRTOS\obj/../Libraries/rtthread_libraries/src/thread.c:87
    struct rt_thread *thread;
    register rt_base_t level;

    /* get current thread */
    thread = rt_current_thread;
    37bc:	8701a403          	lw	s0,-1936(gp) # 20000120 <rt_current_thread>
C:\Users\29275\Desktop\WchWorkSPace\camCoreWithRTOS\obj/../Libraries/rtthread_libraries/src/thread.c:90

    /* disable interrupt */
    level = rt_hw_interrupt_disable();
    37c0:	981fc0ef          	jal	ra,140 <rt_hw_interrupt_disable>
    37c4:	84aa                	mv	s1,a0
C:\Users\29275\Desktop\WchWorkSPace\camCoreWithRTOS\obj/../Libraries/rtthread_libraries/src/thread.c:93

    /* remove from schedule */
    rt_schedule_remove_thread(thread);
    37c6:	8522                	mv	a0,s0
    37c8:	f41ff0ef          	jal	ra,3708 <rt_schedule_remove_thread>
C:\Users\29275\Desktop\WchWorkSPace\camCoreWithRTOS\obj/../Libraries/rtthread_libraries/src/thread.c:95
    /* change stat */
    thread->stat = RT_THREAD_CLOSE;
    37cc:	4791                	li	a5,4
    37ce:	02f40a23          	sb	a5,52(s0)
C:\Users\29275\Desktop\WchWorkSPace\camCoreWithRTOS\obj/../Libraries/rtthread_libraries/src/thread.c:98

    /* remove it from timer list */
    rt_timer_detach(&thread->thread_timer);
    37d2:	04440513          	addi	a0,s0,68
    37d6:	2e75                	jal	3b92 <rt_timer_detach>
C:\Users\29275\Desktop\WchWorkSPace\camCoreWithRTOS\obj/../Libraries/rtthread_libraries/src/thread.c:100

    if ((rt_object_is_systemobject((rt_object_t)thread) == RT_TRUE) &&
    37d8:	8522                	mv	a0,s0
    37da:	e0bff0ef          	jal	ra,35e4 <rt_object_is_systemobject>
    37de:	4785                	li	a5,1
    37e0:	02f50763          	beq	a0,a5,380e <rt_thread_exit+0x5a>
C:\Users\29275\Desktop\WchWorkSPace\camCoreWithRTOS\obj/../Libraries/rtthread_libraries/src/thread.c:108
        rt_object_detach((rt_object_t)thread);
    }
    else
    {
        /* insert to defunct thread list */
        rt_list_insert_after(&rt_thread_defunct, &(thread->tlist));
    37e4:	01440713          	addi	a4,s0,20
rt_list_insert_after():
C:\Users\29275\Desktop\WchWorkSPace\camCoreWithRTOS\Libraries\rtthread_libraries\include/rtservice.h:60
    l->next->prev = n;
    37e8:	8781a683          	lw	a3,-1928(gp) # 20000128 <rt_thread_defunct>
    37ec:	c2d8                	sw	a4,4(a3)
C:\Users\29275\Desktop\WchWorkSPace\camCoreWithRTOS\Libraries\rtthread_libraries\include/rtservice.h:61
    n->next = l->next;
    37ee:	c854                	sw	a3,20(s0)
C:\Users\29275\Desktop\WchWorkSPace\camCoreWithRTOS\Libraries\rtthread_libraries\include/rtservice.h:63
    l->next = n;
    37f0:	86e1ac23          	sw	a4,-1928(gp) # 20000128 <rt_thread_defunct>
C:\Users\29275\Desktop\WchWorkSPace\camCoreWithRTOS\Libraries\rtthread_libraries\include/rtservice.h:64
    n->prev = l;
    37f4:	87818793          	addi	a5,gp,-1928 # 20000128 <rt_thread_defunct>
    37f8:	cc1c                	sw	a5,24(s0)
rt_thread_exit():
C:\Users\29275\Desktop\WchWorkSPace\camCoreWithRTOS\obj/../Libraries/rtthread_libraries/src/thread.c:112
    }

    /* enable interrupt */
    rt_hw_interrupt_enable(level);
    37fa:	8526                	mv	a0,s1
    37fc:	94bfc0ef          	jal	ra,146 <rt_hw_interrupt_enable>
C:\Users\29275\Desktop\WchWorkSPace\camCoreWithRTOS\obj/../Libraries/rtthread_libraries/src/thread.c:115

    /* switch to next task */
    rt_schedule();
    3800:	e49ff0ef          	jal	ra,3648 <rt_schedule>
C:\Users\29275\Desktop\WchWorkSPace\camCoreWithRTOS\obj/../Libraries/rtthread_libraries/src/thread.c:116
}
    3804:	40b2                	lw	ra,12(sp)
    3806:	4422                	lw	s0,8(sp)
    3808:	4492                	lw	s1,4(sp)
    380a:	0141                	addi	sp,sp,16
    380c:	8082                	ret
C:\Users\29275\Desktop\WchWorkSPace\camCoreWithRTOS\obj/../Libraries/rtthread_libraries/src/thread.c:100 (discriminator 1)
    if ((rt_object_is_systemobject((rt_object_t)thread) == RT_TRUE) &&
    380e:	583c                	lw	a5,112(s0)
    3810:	fbf1                	bnez	a5,37e4 <rt_thread_exit+0x30>
C:\Users\29275\Desktop\WchWorkSPace\camCoreWithRTOS\obj/../Libraries/rtthread_libraries/src/thread.c:103
        rt_object_detach((rt_object_t)thread);
    3812:	8522                	mv	a0,s0
    3814:	d0bff0ef          	jal	ra,351e <rt_object_detach>
    3818:	b7cd                	j	37fa <rt_thread_exit+0x46>

0000381a <rt_thread_timeout>:
rt_thread_timeout():
C:\Users\29275\Desktop\WchWorkSPace\camCoreWithRTOS\obj/../Libraries/rtthread_libraries/src/thread.c:732
 * when thread is timeout to wait some resource.
 *
 * @param parameter the parameter of thread timeout function
 */
void rt_thread_timeout(void *parameter)
{
    381a:	1141                	addi	sp,sp,-16
    381c:	c606                	sw	ra,12(sp)
C:\Users\29275\Desktop\WchWorkSPace\camCoreWithRTOS\obj/../Libraries/rtthread_libraries/src/thread.c:743
    RT_ASSERT(thread != RT_NULL);
    RT_ASSERT((thread->stat & RT_THREAD_STAT_MASK) == RT_THREAD_SUSPEND);
    RT_ASSERT(rt_object_get_type((rt_object_t)thread) == RT_Object_Class_Thread);

    /* set error number */
    thread->error = -RT_ETIMEOUT;
    381e:	5779                	li	a4,-2
    3820:	d918                	sw	a4,48(a0)
C:\Users\29275\Desktop\WchWorkSPace\camCoreWithRTOS\obj/../Libraries/rtthread_libraries/src/thread.c:746

    /* remove from suspend list */
    rt_list_remove(&(thread->tlist));
    3822:	01450713          	addi	a4,a0,20
rt_list_remove():
C:\Users\29275\Desktop\WchWorkSPace\camCoreWithRTOS\Libraries\rtthread_libraries\include/rtservice.h:88
    n->next->prev = n->prev;
    3826:	4950                	lw	a2,20(a0)
    3828:	4d14                	lw	a3,24(a0)
    382a:	c254                	sw	a3,4(a2)
C:\Users\29275\Desktop\WchWorkSPace\camCoreWithRTOS\Libraries\rtthread_libraries\include/rtservice.h:89
    n->prev->next = n->next;
    382c:	4950                	lw	a2,20(a0)
    382e:	c290                	sw	a2,0(a3)
C:\Users\29275\Desktop\WchWorkSPace\camCoreWithRTOS\Libraries\rtthread_libraries\include/rtservice.h:91
    n->next = n->prev = n;
    3830:	cd18                	sw	a4,24(a0)
    3832:	c958                	sw	a4,20(a0)
rt_thread_timeout():
C:\Users\29275\Desktop\WchWorkSPace\camCoreWithRTOS\obj/../Libraries/rtthread_libraries/src/thread.c:749

    /* insert to schedule ready list */
    rt_schedule_insert_thread(thread);
    3834:	e85ff0ef          	jal	ra,36b8 <rt_schedule_insert_thread>
C:\Users\29275\Desktop\WchWorkSPace\camCoreWithRTOS\obj/../Libraries/rtthread_libraries/src/thread.c:752

    /* do schedule */
    rt_schedule();
    3838:	e11ff0ef          	jal	ra,3648 <rt_schedule>
C:\Users\29275\Desktop\WchWorkSPace\camCoreWithRTOS\obj/../Libraries/rtthread_libraries/src/thread.c:753
}
    383c:	40b2                	lw	ra,12(sp)
    383e:	0141                	addi	sp,sp,16
    3840:	8082                	ret

00003842 <rt_thread_init>:
rt_thread_init():
C:\Users\29275\Desktop\WchWorkSPace\camCoreWithRTOS\obj/../Libraries/rtthread_libraries/src/thread.c:228
{
    3842:	1101                	addi	sp,sp,-32
    3844:	ce06                	sw	ra,28(sp)
    3846:	cc22                	sw	s0,24(sp)
    3848:	ca26                	sw	s1,20(sp)
    384a:	c84a                	sw	s2,16(sp)
    384c:	c64e                	sw	s3,12(sp)
    384e:	c452                	sw	s4,8(sp)
    3850:	c256                	sw	s5,4(sp)
    3852:	c05a                	sw	s6,0(sp)
    3854:	842a                	mv	s0,a0
    3856:	8b32                	mv	s6,a2
    3858:	8ab6                	mv	s5,a3
    385a:	89ba                	mv	s3,a4
    385c:	8a3e                	mv	s4,a5
    385e:	8942                	mv	s2,a6
    3860:	84c6                	mv	s1,a7
C:\Users\29275\Desktop\WchWorkSPace\camCoreWithRTOS\obj/../Libraries/rtthread_libraries/src/thread.c:234
    rt_object_init((rt_object_t)thread, RT_Object_Class_Thread, name);
    3862:	862e                	mv	a2,a1
    3864:	4585                	li	a1,1
    3866:	c49ff0ef          	jal	ra,34ae <rt_object_init>
_rt_thread_init():
C:\Users\29275\Desktop\WchWorkSPace\camCoreWithRTOS\obj/../Libraries/rtthread_libraries/src/thread.c:128
    rt_list_init(&(thread->tlist));
    386a:	01440793          	addi	a5,s0,20
rt_list_init():
C:\Users\29275\Desktop\WchWorkSPace\camCoreWithRTOS\Libraries\rtthread_libraries\include/rtservice.h:49
    l->next = l->prev = l;
    386e:	cc1c                	sw	a5,24(s0)
    3870:	c85c                	sw	a5,20(s0)
_rt_thread_init():
C:\Users\29275\Desktop\WchWorkSPace\camCoreWithRTOS\obj/../Libraries/rtthread_libraries/src/thread.c:130
    thread->entry = (void *)entry;
    3872:	03642023          	sw	s6,32(s0)
C:\Users\29275\Desktop\WchWorkSPace\camCoreWithRTOS\obj/../Libraries/rtthread_libraries/src/thread.c:131
    thread->parameter = parameter;
    3876:	03542223          	sw	s5,36(s0)
C:\Users\29275\Desktop\WchWorkSPace\camCoreWithRTOS\obj/../Libraries/rtthread_libraries/src/thread.c:134
    thread->stack_addr = stack_start;
    387a:	03342423          	sw	s3,40(s0)
C:\Users\29275\Desktop\WchWorkSPace\camCoreWithRTOS\obj/../Libraries/rtthread_libraries/src/thread.c:135
    thread->stack_size = stack_size;
    387e:	03442623          	sw	s4,44(s0)
C:\Users\29275\Desktop\WchWorkSPace\camCoreWithRTOS\obj/../Libraries/rtthread_libraries/src/thread.c:138
    rt_memset(thread->stack_addr, '#', thread->stack_size);
    3882:	8652                	mv	a2,s4
    3884:	02300593          	li	a1,35
    3888:	854e                	mv	a0,s3
    388a:	ae0ff0ef          	jal	ra,2b6a <rt_memset>
C:\Users\29275\Desktop\WchWorkSPace\camCoreWithRTOS\obj/../Libraries/rtthread_libraries/src/thread.c:145
                                          (void *)((char *)thread->stack_addr + thread->stack_size - 4),
    388e:	545c                	lw	a5,44(s0)
    3890:	17f1                	addi	a5,a5,-4
    3892:	5410                	lw	a2,40(s0)
C:\Users\29275\Desktop\WchWorkSPace\camCoreWithRTOS\obj/../Libraries/rtthread_libraries/src/thread.c:144
    thread->sp = (void *)rt_hw_stack_init(thread->entry, thread->parameter,
    3894:	000036b7          	lui	a3,0x3
    3898:	7b468693          	addi	a3,a3,1972 # 37b4 <rt_thread_exit>
    389c:	963e                	add	a2,a2,a5
    389e:	504c                	lw	a1,36(s0)
    38a0:	5008                	lw	a0,32(s0)
    38a2:	2315                	jal	3dc6 <rt_hw_stack_init>
    38a4:	cc48                	sw	a0,28(s0)
C:\Users\29275\Desktop\WchWorkSPace\camCoreWithRTOS\obj/../Libraries/rtthread_libraries/src/thread.c:151
    thread->init_priority    = priority;
    38a6:	03240b23          	sb	s2,54(s0)
C:\Users\29275\Desktop\WchWorkSPace\camCoreWithRTOS\obj/../Libraries/rtthread_libraries/src/thread.c:152
    thread->current_priority = priority;
    38aa:	03240aa3          	sb	s2,53(s0)
C:\Users\29275\Desktop\WchWorkSPace\camCoreWithRTOS\obj/../Libraries/rtthread_libraries/src/thread.c:154
    thread->number_mask = 0;
    38ae:	02042c23          	sw	zero,56(s0)
C:\Users\29275\Desktop\WchWorkSPace\camCoreWithRTOS\obj/../Libraries/rtthread_libraries/src/thread.c:161
    thread->init_tick      = tick;
    38b2:	dc44                	sw	s1,60(s0)
C:\Users\29275\Desktop\WchWorkSPace\camCoreWithRTOS\obj/../Libraries/rtthread_libraries/src/thread.c:162
    thread->remaining_tick = tick;
    38b4:	c024                	sw	s1,64(s0)
C:\Users\29275\Desktop\WchWorkSPace\camCoreWithRTOS\obj/../Libraries/rtthread_libraries/src/thread.c:165
    thread->error = RT_EOK;
    38b6:	02042823          	sw	zero,48(s0)
C:\Users\29275\Desktop\WchWorkSPace\camCoreWithRTOS\obj/../Libraries/rtthread_libraries/src/thread.c:166
    thread->stat  = RT_THREAD_INIT;
    38ba:	02040a23          	sb	zero,52(s0)
C:\Users\29275\Desktop\WchWorkSPace\camCoreWithRTOS\obj/../Libraries/rtthread_libraries/src/thread.c:169
    thread->cleanup   = 0;
    38be:	06042823          	sw	zero,112(s0)
C:\Users\29275\Desktop\WchWorkSPace\camCoreWithRTOS\obj/../Libraries/rtthread_libraries/src/thread.c:170
    thread->user_data = 0;
    38c2:	06042a23          	sw	zero,116(s0)
C:\Users\29275\Desktop\WchWorkSPace\camCoreWithRTOS\obj/../Libraries/rtthread_libraries/src/thread.c:173
    rt_timer_init(&(thread->thread_timer),
    38c6:	4781                	li	a5,0
    38c8:	4701                	li	a4,0
    38ca:	86a2                	mv	a3,s0
    38cc:	00004637          	lui	a2,0x4
    38d0:	81a60613          	addi	a2,a2,-2022 # 381a <rt_thread_timeout>
    38d4:	85a2                	mv	a1,s0
    38d6:	04440513          	addi	a0,s0,68
    38da:	24ad                	jal	3b44 <rt_timer_init>
rt_thread_init():
C:\Users\29275\Desktop\WchWorkSPace\camCoreWithRTOS\obj/../Libraries/rtthread_libraries/src/thread.c:244
}
    38dc:	4501                	li	a0,0
    38de:	40f2                	lw	ra,28(sp)
    38e0:	4462                	lw	s0,24(sp)
    38e2:	44d2                	lw	s1,20(sp)
    38e4:	4942                	lw	s2,16(sp)
    38e6:	49b2                	lw	s3,12(sp)
    38e8:	4a22                	lw	s4,8(sp)
    38ea:	4a92                	lw	s5,4(sp)
    38ec:	4b02                	lw	s6,0(sp)
    38ee:	6105                	addi	sp,sp,32
    38f0:	8082                	ret

000038f2 <rt_thread_self>:
rt_thread_self():
C:\Users\29275\Desktop\WchWorkSPace\camCoreWithRTOS\obj/../Libraries/rtthread_libraries/src/thread.c:255
}
    38f2:	8701a503          	lw	a0,-1936(gp) # 20000120 <rt_current_thread>
    38f6:	8082                	ret

000038f8 <rt_thread_create>:
rt_thread_create():
C:\Users\29275\Desktop\WchWorkSPace\camCoreWithRTOS\obj/../Libraries/rtthread_libraries/src/thread.c:368
{
    38f8:	1101                	addi	sp,sp,-32
    38fa:	ce06                	sw	ra,28(sp)
    38fc:	cc22                	sw	s0,24(sp)
    38fe:	ca26                	sw	s1,20(sp)
    3900:	c84a                	sw	s2,16(sp)
    3902:	c64e                	sw	s3,12(sp)
    3904:	c452                	sw	s4,8(sp)
    3906:	c256                	sw	s5,4(sp)
    3908:	8aae                	mv	s5,a1
    390a:	8a32                	mv	s4,a2
    390c:	84b6                	mv	s1,a3
    390e:	89ba                	mv	s3,a4
    3910:	893e                	mv	s2,a5
C:\Users\29275\Desktop\WchWorkSPace\camCoreWithRTOS\obj/../Libraries/rtthread_libraries/src/thread.c:372
    thread = (struct rt_thread *)rt_object_allocate(RT_Object_Class_Thread,
    3912:	85aa                	mv	a1,a0
    3914:	4505                	li	a0,1
    3916:	c37ff0ef          	jal	ra,354c <rt_object_allocate>
C:\Users\29275\Desktop\WchWorkSPace\camCoreWithRTOS\obj/../Libraries/rtthread_libraries/src/thread.c:374
    if (thread == RT_NULL)
    391a:	cd49                	beqz	a0,39b4 <rt_thread_create+0xbc>
    391c:	842a                	mv	s0,a0
C:\Users\29275\Desktop\WchWorkSPace\camCoreWithRTOS\obj/../Libraries/rtthread_libraries/src/thread.c:377
    stack_start = (void *)RT_KERNEL_MALLOC(stack_size);
    391e:	8526                	mv	a0,s1
    3920:	935ff0ef          	jal	ra,3254 <rt_malloc>
C:\Users\29275\Desktop\WchWorkSPace\camCoreWithRTOS\obj/../Libraries/rtthread_libraries/src/thread.c:378
    if (stack_start == RT_NULL)
    3924:	c159                	beqz	a0,39aa <rt_thread_create+0xb2>
_rt_thread_init():
C:\Users\29275\Desktop\WchWorkSPace\camCoreWithRTOS\obj/../Libraries/rtthread_libraries/src/thread.c:128
    rt_list_init(&(thread->tlist));
    3926:	01440793          	addi	a5,s0,20
rt_list_init():
C:\Users\29275\Desktop\WchWorkSPace\camCoreWithRTOS\Libraries\rtthread_libraries\include/rtservice.h:49
    392a:	cc1c                	sw	a5,24(s0)
    392c:	c85c                	sw	a5,20(s0)
_rt_thread_init():
C:\Users\29275\Desktop\WchWorkSPace\camCoreWithRTOS\obj/../Libraries/rtthread_libraries/src/thread.c:130
    thread->entry = (void *)entry;
    392e:	03542023          	sw	s5,32(s0)
C:\Users\29275\Desktop\WchWorkSPace\camCoreWithRTOS\obj/../Libraries/rtthread_libraries/src/thread.c:131
    thread->parameter = parameter;
    3932:	03442223          	sw	s4,36(s0)
C:\Users\29275\Desktop\WchWorkSPace\camCoreWithRTOS\obj/../Libraries/rtthread_libraries/src/thread.c:134
    thread->stack_addr = stack_start;
    3936:	d408                	sw	a0,40(s0)
C:\Users\29275\Desktop\WchWorkSPace\camCoreWithRTOS\obj/../Libraries/rtthread_libraries/src/thread.c:135
    thread->stack_size = stack_size;
    3938:	d444                	sw	s1,44(s0)
C:\Users\29275\Desktop\WchWorkSPace\camCoreWithRTOS\obj/../Libraries/rtthread_libraries/src/thread.c:138
    rt_memset(thread->stack_addr, '#', thread->stack_size);
    393a:	8626                	mv	a2,s1
    393c:	02300593          	li	a1,35
    3940:	a2aff0ef          	jal	ra,2b6a <rt_memset>
C:\Users\29275\Desktop\WchWorkSPace\camCoreWithRTOS\obj/../Libraries/rtthread_libraries/src/thread.c:145
                                          (void *)((char *)thread->stack_addr + thread->stack_size - 4),
    3944:	545c                	lw	a5,44(s0)
    3946:	17f1                	addi	a5,a5,-4
    3948:	5410                	lw	a2,40(s0)
C:\Users\29275\Desktop\WchWorkSPace\camCoreWithRTOS\obj/../Libraries/rtthread_libraries/src/thread.c:144
    thread->sp = (void *)rt_hw_stack_init(thread->entry, thread->parameter,
    394a:	000036b7          	lui	a3,0x3
    394e:	7b468693          	addi	a3,a3,1972 # 37b4 <rt_thread_exit>
    3952:	963e                	add	a2,a2,a5
    3954:	504c                	lw	a1,36(s0)
    3956:	5008                	lw	a0,32(s0)
    3958:	21bd                	jal	3dc6 <rt_hw_stack_init>
    395a:	cc48                	sw	a0,28(s0)
C:\Users\29275\Desktop\WchWorkSPace\camCoreWithRTOS\obj/../Libraries/rtthread_libraries/src/thread.c:151
    thread->init_priority    = priority;
    395c:	03340b23          	sb	s3,54(s0)
C:\Users\29275\Desktop\WchWorkSPace\camCoreWithRTOS\obj/../Libraries/rtthread_libraries/src/thread.c:152
    thread->current_priority = priority;
    3960:	03340aa3          	sb	s3,53(s0)
C:\Users\29275\Desktop\WchWorkSPace\camCoreWithRTOS\obj/../Libraries/rtthread_libraries/src/thread.c:154
    thread->number_mask = 0;
    3964:	02042c23          	sw	zero,56(s0)
C:\Users\29275\Desktop\WchWorkSPace\camCoreWithRTOS\obj/../Libraries/rtthread_libraries/src/thread.c:161
    thread->init_tick      = tick;
    3968:	03242e23          	sw	s2,60(s0)
C:\Users\29275\Desktop\WchWorkSPace\camCoreWithRTOS\obj/../Libraries/rtthread_libraries/src/thread.c:162
    thread->remaining_tick = tick;
    396c:	05242023          	sw	s2,64(s0)
C:\Users\29275\Desktop\WchWorkSPace\camCoreWithRTOS\obj/../Libraries/rtthread_libraries/src/thread.c:165
    thread->error = RT_EOK;
    3970:	02042823          	sw	zero,48(s0)
C:\Users\29275\Desktop\WchWorkSPace\camCoreWithRTOS\obj/../Libraries/rtthread_libraries/src/thread.c:166
    thread->stat  = RT_THREAD_INIT;
    3974:	02040a23          	sb	zero,52(s0)
C:\Users\29275\Desktop\WchWorkSPace\camCoreWithRTOS\obj/../Libraries/rtthread_libraries/src/thread.c:169
    thread->cleanup   = 0;
    3978:	06042823          	sw	zero,112(s0)
C:\Users\29275\Desktop\WchWorkSPace\camCoreWithRTOS\obj/../Libraries/rtthread_libraries/src/thread.c:170
    thread->user_data = 0;
    397c:	06042a23          	sw	zero,116(s0)
C:\Users\29275\Desktop\WchWorkSPace\camCoreWithRTOS\obj/../Libraries/rtthread_libraries/src/thread.c:173
    rt_timer_init(&(thread->thread_timer),
    3980:	4781                	li	a5,0
    3982:	4701                	li	a4,0
    3984:	86a2                	mv	a3,s0
    3986:	00004637          	lui	a2,0x4
    398a:	81a60613          	addi	a2,a2,-2022 # 381a <rt_thread_timeout>
    398e:	85a2                	mv	a1,s0
    3990:	04440513          	addi	a0,s0,68
    3994:	2a45                	jal	3b44 <rt_timer_init>
rt_thread_create():
C:\Users\29275\Desktop\WchWorkSPace\camCoreWithRTOS\obj/../Libraries/rtthread_libraries/src/thread.c:396
}
    3996:	8522                	mv	a0,s0
    3998:	40f2                	lw	ra,28(sp)
    399a:	4462                	lw	s0,24(sp)
    399c:	44d2                	lw	s1,20(sp)
    399e:	4942                	lw	s2,16(sp)
    39a0:	49b2                	lw	s3,12(sp)
    39a2:	4a22                	lw	s4,8(sp)
    39a4:	4a92                	lw	s5,4(sp)
    39a6:	6105                	addi	sp,sp,32
    39a8:	8082                	ret
C:\Users\29275\Desktop\WchWorkSPace\camCoreWithRTOS\obj/../Libraries/rtthread_libraries/src/thread.c:381
        rt_object_delete((rt_object_t)thread);
    39aa:	8522                	mv	a0,s0
    39ac:	c05ff0ef          	jal	ra,35b0 <rt_object_delete>
C:\Users\29275\Desktop\WchWorkSPace\camCoreWithRTOS\obj/../Libraries/rtthread_libraries/src/thread.c:383
        return RT_NULL;
    39b0:	4401                	li	s0,0
    39b2:	b7d5                	j	3996 <rt_thread_create+0x9e>
C:\Users\29275\Desktop\WchWorkSPace\camCoreWithRTOS\obj/../Libraries/rtthread_libraries/src/thread.c:375
        return RT_NULL;
    39b4:	4401                	li	s0,0
    39b6:	b7c5                	j	3996 <rt_thread_create+0x9e>

000039b8 <rt_thread_yield>:
rt_thread_yield():
C:\Users\29275\Desktop\WchWorkSPace\camCoreWithRTOS\obj/../Libraries/rtthread_libraries/src/thread.c:450
{
    39b8:	1141                	addi	sp,sp,-16
    39ba:	c606                	sw	ra,12(sp)
C:\Users\29275\Desktop\WchWorkSPace\camCoreWithRTOS\obj/../Libraries/rtthread_libraries/src/thread.c:455
    level = rt_hw_interrupt_disable();
    39bc:	f84fc0ef          	jal	ra,140 <rt_hw_interrupt_disable>
C:\Users\29275\Desktop\WchWorkSPace\camCoreWithRTOS\obj/../Libraries/rtthread_libraries/src/thread.c:458
    thread = rt_current_thread;
    39c0:	8701a783          	lw	a5,-1936(gp) # 20000120 <rt_current_thread>
C:\Users\29275\Desktop\WchWorkSPace\camCoreWithRTOS\obj/../Libraries/rtthread_libraries/src/thread.c:461
    if ((thread->stat & RT_THREAD_STAT_MASK) == RT_THREAD_READY &&
    39c4:	0347c703          	lbu	a4,52(a5)
    39c8:	8b3d                	andi	a4,a4,15
    39ca:	4685                	li	a3,1
    39cc:	00d71663          	bne	a4,a3,39d8 <rt_thread_yield+0x20>
C:\Users\29275\Desktop\WchWorkSPace\camCoreWithRTOS\obj/../Libraries/rtthread_libraries/src/thread.c:462 (discriminator 1)
        thread->tlist.next != thread->tlist.prev)
    39d0:	4bd4                	lw	a3,20(a5)
    39d2:	4f98                	lw	a4,24(a5)
C:\Users\29275\Desktop\WchWorkSPace\camCoreWithRTOS\obj/../Libraries/rtthread_libraries/src/thread.c:461 (discriminator 1)
    if ((thread->stat & RT_THREAD_STAT_MASK) == RT_THREAD_READY &&
    39d4:	00e69863          	bne	a3,a4,39e4 <rt_thread_yield+0x2c>
C:\Users\29275\Desktop\WchWorkSPace\camCoreWithRTOS\obj/../Libraries/rtthread_libraries/src/thread.c:480
    rt_hw_interrupt_enable(level);
    39d8:	f6efc0ef          	jal	ra,146 <rt_hw_interrupt_enable>
C:\Users\29275\Desktop\WchWorkSPace\camCoreWithRTOS\obj/../Libraries/rtthread_libraries/src/thread.c:483
}
    39dc:	4501                	li	a0,0
    39de:	40b2                	lw	ra,12(sp)
    39e0:	0141                	addi	sp,sp,16
    39e2:	8082                	ret
C:\Users\29275\Desktop\WchWorkSPace\camCoreWithRTOS\obj/../Libraries/rtthread_libraries/src/thread.c:465
        rt_list_remove(&(thread->tlist));
    39e4:	01478613          	addi	a2,a5,20
rt_list_remove():
C:\Users\29275\Desktop\WchWorkSPace\camCoreWithRTOS\Libraries\rtthread_libraries\include/rtservice.h:88
    n->next->prev = n->prev;
    39e8:	c2d8                	sw	a4,4(a3)
C:\Users\29275\Desktop\WchWorkSPace\camCoreWithRTOS\Libraries\rtthread_libraries\include/rtservice.h:89
    n->prev->next = n->next;
    39ea:	4bd4                	lw	a3,20(a5)
    39ec:	c314                	sw	a3,0(a4)
C:\Users\29275\Desktop\WchWorkSPace\camCoreWithRTOS\Libraries\rtthread_libraries\include/rtservice.h:91
    n->next = n->prev = n;
    39ee:	cf90                	sw	a2,24(a5)
    39f0:	cbd0                	sw	a2,20(a5)
rt_thread_yield():
C:\Users\29275\Desktop\WchWorkSPace\camCoreWithRTOS\obj/../Libraries/rtthread_libraries/src/thread.c:468
        rt_list_insert_before(&(rt_thread_priority_table[thread->current_priority]),
    39f2:	0357c683          	lbu	a3,53(a5)
rt_list_insert_before():
C:\Users\29275\Desktop\WchWorkSPace\camCoreWithRTOS\Libraries\rtthread_libraries\include/rtservice.h:75
    l->prev->next = n;
    39f6:	068e                	slli	a3,a3,0x3
    39f8:	dec18713          	addi	a4,gp,-532 # 2000069c <rt_thread_priority_table>
    39fc:	9736                	add	a4,a4,a3
    39fe:	4354                	lw	a3,4(a4)
    3a00:	c290                	sw	a2,0(a3)
C:\Users\29275\Desktop\WchWorkSPace\camCoreWithRTOS\Libraries\rtthread_libraries\include/rtservice.h:76
    n->prev = l->prev;
    3a02:	4354                	lw	a3,4(a4)
    3a04:	cf94                	sw	a3,24(a5)
C:\Users\29275\Desktop\WchWorkSPace\camCoreWithRTOS\Libraries\rtthread_libraries\include/rtservice.h:78
    l->prev = n;
    3a06:	c350                	sw	a2,4(a4)
C:\Users\29275\Desktop\WchWorkSPace\camCoreWithRTOS\Libraries\rtthread_libraries\include/rtservice.h:79
    n->next = l;
    3a08:	cbd8                	sw	a4,20(a5)
rt_thread_yield():
C:\Users\29275\Desktop\WchWorkSPace\camCoreWithRTOS\obj/../Libraries/rtthread_libraries/src/thread.c:472
        rt_hw_interrupt_enable(level);
    3a0a:	f3cfc0ef          	jal	ra,146 <rt_hw_interrupt_enable>
C:\Users\29275\Desktop\WchWorkSPace\camCoreWithRTOS\obj/../Libraries/rtthread_libraries/src/thread.c:474
        rt_schedule();
    3a0e:	c3bff0ef          	jal	ra,3648 <rt_schedule>
C:\Users\29275\Desktop\WchWorkSPace\camCoreWithRTOS\obj/../Libraries/rtthread_libraries/src/thread.c:476
        return RT_EOK;
    3a12:	b7e9                	j	39dc <rt_thread_yield+0x24>

00003a14 <rt_thread_suspend>:
rt_thread_suspend():
C:\Users\29275\Desktop\WchWorkSPace\camCoreWithRTOS\obj/../Libraries/rtthread_libraries/src/thread.c:655
    if ((thread->stat & RT_THREAD_STAT_MASK) != RT_THREAD_READY)
    3a14:	03454783          	lbu	a5,52(a0)
    3a18:	8bbd                	andi	a5,a5,15
    3a1a:	4705                	li	a4,1
    3a1c:	04e79063          	bne	a5,a4,3a5c <rt_thread_suspend+0x48>
C:\Users\29275\Desktop\WchWorkSPace\camCoreWithRTOS\obj/../Libraries/rtthread_libraries/src/thread.c:646
{
    3a20:	1141                	addi	sp,sp,-16
    3a22:	c606                	sw	ra,12(sp)
    3a24:	c422                	sw	s0,8(sp)
    3a26:	c226                	sw	s1,4(sp)
    3a28:	842a                	mv	s0,a0
C:\Users\29275\Desktop\WchWorkSPace\camCoreWithRTOS\obj/../Libraries/rtthread_libraries/src/thread.c:664
    temp = rt_hw_interrupt_disable();
    3a2a:	f16fc0ef          	jal	ra,140 <rt_hw_interrupt_disable>
    3a2e:	84aa                	mv	s1,a0
C:\Users\29275\Desktop\WchWorkSPace\camCoreWithRTOS\obj/../Libraries/rtthread_libraries/src/thread.c:667
    thread->stat = RT_THREAD_SUSPEND | (thread->stat & ~RT_THREAD_STAT_MASK);
    3a30:	03444783          	lbu	a5,52(s0)
    3a34:	9bc1                	andi	a5,a5,-16
    3a36:	0027e793          	ori	a5,a5,2
    3a3a:	02f40a23          	sb	a5,52(s0)
C:\Users\29275\Desktop\WchWorkSPace\camCoreWithRTOS\obj/../Libraries/rtthread_libraries/src/thread.c:668
    rt_schedule_remove_thread(thread);
    3a3e:	8522                	mv	a0,s0
    3a40:	cc9ff0ef          	jal	ra,3708 <rt_schedule_remove_thread>
C:\Users\29275\Desktop\WchWorkSPace\camCoreWithRTOS\obj/../Libraries/rtthread_libraries/src/thread.c:671
    rt_timer_stop(&(thread->thread_timer));
    3a44:	04440513          	addi	a0,s0,68
    3a48:	2485                	jal	3ca8 <rt_timer_stop>
C:\Users\29275\Desktop\WchWorkSPace\camCoreWithRTOS\obj/../Libraries/rtthread_libraries/src/thread.c:674
    rt_hw_interrupt_enable(temp);
    3a4a:	8526                	mv	a0,s1
    3a4c:	efafc0ef          	jal	ra,146 <rt_hw_interrupt_enable>
C:\Users\29275\Desktop\WchWorkSPace\camCoreWithRTOS\obj/../Libraries/rtthread_libraries/src/thread.c:677
    return RT_EOK;
    3a50:	4501                	li	a0,0
C:\Users\29275\Desktop\WchWorkSPace\camCoreWithRTOS\obj/../Libraries/rtthread_libraries/src/thread.c:678
}
    3a52:	40b2                	lw	ra,12(sp)
    3a54:	4422                	lw	s0,8(sp)
    3a56:	4492                	lw	s1,4(sp)
    3a58:	0141                	addi	sp,sp,16
    3a5a:	8082                	ret
C:\Users\29275\Desktop\WchWorkSPace\camCoreWithRTOS\obj/../Libraries/rtthread_libraries/src/thread.c:660
        return -RT_ERROR;
    3a5c:	557d                	li	a0,-1
C:\Users\29275\Desktop\WchWorkSPace\camCoreWithRTOS\obj/../Libraries/rtthread_libraries/src/thread.c:678
}
    3a5e:	8082                	ret

00003a60 <rt_thread_sleep>:
rt_thread_sleep():
C:\Users\29275\Desktop\WchWorkSPace\camCoreWithRTOS\obj/../Libraries/rtthread_libraries/src/thread.c:494
{
    3a60:	1101                	addi	sp,sp,-32
    3a62:	ce06                	sw	ra,28(sp)
    3a64:	cc22                	sw	s0,24(sp)
    3a66:	ca26                	sw	s1,20(sp)
    3a68:	c84a                	sw	s2,16(sp)
    3a6a:	c62a                	sw	a0,12(sp)
C:\Users\29275\Desktop\WchWorkSPace\camCoreWithRTOS\obj/../Libraries/rtthread_libraries/src/thread.c:499
    temp = rt_hw_interrupt_disable();
    3a6c:	ed4fc0ef          	jal	ra,140 <rt_hw_interrupt_disable>
    3a70:	892a                	mv	s2,a0
C:\Users\29275\Desktop\WchWorkSPace\camCoreWithRTOS\obj/../Libraries/rtthread_libraries/src/thread.c:501
    thread = rt_current_thread;
    3a72:	8701a403          	lw	s0,-1936(gp) # 20000120 <rt_current_thread>
C:\Users\29275\Desktop\WchWorkSPace\camCoreWithRTOS\obj/../Libraries/rtthread_libraries/src/thread.c:506
    rt_thread_suspend(thread);
    3a76:	8522                	mv	a0,s0
    3a78:	f9dff0ef          	jal	ra,3a14 <rt_thread_suspend>
C:\Users\29275\Desktop\WchWorkSPace\camCoreWithRTOS\obj/../Libraries/rtthread_libraries/src/thread.c:509
    rt_timer_control(&(thread->thread_timer), RT_TIMER_CTRL_SET_TIME, &tick);
    3a7c:	04440493          	addi	s1,s0,68
    3a80:	0070                	addi	a2,sp,12
    3a82:	4581                	li	a1,0
    3a84:	8526                	mv	a0,s1
    3a86:	2495                	jal	3cea <rt_timer_control>
C:\Users\29275\Desktop\WchWorkSPace\camCoreWithRTOS\obj/../Libraries/rtthread_libraries/src/thread.c:510
    rt_timer_start(&(thread->thread_timer));
    3a88:	8526                	mv	a0,s1
    3a8a:	2249                	jal	3c0c <rt_timer_start>
C:\Users\29275\Desktop\WchWorkSPace\camCoreWithRTOS\obj/../Libraries/rtthread_libraries/src/thread.c:513
    rt_hw_interrupt_enable(temp);
    3a8c:	854a                	mv	a0,s2
    3a8e:	eb8fc0ef          	jal	ra,146 <rt_hw_interrupt_enable>
C:\Users\29275\Desktop\WchWorkSPace\camCoreWithRTOS\obj/../Libraries/rtthread_libraries/src/thread.c:515
    rt_schedule();
    3a92:	bb7ff0ef          	jal	ra,3648 <rt_schedule>
C:\Users\29275\Desktop\WchWorkSPace\camCoreWithRTOS\obj/../Libraries/rtthread_libraries/src/thread.c:518
    if (thread->error == -RT_ETIMEOUT)
    3a96:	5818                	lw	a4,48(s0)
    3a98:	57f9                	li	a5,-2
    3a9a:	00f70963          	beq	a4,a5,3aac <rt_thread_sleep+0x4c>
C:\Users\29275\Desktop\WchWorkSPace\camCoreWithRTOS\obj/../Libraries/rtthread_libraries/src/thread.c:522
}
    3a9e:	4501                	li	a0,0
    3aa0:	40f2                	lw	ra,28(sp)
    3aa2:	4462                	lw	s0,24(sp)
    3aa4:	44d2                	lw	s1,20(sp)
    3aa6:	4942                	lw	s2,16(sp)
    3aa8:	6105                	addi	sp,sp,32
    3aaa:	8082                	ret
C:\Users\29275\Desktop\WchWorkSPace\camCoreWithRTOS\obj/../Libraries/rtthread_libraries/src/thread.c:519
        thread->error = RT_EOK;
    3aac:	02042823          	sw	zero,48(s0)
    3ab0:	b7fd                	j	3a9e <rt_thread_sleep+0x3e>

00003ab2 <rt_thread_mdelay>:
rt_thread_mdelay():
C:\Users\29275\Desktop\WchWorkSPace\camCoreWithRTOS\obj/../Libraries/rtthread_libraries/src/thread.c:545
{
    3ab2:	1141                	addi	sp,sp,-16
    3ab4:	c606                	sw	ra,12(sp)
C:\Users\29275\Desktop\WchWorkSPace\camCoreWithRTOS\obj/../Libraries/rtthread_libraries/src/thread.c:548
    tick = rt_tick_from_millisecond(ms);
    3ab6:	f6cfe0ef          	jal	ra,2222 <rt_tick_from_millisecond>
C:\Users\29275\Desktop\WchWorkSPace\camCoreWithRTOS\obj/../Libraries/rtthread_libraries/src/thread.c:550
    return rt_thread_sleep(tick);
    3aba:	fa7ff0ef          	jal	ra,3a60 <rt_thread_sleep>
C:\Users\29275\Desktop\WchWorkSPace\camCoreWithRTOS\obj/../Libraries/rtthread_libraries/src/thread.c:551
}
    3abe:	40b2                	lw	ra,12(sp)
    3ac0:	0141                	addi	sp,sp,16
    3ac2:	8082                	ret

00003ac4 <rt_thread_resume>:
rt_thread_resume():
C:\Users\29275\Desktop\WchWorkSPace\camCoreWithRTOS\obj/../Libraries/rtthread_libraries/src/thread.c:698
    if ((thread->stat & RT_THREAD_STAT_MASK) != RT_THREAD_SUSPEND)
    3ac4:	03454783          	lbu	a5,52(a0)
    3ac8:	8bbd                	andi	a5,a5,15
    3aca:	4709                	li	a4,2
    3acc:	04e79263          	bne	a5,a4,3b10 <rt_thread_resume+0x4c>
C:\Users\29275\Desktop\WchWorkSPace\camCoreWithRTOS\obj/../Libraries/rtthread_libraries/src/thread.c:689
{
    3ad0:	1141                	addi	sp,sp,-16
    3ad2:	c606                	sw	ra,12(sp)
    3ad4:	c422                	sw	s0,8(sp)
    3ad6:	c226                	sw	s1,4(sp)
    3ad8:	842a                	mv	s0,a0
C:\Users\29275\Desktop\WchWorkSPace\camCoreWithRTOS\obj/../Libraries/rtthread_libraries/src/thread.c:707
    temp = rt_hw_interrupt_disable();
    3ada:	e66fc0ef          	jal	ra,140 <rt_hw_interrupt_disable>
    3ade:	84aa                	mv	s1,a0
C:\Users\29275\Desktop\WchWorkSPace\camCoreWithRTOS\obj/../Libraries/rtthread_libraries/src/thread.c:710
    rt_list_remove(&(thread->tlist));
    3ae0:	01440793          	addi	a5,s0,20
rt_list_remove():
C:\Users\29275\Desktop\WchWorkSPace\camCoreWithRTOS\Libraries\rtthread_libraries\include/rtservice.h:88
    n->next->prev = n->prev;
    3ae4:	4854                	lw	a3,20(s0)
    3ae6:	4c18                	lw	a4,24(s0)
    3ae8:	c2d8                	sw	a4,4(a3)
C:\Users\29275\Desktop\WchWorkSPace\camCoreWithRTOS\Libraries\rtthread_libraries\include/rtservice.h:89
    n->prev->next = n->next;
    3aea:	4854                	lw	a3,20(s0)
    3aec:	c314                	sw	a3,0(a4)
C:\Users\29275\Desktop\WchWorkSPace\camCoreWithRTOS\Libraries\rtthread_libraries\include/rtservice.h:91
    n->next = n->prev = n;
    3aee:	cc1c                	sw	a5,24(s0)
    3af0:	c85c                	sw	a5,20(s0)
rt_thread_resume():
C:\Users\29275\Desktop\WchWorkSPace\camCoreWithRTOS\obj/../Libraries/rtthread_libraries/src/thread.c:712
    rt_timer_stop(&thread->thread_timer);
    3af2:	04440513          	addi	a0,s0,68
    3af6:	2a4d                	jal	3ca8 <rt_timer_stop>
C:\Users\29275\Desktop\WchWorkSPace\camCoreWithRTOS\obj/../Libraries/rtthread_libraries/src/thread.c:715
    rt_hw_interrupt_enable(temp);
    3af8:	8526                	mv	a0,s1
    3afa:	e4cfc0ef          	jal	ra,146 <rt_hw_interrupt_enable>
C:\Users\29275\Desktop\WchWorkSPace\camCoreWithRTOS\obj/../Libraries/rtthread_libraries/src/thread.c:718
    rt_schedule_insert_thread(thread);
    3afe:	8522                	mv	a0,s0
    3b00:	bb9ff0ef          	jal	ra,36b8 <rt_schedule_insert_thread>
C:\Users\29275\Desktop\WchWorkSPace\camCoreWithRTOS\obj/../Libraries/rtthread_libraries/src/thread.c:721
    return RT_EOK;
    3b04:	4501                	li	a0,0
C:\Users\29275\Desktop\WchWorkSPace\camCoreWithRTOS\obj/../Libraries/rtthread_libraries/src/thread.c:722
}
    3b06:	40b2                	lw	ra,12(sp)
    3b08:	4422                	lw	s0,8(sp)
    3b0a:	4492                	lw	s1,4(sp)
    3b0c:	0141                	addi	sp,sp,16
    3b0e:	8082                	ret
C:\Users\29275\Desktop\WchWorkSPace\camCoreWithRTOS\obj/../Libraries/rtthread_libraries/src/thread.c:703
        return -RT_ERROR;
    3b10:	557d                	li	a0,-1
C:\Users\29275\Desktop\WchWorkSPace\camCoreWithRTOS\obj/../Libraries/rtthread_libraries/src/thread.c:722
}
    3b12:	8082                	ret

00003b14 <rt_thread_startup>:
rt_thread_startup():
C:\Users\29275\Desktop\WchWorkSPace\camCoreWithRTOS\obj/../Libraries/rtthread_libraries/src/thread.c:266
{
    3b14:	1141                	addi	sp,sp,-16
    3b16:	c606                	sw	ra,12(sp)
C:\Users\29275\Desktop\WchWorkSPace\camCoreWithRTOS\obj/../Libraries/rtthread_libraries/src/thread.c:273
    thread->current_priority = thread->init_priority;
    3b18:	03654683          	lbu	a3,54(a0)
    3b1c:	02d50aa3          	sb	a3,53(a0)
C:\Users\29275\Desktop\WchWorkSPace\camCoreWithRTOS\obj/../Libraries/rtthread_libraries/src/thread.c:281
    thread->number_mask = 1L << thread->current_priority;
    3b20:	4705                	li	a4,1
    3b22:	00d71733          	sll	a4,a4,a3
    3b26:	dd18                	sw	a4,56(a0)
C:\Users\29275\Desktop\WchWorkSPace\camCoreWithRTOS\obj/../Libraries/rtthread_libraries/src/thread.c:287
    thread->stat = RT_THREAD_SUSPEND;
    3b28:	4709                	li	a4,2
    3b2a:	02e50a23          	sb	a4,52(a0)
C:\Users\29275\Desktop\WchWorkSPace\camCoreWithRTOS\obj/../Libraries/rtthread_libraries/src/thread.c:289
    rt_thread_resume(thread);
    3b2e:	f97ff0ef          	jal	ra,3ac4 <rt_thread_resume>
C:\Users\29275\Desktop\WchWorkSPace\camCoreWithRTOS\obj/../Libraries/rtthread_libraries/src/thread.c:290
    if (rt_thread_self() != RT_NULL)
    3b32:	8701a783          	lw	a5,-1936(gp) # 20000120 <rt_current_thread>
    3b36:	c399                	beqz	a5,3b3c <rt_thread_startup+0x28>
C:\Users\29275\Desktop\WchWorkSPace\camCoreWithRTOS\obj/../Libraries/rtthread_libraries/src/thread.c:293
        rt_schedule();
    3b38:	b11ff0ef          	jal	ra,3648 <rt_schedule>
C:\Users\29275\Desktop\WchWorkSPace\camCoreWithRTOS\obj/../Libraries/rtthread_libraries/src/thread.c:297
}
    3b3c:	4501                	li	a0,0
    3b3e:	40b2                	lw	ra,12(sp)
    3b40:	0141                	addi	sp,sp,16
    3b42:	8082                	ret

00003b44 <rt_timer_init>:
rt_timer_init():
C:\Users\29275\Desktop\WchWorkSPace\camCoreWithRTOS\obj/../Libraries/rtthread_libraries/src/timer.c:184
                   const char *name,
                   void (*timeout)(void *parameter),
                   void       *parameter,
                   rt_tick_t   time,
                   rt_uint8_t  flag)
{
    3b44:	1101                	addi	sp,sp,-32
    3b46:	ce06                	sw	ra,28(sp)
    3b48:	cc22                	sw	s0,24(sp)
    3b4a:	ca26                	sw	s1,20(sp)
    3b4c:	c84a                	sw	s2,16(sp)
    3b4e:	c64e                	sw	s3,12(sp)
    3b50:	c452                	sw	s4,8(sp)
    3b52:	842a                	mv	s0,a0
    3b54:	8a32                	mv	s4,a2
    3b56:	89b6                	mv	s3,a3
    3b58:	893a                	mv	s2,a4
    3b5a:	84be                	mv	s1,a5
C:\Users\29275\Desktop\WchWorkSPace\camCoreWithRTOS\obj/../Libraries/rtthread_libraries/src/timer.c:189
    /* timer check */
    RT_ASSERT(timer != RT_NULL);

    /* timer object initialization */
    rt_object_init((rt_object_t)timer, RT_Object_Class_Timer, name);
    3b5c:	862e                	mv	a2,a1
    3b5e:	45a9                	li	a1,10
    3b60:	94fff0ef          	jal	ra,34ae <rt_object_init>
_rt_timer_init():
C:\Users\29275\Desktop\WchWorkSPace\camCoreWithRTOS\obj/../Libraries/rtthread_libraries/src/timer.c:92
    timer->parent.flag &= ~RT_TIMER_FLAG_ACTIVATED;
    3b64:	98f9                	andi	s1,s1,-2
    3b66:	009404a3          	sb	s1,9(s0)
C:\Users\29275\Desktop\WchWorkSPace\camCoreWithRTOS\obj/../Libraries/rtthread_libraries/src/timer.c:94
    timer->timeout_func = timeout;
    3b6a:	01442e23          	sw	s4,28(s0)
C:\Users\29275\Desktop\WchWorkSPace\camCoreWithRTOS\obj/../Libraries/rtthread_libraries/src/timer.c:95
    timer->parameter    = parameter;
    3b6e:	03342023          	sw	s3,32(s0)
C:\Users\29275\Desktop\WchWorkSPace\camCoreWithRTOS\obj/../Libraries/rtthread_libraries/src/timer.c:97
    timer->timeout_tick = 0;
    3b72:	02042423          	sw	zero,40(s0)
C:\Users\29275\Desktop\WchWorkSPace\camCoreWithRTOS\obj/../Libraries/rtthread_libraries/src/timer.c:98
    timer->init_tick    = time;
    3b76:	03242223          	sw	s2,36(s0)
C:\Users\29275\Desktop\WchWorkSPace\camCoreWithRTOS\obj/../Libraries/rtthread_libraries/src/timer.c:103
        rt_list_init(&(timer->row[i]));
    3b7a:	01440793          	addi	a5,s0,20
rt_list_init():
C:\Users\29275\Desktop\WchWorkSPace\camCoreWithRTOS\Libraries\rtthread_libraries\include/rtservice.h:49
    l->next = l->prev = l;
    3b7e:	cc1c                	sw	a5,24(s0)
    3b80:	c85c                	sw	a5,20(s0)
rt_timer_init():
C:\Users\29275\Desktop\WchWorkSPace\camCoreWithRTOS\obj/../Libraries/rtthread_libraries/src/timer.c:192

    _rt_timer_init(timer, timeout, parameter, time, flag);
}
    3b82:	40f2                	lw	ra,28(sp)
    3b84:	4462                	lw	s0,24(sp)
    3b86:	44d2                	lw	s1,20(sp)
    3b88:	4942                	lw	s2,16(sp)
    3b8a:	49b2                	lw	s3,12(sp)
    3b8c:	4a22                	lw	s4,8(sp)
    3b8e:	6105                	addi	sp,sp,32
    3b90:	8082                	ret

00003b92 <rt_timer_detach>:
rt_timer_detach():
C:\Users\29275\Desktop\WchWorkSPace\camCoreWithRTOS\obj/../Libraries/rtthread_libraries/src/timer.c:203
 * @param timer the static timer object
 *
 * @return the operation status, RT_EOK on OK; RT_ERROR on error
 */
rt_err_t rt_timer_detach(rt_timer_t timer)
{
    3b92:	1141                	addi	sp,sp,-16
    3b94:	c606                	sw	ra,12(sp)
    3b96:	c422                	sw	s0,8(sp)
    3b98:	842a                	mv	s0,a0
C:\Users\29275\Desktop\WchWorkSPace\camCoreWithRTOS\obj/../Libraries/rtthread_libraries/src/timer.c:212
    RT_ASSERT(timer != RT_NULL);
    RT_ASSERT(rt_object_get_type(&timer->parent) == RT_Object_Class_Timer);
    RT_ASSERT(rt_object_is_systemobject(&timer->parent));

    /* disable interrupt */
    level = rt_hw_interrupt_disable();
    3b9a:	da6fc0ef          	jal	ra,140 <rt_hw_interrupt_disable>
_rt_timer_remove():
C:\Users\29275\Desktop\WchWorkSPace\camCoreWithRTOS\obj/../Libraries/rtthread_libraries/src/timer.c:127
        rt_list_remove(&timer->row[i]);
    3b9e:	01440793          	addi	a5,s0,20
rt_list_remove():
C:\Users\29275\Desktop\WchWorkSPace\camCoreWithRTOS\Libraries\rtthread_libraries\include/rtservice.h:88
    n->next->prev = n->prev;
    3ba2:	4854                	lw	a3,20(s0)
    3ba4:	4c18                	lw	a4,24(s0)
    3ba6:	c2d8                	sw	a4,4(a3)
C:\Users\29275\Desktop\WchWorkSPace\camCoreWithRTOS\Libraries\rtthread_libraries\include/rtservice.h:89
    n->prev->next = n->next;
    3ba8:	4854                	lw	a3,20(s0)
    3baa:	c314                	sw	a3,0(a4)
C:\Users\29275\Desktop\WchWorkSPace\camCoreWithRTOS\Libraries\rtthread_libraries\include/rtservice.h:91
    n->next = n->prev = n;
    3bac:	cc1c                	sw	a5,24(s0)
    3bae:	c85c                	sw	a5,20(s0)
rt_timer_detach():
C:\Users\29275\Desktop\WchWorkSPace\camCoreWithRTOS\obj/../Libraries/rtthread_libraries/src/timer.c:217

    _rt_timer_remove(timer);

    /* enable interrupt */
    rt_hw_interrupt_enable(level);
    3bb0:	d96fc0ef          	jal	ra,146 <rt_hw_interrupt_enable>
C:\Users\29275\Desktop\WchWorkSPace\camCoreWithRTOS\obj/../Libraries/rtthread_libraries/src/timer.c:219

    rt_object_detach((rt_object_t)timer);
    3bb4:	8522                	mv	a0,s0
    3bb6:	969ff0ef          	jal	ra,351e <rt_object_detach>
C:\Users\29275\Desktop\WchWorkSPace\camCoreWithRTOS\obj/../Libraries/rtthread_libraries/src/timer.c:222

    return RT_EOK;
}
    3bba:	4501                	li	a0,0
    3bbc:	40b2                	lw	ra,12(sp)
    3bbe:	4422                	lw	s0,8(sp)
    3bc0:	0141                	addi	sp,sp,16
    3bc2:	8082                	ret

00003bc4 <rt_timer_create>:
rt_timer_create():
C:\Users\29275\Desktop\WchWorkSPace\camCoreWithRTOS\obj/../Libraries/rtthread_libraries/src/timer.c:242
rt_timer_t rt_timer_create(const char *name,
                           void (*timeout)(void *parameter),
                           void       *parameter,
                           rt_tick_t   time,
                           rt_uint8_t  flag)
{
    3bc4:	1101                	addi	sp,sp,-32
    3bc6:	ce06                	sw	ra,28(sp)
    3bc8:	cc22                	sw	s0,24(sp)
    3bca:	ca26                	sw	s1,20(sp)
    3bcc:	c84a                	sw	s2,16(sp)
    3bce:	c64e                	sw	s3,12(sp)
    3bd0:	89ae                	mv	s3,a1
    3bd2:	8932                	mv	s2,a2
    3bd4:	84b6                	mv	s1,a3
    3bd6:	843a                	mv	s0,a4
C:\Users\29275\Desktop\WchWorkSPace\camCoreWithRTOS\obj/../Libraries/rtthread_libraries/src/timer.c:246
    struct rt_timer *timer;

    /* allocate a object */
    timer = (struct rt_timer *)rt_object_allocate(RT_Object_Class_Timer, name);
    3bd8:	85aa                	mv	a1,a0
    3bda:	4529                	li	a0,10
    3bdc:	971ff0ef          	jal	ra,354c <rt_object_allocate>
C:\Users\29275\Desktop\WchWorkSPace\camCoreWithRTOS\obj/../Libraries/rtthread_libraries/src/timer.c:247
    if (timer == RT_NULL)
    3be0:	cd19                	beqz	a0,3bfe <rt_timer_create+0x3a>
_rt_timer_init():
C:\Users\29275\Desktop\WchWorkSPace\camCoreWithRTOS\obj/../Libraries/rtthread_libraries/src/timer.c:92
    timer->parent.flag &= ~RT_TIMER_FLAG_ACTIVATED;
    3be2:	9879                	andi	s0,s0,-2
    3be4:	008504a3          	sb	s0,9(a0)
C:\Users\29275\Desktop\WchWorkSPace\camCoreWithRTOS\obj/../Libraries/rtthread_libraries/src/timer.c:94
    timer->timeout_func = timeout;
    3be8:	01352e23          	sw	s3,28(a0)
C:\Users\29275\Desktop\WchWorkSPace\camCoreWithRTOS\obj/../Libraries/rtthread_libraries/src/timer.c:95
    timer->parameter    = parameter;
    3bec:	03252023          	sw	s2,32(a0)
C:\Users\29275\Desktop\WchWorkSPace\camCoreWithRTOS\obj/../Libraries/rtthread_libraries/src/timer.c:97
    timer->timeout_tick = 0;
    3bf0:	02052423          	sw	zero,40(a0)
C:\Users\29275\Desktop\WchWorkSPace\camCoreWithRTOS\obj/../Libraries/rtthread_libraries/src/timer.c:98
    timer->init_tick    = time;
    3bf4:	d144                	sw	s1,36(a0)
C:\Users\29275\Desktop\WchWorkSPace\camCoreWithRTOS\obj/../Libraries/rtthread_libraries/src/timer.c:103
        rt_list_init(&(timer->row[i]));
    3bf6:	01450793          	addi	a5,a0,20
rt_list_init():
C:\Users\29275\Desktop\WchWorkSPace\camCoreWithRTOS\Libraries\rtthread_libraries\include/rtservice.h:49
    l->next = l->prev = l;
    3bfa:	cd1c                	sw	a5,24(a0)
    3bfc:	c95c                	sw	a5,20(a0)
rt_timer_create():
C:\Users\29275\Desktop\WchWorkSPace\camCoreWithRTOS\obj/../Libraries/rtthread_libraries/src/timer.c:255
    }

    _rt_timer_init(timer, timeout, parameter, time, flag);

    return timer;
}
    3bfe:	40f2                	lw	ra,28(sp)
    3c00:	4462                	lw	s0,24(sp)
    3c02:	44d2                	lw	s1,20(sp)
    3c04:	4942                	lw	s2,16(sp)
    3c06:	49b2                	lw	s3,12(sp)
    3c08:	6105                	addi	sp,sp,32
    3c0a:	8082                	ret

00003c0c <rt_timer_start>:
rt_timer_start():
C:\Users\29275\Desktop\WchWorkSPace\camCoreWithRTOS\obj/../Libraries/rtthread_libraries/src/timer.c:297
 * @param timer the timer to be started
 *
 * @return the operation status, RT_EOK on OK, -RT_ERROR on error
 */
rt_err_t rt_timer_start(rt_timer_t timer)
{
    3c0c:	1141                	addi	sp,sp,-16
    3c0e:	c606                	sw	ra,12(sp)
    3c10:	c422                	sw	s0,8(sp)
    3c12:	c226                	sw	s1,4(sp)
    3c14:	842a                	mv	s0,a0
C:\Users\29275\Desktop\WchWorkSPace\camCoreWithRTOS\obj/../Libraries/rtthread_libraries/src/timer.c:310
    /* timer check */
    RT_ASSERT(timer != RT_NULL);
    RT_ASSERT(rt_object_get_type(&timer->parent) == RT_Object_Class_Timer);

    /* stop timer firstly */
    level = rt_hw_interrupt_disable();
    3c16:	d2afc0ef          	jal	ra,140 <rt_hw_interrupt_disable>
_rt_timer_remove():
C:\Users\29275\Desktop\WchWorkSPace\camCoreWithRTOS\obj/../Libraries/rtthread_libraries/src/timer.c:127
        rt_list_remove(&timer->row[i]);
    3c1a:	01440493          	addi	s1,s0,20
rt_list_remove():
C:\Users\29275\Desktop\WchWorkSPace\camCoreWithRTOS\Libraries\rtthread_libraries\include/rtservice.h:88
    n->next->prev = n->prev;
    3c1e:	4858                	lw	a4,20(s0)
    3c20:	4c1c                	lw	a5,24(s0)
    3c22:	c35c                	sw	a5,4(a4)
C:\Users\29275\Desktop\WchWorkSPace\camCoreWithRTOS\Libraries\rtthread_libraries\include/rtservice.h:89
    n->prev->next = n->next;
    3c24:	4858                	lw	a4,20(s0)
    3c26:	c398                	sw	a4,0(a5)
C:\Users\29275\Desktop\WchWorkSPace\camCoreWithRTOS\Libraries\rtthread_libraries\include/rtservice.h:91
    n->next = n->prev = n;
    3c28:	cc04                	sw	s1,24(s0)
    3c2a:	c844                	sw	s1,20(s0)
rt_timer_start():
C:\Users\29275\Desktop\WchWorkSPace\camCoreWithRTOS\obj/../Libraries/rtthread_libraries/src/timer.c:314
    /* remove timer from list */
    _rt_timer_remove(timer);
    /* change status of timer */
    timer->parent.flag &= ~RT_TIMER_FLAG_ACTIVATED;
    3c2c:	00944783          	lbu	a5,9(s0)
    3c30:	9bf9                	andi	a5,a5,-2
    3c32:	00f404a3          	sb	a5,9(s0)
C:\Users\29275\Desktop\WchWorkSPace\camCoreWithRTOS\obj/../Libraries/rtthread_libraries/src/timer.c:315
    rt_hw_interrupt_enable(level);
    3c36:	d10fc0ef          	jal	ra,146 <rt_hw_interrupt_enable>
C:\Users\29275\Desktop\WchWorkSPace\camCoreWithRTOS\obj/../Libraries/rtthread_libraries/src/timer.c:324
    /*
     * get timeout tick,
     * the max timeout tick shall not great than RT_TICK_MAX/2
     */
    RT_ASSERT(timer->init_tick < RT_TICK_MAX / 2);
    timer->timeout_tick = rt_tick_get() + timer->init_tick;
    3c3a:	db4fe0ef          	jal	ra,21ee <rt_tick_get>
    3c3e:	505c                	lw	a5,36(s0)
    3c40:	953e                	add	a0,a0,a5
    3c42:	d408                	sw	a0,40(s0)
C:\Users\29275\Desktop\WchWorkSPace\camCoreWithRTOS\obj/../Libraries/rtthread_libraries/src/timer.c:327

    /* disable interrupt */
    level = rt_hw_interrupt_disable();
    3c44:	cfcfc0ef          	jal	ra,140 <rt_hw_interrupt_disable>
C:\Users\29275\Desktop\WchWorkSPace\camCoreWithRTOS\obj/../Libraries/rtthread_libraries/src/timer.c:345
    }

    row_head[0]  = &timer_list[0];
    for (row_lvl = 0; row_lvl < RT_TIMER_SKIP_LIST_LEVEL; row_lvl++)
    {
        for (; row_head[row_lvl] != timer_list[row_lvl].prev;
    3c48:	88818793          	addi	a5,gp,-1912 # 20000138 <rt_timer_list>
    3c4c:	43cc                	lw	a1,4(a5)
    3c4e:	88818713          	addi	a4,gp,-1912 # 20000138 <rt_timer_list>
C:\Users\29275\Desktop\WchWorkSPace\camCoreWithRTOS\obj/../Libraries/rtthread_libraries/src/timer.c:363
             */
            if ((t->timeout_tick - timer->timeout_tick) == 0)
            {
                continue;
            }
            else if ((t->timeout_tick - timer->timeout_tick) < RT_TICK_MAX / 2)
    3c52:	80000837          	lui	a6,0x80000
    3c56:	ffe84813          	xori	a6,a6,-2
    3c5a:	a011                	j	3c5e <rt_timer_start+0x52>
    3c5c:	8736                	mv	a4,a3
C:\Users\29275\Desktop\WchWorkSPace\camCoreWithRTOS\obj/../Libraries/rtthread_libraries/src/timer.c:345
        for (; row_head[row_lvl] != timer_list[row_lvl].prev;
    3c5e:	00e58c63          	beq	a1,a4,3c76 <rt_timer_start+0x6a>
C:\Users\29275\Desktop\WchWorkSPace\camCoreWithRTOS\obj/../Libraries/rtthread_libraries/src/timer.c:349
            rt_list_t *p = row_head[row_lvl]->next;
    3c62:	4314                	lw	a3,0(a4)
C:\Users\29275\Desktop\WchWorkSPace\camCoreWithRTOS\obj/../Libraries/rtthread_libraries/src/timer.c:359
            if ((t->timeout_tick - timer->timeout_tick) == 0)
    3c64:	4adc                	lw	a5,20(a3)
    3c66:	5410                	lw	a2,40(s0)
    3c68:	fec78ae3          	beq	a5,a2,3c5c <rt_timer_start+0x50>
C:\Users\29275\Desktop\WchWorkSPace\camCoreWithRTOS\obj/../Libraries/rtthread_libraries/src/timer.c:363
            else if ((t->timeout_tick - timer->timeout_tick) < RT_TICK_MAX / 2)
    3c6c:	8f91                	sub	a5,a5,a2
    3c6e:	00f87463          	bgeu	a6,a5,3c76 <rt_timer_start+0x6a>
    3c72:	8736                	mv	a4,a3
    3c74:	b7ed                	j	3c5e <rt_timer_start+0x52>
C:\Users\29275\Desktop\WchWorkSPace\camCoreWithRTOS\obj/../Libraries/rtthread_libraries/src/timer.c:376

    /* Interestingly, this super simple timer insert counter works very very
     * well on distributing the list height uniformly. By means of "very very
     * well", I mean it beats the randomness of timer->timeout_tick very easily
     * (actually, the timeout_tick is not random and easy to be attacked). */
    random_nr++;
    3c76:	88418793          	addi	a5,gp,-1916 # 20000134 <random_nr.2125>
    3c7a:	4394                	lw	a3,0(a5)
    3c7c:	0685                	addi	a3,a3,1
    3c7e:	c394                	sw	a3,0(a5)
rt_list_insert_after():
C:\Users\29275\Desktop\WchWorkSPace\camCoreWithRTOS\Libraries\rtthread_libraries\include/rtservice.h:60
    l->next->prev = n;
    3c80:	431c                	lw	a5,0(a4)
    3c82:	c3c4                	sw	s1,4(a5)
C:\Users\29275\Desktop\WchWorkSPace\camCoreWithRTOS\Libraries\rtthread_libraries\include/rtservice.h:61
    n->next = l->next;
    3c84:	431c                	lw	a5,0(a4)
    3c86:	c85c                	sw	a5,20(s0)
C:\Users\29275\Desktop\WchWorkSPace\camCoreWithRTOS\Libraries\rtthread_libraries\include/rtservice.h:63
    l->next = n;
    3c88:	c304                	sw	s1,0(a4)
C:\Users\29275\Desktop\WchWorkSPace\camCoreWithRTOS\Libraries\rtthread_libraries\include/rtservice.h:64
    n->prev = l;
    3c8a:	cc18                	sw	a4,24(s0)
rt_timer_start():
C:\Users\29275\Desktop\WchWorkSPace\camCoreWithRTOS\obj/../Libraries/rtthread_libraries/src/timer.c:393
        /* Shift over the bits we have tested. Works well with 1 bit and 2
         * bits. */
        tst_nr >>= (RT_TIMER_SKIP_LIST_MASK + 1) >> 1;
    }

    timer->parent.flag |= RT_TIMER_FLAG_ACTIVATED;
    3c8c:	00944783          	lbu	a5,9(s0)
    3c90:	0017e793          	ori	a5,a5,1
    3c94:	00f404a3          	sb	a5,9(s0)
C:\Users\29275\Desktop\WchWorkSPace\camCoreWithRTOS\obj/../Libraries/rtthread_libraries/src/timer.c:396

    /* enable interrupt */
    rt_hw_interrupt_enable(level);
    3c98:	caefc0ef          	jal	ra,146 <rt_hw_interrupt_enable>
C:\Users\29275\Desktop\WchWorkSPace\camCoreWithRTOS\obj/../Libraries/rtthread_libraries/src/timer.c:412
        }
    }
#endif

    return RT_EOK;
}
    3c9c:	4501                	li	a0,0
    3c9e:	40b2                	lw	ra,12(sp)
    3ca0:	4422                	lw	s0,8(sp)
    3ca2:	4492                	lw	s1,4(sp)
    3ca4:	0141                	addi	sp,sp,16
    3ca6:	8082                	ret

00003ca8 <rt_timer_stop>:
rt_timer_stop():
C:\Users\29275\Desktop\WchWorkSPace\camCoreWithRTOS\obj/../Libraries/rtthread_libraries/src/timer.c:430

    /* timer check */
    RT_ASSERT(timer != RT_NULL);
    RT_ASSERT(rt_object_get_type(&timer->parent) == RT_Object_Class_Timer);

    if (!(timer->parent.flag & RT_TIMER_FLAG_ACTIVATED))
    3ca8:	00954783          	lbu	a5,9(a0)
    3cac:	8b85                	andi	a5,a5,1
    3cae:	e399                	bnez	a5,3cb4 <rt_timer_stop+0xc>
C:\Users\29275\Desktop\WchWorkSPace\camCoreWithRTOS\obj/../Libraries/rtthread_libraries/src/timer.c:431
        return -RT_ERROR;
    3cb0:	557d                	li	a0,-1
C:\Users\29275\Desktop\WchWorkSPace\camCoreWithRTOS\obj/../Libraries/rtthread_libraries/src/timer.c:447

    /* change stat */
    timer->parent.flag &= ~RT_TIMER_FLAG_ACTIVATED;

    return RT_EOK;
}
    3cb2:	8082                	ret
C:\Users\29275\Desktop\WchWorkSPace\camCoreWithRTOS\obj/../Libraries/rtthread_libraries/src/timer.c:423
{
    3cb4:	1141                	addi	sp,sp,-16
    3cb6:	c606                	sw	ra,12(sp)
    3cb8:	c422                	sw	s0,8(sp)
    3cba:	842a                	mv	s0,a0
C:\Users\29275\Desktop\WchWorkSPace\camCoreWithRTOS\obj/../Libraries/rtthread_libraries/src/timer.c:436
    level = rt_hw_interrupt_disable();
    3cbc:	c84fc0ef          	jal	ra,140 <rt_hw_interrupt_disable>
_rt_timer_remove():
C:\Users\29275\Desktop\WchWorkSPace\camCoreWithRTOS\obj/../Libraries/rtthread_libraries/src/timer.c:127
        rt_list_remove(&timer->row[i]);
    3cc0:	01440793          	addi	a5,s0,20
rt_list_remove():
C:\Users\29275\Desktop\WchWorkSPace\camCoreWithRTOS\Libraries\rtthread_libraries\include/rtservice.h:88
    n->next->prev = n->prev;
    3cc4:	4854                	lw	a3,20(s0)
    3cc6:	4c18                	lw	a4,24(s0)
    3cc8:	c2d8                	sw	a4,4(a3)
C:\Users\29275\Desktop\WchWorkSPace\camCoreWithRTOS\Libraries\rtthread_libraries\include/rtservice.h:89
    n->prev->next = n->next;
    3cca:	4854                	lw	a3,20(s0)
    3ccc:	c314                	sw	a3,0(a4)
C:\Users\29275\Desktop\WchWorkSPace\camCoreWithRTOS\Libraries\rtthread_libraries\include/rtservice.h:91
    n->next = n->prev = n;
    3cce:	cc1c                	sw	a5,24(s0)
    3cd0:	c85c                	sw	a5,20(s0)
rt_timer_stop():
C:\Users\29275\Desktop\WchWorkSPace\camCoreWithRTOS\obj/../Libraries/rtthread_libraries/src/timer.c:441
    rt_hw_interrupt_enable(level);
    3cd2:	c74fc0ef          	jal	ra,146 <rt_hw_interrupt_enable>
C:\Users\29275\Desktop\WchWorkSPace\camCoreWithRTOS\obj/../Libraries/rtthread_libraries/src/timer.c:444
    timer->parent.flag &= ~RT_TIMER_FLAG_ACTIVATED;
    3cd6:	00944783          	lbu	a5,9(s0)
    3cda:	9bf9                	andi	a5,a5,-2
    3cdc:	00f404a3          	sb	a5,9(s0)
C:\Users\29275\Desktop\WchWorkSPace\camCoreWithRTOS\obj/../Libraries/rtthread_libraries/src/timer.c:446
    return RT_EOK;
    3ce0:	4501                	li	a0,0
C:\Users\29275\Desktop\WchWorkSPace\camCoreWithRTOS\obj/../Libraries/rtthread_libraries/src/timer.c:447
}
    3ce2:	40b2                	lw	ra,12(sp)
    3ce4:	4422                	lw	s0,8(sp)
    3ce6:	0141                	addi	sp,sp,16
    3ce8:	8082                	ret

00003cea <rt_timer_control>:
rt_timer_control():
C:\Users\29275\Desktop\WchWorkSPace\camCoreWithRTOS\obj/../Libraries/rtthread_libraries/src/timer.c:465
{
    /* timer check */
    RT_ASSERT(timer != RT_NULL);
    RT_ASSERT(rt_object_get_type(&timer->parent) == RT_Object_Class_Timer);

    switch (cmd)
    3cea:	4785                	li	a5,1
    3cec:	02f58563          	beq	a1,a5,3d16 <rt_timer_control+0x2c>
    3cf0:	00b7df63          	bge	a5,a1,3d0e <rt_timer_control+0x24>
    3cf4:	4789                	li	a5,2
    3cf6:	02f58463          	beq	a1,a5,3d1e <rt_timer_control+0x34>
    3cfa:	478d                	li	a5,3
    3cfc:	00f59f63          	bne	a1,a5,3d1a <rt_timer_control+0x30>
C:\Users\29275\Desktop\WchWorkSPace\camCoreWithRTOS\obj/../Libraries/rtthread_libraries/src/timer.c:480
    case RT_TIMER_CTRL_SET_ONESHOT:
        timer->parent.flag &= ~RT_TIMER_FLAG_PERIODIC;
        break;

    case RT_TIMER_CTRL_SET_PERIODIC:
        timer->parent.flag |= RT_TIMER_FLAG_PERIODIC;
    3d00:	00954783          	lbu	a5,9(a0)
    3d04:	0027e793          	ori	a5,a5,2
    3d08:	00f504a3          	sb	a5,9(a0)
C:\Users\29275\Desktop\WchWorkSPace\camCoreWithRTOS\obj/../Libraries/rtthread_libraries/src/timer.c:481
        break;
    3d0c:	a039                	j	3d1a <rt_timer_control+0x30>
    3d0e:	e591                	bnez	a1,3d1a <rt_timer_control+0x30>
C:\Users\29275\Desktop\WchWorkSPace\camCoreWithRTOS\obj/../Libraries/rtthread_libraries/src/timer.c:472
        timer->init_tick = *(rt_tick_t *)arg;
    3d10:	421c                	lw	a5,0(a2)
    3d12:	d15c                	sw	a5,36(a0)
C:\Users\29275\Desktop\WchWorkSPace\camCoreWithRTOS\obj/../Libraries/rtthread_libraries/src/timer.c:473
        break;
    3d14:	a019                	j	3d1a <rt_timer_control+0x30>
C:\Users\29275\Desktop\WchWorkSPace\camCoreWithRTOS\obj/../Libraries/rtthread_libraries/src/timer.c:468
        *(rt_tick_t *)arg = timer->init_tick;
    3d16:	515c                	lw	a5,36(a0)
    3d18:	c21c                	sw	a5,0(a2)
C:\Users\29275\Desktop\WchWorkSPace\camCoreWithRTOS\obj/../Libraries/rtthread_libraries/src/timer.c:485
    }

    return RT_EOK;
}
    3d1a:	4501                	li	a0,0
    3d1c:	8082                	ret
C:\Users\29275\Desktop\WchWorkSPace\camCoreWithRTOS\obj/../Libraries/rtthread_libraries/src/timer.c:476
        timer->parent.flag &= ~RT_TIMER_FLAG_PERIODIC;
    3d1e:	00954783          	lbu	a5,9(a0)
    3d22:	9bf5                	andi	a5,a5,-3
    3d24:	00f504a3          	sb	a5,9(a0)
C:\Users\29275\Desktop\WchWorkSPace\camCoreWithRTOS\obj/../Libraries/rtthread_libraries/src/timer.c:477
        break;
    3d28:	bfcd                	j	3d1a <rt_timer_control+0x30>

00003d2a <rt_timer_check>:
rt_timer_check():
C:\Users\29275\Desktop\WchWorkSPace\camCoreWithRTOS\obj/../Libraries/rtthread_libraries/src/timer.c:495
 * corresponding timeout function will be invoked.
 *
 * @note this function shall be invoked in operating system timer interrupt.
 */
void rt_timer_check(void)
{
    3d2a:	1101                	addi	sp,sp,-32
    3d2c:	ce06                	sw	ra,28(sp)
    3d2e:	cc22                	sw	s0,24(sp)
    3d30:	ca26                	sw	s1,20(sp)
    3d32:	c84a                	sw	s2,16(sp)
    3d34:	c64e                	sw	s3,12(sp)
    3d36:	c452                	sw	s4,8(sp)
    3d38:	c256                	sw	s5,4(sp)
C:\Users\29275\Desktop\WchWorkSPace\camCoreWithRTOS\obj/../Libraries/rtthread_libraries/src/timer.c:502
    rt_tick_t current_tick;
    register rt_base_t level;

    RT_DEBUG_LOG(RT_DEBUG_TIMER, ("timer check enter\n"));

    current_tick = rt_tick_get();
    3d3a:	cb4fe0ef          	jal	ra,21ee <rt_tick_get>
    3d3e:	8a2a                	mv	s4,a0
C:\Users\29275\Desktop\WchWorkSPace\camCoreWithRTOS\obj/../Libraries/rtthread_libraries/src/timer.c:505

    /* disable interrupt */
    level = rt_hw_interrupt_disable();
    3d40:	c00fc0ef          	jal	ra,140 <rt_hw_interrupt_disable>
    3d44:	89aa                	mv	s3,a0
rt_list_isempty():
C:\Users\29275\Desktop\WchWorkSPace\camCoreWithRTOS\Libraries\rtthread_libraries\include/rtservice.h:100
    return l->next == l;
    3d46:	88818493          	addi	s1,gp,-1912 # 20000138 <rt_timer_list>
rt_timer_check():
C:\Users\29275\Desktop\WchWorkSPace\camCoreWithRTOS\obj/../Libraries/rtthread_libraries/src/timer.c:516

        /*
         * It supposes that the new tick shall less than the half duration of
         * tick max.
         */
        if ((current_tick - t->timeout_tick) < RT_TICK_MAX / 2)
    3d4a:	800007b7          	lui	a5,0x80000
    3d4e:	ffe7c913          	xori	s2,a5,-2
C:\Users\29275\Desktop\WchWorkSPace\camCoreWithRTOS\obj/../Libraries/rtthread_libraries/src/timer.c:532
            current_tick = rt_tick_get();

            RT_OBJECT_HOOK_CALL(rt_timer_exit_hook, (t));
            RT_DEBUG_LOG(RT_DEBUG_TIMER, ("current tick: %d\n", current_tick));

            if ((t->parent.flag & RT_TIMER_FLAG_PERIODIC) &&
    3d52:	4a8d                	li	s5,3
rt_list_isempty():
C:\Users\29275\Desktop\WchWorkSPace\camCoreWithRTOS\Libraries\rtthread_libraries\include/rtservice.h:100
    3d54:	4080                	lw	s0,0(s1)
rt_timer_check():
C:\Users\29275\Desktop\WchWorkSPace\camCoreWithRTOS\obj/../Libraries/rtthread_libraries/src/timer.c:507
    while (!rt_list_isempty(&rt_timer_list[RT_TIMER_SKIP_LIST_LEVEL - 1]))
    3d56:	00941e63          	bne	s0,s1,3d72 <rt_timer_check+0x48>
C:\Users\29275\Desktop\WchWorkSPace\camCoreWithRTOS\obj/../Libraries/rtthread_libraries/src/timer.c:550
        else
            break;
    }

    /* enable interrupt */
    rt_hw_interrupt_enable(level);
    3d5a:	854e                	mv	a0,s3
    3d5c:	beafc0ef          	jal	ra,146 <rt_hw_interrupt_enable>
C:\Users\29275\Desktop\WchWorkSPace\camCoreWithRTOS\obj/../Libraries/rtthread_libraries/src/timer.c:553

    RT_DEBUG_LOG(RT_DEBUG_TIMER, ("timer check leave\n"));
}
    3d60:	40f2                	lw	ra,28(sp)
    3d62:	4462                	lw	s0,24(sp)
    3d64:	44d2                	lw	s1,20(sp)
    3d66:	4942                	lw	s2,16(sp)
    3d68:	49b2                	lw	s3,12(sp)
    3d6a:	4a22                	lw	s4,8(sp)
    3d6c:	4a92                	lw	s5,4(sp)
    3d6e:	6105                	addi	sp,sp,32
    3d70:	8082                	ret
C:\Users\29275\Desktop\WchWorkSPace\camCoreWithRTOS\obj/../Libraries/rtthread_libraries/src/timer.c:516
        if ((current_tick - t->timeout_tick) < RT_TICK_MAX / 2)
    3d72:	485c                	lw	a5,20(s0)
    3d74:	40fa0a33          	sub	s4,s4,a5
    3d78:	ff4961e3          	bltu	s2,s4,3d5a <rt_timer_check+0x30>
rt_list_remove():
C:\Users\29275\Desktop\WchWorkSPace\camCoreWithRTOS\Libraries\rtthread_libraries\include/rtservice.h:88
    n->next->prev = n->prev;
    3d7c:	4018                	lw	a4,0(s0)
    3d7e:	405c                	lw	a5,4(s0)
    3d80:	c35c                	sw	a5,4(a4)
C:\Users\29275\Desktop\WchWorkSPace\camCoreWithRTOS\Libraries\rtthread_libraries\include/rtservice.h:89
    n->prev->next = n->next;
    3d82:	4018                	lw	a4,0(s0)
    3d84:	c398                	sw	a4,0(a5)
C:\Users\29275\Desktop\WchWorkSPace\camCoreWithRTOS\Libraries\rtthread_libraries\include/rtservice.h:91
    n->next = n->prev = n;
    3d86:	c040                	sw	s0,4(s0)
    3d88:	c000                	sw	s0,0(s0)
rt_timer_check():
C:\Users\29275\Desktop\WchWorkSPace\camCoreWithRTOS\obj/../Libraries/rtthread_libraries/src/timer.c:524
            t->timeout_func(t->parameter);
    3d8a:	441c                	lw	a5,8(s0)
    3d8c:	4448                	lw	a0,12(s0)
    3d8e:	9782                	jalr	a5
C:\Users\29275\Desktop\WchWorkSPace\camCoreWithRTOS\obj/../Libraries/rtthread_libraries/src/timer.c:527
            current_tick = rt_tick_get();
    3d90:	c5efe0ef          	jal	ra,21ee <rt_tick_get>
    3d94:	8a2a                	mv	s4,a0
C:\Users\29275\Desktop\WchWorkSPace\camCoreWithRTOS\obj/../Libraries/rtthread_libraries/src/timer.c:532
            if ((t->parent.flag & RT_TIMER_FLAG_PERIODIC) &&
    3d96:	ff544783          	lbu	a5,-11(s0)
    3d9a:	0037f713          	andi	a4,a5,3
    3d9e:	01570663          	beq	a4,s5,3daa <rt_timer_check+0x80>
C:\Users\29275\Desktop\WchWorkSPace\camCoreWithRTOS\obj/../Libraries/rtthread_libraries/src/timer.c:542
                t->parent.flag &= ~RT_TIMER_FLAG_ACTIVATED;
    3da2:	9bf9                	andi	a5,a5,-2
    3da4:	fef40aa3          	sb	a5,-11(s0)
    3da8:	b775                	j	3d54 <rt_timer_check+0x2a>
C:\Users\29275\Desktop\WchWorkSPace\camCoreWithRTOS\obj/../Libraries/rtthread_libraries/src/timer.c:536
                t->parent.flag &= ~RT_TIMER_FLAG_ACTIVATED;
    3daa:	9bf9                	andi	a5,a5,-2
    3dac:	fef40aa3          	sb	a5,-11(s0)
C:\Users\29275\Desktop\WchWorkSPace\camCoreWithRTOS\obj/../Libraries/rtthread_libraries/src/timer.c:537
                rt_timer_start(t);
    3db0:	fec40513          	addi	a0,s0,-20
    3db4:	e59ff0ef          	jal	ra,3c0c <rt_timer_start>
    3db8:	bf71                	j	3d54 <rt_timer_check+0x2a>

00003dba <rt_system_timer_init>:
rt_list_init():
C:\Users\29275\Desktop\WchWorkSPace\camCoreWithRTOS\Libraries\rtthread_libraries\include/rtservice.h:49
    l->next = l->prev = l;
    3dba:	88818793          	addi	a5,gp,-1912 # 20000138 <rt_timer_list>
    3dbe:	c3dc                	sw	a5,4(a5)
    3dc0:	c39c                	sw	a5,0(a5)
rt_system_timer_init():
C:\Users\29275\Desktop\WchWorkSPace\camCoreWithRTOS\obj/../Libraries/rtthread_libraries/src/timer.c:687

    for (i = 0; i < sizeof(rt_timer_list) / sizeof(rt_timer_list[0]); i++)
    {
        rt_list_init(rt_timer_list + i);
    }
}
    3dc2:	8082                	ret

00003dc4 <rt_system_timer_thread_init>:
rt_system_timer_thread_init():
C:\Users\29275\Desktop\WchWorkSPace\camCoreWithRTOS\obj/../Libraries/rtthread_libraries/src/timer.c:719
                   10);

    /* startup */
    rt_thread_startup(&timer_thread);
#endif
}
    3dc4:	8082                	ret

00003dc6 <rt_hw_stack_init>:
rt_hw_stack_init():
C:\Users\29275\Desktop\WchWorkSPace\camCoreWithRTOS\obj/../Libraries/rtthread_libraries/libcpu/cpuport.c:73
 */
rt_uint8_t *rt_hw_stack_init(void       *tentry,
                             void       *parameter,
                             rt_uint8_t *stack_addr,
                             void       *texit)
{
    3dc6:	882a                	mv	a6,a0
C:\Users\29275\Desktop\WchWorkSPace\camCoreWithRTOS\obj/../Libraries/rtthread_libraries/libcpu/cpuport.c:78
    struct rt_hw_stack_frame *frame;
    rt_uint8_t         *stk;
    int                i;

    stk  = stack_addr + sizeof(rt_ubase_t);
    3dc8:	0611                	addi	a2,a2,4
C:\Users\29275\Desktop\WchWorkSPace\camCoreWithRTOS\obj/../Libraries/rtthread_libraries/libcpu/cpuport.c:79
    stk  = (rt_uint8_t *)RT_ALIGN_DOWN((rt_ubase_t)stk, REGBYTES);
    3dca:	9a71                	andi	a2,a2,-4
C:\Users\29275\Desktop\WchWorkSPace\camCoreWithRTOS\obj/../Libraries/rtthread_libraries/libcpu/cpuport.c:80
    stk -= sizeof(struct rt_hw_stack_frame);
    3dcc:	f8060513          	addi	a0,a2,-128
C:\Users\29275\Desktop\WchWorkSPace\camCoreWithRTOS\obj/../Libraries/rtthread_libraries/libcpu/cpuport.c:84

    frame = (struct rt_hw_stack_frame *)stk;

    for (i = 0; i < sizeof(struct rt_hw_stack_frame) / sizeof(rt_ubase_t); i++)
    3dd0:	87aa                	mv	a5,a0
C:\Users\29275\Desktop\WchWorkSPace\camCoreWithRTOS\obj/../Libraries/rtthread_libraries/libcpu/cpuport.c:86
    {
        ((rt_ubase_t *)frame)[i] = 0xdeadbeef;
    3dd2:	deadc737          	lui	a4,0xdeadc
    3dd6:	eef70713          	addi	a4,a4,-273 # deadbeef <_eusrstack+0xbead6eef>
C:\Users\29275\Desktop\WchWorkSPace\camCoreWithRTOS\obj/../Libraries/rtthread_libraries/libcpu/cpuport.c:86 (discriminator 3)
    3dda:	c398                	sw	a4,0(a5)
    3ddc:	0791                	addi	a5,a5,4
C:\Users\29275\Desktop\WchWorkSPace\camCoreWithRTOS\obj/../Libraries/rtthread_libraries/libcpu/cpuport.c:84 (discriminator 3)
    for (i = 0; i < sizeof(struct rt_hw_stack_frame) / sizeof(rt_ubase_t); i++)
    3dde:	fef61ee3          	bne	a2,a5,3dda <rt_hw_stack_init+0x14>
C:\Users\29275\Desktop\WchWorkSPace\camCoreWithRTOS\obj/../Libraries/rtthread_libraries/libcpu/cpuport.c:89
    }

    frame->ra      = (rt_ubase_t)texit;
    3de2:	f8d62223          	sw	a3,-124(a2)
C:\Users\29275\Desktop\WchWorkSPace\camCoreWithRTOS\obj/../Libraries/rtthread_libraries/libcpu/cpuport.c:90
    frame->a0      = (rt_ubase_t)parameter;
    3de6:	fab62423          	sw	a1,-88(a2)
C:\Users\29275\Desktop\WchWorkSPace\camCoreWithRTOS\obj/../Libraries/rtthread_libraries/libcpu/cpuport.c:91
    frame->epc     = (rt_ubase_t)tentry;
    3dea:	f9062023          	sw	a6,-128(a2)
C:\Users\29275\Desktop\WchWorkSPace\camCoreWithRTOS\obj/../Libraries/rtthread_libraries/libcpu/cpuport.c:94

    /* force to machine mode(MPP=11) and set MPIE to 1 */
    frame->mstatus = 0x00007880;
    3dee:	67a1                	lui	a5,0x8
    3df0:	88078793          	addi	a5,a5,-1920 # 7880 <__fsymtab_end+0x160>
    3df4:	f8f62423          	sw	a5,-120(a2)
C:\Users\29275\Desktop\WchWorkSPace\camCoreWithRTOS\obj/../Libraries/rtthread_libraries/libcpu/cpuport.c:97

    return stk;
}
    3df8:	8082                	ret

00003dfa <rt_hw_taskswitch>:
rt_hw_taskswitch():
C:\Users\29275\Desktop\WchWorkSPace\camCoreWithRTOS\obj/../Libraries/rtthread_libraries/libcpu/cpuport.c:101

void rt_hw_taskswitch(void)
{
    rt_thread_switch_interrupt_flag = 0;
    3dfa:	8801ac23          	sw	zero,-1896(gp) # 20000148 <rt_thread_switch_interrupt_flag>
C:\Users\29275\Desktop\WchWorkSPace\camCoreWithRTOS\obj/../Libraries/rtthread_libraries/libcpu/cpuport.c:103

}
    3dfe:	8082                	ret

00003e00 <rt_hw_context_switch>:
rt_hw_context_switch():
C:\Users\29275\Desktop\WchWorkSPace\camCoreWithRTOS\obj/../Libraries/rtthread_libraries/libcpu/cpuport.c:113
 * @param from thread sp of from thread
 * @param to thread sp of to thread
 */
void rt_hw_context_switch(rt_ubase_t from, rt_ubase_t to)
{
    rt_interrupt_from_thread = from;
    3e00:	88a1a823          	sw	a0,-1904(gp) # 20000140 <rt_interrupt_from_thread>
C:\Users\29275\Desktop\WchWorkSPace\camCoreWithRTOS\obj/../Libraries/rtthread_libraries/libcpu/cpuport.c:114
    rt_interrupt_to_thread = to;
    3e04:	88b1aa23          	sw	a1,-1900(gp) # 20000144 <rt_interrupt_to_thread>
C:\Users\29275\Desktop\WchWorkSPace\camCoreWithRTOS\obj/../Libraries/rtthread_libraries/libcpu/cpuport.c:115
    NVIC->IPSR[((uint32_t)(Software_IRQn) >> 5)] = (1 << ((uint32_t)(Software_IRQn) & 0x1F));
    3e08:	e000e7b7          	lui	a5,0xe000e
    3e0c:	6711                	lui	a4,0x4
    3e0e:	20e7a023          	sw	a4,512(a5) # e000e200 <_eusrstack+0xc0009200>
C:\Users\29275\Desktop\WchWorkSPace\camCoreWithRTOS\obj/../Libraries/rtthread_libraries/libcpu/cpuport.c:116
}
    3e12:	8082                	ret

00003e14 <rt_hw_context_switch_interrupt>:
rt_hw_context_switch_interrupt():
C:\Users\29275\Desktop\WchWorkSPace\camCoreWithRTOS\obj/../Libraries/rtthread_libraries/libcpu/cpuport.c:128
 * #endif
 */
#ifndef RT_USING_SMP
void rt_hw_context_switch_interrupt(rt_ubase_t from, rt_ubase_t to)
{
    if (rt_thread_switch_interrupt_flag == 0)
    3e14:	8981a783          	lw	a5,-1896(gp) # 20000148 <rt_thread_switch_interrupt_flag>
    3e18:	e399                	bnez	a5,3e1e <rt_hw_context_switch_interrupt+0xa>
C:\Users\29275\Desktop\WchWorkSPace\camCoreWithRTOS\obj/../Libraries/rtthread_libraries/libcpu/cpuport.c:129
        rt_interrupt_from_thread = from;
    3e1a:	88a1a823          	sw	a0,-1904(gp) # 20000140 <rt_interrupt_from_thread>
C:\Users\29275\Desktop\WchWorkSPace\camCoreWithRTOS\obj/../Libraries/rtthread_libraries/libcpu/cpuport.c:131

    rt_interrupt_to_thread = to;
    3e1e:	88b1aa23          	sw	a1,-1900(gp) # 20000144 <rt_interrupt_to_thread>
C:\Users\29275\Desktop\WchWorkSPace\camCoreWithRTOS\obj/../Libraries/rtthread_libraries/libcpu/cpuport.c:132
    rt_thread_switch_interrupt_flag = 1;
    3e22:	4705                	li	a4,1
    3e24:	88e1ac23          	sw	a4,-1896(gp) # 20000148 <rt_thread_switch_interrupt_flag>
C:\Users\29275\Desktop\WchWorkSPace\camCoreWithRTOS\obj/../Libraries/rtthread_libraries/libcpu/cpuport.c:134
    //NVIC_SetPendingIRQ(Software_IRQn);
    NVIC->IPSR[((uint32_t)(Software_IRQn) >> 5)] = (1 << ((uint32_t)(Software_IRQn) & 0x1F));
    3e28:	e000e7b7          	lui	a5,0xe000e
    3e2c:	6711                	lui	a4,0x4
    3e2e:	20e7a023          	sw	a4,512(a5) # e000e200 <_eusrstack+0xc0009200>
C:\Users\29275\Desktop\WchWorkSPace\camCoreWithRTOS\obj/../Libraries/rtthread_libraries/libcpu/cpuport.c:136
    return ;
}
    3e32:	8082                	ret

00003e34 <hello>:
hello():
C:\Users\29275\Desktop\WchWorkSPace\camCoreWithRTOS\obj/../Libraries/rtthread_libraries/components/finsh/cmd.c:44
#include "finsh.h"

#define LIST_FIND_OBJ_NR 8

long hello(void)
{
    3e34:	1141                	addi	sp,sp,-16
    3e36:	c606                	sw	ra,12(sp)
C:\Users\29275\Desktop\WchWorkSPace\camCoreWithRTOS\obj/../Libraries/rtthread_libraries/components/finsh/cmd.c:45
    rt_kprintf("Hello RT-Thread!\n");
    3e38:	00007537          	lui	a0,0x7
    3e3c:	1ec50513          	addi	a0,a0,492 # 71ec <__fsym_list_timer_name+0xc>
    3e40:	a10ff0ef          	jal	ra,3050 <rt_kprintf>
C:\Users\29275\Desktop\WchWorkSPace\camCoreWithRTOS\obj/../Libraries/rtthread_libraries/components/finsh/cmd.c:48

    return 0;
}
    3e44:	4501                	li	a0,0
    3e46:	40b2                	lw	ra,12(sp)
    3e48:	0141                	addi	sp,sp,16
    3e4a:	8082                	ret

00003e4c <show_wait_queue>:
show_wait_queue():
C:\Users\29275\Desktop\WchWorkSPace\camCoreWithRTOS\obj/../Libraries/rtthread_libraries/components/finsh/cmd.c:253
}
FINSH_FUNCTION_EXPORT(list_thread, list thread);
MSH_CMD_EXPORT(list_thread, list thread);

static void show_wait_queue(struct rt_list_node *list)
{
    3e4c:	1101                	addi	sp,sp,-32
    3e4e:	ce06                	sw	ra,28(sp)
    3e50:	cc22                	sw	s0,24(sp)
    3e52:	ca26                	sw	s1,20(sp)
    3e54:	c84a                	sw	s2,16(sp)
    3e56:	c64e                	sw	s3,12(sp)
C:\Users\29275\Desktop\WchWorkSPace\camCoreWithRTOS\obj/../Libraries/rtthread_libraries/components/finsh/cmd.c:257
    struct rt_thread *thread;
    struct rt_list_node *node;

    for (node = list->next; node != list; node = node->next)
    3e58:	4100                	lw	s0,0(a0)
    3e5a:	02850863          	beq	a0,s0,3e8a <show_wait_queue+0x3e>
    3e5e:	84aa                	mv	s1,a0
C:\Users\29275\Desktop\WchWorkSPace\camCoreWithRTOS\obj/../Libraries/rtthread_libraries/components/finsh/cmd.c:260
    {
        thread = rt_list_entry(node, struct rt_thread, tlist);
        rt_kprintf("%s", thread->name);
    3e60:	00007937          	lui	s2,0x7
C:\Users\29275\Desktop\WchWorkSPace\camCoreWithRTOS\obj/../Libraries/rtthread_libraries/components/finsh/cmd.c:263

        if (node->next != list)
            rt_kprintf("/");
    3e64:	000079b7          	lui	s3,0x7
    3e68:	a801                	j	3e78 <show_wait_queue+0x2c>
    3e6a:	49898513          	addi	a0,s3,1176 # 7498 <__fsym_list_timer_name+0x2b8>
    3e6e:	9e2ff0ef          	jal	ra,3050 <rt_kprintf>
C:\Users\29275\Desktop\WchWorkSPace\camCoreWithRTOS\obj/../Libraries/rtthread_libraries/components/finsh/cmd.c:257
    for (node = list->next; node != list; node = node->next)
    3e72:	4000                	lw	s0,0(s0)
    3e74:	00848b63          	beq	s1,s0,3e8a <show_wait_queue+0x3e>
C:\Users\29275\Desktop\WchWorkSPace\camCoreWithRTOS\obj/../Libraries/rtthread_libraries/components/finsh/cmd.c:260
        rt_kprintf("%s", thread->name);
    3e78:	fec40593          	addi	a1,s0,-20
    3e7c:	49490513          	addi	a0,s2,1172 # 7494 <__fsym_list_timer_name+0x2b4>
    3e80:	9d0ff0ef          	jal	ra,3050 <rt_kprintf>
C:\Users\29275\Desktop\WchWorkSPace\camCoreWithRTOS\obj/../Libraries/rtthread_libraries/components/finsh/cmd.c:262
        if (node->next != list)
    3e84:	401c                	lw	a5,0(s0)
    3e86:	fe9792e3          	bne	a5,s1,3e6a <show_wait_queue+0x1e>
C:\Users\29275\Desktop\WchWorkSPace\camCoreWithRTOS\obj/../Libraries/rtthread_libraries/components/finsh/cmd.c:265
    }
}
    3e8a:	40f2                	lw	ra,28(sp)
    3e8c:	4462                	lw	s0,24(sp)
    3e8e:	44d2                	lw	s1,20(sp)
    3e90:	4942                	lw	s2,16(sp)
    3e92:	49b2                	lw	s3,12(sp)
    3e94:	6105                	addi	sp,sp,32
    3e96:	8082                	ret

00003e98 <version>:
version():
C:\Users\29275\Desktop\WchWorkSPace\camCoreWithRTOS\obj/../Libraries/rtthread_libraries/components/finsh/cmd.c:53
{
    3e98:	1141                	addi	sp,sp,-16
    3e9a:	c606                	sw	ra,12(sp)
C:\Users\29275\Desktop\WchWorkSPace\camCoreWithRTOS\obj/../Libraries/rtthread_libraries/components/finsh/cmd.c:54
    rt_show_version();
    3e9c:	9eaff0ef          	jal	ra,3086 <rt_show_version>
C:\Users\29275\Desktop\WchWorkSPace\camCoreWithRTOS\obj/../Libraries/rtthread_libraries/components/finsh/cmd.c:57
}
    3ea0:	4501                	li	a0,0
    3ea2:	40b2                	lw	ra,12(sp)
    3ea4:	0141                	addi	sp,sp,16
    3ea6:	8082                	ret

00003ea8 <list_get_next>:
list_get_next():
C:\Users\29275\Desktop\WchWorkSPace\camCoreWithRTOS\obj/../Libraries/rtthread_libraries/components/finsh/cmd.c:91
{
    3ea8:	1101                	addi	sp,sp,-32
    3eaa:	ce06                	sw	ra,28(sp)
    3eac:	cc22                	sw	s0,24(sp)
    3eae:	ca26                	sw	s1,20(sp)
    3eb0:	c84a                	sw	s2,16(sp)
    3eb2:	c64e                	sw	s3,12(sp)
C:\Users\29275\Desktop\WchWorkSPace\camCoreWithRTOS\obj/../Libraries/rtthread_libraries/components/finsh/cmd.c:98
    arg->nr_out = 0;
    3eb4:	0005a823          	sw	zero,16(a1)
C:\Users\29275\Desktop\WchWorkSPace\camCoreWithRTOS\obj/../Libraries/rtthread_libraries/components/finsh/cmd.c:100
    if (!arg->nr || !arg->type)
    3eb8:	45dc                	lw	a5,12(a1)
    3eba:	c3bd                	beqz	a5,3f20 <list_get_next+0x78>
C:\Users\29275\Desktop\WchWorkSPace\camCoreWithRTOS\obj/../Libraries/rtthread_libraries/components/finsh/cmd.c:100 (discriminator 1)
    3ebc:	0085c783          	lbu	a5,8(a1)
    3ec0:	c3b5                	beqz	a5,3f24 <list_get_next+0x7c>
    3ec2:	892e                	mv	s2,a1
    3ec4:	842a                	mv	s0,a0
C:\Users\29275\Desktop\WchWorkSPace\camCoreWithRTOS\obj/../Libraries/rtthread_libraries/components/finsh/cmd.c:105
    list = arg->list;
    3ec6:	0005a983          	lw	s3,0(a1)
C:\Users\29275\Desktop\WchWorkSPace\camCoreWithRTOS\obj/../Libraries/rtthread_libraries/components/finsh/cmd.c:107
    if (!current) /* find first */
    3eca:	cd39                	beqz	a0,3f28 <list_get_next+0x80>
C:\Users\29275\Desktop\WchWorkSPace\camCoreWithRTOS\obj/../Libraries/rtthread_libraries/components/finsh/cmd.c:117
    level = rt_hw_interrupt_disable();
    3ecc:	a74fc0ef          	jal	ra,140 <rt_hw_interrupt_disable>
C:\Users\29275\Desktop\WchWorkSPace\camCoreWithRTOS\obj/../Libraries/rtthread_libraries/components/finsh/cmd.c:124
        if ((obj->type & ~RT_Object_Class_Static) != arg->type)
    3ed0:	ffc44783          	lbu	a5,-4(s0)
    3ed4:	f7f7f793          	andi	a5,a5,-129
    3ed8:	00894703          	lbu	a4,8(s2)
    3edc:	02e79163          	bne	a5,a4,3efe <list_get_next+0x56>
C:\Users\29275\Desktop\WchWorkSPace\camCoreWithRTOS\obj/../Libraries/rtthread_libraries/components/finsh/cmd.c:132
    array = arg->array;
    3ee0:	00492783          	lw	a5,4(s2)
C:\Users\29275\Desktop\WchWorkSPace\camCoreWithRTOS\obj/../Libraries/rtthread_libraries/components/finsh/cmd.c:131
    nr = 0;
    3ee4:	4481                	li	s1,0
C:\Users\29275\Desktop\WchWorkSPace\camCoreWithRTOS\obj/../Libraries/rtthread_libraries/components/finsh/cmd.c:135
        node = node->next;
    3ee6:	4000                	lw	s0,0(s0)
C:\Users\29275\Desktop\WchWorkSPace\camCoreWithRTOS\obj/../Libraries/rtthread_libraries/components/finsh/cmd.c:137
        if (node == list)
    3ee8:	00898f63          	beq	s3,s0,3f06 <list_get_next+0x5e>
C:\Users\29275\Desktop\WchWorkSPace\camCoreWithRTOS\obj/../Libraries/rtthread_libraries/components/finsh/cmd.c:142
        nr++;
    3eec:	0485                	addi	s1,s1,1
C:\Users\29275\Desktop\WchWorkSPace\camCoreWithRTOS\obj/../Libraries/rtthread_libraries/components/finsh/cmd.c:143
        *array++ = node;
    3eee:	0791                	addi	a5,a5,4
    3ef0:	fe87ae23          	sw	s0,-4(a5)
C:\Users\29275\Desktop\WchWorkSPace\camCoreWithRTOS\obj/../Libraries/rtthread_libraries/components/finsh/cmd.c:144
        if (nr == arg->nr)
    3ef4:	00c92703          	lw	a4,12(s2)
    3ef8:	fe9717e3          	bne	a4,s1,3ee6 <list_get_next+0x3e>
    3efc:	a031                	j	3f08 <list_get_next+0x60>
C:\Users\29275\Desktop\WchWorkSPace\camCoreWithRTOS\obj/../Libraries/rtthread_libraries/components/finsh/cmd.c:126
            rt_hw_interrupt_enable(level);
    3efe:	a48fc0ef          	jal	ra,146 <rt_hw_interrupt_enable>
C:\Users\29275\Desktop\WchWorkSPace\camCoreWithRTOS\obj/../Libraries/rtthread_libraries/components/finsh/cmd.c:127
            return (rt_list_t *)RT_NULL;
    3f02:	4401                	li	s0,0
    3f04:	a031                	j	3f10 <list_get_next+0x68>
C:\Users\29275\Desktop\WchWorkSPace\camCoreWithRTOS\obj/../Libraries/rtthread_libraries/components/finsh/cmd.c:139
            node = (rt_list_t *)RT_NULL;
    3f06:	4401                	li	s0,0
C:\Users\29275\Desktop\WchWorkSPace\camCoreWithRTOS\obj/../Libraries/rtthread_libraries/components/finsh/cmd.c:150
    rt_hw_interrupt_enable(level);
    3f08:	a3efc0ef          	jal	ra,146 <rt_hw_interrupt_enable>
C:\Users\29275\Desktop\WchWorkSPace\camCoreWithRTOS\obj/../Libraries/rtthread_libraries/components/finsh/cmd.c:151
    arg->nr_out = nr;
    3f0c:	00992823          	sw	s1,16(s2)
C:\Users\29275\Desktop\WchWorkSPace\camCoreWithRTOS\obj/../Libraries/rtthread_libraries/components/finsh/cmd.c:153
}
    3f10:	8522                	mv	a0,s0
    3f12:	40f2                	lw	ra,28(sp)
    3f14:	4462                	lw	s0,24(sp)
    3f16:	44d2                	lw	s1,20(sp)
    3f18:	4942                	lw	s2,16(sp)
    3f1a:	49b2                	lw	s3,12(sp)
    3f1c:	6105                	addi	sp,sp,32
    3f1e:	8082                	ret
C:\Users\29275\Desktop\WchWorkSPace\camCoreWithRTOS\obj/../Libraries/rtthread_libraries/components/finsh/cmd.c:102
        return (rt_list_t *)RT_NULL;
    3f20:	4401                	li	s0,0
    3f22:	b7fd                	j	3f10 <list_get_next+0x68>
    3f24:	4401                	li	s0,0
    3f26:	b7ed                	j	3f10 <list_get_next+0x68>
C:\Users\29275\Desktop\WchWorkSPace\camCoreWithRTOS\obj/../Libraries/rtthread_libraries/components/finsh/cmd.c:117
    level = rt_hw_interrupt_disable();
    3f28:	a18fc0ef          	jal	ra,140 <rt_hw_interrupt_disable>
C:\Users\29275\Desktop\WchWorkSPace\camCoreWithRTOS\obj/../Libraries/rtthread_libraries/components/finsh/cmd.c:109
        node = list;
    3f2c:	844e                	mv	s0,s3
    3f2e:	bf4d                	j	3ee0 <list_get_next+0x38>

00003f30 <list_thread>:
list_thread():
C:\Users\29275\Desktop\WchWorkSPace\camCoreWithRTOS\obj/../Libraries/rtthread_libraries/components/finsh/cmd.c:156
{
    3f30:	7151                	addi	sp,sp,-240
    3f32:	d786                	sw	ra,236(sp)
    3f34:	d5a2                	sw	s0,232(sp)
    3f36:	d3a6                	sw	s1,228(sp)
    3f38:	d1ca                	sw	s2,224(sp)
    3f3a:	cfce                	sw	s3,220(sp)
    3f3c:	cdd2                	sw	s4,216(sp)
    3f3e:	cbd6                	sw	s5,212(sp)
    3f40:	c9da                	sw	s6,208(sp)
    3f42:	c7de                	sw	s7,204(sp)
    3f44:	c5e2                	sw	s8,200(sp)
    3f46:	c3e6                	sw	s9,196(sp)
    3f48:	c1ea                	sw	s10,192(sp)
    3f4a:	df6e                	sw	s11,188(sp)
list_find_init():
C:\Users\29275\Desktop\WchWorkSPace\camCoreWithRTOS\obj/../Libraries/rtthread_libraries/components/finsh/cmd.c:80
    info = rt_object_get_information((enum rt_object_class_type)type);
    3f4c:	4505                	li	a0,1
    3f4e:	d0cff0ef          	jal	ra,345a <rt_object_get_information>
C:\Users\29275\Desktop\WchWorkSPace\camCoreWithRTOS\obj/../Libraries/rtthread_libraries/components/finsh/cmd.c:81
    list = &info->object_list;
    3f52:	0511                	addi	a0,a0,4
C:\Users\29275\Desktop\WchWorkSPace\camCoreWithRTOS\obj/../Libraries/rtthread_libraries/components/finsh/cmd.c:83
    p->list = list;
    3f54:	cf2a                	sw	a0,156(sp)
C:\Users\29275\Desktop\WchWorkSPace\camCoreWithRTOS\obj/../Libraries/rtthread_libraries/components/finsh/cmd.c:84
    p->type = type;
    3f56:	4785                	li	a5,1
    3f58:	0af10223          	sb	a5,164(sp)
C:\Users\29275\Desktop\WchWorkSPace\camCoreWithRTOS\obj/../Libraries/rtthread_libraries/components/finsh/cmd.c:85
    p->array = array;
    3f5c:	18fc                	addi	a5,sp,124
    3f5e:	d13e                	sw	a5,160(sp)
C:\Users\29275\Desktop\WchWorkSPace\camCoreWithRTOS\obj/../Libraries/rtthread_libraries/components/finsh/cmd.c:86
    p->nr = nr;
    3f60:	47a1                	li	a5,8
    3f62:	d53e                	sw	a5,168(sp)
C:\Users\29275\Desktop\WchWorkSPace\camCoreWithRTOS\obj/../Libraries/rtthread_libraries/components/finsh/cmd.c:87
    p->nr_out = 0;
    3f64:	d702                	sw	zero,172(sp)
list_thread():
C:\Users\29275\Desktop\WchWorkSPace\camCoreWithRTOS\obj/../Libraries/rtthread_libraries/components/finsh/cmd.c:172
    rt_kprintf("%-*.s pri  status      sp     stack size max used left tick  error\n", maxlen, item_title); object_split(maxlen);
    3f66:	00007637          	lui	a2,0x7
    3f6a:	2f460613          	addi	a2,a2,756 # 72f4 <__fsym_list_timer_name+0x114>
    3f6e:	45a1                	li	a1,8
    3f70:	00007537          	lui	a0,0x7
    3f74:	2fc50513          	addi	a0,a0,764 # 72fc <__fsym_list_timer_name+0x11c>
    3f78:	8d8ff0ef          	jal	ra,3050 <rt_kprintf>
    3f7c:	4421                	li	s0,8
object_split():
C:\Users\29275\Desktop\WchWorkSPace\camCoreWithRTOS\obj/../Libraries/rtthread_libraries/components/finsh/cmd.c:63
    while (len--) rt_kprintf("-");
    3f7e:	000074b7          	lui	s1,0x7
    3f82:	34048513          	addi	a0,s1,832 # 7340 <__fsym_list_timer_name+0x160>
    3f86:	8caff0ef          	jal	ra,3050 <rt_kprintf>
    3f8a:	147d                	addi	s0,s0,-1
    3f8c:	f87d                	bnez	s0,3f82 <list_thread+0x52>
list_thread():
C:\Users\29275\Desktop\WchWorkSPace\camCoreWithRTOS\obj/../Libraries/rtthread_libraries/components/finsh/cmd.c:173
    rt_kprintf(     " ---  ------- ---------- ----------  ------  ---------- ---\n");
    3f8e:	00007537          	lui	a0,0x7
    3f92:	34450513          	addi	a0,a0,836 # 7344 <__fsym_list_timer_name+0x164>
    3f96:	8baff0ef          	jal	ra,3050 <rt_kprintf>
C:\Users\29275\Desktop\WchWorkSPace\camCoreWithRTOS\obj/../Libraries/rtthread_libraries/components/finsh/cmd.c:160
    rt_list_t *next = (rt_list_t*)RT_NULL;
    3f9a:	4a81                	li	s5,0
C:\Users\29275\Desktop\WchWorkSPace\camCoreWithRTOS\obj/../Libraries/rtthread_libraries/components/finsh/cmd.c:210
                    rt_kprintf("%-*.*s %3d ", maxlen, RT_NAME_MAX, thread->name, thread->current_priority);
    3f9c:	00007bb7          	lui	s7,0x7
C:\Users\29275\Desktop\WchWorkSPace\camCoreWithRTOS\obj/../Libraries/rtthread_libraries/components/finsh/cmd.c:233
                    rt_kprintf(" 0x%08x 0x%08x    %02d%%   0x%08x %03d\n",
    3fa0:	00007b37          	lui	s6,0x7
C:\Users\29275\Desktop\WchWorkSPace\camCoreWithRTOS\obj/../Libraries/rtthread_libraries/components/finsh/cmd.c:216
                    else if (stat == RT_THREAD_CLOSE)   rt_kprintf(" close  ");
    3fa4:	00007db7          	lui	s11,0x7
    3fa8:	a8d5                	j	409c <list_thread+0x16c>
C:\Users\29275\Desktop\WchWorkSPace\camCoreWithRTOS\obj/../Libraries/rtthread_libraries/components/finsh/cmd.c:186
                obj = rt_list_entry(obj_list[i], struct rt_object, list);
    3faa:	ff440a13          	addi	s4,s0,-12
C:\Users\29275\Desktop\WchWorkSPace\camCoreWithRTOS\obj/../Libraries/rtthread_libraries/components/finsh/cmd.c:195
                memcpy(&thread_info, obj, sizeof thread_info);
    3fae:	07800613          	li	a2,120
    3fb2:	85d2                	mv	a1,s4
    3fb4:	0048                	addi	a0,sp,4
    3fb6:	31e010ef          	jal	ra,52d4 <memcpy>
C:\Users\29275\Desktop\WchWorkSPace\camCoreWithRTOS\obj/../Libraries/rtthread_libraries/components/finsh/cmd.c:196
                rt_hw_interrupt_enable(level);
    3fba:	854e                	mv	a0,s3
    3fbc:	98afc0ef          	jal	ra,146 <rt_hw_interrupt_enable>
C:\Users\29275\Desktop\WchWorkSPace\camCoreWithRTOS\obj/../Libraries/rtthread_libraries/components/finsh/cmd.c:210
                    rt_kprintf("%-*.*s %3d ", maxlen, RT_NAME_MAX, thread->name, thread->current_priority);
    3fc0:	02944703          	lbu	a4,41(s0)
    3fc4:	86d2                	mv	a3,s4
    3fc6:	4621                	li	a2,8
    3fc8:	45a1                	li	a1,8
    3fca:	384b8513          	addi	a0,s7,900 # 7384 <__fsym_list_timer_name+0x1a4>
    3fce:	882ff0ef          	jal	ra,3050 <rt_kprintf>
C:\Users\29275\Desktop\WchWorkSPace\camCoreWithRTOS\obj/../Libraries/rtthread_libraries/components/finsh/cmd.c:212
                    stat = (thread->stat & RT_THREAD_STAT_MASK);
    3fd2:	02844783          	lbu	a5,40(s0)
    3fd6:	8bbd                	andi	a5,a5,15
C:\Users\29275\Desktop\WchWorkSPace\camCoreWithRTOS\obj/../Libraries/rtthread_libraries/components/finsh/cmd.c:213
                    if (stat == RT_THREAD_READY)        rt_kprintf(" ready  ");
    3fd8:	4705                	li	a4,1
    3fda:	08e78263          	beq	a5,a4,405e <list_thread+0x12e>
C:\Users\29275\Desktop\WchWorkSPace\camCoreWithRTOS\obj/../Libraries/rtthread_libraries/components/finsh/cmd.c:214
                    else if (stat == RT_THREAD_SUSPEND) rt_kprintf(" suspend");
    3fde:	4709                	li	a4,2
    3fe0:	08e78463          	beq	a5,a4,4068 <list_thread+0x138>
C:\Users\29275\Desktop\WchWorkSPace\camCoreWithRTOS\obj/../Libraries/rtthread_libraries/components/finsh/cmd.c:215
                    else if (stat == RT_THREAD_INIT)    rt_kprintf(" init   ");
    3fe4:	c7d9                	beqz	a5,4072 <list_thread+0x142>
C:\Users\29275\Desktop\WchWorkSPace\camCoreWithRTOS\obj/../Libraries/rtthread_libraries/components/finsh/cmd.c:216
                    else if (stat == RT_THREAD_CLOSE)   rt_kprintf(" close  ");
    3fe6:	4711                	li	a4,4
    3fe8:	08e78a63          	beq	a5,a4,407c <list_thread+0x14c>
C:\Users\29275\Desktop\WchWorkSPace\camCoreWithRTOS\obj/../Libraries/rtthread_libraries/components/finsh/cmd.c:217
                    else if (stat == RT_THREAD_RUNNING) rt_kprintf(" running");
    3fec:	470d                	li	a4,3
    3fee:	08e78c63          	beq	a5,a4,4086 <list_thread+0x156>
C:\Users\29275\Desktop\WchWorkSPace\camCoreWithRTOS\obj/../Libraries/rtthread_libraries/components/finsh/cmd.c:230
                    ptr = (rt_uint8_t *)thread->stack_addr;
    3ff2:	4c4c                	lw	a1,28(s0)
C:\Users\29275\Desktop\WchWorkSPace\camCoreWithRTOS\obj/../Libraries/rtthread_libraries/components/finsh/cmd.c:231
                    while (*ptr == '#')ptr ++;
    3ff4:	0005c703          	lbu	a4,0(a1)
    3ff8:	02300793          	li	a5,35
    3ffc:	08f71c63          	bne	a4,a5,4094 <list_thread+0x164>
C:\Users\29275\Desktop\WchWorkSPace\camCoreWithRTOS\obj/../Libraries/rtthread_libraries/components/finsh/cmd.c:230
                    ptr = (rt_uint8_t *)thread->stack_addr;
    4000:	86ae                	mv	a3,a1
C:\Users\29275\Desktop\WchWorkSPace\camCoreWithRTOS\obj/../Libraries/rtthread_libraries/components/finsh/cmd.c:231
                    while (*ptr == '#')ptr ++;
    4002:	02300713          	li	a4,35
C:\Users\29275\Desktop\WchWorkSPace\camCoreWithRTOS\obj/../Libraries/rtthread_libraries/components/finsh/cmd.c:231 (discriminator 2)
    4006:	0685                	addi	a3,a3,1
    4008:	0006c783          	lbu	a5,0(a3)
    400c:	fee78de3          	beq	a5,a4,4006 <list_thread+0xd6>
C:\Users\29275\Desktop\WchWorkSPace\camCoreWithRTOS\obj/../Libraries/rtthread_libraries/components/finsh/cmd.c:234
                            thread->stack_size + ((rt_ubase_t)thread->stack_addr - (rt_ubase_t)thread->sp),
    4010:	5010                	lw	a2,32(s0)
    4012:	95b2                	add	a1,a1,a2
C:\Users\29275\Desktop\WchWorkSPace\camCoreWithRTOS\obj/../Libraries/rtthread_libraries/components/finsh/cmd.c:236
                            (thread->stack_size - ((rt_ubase_t) ptr - (rt_ubase_t) thread->stack_addr)) * 100
    4014:	40d586b3          	sub	a3,a1,a3
    4018:	06400793          	li	a5,100
    401c:	02f686b3          	mul	a3,a3,a5
C:\Users\29275\Desktop\WchWorkSPace\camCoreWithRTOS\obj/../Libraries/rtthread_libraries/components/finsh/cmd.c:233
                    rt_kprintf(" 0x%08x 0x%08x    %02d%%   0x%08x %03d\n",
    4020:	4808                	lw	a0,16(s0)
    4022:	505c                	lw	a5,36(s0)
    4024:	5858                	lw	a4,52(s0)
    4026:	02c6d6b3          	divu	a3,a3,a2
    402a:	8d89                	sub	a1,a1,a0
    402c:	3ccb0513          	addi	a0,s6,972 # 73cc <__fsym_list_timer_name+0x1ec>
    4030:	820ff0ef          	jal	ra,3050 <rt_kprintf>
C:\Users\29275\Desktop\WchWorkSPace\camCoreWithRTOS\obj/../Libraries/rtthread_libraries/components/finsh/cmd.c:181 (discriminator 2)
            for (i = 0; i < find_arg.nr_out; i++)
    4034:	0485                	addi	s1,s1,1
    4036:	0911                	addi	s2,s2,4
    4038:	57ba                	lw	a5,172(sp)
    403a:	04f4df63          	bge	s1,a5,4098 <list_thread+0x168>
C:\Users\29275\Desktop\WchWorkSPace\camCoreWithRTOS\obj/../Libraries/rtthread_libraries/components/finsh/cmd.c:186
                obj = rt_list_entry(obj_list[i], struct rt_object, list);
    403e:	00092403          	lw	s0,0(s2)
C:\Users\29275\Desktop\WchWorkSPace\camCoreWithRTOS\obj/../Libraries/rtthread_libraries/components/finsh/cmd.c:187
                level = rt_hw_interrupt_disable();
    4042:	8fefc0ef          	jal	ra,140 <rt_hw_interrupt_disable>
    4046:	89aa                	mv	s3,a0
C:\Users\29275\Desktop\WchWorkSPace\camCoreWithRTOS\obj/../Libraries/rtthread_libraries/components/finsh/cmd.c:189
                if ((obj->type & ~RT_Object_Class_Static) != find_arg.type)
    4048:	ffc44783          	lbu	a5,-4(s0)
    404c:	f7f7f793          	andi	a5,a5,-129
    4050:	0a414703          	lbu	a4,164(sp)
    4054:	f4e78be3          	beq	a5,a4,3faa <list_thread+0x7a>
C:\Users\29275\Desktop\WchWorkSPace\camCoreWithRTOS\obj/../Libraries/rtthread_libraries/components/finsh/cmd.c:191
                    rt_hw_interrupt_enable(level);
    4058:	8eefc0ef          	jal	ra,146 <rt_hw_interrupt_enable>
C:\Users\29275\Desktop\WchWorkSPace\camCoreWithRTOS\obj/../Libraries/rtthread_libraries/components/finsh/cmd.c:192
                    continue;
    405c:	bfe1                	j	4034 <list_thread+0x104>
C:\Users\29275\Desktop\WchWorkSPace\camCoreWithRTOS\obj/../Libraries/rtthread_libraries/components/finsh/cmd.c:213 (discriminator 1)
                    if (stat == RT_THREAD_READY)        rt_kprintf(" ready  ");
    405e:	390c8513          	addi	a0,s9,912
    4062:	feffe0ef          	jal	ra,3050 <rt_kprintf>
    4066:	b771                	j	3ff2 <list_thread+0xc2>
C:\Users\29275\Desktop\WchWorkSPace\camCoreWithRTOS\obj/../Libraries/rtthread_libraries/components/finsh/cmd.c:214 (discriminator 1)
                    else if (stat == RT_THREAD_SUSPEND) rt_kprintf(" suspend");
    4068:	39cd0513          	addi	a0,s10,924
    406c:	fe5fe0ef          	jal	ra,3050 <rt_kprintf>
    4070:	b749                	j	3ff2 <list_thread+0xc2>
C:\Users\29275\Desktop\WchWorkSPace\camCoreWithRTOS\obj/../Libraries/rtthread_libraries/components/finsh/cmd.c:215 (discriminator 1)
                    else if (stat == RT_THREAD_INIT)    rt_kprintf(" init   ");
    4072:	3a8c0513          	addi	a0,s8,936
    4076:	fdbfe0ef          	jal	ra,3050 <rt_kprintf>
    407a:	bfa5                	j	3ff2 <list_thread+0xc2>
C:\Users\29275\Desktop\WchWorkSPace\camCoreWithRTOS\obj/../Libraries/rtthread_libraries/components/finsh/cmd.c:216 (discriminator 1)
                    else if (stat == RT_THREAD_CLOSE)   rt_kprintf(" close  ");
    407c:	3b4d8513          	addi	a0,s11,948 # 73b4 <__fsym_list_timer_name+0x1d4>
    4080:	fd1fe0ef          	jal	ra,3050 <rt_kprintf>
    4084:	b7bd                	j	3ff2 <list_thread+0xc2>
C:\Users\29275\Desktop\WchWorkSPace\camCoreWithRTOS\obj/../Libraries/rtthread_libraries/components/finsh/cmd.c:217 (discriminator 1)
                    else if (stat == RT_THREAD_RUNNING) rt_kprintf(" running");
    4086:	000077b7          	lui	a5,0x7
    408a:	3c078513          	addi	a0,a5,960 # 73c0 <__fsym_list_timer_name+0x1e0>
    408e:	fc3fe0ef          	jal	ra,3050 <rt_kprintf>
    4092:	b785                	j	3ff2 <list_thread+0xc2>
C:\Users\29275\Desktop\WchWorkSPace\camCoreWithRTOS\obj/../Libraries/rtthread_libraries/components/finsh/cmd.c:230
                    ptr = (rt_uint8_t *)thread->stack_addr;
    4094:	86ae                	mv	a3,a1
    4096:	bfad                	j	4010 <list_thread+0xe0>
C:\Users\29275\Desktop\WchWorkSPace\camCoreWithRTOS\obj/../Libraries/rtthread_libraries/components/finsh/cmd.c:245
    while (next != (rt_list_t*)RT_NULL);
    4098:	020a8463          	beqz	s5,40c0 <list_thread+0x190>
C:\Users\29275\Desktop\WchWorkSPace\camCoreWithRTOS\obj/../Libraries/rtthread_libraries/components/finsh/cmd.c:178
        next = list_get_next(next, &find_arg);
    409c:	096c                	addi	a1,sp,156
    409e:	8556                	mv	a0,s5
    40a0:	e09ff0ef          	jal	ra,3ea8 <list_get_next>
    40a4:	8aaa                	mv	s5,a0
C:\Users\29275\Desktop\WchWorkSPace\camCoreWithRTOS\obj/../Libraries/rtthread_libraries/components/finsh/cmd.c:181
            for (i = 0; i < find_arg.nr_out; i++)
    40a6:	57ba                	lw	a5,172(sp)
    40a8:	fef058e3          	blez	a5,4098 <list_thread+0x168>
    40ac:	07c10913          	addi	s2,sp,124
    40b0:	4481                	li	s1,0
C:\Users\29275\Desktop\WchWorkSPace\camCoreWithRTOS\obj/../Libraries/rtthread_libraries/components/finsh/cmd.c:215
                    else if (stat == RT_THREAD_INIT)    rt_kprintf(" init   ");
    40b2:	00007c37          	lui	s8,0x7
C:\Users\29275\Desktop\WchWorkSPace\camCoreWithRTOS\obj/../Libraries/rtthread_libraries/components/finsh/cmd.c:214
                    else if (stat == RT_THREAD_SUSPEND) rt_kprintf(" suspend");
    40b6:	00007d37          	lui	s10,0x7
C:\Users\29275\Desktop\WchWorkSPace\camCoreWithRTOS\obj/../Libraries/rtthread_libraries/components/finsh/cmd.c:213
                    if (stat == RT_THREAD_READY)        rt_kprintf(" ready  ");
    40ba:	00007cb7          	lui	s9,0x7
    40be:	b741                	j	403e <list_thread+0x10e>
C:\Users\29275\Desktop\WchWorkSPace\camCoreWithRTOS\obj/../Libraries/rtthread_libraries/components/finsh/cmd.c:248
}
    40c0:	4501                	li	a0,0
    40c2:	50be                	lw	ra,236(sp)
    40c4:	542e                	lw	s0,232(sp)
    40c6:	549e                	lw	s1,228(sp)
    40c8:	590e                	lw	s2,224(sp)
    40ca:	49fe                	lw	s3,220(sp)
    40cc:	4a6e                	lw	s4,216(sp)
    40ce:	4ade                	lw	s5,212(sp)
    40d0:	4b4e                	lw	s6,208(sp)
    40d2:	4bbe                	lw	s7,204(sp)
    40d4:	4c2e                	lw	s8,200(sp)
    40d6:	4c9e                	lw	s9,196(sp)
    40d8:	4d0e                	lw	s10,192(sp)
    40da:	5dfa                	lw	s11,188(sp)
    40dc:	616d                	addi	sp,sp,240
    40de:	8082                	ret

000040e0 <list>:
list():
C:\Users\29275\Desktop\WchWorkSPace\camCoreWithRTOS\obj/../Libraries/rtthread_libraries/components/finsh/cmd.c:874
FINSH_FUNCTION_EXPORT(list_device, list device in system);
MSH_CMD_EXPORT(list_device, list device in system);
#endif

long list(void)
{
    40e0:	1101                	addi	sp,sp,-32
    40e2:	ce06                	sw	ra,28(sp)
    40e4:	cc22                	sw	s0,24(sp)
    40e6:	ca26                	sw	s1,20(sp)
    40e8:	c84a                	sw	s2,16(sp)
    40ea:	c64e                	sw	s3,12(sp)
    40ec:	c452                	sw	s4,8(sp)
C:\Users\29275\Desktop\WchWorkSPace\camCoreWithRTOS\obj/../Libraries/rtthread_libraries/components/finsh/cmd.c:880
#ifndef FINSH_USING_MSH_ONLY
    struct finsh_syscall_item *syscall_item;
    struct finsh_sysvar_item *sysvar_item;
#endif

    rt_kprintf("--Function List:\n");
    40ee:	00007537          	lui	a0,0x7
    40f2:	20050513          	addi	a0,a0,512 # 7200 <__fsym_list_timer_name+0x20>
    40f6:	f5bfe0ef          	jal	ra,3050 <rt_kprintf>
C:\Users\29275\Desktop\WchWorkSPace\camCoreWithRTOS\obj/../Libraries/rtthread_libraries/components/finsh/cmd.c:883
    {
        struct finsh_syscall *index;
        for (index = _syscall_table_begin;
    40fa:	89c1a403          	lw	s0,-1892(gp) # 2000014c <_syscall_table_begin>
    40fe:	8a01a783          	lw	a5,-1888(gp) # 20000150 <_syscall_table_end>
    4102:	02f47a63          	bgeu	s0,a5,4136 <list+0x56>
C:\Users\29275\Desktop\WchWorkSPace\camCoreWithRTOS\obj/../Libraries/rtthread_libraries/components/finsh/cmd.c:888
                index < _syscall_table_end;
                FINSH_NEXT_SYSCALL(index))
        {
            /* skip the internal command */
            if (strncmp((char *)index->name, "__", 2) == 0) continue;
    4106:	000079b7          	lui	s3,0x7
C:\Users\29275\Desktop\WchWorkSPace\camCoreWithRTOS\obj/../Libraries/rtthread_libraries/components/finsh/cmd.c:893

#ifdef FINSH_USING_DESCRIPTION
            rt_kprintf("%-16s -- %s\n", index->name, index->desc);
#else
            rt_kprintf("%s\n", index->name);
    410a:	00007a37          	lui	s4,0x7
C:\Users\29275\Desktop\WchWorkSPace\camCoreWithRTOS\obj/../Libraries/rtthread_libraries/components/finsh/cmd.c:884
                index < _syscall_table_end;
    410e:	a031                	j	411a <list+0x3a>
C:\Users\29275\Desktop\WchWorkSPace\camCoreWithRTOS\obj/../Libraries/rtthread_libraries/components/finsh/cmd.c:885
                FINSH_NEXT_SYSCALL(index))
    4110:	0421                	addi	s0,s0,8
C:\Users\29275\Desktop\WchWorkSPace\camCoreWithRTOS\obj/../Libraries/rtthread_libraries/components/finsh/cmd.c:883
        for (index = _syscall_table_begin;
    4112:	8a01a783          	lw	a5,-1888(gp) # 20000150 <_syscall_table_end>
    4116:	02f47063          	bgeu	s0,a5,4136 <list+0x56>
C:\Users\29275\Desktop\WchWorkSPace\camCoreWithRTOS\obj/../Libraries/rtthread_libraries/components/finsh/cmd.c:888
            if (strncmp((char *)index->name, "__", 2) == 0) continue;
    411a:	4004                	lw	s1,0(s0)
    411c:	4609                	li	a2,2
    411e:	21498593          	addi	a1,s3,532 # 7214 <__fsym_list_timer_name+0x34>
    4122:	8526                	mv	a0,s1
    4124:	17d010ef          	jal	ra,5aa0 <strncmp>
    4128:	d565                	beqz	a0,4110 <list+0x30>
C:\Users\29275\Desktop\WchWorkSPace\camCoreWithRTOS\obj/../Libraries/rtthread_libraries/components/finsh/cmd.c:893
            rt_kprintf("%s\n", index->name);
    412a:	85a6                	mv	a1,s1
    412c:	218a0513          	addi	a0,s4,536 # 7218 <__fsym_list_timer_name+0x38>
    4130:	f21fe0ef          	jal	ra,3050 <rt_kprintf>
    4134:	bff1                	j	4110 <list+0x30>
C:\Users\29275\Desktop\WchWorkSPace\camCoreWithRTOS\obj/../Libraries/rtthread_libraries/components/finsh/cmd.c:931
        sysvar_item = sysvar_item->next;
    }
#endif

    return 0;
}
    4136:	4501                	li	a0,0
    4138:	40f2                	lw	ra,28(sp)
    413a:	4462                	lw	s0,24(sp)
    413c:	44d2                	lw	s1,20(sp)
    413e:	4942                	lw	s2,16(sp)
    4140:	49b2                	lw	s3,12(sp)
    4142:	4a22                	lw	s4,8(sp)
    4144:	6105                	addi	sp,sp,32
    4146:	8082                	ret

00004148 <list_timer>:
list_timer():
C:\Users\29275\Desktop\WchWorkSPace\camCoreWithRTOS\obj/../Libraries/rtthread_libraries/components/finsh/cmd.c:733
{
    4148:	711d                	addi	sp,sp,-96
    414a:	ce86                	sw	ra,92(sp)
    414c:	cca2                	sw	s0,88(sp)
    414e:	caa6                	sw	s1,84(sp)
    4150:	c8ca                	sw	s2,80(sp)
    4152:	c6ce                	sw	s3,76(sp)
    4154:	c4d2                	sw	s4,72(sp)
    4156:	c2d6                	sw	s5,68(sp)
    4158:	c0da                	sw	s6,64(sp)
list_find_init():
C:\Users\29275\Desktop\WchWorkSPace\camCoreWithRTOS\obj/../Libraries/rtthread_libraries/components/finsh/cmd.c:80
    info = rt_object_get_information((enum rt_object_class_type)type);
    415a:	4529                	li	a0,10
    415c:	afeff0ef          	jal	ra,345a <rt_object_get_information>
C:\Users\29275\Desktop\WchWorkSPace\camCoreWithRTOS\obj/../Libraries/rtthread_libraries/components/finsh/cmd.c:81
    list = &info->object_list;
    4160:	0511                	addi	a0,a0,4
C:\Users\29275\Desktop\WchWorkSPace\camCoreWithRTOS\obj/../Libraries/rtthread_libraries/components/finsh/cmd.c:83
    p->list = list;
    4162:	d62a                	sw	a0,44(sp)
C:\Users\29275\Desktop\WchWorkSPace\camCoreWithRTOS\obj/../Libraries/rtthread_libraries/components/finsh/cmd.c:84
    p->type = type;
    4164:	47a9                	li	a5,10
    4166:	02f10a23          	sb	a5,52(sp)
C:\Users\29275\Desktop\WchWorkSPace\camCoreWithRTOS\obj/../Libraries/rtthread_libraries/components/finsh/cmd.c:85
    p->array = array;
    416a:	007c                	addi	a5,sp,12
    416c:	d83e                	sw	a5,48(sp)
C:\Users\29275\Desktop\WchWorkSPace\camCoreWithRTOS\obj/../Libraries/rtthread_libraries/components/finsh/cmd.c:86
    p->nr = nr;
    416e:	47a1                	li	a5,8
    4170:	dc3e                	sw	a5,56(sp)
C:\Users\29275\Desktop\WchWorkSPace\camCoreWithRTOS\obj/../Libraries/rtthread_libraries/components/finsh/cmd.c:87
    p->nr_out = 0;
    4172:	de02                	sw	zero,60(sp)
list_timer():
C:\Users\29275\Desktop\WchWorkSPace\camCoreWithRTOS\obj/../Libraries/rtthread_libraries/components/finsh/cmd.c:746
    rt_kprintf("%-*.s  periodic   timeout       flag\n", maxlen, item_title); object_split(maxlen);
    4174:	00007637          	lui	a2,0x7
    4178:	3f460613          	addi	a2,a2,1012 # 73f4 <__fsym_list_timer_name+0x214>
    417c:	45a1                	li	a1,8
    417e:	00007537          	lui	a0,0x7
    4182:	3fc50513          	addi	a0,a0,1020 # 73fc <__fsym_list_timer_name+0x21c>
    4186:	ecbfe0ef          	jal	ra,3050 <rt_kprintf>
    418a:	4421                	li	s0,8
object_split():
C:\Users\29275\Desktop\WchWorkSPace\camCoreWithRTOS\obj/../Libraries/rtthread_libraries/components/finsh/cmd.c:63
    while (len--) rt_kprintf("-");
    418c:	000074b7          	lui	s1,0x7
    4190:	34048513          	addi	a0,s1,832 # 7340 <__fsym_list_timer_name+0x160>
    4194:	ebdfe0ef          	jal	ra,3050 <rt_kprintf>
    4198:	147d                	addi	s0,s0,-1
    419a:	f87d                	bnez	s0,4190 <list_timer+0x48>
list_timer():
C:\Users\29275\Desktop\WchWorkSPace\camCoreWithRTOS\obj/../Libraries/rtthread_libraries/components/finsh/cmd.c:747
    rt_kprintf(     " ---------- ---------- -----------\n");
    419c:	00007537          	lui	a0,0x7
    41a0:	42450513          	addi	a0,a0,1060 # 7424 <__fsym_list_timer_name+0x244>
    41a4:	eadfe0ef          	jal	ra,3050 <rt_kprintf>
C:\Users\29275\Desktop\WchWorkSPace\camCoreWithRTOS\obj/../Libraries/rtthread_libraries/components/finsh/cmd.c:737
    rt_list_t *next = (rt_list_t*)RT_NULL;
    41a8:	4a01                	li	s4,0
C:\Users\29275\Desktop\WchWorkSPace\camCoreWithRTOS\obj/../Libraries/rtthread_libraries/components/finsh/cmd.c:768
                rt_kprintf("%-*.*s 0x%08x 0x%08x ",
    41aa:	000079b7          	lui	s3,0x7
C:\Users\29275\Desktop\WchWorkSPace\camCoreWithRTOS\obj/../Libraries/rtthread_libraries/components/finsh/cmd.c:776
                    rt_kprintf("deactivated\n");
    41ae:	00007b37          	lui	s6,0x7
C:\Users\29275\Desktop\WchWorkSPace\camCoreWithRTOS\obj/../Libraries/rtthread_libraries/components/finsh/cmd.c:774
                    rt_kprintf("activated\n");
    41b2:	00007ab7          	lui	s5,0x7
    41b6:	a085                	j	4216 <list_timer+0xce>
C:\Users\29275\Desktop\WchWorkSPace\camCoreWithRTOS\obj/../Libraries/rtthread_libraries/components/finsh/cmd.c:761
                    rt_hw_interrupt_enable(level);
    41b8:	f8ffb0ef          	jal	ra,146 <rt_hw_interrupt_enable>
C:\Users\29275\Desktop\WchWorkSPace\camCoreWithRTOS\obj/../Libraries/rtthread_libraries/components/finsh/cmd.c:752 (discriminator 2)
            for (i = 0; i < find_arg.nr_out; i++)
    41bc:	0485                	addi	s1,s1,1
    41be:	0911                	addi	s2,s2,4
    41c0:	57f2                	lw	a5,60(sp)
    41c2:	04f4d863          	bge	s1,a5,4212 <list_timer+0xca>
C:\Users\29275\Desktop\WchWorkSPace\camCoreWithRTOS\obj/../Libraries/rtthread_libraries/components/finsh/cmd.c:757
                obj = rt_list_entry(obj_list[i], struct rt_object, list);
    41c6:	00092403          	lw	s0,0(s2)
C:\Users\29275\Desktop\WchWorkSPace\camCoreWithRTOS\obj/../Libraries/rtthread_libraries/components/finsh/cmd.c:758
                level = rt_hw_interrupt_disable();
    41ca:	f77fb0ef          	jal	ra,140 <rt_hw_interrupt_disable>
C:\Users\29275\Desktop\WchWorkSPace\camCoreWithRTOS\obj/../Libraries/rtthread_libraries/components/finsh/cmd.c:759
                if ((obj->type & ~RT_Object_Class_Static) != find_arg.type)
    41ce:	ffc44783          	lbu	a5,-4(s0)
    41d2:	f7f7f793          	andi	a5,a5,-129
    41d6:	03414703          	lbu	a4,52(sp)
    41da:	fce79fe3          	bne	a5,a4,41b8 <list_timer+0x70>
C:\Users\29275\Desktop\WchWorkSPace\camCoreWithRTOS\obj/../Libraries/rtthread_libraries/components/finsh/cmd.c:765
                rt_hw_interrupt_enable(level);
    41de:	f69fb0ef          	jal	ra,146 <rt_hw_interrupt_enable>
C:\Users\29275\Desktop\WchWorkSPace\camCoreWithRTOS\obj/../Libraries/rtthread_libraries/components/finsh/cmd.c:768
                rt_kprintf("%-*.*s 0x%08x 0x%08x ",
    41e2:	4c5c                	lw	a5,28(s0)
    41e4:	4c18                	lw	a4,24(s0)
    41e6:	ff440693          	addi	a3,s0,-12
    41ea:	4621                	li	a2,8
    41ec:	45a1                	li	a1,8
    41ee:	44898513          	addi	a0,s3,1096 # 7448 <__fsym_list_timer_name+0x268>
    41f2:	e5ffe0ef          	jal	ra,3050 <rt_kprintf>
C:\Users\29275\Desktop\WchWorkSPace\camCoreWithRTOS\obj/../Libraries/rtthread_libraries/components/finsh/cmd.c:773
                if (timer->parent.flag & RT_TIMER_FLAG_ACTIVATED)
    41f6:	ffd44783          	lbu	a5,-3(s0)
    41fa:	8b85                	andi	a5,a5,1
    41fc:	c791                	beqz	a5,4208 <list_timer+0xc0>
C:\Users\29275\Desktop\WchWorkSPace\camCoreWithRTOS\obj/../Libraries/rtthread_libraries/components/finsh/cmd.c:774
                    rt_kprintf("activated\n");
    41fe:	460a8513          	addi	a0,s5,1120 # 7460 <__fsym_list_timer_name+0x280>
    4202:	e4ffe0ef          	jal	ra,3050 <rt_kprintf>
    4206:	bf5d                	j	41bc <list_timer+0x74>
C:\Users\29275\Desktop\WchWorkSPace\camCoreWithRTOS\obj/../Libraries/rtthread_libraries/components/finsh/cmd.c:776
                    rt_kprintf("deactivated\n");
    4208:	46cb0513          	addi	a0,s6,1132 # 746c <__fsym_list_timer_name+0x28c>
    420c:	e45fe0ef          	jal	ra,3050 <rt_kprintf>
    4210:	b775                	j	41bc <list_timer+0x74>
C:\Users\29275\Desktop\WchWorkSPace\camCoreWithRTOS\obj/../Libraries/rtthread_libraries/components/finsh/cmd.c:781
    while (next != (rt_list_t*)RT_NULL);
    4212:	000a0e63          	beqz	s4,422e <list_timer+0xe6>
C:\Users\29275\Desktop\WchWorkSPace\camCoreWithRTOS\obj/../Libraries/rtthread_libraries/components/finsh/cmd.c:749
        next = list_get_next(next, &find_arg);
    4216:	106c                	addi	a1,sp,44
    4218:	8552                	mv	a0,s4
    421a:	c8fff0ef          	jal	ra,3ea8 <list_get_next>
    421e:	8a2a                	mv	s4,a0
C:\Users\29275\Desktop\WchWorkSPace\camCoreWithRTOS\obj/../Libraries/rtthread_libraries/components/finsh/cmd.c:752
            for (i = 0; i < find_arg.nr_out; i++)
    4220:	57f2                	lw	a5,60(sp)
    4222:	fef058e3          	blez	a5,4212 <list_timer+0xca>
    4226:	00c10913          	addi	s2,sp,12
    422a:	4481                	li	s1,0
    422c:	bf69                	j	41c6 <list_timer+0x7e>
C:\Users\29275\Desktop\WchWorkSPace\camCoreWithRTOS\obj/../Libraries/rtthread_libraries/components/finsh/cmd.c:783
    rt_kprintf("current tick:0x%08x\n", rt_tick_get());
    422e:	fc1fd0ef          	jal	ra,21ee <rt_tick_get>
    4232:	85aa                	mv	a1,a0
    4234:	00007537          	lui	a0,0x7
    4238:	47c50513          	addi	a0,a0,1148 # 747c <__fsym_list_timer_name+0x29c>
    423c:	e15fe0ef          	jal	ra,3050 <rt_kprintf>
C:\Users\29275\Desktop\WchWorkSPace\camCoreWithRTOS\obj/../Libraries/rtthread_libraries/components/finsh/cmd.c:786
}
    4240:	4501                	li	a0,0
    4242:	40f6                	lw	ra,92(sp)
    4244:	4466                	lw	s0,88(sp)
    4246:	44d6                	lw	s1,84(sp)
    4248:	4946                	lw	s2,80(sp)
    424a:	49b6                	lw	s3,76(sp)
    424c:	4a26                	lw	s4,72(sp)
    424e:	4a96                	lw	s5,68(sp)
    4250:	4b06                	lw	s6,64(sp)
    4252:	6125                	addi	sp,sp,96
    4254:	8082                	ret

00004256 <list_mailbox>:
list_mailbox():
C:\Users\29275\Desktop\WchWorkSPace\camCoreWithRTOS\obj/../Libraries/rtthread_libraries/components/finsh/cmd.c:459
{
    4256:	7159                	addi	sp,sp,-112
    4258:	d686                	sw	ra,108(sp)
    425a:	d4a2                	sw	s0,104(sp)
    425c:	d2a6                	sw	s1,100(sp)
    425e:	d0ca                	sw	s2,96(sp)
    4260:	cece                	sw	s3,92(sp)
    4262:	ccd2                	sw	s4,88(sp)
    4264:	cad6                	sw	s5,84(sp)
    4266:	c8da                	sw	s6,80(sp)
    4268:	c6de                	sw	s7,76(sp)
list_find_init():
C:\Users\29275\Desktop\WchWorkSPace\camCoreWithRTOS\obj/../Libraries/rtthread_libraries/components/finsh/cmd.c:80
    info = rt_object_get_information((enum rt_object_class_type)type);
    426a:	4515                	li	a0,5
    426c:	9eeff0ef          	jal	ra,345a <rt_object_get_information>
C:\Users\29275\Desktop\WchWorkSPace\camCoreWithRTOS\obj/../Libraries/rtthread_libraries/components/finsh/cmd.c:81
    list = &info->object_list;
    4270:	0511                	addi	a0,a0,4
C:\Users\29275\Desktop\WchWorkSPace\camCoreWithRTOS\obj/../Libraries/rtthread_libraries/components/finsh/cmd.c:83
    p->list = list;
    4272:	d62a                	sw	a0,44(sp)
C:\Users\29275\Desktop\WchWorkSPace\camCoreWithRTOS\obj/../Libraries/rtthread_libraries/components/finsh/cmd.c:84
    p->type = type;
    4274:	4795                	li	a5,5
    4276:	02f10a23          	sb	a5,52(sp)
C:\Users\29275\Desktop\WchWorkSPace\camCoreWithRTOS\obj/../Libraries/rtthread_libraries/components/finsh/cmd.c:85
    p->array = array;
    427a:	007c                	addi	a5,sp,12
    427c:	d83e                	sw	a5,48(sp)
C:\Users\29275\Desktop\WchWorkSPace\camCoreWithRTOS\obj/../Libraries/rtthread_libraries/components/finsh/cmd.c:86
    p->nr = nr;
    427e:	47a1                	li	a5,8
    4280:	dc3e                	sw	a5,56(sp)
C:\Users\29275\Desktop\WchWorkSPace\camCoreWithRTOS\obj/../Libraries/rtthread_libraries/components/finsh/cmd.c:87
    p->nr_out = 0;
    4282:	de02                	sw	zero,60(sp)
list_mailbox():
C:\Users\29275\Desktop\WchWorkSPace\camCoreWithRTOS\obj/../Libraries/rtthread_libraries/components/finsh/cmd.c:472
    rt_kprintf("%-*.s entry size suspend thread\n", maxlen, item_title); object_split(maxlen);
    4284:	00007637          	lui	a2,0x7
    4288:	21c60613          	addi	a2,a2,540 # 721c <__fsym_list_timer_name+0x3c>
    428c:	45a1                	li	a1,8
    428e:	00007537          	lui	a0,0x7
    4292:	22450513          	addi	a0,a0,548 # 7224 <__fsym_list_timer_name+0x44>
    4296:	dbbfe0ef          	jal	ra,3050 <rt_kprintf>
    429a:	4421                	li	s0,8
object_split():
C:\Users\29275\Desktop\WchWorkSPace\camCoreWithRTOS\obj/../Libraries/rtthread_libraries/components/finsh/cmd.c:63
    while (len--) rt_kprintf("-");
    429c:	000074b7          	lui	s1,0x7
    42a0:	34048513          	addi	a0,s1,832 # 7340 <__fsym_list_timer_name+0x160>
    42a4:	dadfe0ef          	jal	ra,3050 <rt_kprintf>
    42a8:	147d                	addi	s0,s0,-1
    42aa:	f87d                	bnez	s0,42a0 <list_mailbox+0x4a>
list_mailbox():
C:\Users\29275\Desktop\WchWorkSPace\camCoreWithRTOS\obj/../Libraries/rtthread_libraries/components/finsh/cmd.c:473
    rt_kprintf(     " ----  ---- --------------\n");
    42ac:	00007537          	lui	a0,0x7
    42b0:	24850513          	addi	a0,a0,584 # 7248 <__fsym_list_timer_name+0x68>
    42b4:	d9dfe0ef          	jal	ra,3050 <rt_kprintf>
C:\Users\29275\Desktop\WchWorkSPace\camCoreWithRTOS\obj/../Libraries/rtthread_libraries/components/finsh/cmd.c:463
    rt_list_t *next = (rt_list_t*)RT_NULL;
    42b8:	4a01                	li	s4,0
C:\Users\29275\Desktop\WchWorkSPace\camCoreWithRTOS\obj/../Libraries/rtthread_libraries/components/finsh/cmd.c:509
                    rt_kprintf("%-*.*s %04d  %04d %d\n",
    42ba:	00007bb7          	lui	s7,0x7
C:\Users\29275\Desktop\WchWorkSPace\camCoreWithRTOS\obj/../Libraries/rtthread_libraries/components/finsh/cmd.c:498
                    rt_kprintf("%-*.*s %04d  %04d %d:",
    42be:	00007b37          	lui	s6,0x7
C:\Users\29275\Desktop\WchWorkSPace\camCoreWithRTOS\obj/../Libraries/rtthread_libraries/components/finsh/cmd.c:505
                    rt_kprintf("\n");
    42c2:	00007ab7          	lui	s5,0x7
    42c6:	a061                	j	434e <list_mailbox+0xf8>
C:\Users\29275\Desktop\WchWorkSPace\camCoreWithRTOS\obj/../Libraries/rtthread_libraries/components/finsh/cmd.c:489
                    rt_hw_interrupt_enable(level);
    42c8:	e7ffb0ef          	jal	ra,146 <rt_hw_interrupt_enable>
C:\Users\29275\Desktop\WchWorkSPace\camCoreWithRTOS\obj/../Libraries/rtthread_libraries/components/finsh/cmd.c:480 (discriminator 2)
            for (i = 0; i < find_arg.nr_out; i++)
    42cc:	0905                	addi	s2,s2,1
    42ce:	0991                	addi	s3,s3,4
    42d0:	57f2                	lw	a5,60(sp)
    42d2:	06f95c63          	bge	s2,a5,434a <list_mailbox+0xf4>
C:\Users\29275\Desktop\WchWorkSPace\camCoreWithRTOS\obj/../Libraries/rtthread_libraries/components/finsh/cmd.c:485
                obj = rt_list_entry(obj_list[i], struct rt_object, list);
    42d6:	0009a403          	lw	s0,0(s3)
C:\Users\29275\Desktop\WchWorkSPace\camCoreWithRTOS\obj/../Libraries/rtthread_libraries/components/finsh/cmd.c:486
                level = rt_hw_interrupt_disable();
    42da:	e67fb0ef          	jal	ra,140 <rt_hw_interrupt_disable>
C:\Users\29275\Desktop\WchWorkSPace\camCoreWithRTOS\obj/../Libraries/rtthread_libraries/components/finsh/cmd.c:487
                if ((obj->type & ~RT_Object_Class_Static) != find_arg.type)
    42de:	ffc44783          	lbu	a5,-4(s0)
    42e2:	f7f7f793          	andi	a5,a5,-129
    42e6:	03414703          	lbu	a4,52(sp)
    42ea:	fce79fe3          	bne	a5,a4,42c8 <list_mailbox+0x72>
C:\Users\29275\Desktop\WchWorkSPace\camCoreWithRTOS\obj/../Libraries/rtthread_libraries/components/finsh/cmd.c:493
                rt_hw_interrupt_enable(level);
    42ee:	e59fb0ef          	jal	ra,146 <rt_hw_interrupt_enable>
C:\Users\29275\Desktop\WchWorkSPace\camCoreWithRTOS\obj/../Libraries/rtthread_libraries/components/finsh/cmd.c:496
                if (!rt_list_isempty(&m->parent.suspend_thread))
    42f2:	00840493          	addi	s1,s0,8
rt_list_isempty():
C:\Users\29275\Desktop\WchWorkSPace\camCoreWithRTOS\Libraries\rtthread_libraries\include/rtservice.h:100
    return l->next == l;
    42f6:	4410                	lw	a2,8(s0)
list_mailbox():
C:\Users\29275\Desktop\WchWorkSPace\camCoreWithRTOS\obj/../Libraries/rtthread_libraries/components/finsh/cmd.c:496
    42f8:	02c48b63          	beq	s1,a2,432e <list_mailbox+0xd8>
C:\Users\29275\Desktop\WchWorkSPace\camCoreWithRTOS\obj/../Libraries/rtthread_libraries/components/finsh/cmd.c:500
                            m->parent.parent.name,
    42fc:	ff440693          	addi	a3,s0,-12
C:\Users\29275\Desktop\WchWorkSPace\camCoreWithRTOS\obj/../Libraries/rtthread_libraries/components/finsh/cmd.c:498
                    rt_kprintf("%-*.*s %04d  %04d %d:",
    4300:	01645703          	lhu	a4,22(s0)
    4304:	01445783          	lhu	a5,20(s0)
rt_list_len():
C:\Users\29275\Desktop\WchWorkSPace\camCoreWithRTOS\Libraries\rtthread_libraries\include/rtservice.h:109
 * @brief get the list length
 * @param l the list to get.
 */
rt_inline unsigned int rt_list_len(const rt_list_t *l)
{
    unsigned int len = 0;
    4308:	4801                	li	a6,0
C:\Users\29275\Desktop\WchWorkSPace\camCoreWithRTOS\Libraries\rtthread_libraries\include/rtservice.h:114
    const rt_list_t *p = l;
    while (p->next != l)
    {
        p = p->next;
        len ++;
    430a:	0805                	addi	a6,a6,1
C:\Users\29275\Desktop\WchWorkSPace\camCoreWithRTOS\Libraries\rtthread_libraries\include/rtservice.h:111
    while (p->next != l)
    430c:	4210                	lw	a2,0(a2)
    430e:	fec49ee3          	bne	s1,a2,430a <list_mailbox+0xb4>
list_mailbox():
C:\Users\29275\Desktop\WchWorkSPace\camCoreWithRTOS\obj/../Libraries/rtthread_libraries/components/finsh/cmd.c:498
    4312:	4621                	li	a2,8
    4314:	45a1                	li	a1,8
    4316:	264b0513          	addi	a0,s6,612 # 7264 <__fsym_list_timer_name+0x84>
    431a:	d37fe0ef          	jal	ra,3050 <rt_kprintf>
C:\Users\29275\Desktop\WchWorkSPace\camCoreWithRTOS\obj/../Libraries/rtthread_libraries/components/finsh/cmd.c:504
                    show_wait_queue(&(m->parent.suspend_thread));
    431e:	8526                	mv	a0,s1
    4320:	b2dff0ef          	jal	ra,3e4c <show_wait_queue>
C:\Users\29275\Desktop\WchWorkSPace\camCoreWithRTOS\obj/../Libraries/rtthread_libraries/components/finsh/cmd.c:505
                    rt_kprintf("\n");
    4324:	1fca8513          	addi	a0,s5,508 # 71fc <__fsym_list_timer_name+0x1c>
    4328:	d29fe0ef          	jal	ra,3050 <rt_kprintf>
    432c:	b745                	j	42cc <list_mailbox+0x76>
C:\Users\29275\Desktop\WchWorkSPace\camCoreWithRTOS\obj/../Libraries/rtthread_libraries/components/finsh/cmd.c:509
                    rt_kprintf("%-*.*s %04d  %04d %d\n",
    432e:	4801                	li	a6,0
    4330:	01445783          	lhu	a5,20(s0)
    4334:	01645703          	lhu	a4,22(s0)
    4338:	ff440693          	addi	a3,s0,-12
    433c:	4621                	li	a2,8
    433e:	45a1                	li	a1,8
    4340:	27cb8513          	addi	a0,s7,636 # 727c <__fsym_list_timer_name+0x9c>
    4344:	d0dfe0ef          	jal	ra,3050 <rt_kprintf>
    4348:	b751                	j	42cc <list_mailbox+0x76>
C:\Users\29275\Desktop\WchWorkSPace\camCoreWithRTOS\obj/../Libraries/rtthread_libraries/components/finsh/cmd.c:520
    while (next != (rt_list_t*)RT_NULL);
    434a:	000a0e63          	beqz	s4,4366 <list_mailbox+0x110>
C:\Users\29275\Desktop\WchWorkSPace\camCoreWithRTOS\obj/../Libraries/rtthread_libraries/components/finsh/cmd.c:477
        next = list_get_next(next, &find_arg);
    434e:	106c                	addi	a1,sp,44
    4350:	8552                	mv	a0,s4
    4352:	b57ff0ef          	jal	ra,3ea8 <list_get_next>
    4356:	8a2a                	mv	s4,a0
C:\Users\29275\Desktop\WchWorkSPace\camCoreWithRTOS\obj/../Libraries/rtthread_libraries/components/finsh/cmd.c:480
            for (i = 0; i < find_arg.nr_out; i++)
    4358:	57f2                	lw	a5,60(sp)
    435a:	fef058e3          	blez	a5,434a <list_mailbox+0xf4>
    435e:	00c10993          	addi	s3,sp,12
    4362:	4901                	li	s2,0
    4364:	bf8d                	j	42d6 <list_mailbox+0x80>
C:\Users\29275\Desktop\WchWorkSPace\camCoreWithRTOS\obj/../Libraries/rtthread_libraries/components/finsh/cmd.c:523
}
    4366:	4501                	li	a0,0
    4368:	50b6                	lw	ra,108(sp)
    436a:	5426                	lw	s0,104(sp)
    436c:	5496                	lw	s1,100(sp)
    436e:	5906                	lw	s2,96(sp)
    4370:	49f6                	lw	s3,92(sp)
    4372:	4a66                	lw	s4,88(sp)
    4374:	4ad6                	lw	s5,84(sp)
    4376:	4b46                	lw	s6,80(sp)
    4378:	4bb6                	lw	s7,76(sp)
    437a:	6165                	addi	sp,sp,112
    437c:	8082                	ret

0000437e <list_sem>:
list_sem():
C:\Users\29275\Desktop\WchWorkSPace\camCoreWithRTOS\obj/../Libraries/rtthread_libraries/components/finsh/cmd.c:269
{
    437e:	7159                	addi	sp,sp,-112
    4380:	d686                	sw	ra,108(sp)
    4382:	d4a2                	sw	s0,104(sp)
    4384:	d2a6                	sw	s1,100(sp)
    4386:	d0ca                	sw	s2,96(sp)
    4388:	cece                	sw	s3,92(sp)
    438a:	ccd2                	sw	s4,88(sp)
    438c:	cad6                	sw	s5,84(sp)
    438e:	c8da                	sw	s6,80(sp)
    4390:	c6de                	sw	s7,76(sp)
list_find_init():
C:\Users\29275\Desktop\WchWorkSPace\camCoreWithRTOS\obj/../Libraries/rtthread_libraries/components/finsh/cmd.c:80
    info = rt_object_get_information((enum rt_object_class_type)type);
    4392:	4509                	li	a0,2
    4394:	8c6ff0ef          	jal	ra,345a <rt_object_get_information>
C:\Users\29275\Desktop\WchWorkSPace\camCoreWithRTOS\obj/../Libraries/rtthread_libraries/components/finsh/cmd.c:81
    list = &info->object_list;
    4398:	0511                	addi	a0,a0,4
C:\Users\29275\Desktop\WchWorkSPace\camCoreWithRTOS\obj/../Libraries/rtthread_libraries/components/finsh/cmd.c:83
    p->list = list;
    439a:	d62a                	sw	a0,44(sp)
C:\Users\29275\Desktop\WchWorkSPace\camCoreWithRTOS\obj/../Libraries/rtthread_libraries/components/finsh/cmd.c:84
    p->type = type;
    439c:	4789                	li	a5,2
    439e:	02f10a23          	sb	a5,52(sp)
C:\Users\29275\Desktop\WchWorkSPace\camCoreWithRTOS\obj/../Libraries/rtthread_libraries/components/finsh/cmd.c:85
    p->array = array;
    43a2:	007c                	addi	a5,sp,12
    43a4:	d83e                	sw	a5,48(sp)
C:\Users\29275\Desktop\WchWorkSPace\camCoreWithRTOS\obj/../Libraries/rtthread_libraries/components/finsh/cmd.c:86
    p->nr = nr;
    43a6:	47a1                	li	a5,8
    43a8:	dc3e                	sw	a5,56(sp)
C:\Users\29275\Desktop\WchWorkSPace\camCoreWithRTOS\obj/../Libraries/rtthread_libraries/components/finsh/cmd.c:87
    p->nr_out = 0;
    43aa:	de02                	sw	zero,60(sp)
list_sem():
C:\Users\29275\Desktop\WchWorkSPace\camCoreWithRTOS\obj/../Libraries/rtthread_libraries/components/finsh/cmd.c:282
    rt_kprintf("%-*.s v   suspend thread\n", maxlen, item_title); object_split(maxlen);
    43ac:	00007637          	lui	a2,0x7
    43b0:	29460613          	addi	a2,a2,660 # 7294 <__fsym_list_timer_name+0xb4>
    43b4:	45a1                	li	a1,8
    43b6:	00007537          	lui	a0,0x7
    43ba:	2a050513          	addi	a0,a0,672 # 72a0 <__fsym_list_timer_name+0xc0>
    43be:	c93fe0ef          	jal	ra,3050 <rt_kprintf>
    43c2:	4421                	li	s0,8
object_split():
C:\Users\29275\Desktop\WchWorkSPace\camCoreWithRTOS\obj/../Libraries/rtthread_libraries/components/finsh/cmd.c:63
    while (len--) rt_kprintf("-");
    43c4:	000074b7          	lui	s1,0x7
    43c8:	34048513          	addi	a0,s1,832 # 7340 <__fsym_list_timer_name+0x160>
    43cc:	c85fe0ef          	jal	ra,3050 <rt_kprintf>
    43d0:	147d                	addi	s0,s0,-1
    43d2:	f87d                	bnez	s0,43c8 <list_sem+0x4a>
list_sem():
C:\Users\29275\Desktop\WchWorkSPace\camCoreWithRTOS\obj/../Libraries/rtthread_libraries/components/finsh/cmd.c:283
    rt_kprintf(     " --- --------------\n");
    43d4:	00007537          	lui	a0,0x7
    43d8:	2bc50513          	addi	a0,a0,700 # 72bc <__fsym_list_timer_name+0xdc>
    43dc:	c75fe0ef          	jal	ra,3050 <rt_kprintf>
C:\Users\29275\Desktop\WchWorkSPace\camCoreWithRTOS\obj/../Libraries/rtthread_libraries/components/finsh/cmd.c:273
    rt_list_t *next = (rt_list_t*)RT_NULL;
    43e0:	4a01                	li	s4,0
C:\Users\29275\Desktop\WchWorkSPace\camCoreWithRTOS\obj/../Libraries/rtthread_libraries/components/finsh/cmd.c:317
                    rt_kprintf("%-*.*s %03d %d\n",
    43e2:	00007bb7          	lui	s7,0x7
C:\Users\29275\Desktop\WchWorkSPace\camCoreWithRTOS\obj/../Libraries/rtthread_libraries/components/finsh/cmd.c:307
                    rt_kprintf("%-*.*s %03d %d:",
    43e6:	00007b37          	lui	s6,0x7
C:\Users\29275\Desktop\WchWorkSPace\camCoreWithRTOS\obj/../Libraries/rtthread_libraries/components/finsh/cmd.c:313
                    rt_kprintf("\n");
    43ea:	00007ab7          	lui	s5,0x7
    43ee:	a041                	j	446e <list_sem+0xf0>
C:\Users\29275\Desktop\WchWorkSPace\camCoreWithRTOS\obj/../Libraries/rtthread_libraries/components/finsh/cmd.c:299
                    rt_hw_interrupt_enable(level);
    43f0:	d57fb0ef          	jal	ra,146 <rt_hw_interrupt_enable>
C:\Users\29275\Desktop\WchWorkSPace\camCoreWithRTOS\obj/../Libraries/rtthread_libraries/components/finsh/cmd.c:290 (discriminator 2)
            for (i = 0; i < find_arg.nr_out; i++)
    43f4:	0905                	addi	s2,s2,1
    43f6:	0991                	addi	s3,s3,4
    43f8:	57f2                	lw	a5,60(sp)
    43fa:	06f95863          	bge	s2,a5,446a <list_sem+0xec>
C:\Users\29275\Desktop\WchWorkSPace\camCoreWithRTOS\obj/../Libraries/rtthread_libraries/components/finsh/cmd.c:295
                obj = rt_list_entry(obj_list[i], struct rt_object, list);
    43fe:	0009a483          	lw	s1,0(s3)
C:\Users\29275\Desktop\WchWorkSPace\camCoreWithRTOS\obj/../Libraries/rtthread_libraries/components/finsh/cmd.c:296
                level = rt_hw_interrupt_disable();
    4402:	d3ffb0ef          	jal	ra,140 <rt_hw_interrupt_disable>
C:\Users\29275\Desktop\WchWorkSPace\camCoreWithRTOS\obj/../Libraries/rtthread_libraries/components/finsh/cmd.c:297
                if ((obj->type & ~RT_Object_Class_Static) != find_arg.type)
    4406:	ffc4c783          	lbu	a5,-4(s1)
    440a:	f7f7f793          	andi	a5,a5,-129
    440e:	03414703          	lbu	a4,52(sp)
    4412:	fce79fe3          	bne	a5,a4,43f0 <list_sem+0x72>
C:\Users\29275\Desktop\WchWorkSPace\camCoreWithRTOS\obj/../Libraries/rtthread_libraries/components/finsh/cmd.c:302
                rt_hw_interrupt_enable(level);
    4416:	d31fb0ef          	jal	ra,146 <rt_hw_interrupt_enable>
C:\Users\29275\Desktop\WchWorkSPace\camCoreWithRTOS\obj/../Libraries/rtthread_libraries/components/finsh/cmd.c:305
                if (!rt_list_isempty(&sem->parent.suspend_thread))
    441a:	00848413          	addi	s0,s1,8
rt_list_isempty():
C:\Users\29275\Desktop\WchWorkSPace\camCoreWithRTOS\Libraries\rtthread_libraries\include/rtservice.h:100
    return l->next == l;
    441e:	4490                	lw	a2,8(s1)
list_sem():
C:\Users\29275\Desktop\WchWorkSPace\camCoreWithRTOS\obj/../Libraries/rtthread_libraries/components/finsh/cmd.c:305
    4420:	02c40963          	beq	s0,a2,4452 <list_sem+0xd4>
C:\Users\29275\Desktop\WchWorkSPace\camCoreWithRTOS\obj/../Libraries/rtthread_libraries/components/finsh/cmd.c:309
                            sem->parent.parent.name,
    4424:	ff448693          	addi	a3,s1,-12
C:\Users\29275\Desktop\WchWorkSPace\camCoreWithRTOS\obj/../Libraries/rtthread_libraries/components/finsh/cmd.c:307
                    rt_kprintf("%-*.*s %03d %d:",
    4428:	0104d703          	lhu	a4,16(s1)
rt_list_len():
C:\Users\29275\Desktop\WchWorkSPace\camCoreWithRTOS\Libraries\rtthread_libraries\include/rtservice.h:109
    unsigned int len = 0;
    442c:	4781                	li	a5,0
C:\Users\29275\Desktop\WchWorkSPace\camCoreWithRTOS\Libraries\rtthread_libraries\include/rtservice.h:114
        len ++;
    442e:	0785                	addi	a5,a5,1
C:\Users\29275\Desktop\WchWorkSPace\camCoreWithRTOS\Libraries\rtthread_libraries\include/rtservice.h:111
    while (p->next != l)
    4430:	4210                	lw	a2,0(a2)
    4432:	fec41ee3          	bne	s0,a2,442e <list_sem+0xb0>
list_sem():
C:\Users\29275\Desktop\WchWorkSPace\camCoreWithRTOS\obj/../Libraries/rtthread_libraries/components/finsh/cmd.c:307
    4436:	4621                	li	a2,8
    4438:	45a1                	li	a1,8
    443a:	2d4b0513          	addi	a0,s6,724 # 72d4 <__fsym_list_timer_name+0xf4>
    443e:	c13fe0ef          	jal	ra,3050 <rt_kprintf>
C:\Users\29275\Desktop\WchWorkSPace\camCoreWithRTOS\obj/../Libraries/rtthread_libraries/components/finsh/cmd.c:312
                    show_wait_queue(&(sem->parent.suspend_thread));
    4442:	8522                	mv	a0,s0
    4444:	a09ff0ef          	jal	ra,3e4c <show_wait_queue>
C:\Users\29275\Desktop\WchWorkSPace\camCoreWithRTOS\obj/../Libraries/rtthread_libraries/components/finsh/cmd.c:313
                    rt_kprintf("\n");
    4448:	1fca8513          	addi	a0,s5,508 # 71fc <__fsym_list_timer_name+0x1c>
    444c:	c05fe0ef          	jal	ra,3050 <rt_kprintf>
    4450:	b755                	j	43f4 <list_sem+0x76>
C:\Users\29275\Desktop\WchWorkSPace\camCoreWithRTOS\obj/../Libraries/rtthread_libraries/components/finsh/cmd.c:317
                    rt_kprintf("%-*.*s %03d %d\n",
    4452:	4781                	li	a5,0
    4454:	0104d703          	lhu	a4,16(s1)
    4458:	ff448693          	addi	a3,s1,-12
    445c:	4621                	li	a2,8
    445e:	45a1                	li	a1,8
    4460:	2e4b8513          	addi	a0,s7,740 # 72e4 <__fsym_list_timer_name+0x104>
    4464:	bedfe0ef          	jal	ra,3050 <rt_kprintf>
    4468:	b771                	j	43f4 <list_sem+0x76>
C:\Users\29275\Desktop\WchWorkSPace\camCoreWithRTOS\obj/../Libraries/rtthread_libraries/components/finsh/cmd.c:326
    while (next != (rt_list_t*)RT_NULL);
    446a:	000a0e63          	beqz	s4,4486 <list_sem+0x108>
C:\Users\29275\Desktop\WchWorkSPace\camCoreWithRTOS\obj/../Libraries/rtthread_libraries/components/finsh/cmd.c:287
        next = list_get_next(next, &find_arg);
    446e:	106c                	addi	a1,sp,44
    4470:	8552                	mv	a0,s4
    4472:	a37ff0ef          	jal	ra,3ea8 <list_get_next>
    4476:	8a2a                	mv	s4,a0
C:\Users\29275\Desktop\WchWorkSPace\camCoreWithRTOS\obj/../Libraries/rtthread_libraries/components/finsh/cmd.c:290
            for (i = 0; i < find_arg.nr_out; i++)
    4478:	57f2                	lw	a5,60(sp)
    447a:	fef058e3          	blez	a5,446a <list_sem+0xec>
    447e:	00c10993          	addi	s3,sp,12
    4482:	4901                	li	s2,0
    4484:	bfad                	j	43fe <list_sem+0x80>
C:\Users\29275\Desktop\WchWorkSPace\camCoreWithRTOS\obj/../Libraries/rtthread_libraries/components/finsh/cmd.c:329
}
    4486:	4501                	li	a0,0
    4488:	50b6                	lw	ra,108(sp)
    448a:	5426                	lw	s0,104(sp)
    448c:	5496                	lw	s1,100(sp)
    448e:	5906                	lw	s2,96(sp)
    4490:	49f6                	lw	s3,92(sp)
    4492:	4a66                	lw	s4,88(sp)
    4494:	4ad6                	lw	s5,84(sp)
    4496:	4b46                	lw	s6,80(sp)
    4498:	4bb6                	lw	s7,76(sp)
    449a:	6165                	addi	sp,sp,112
    449c:	8082                	ret

0000449e <msh_help>:
msh_help():
C:\Users\29275\Desktop\WchWorkSPace\camCoreWithRTOS\obj/../Libraries/rtthread_libraries/components/finsh/msh.c:69
}
FINSH_FUNCTION_EXPORT_ALIAS(msh_enter, msh, use module shell);
#endif

int msh_help(int argc, char **argv)
{
    449e:	1101                	addi	sp,sp,-32
    44a0:	ce06                	sw	ra,28(sp)
    44a2:	cc22                	sw	s0,24(sp)
    44a4:	ca26                	sw	s1,20(sp)
    44a6:	c84a                	sw	s2,16(sp)
    44a8:	c64e                	sw	s3,12(sp)
    44aa:	c452                	sw	s4,8(sp)
C:\Users\29275\Desktop\WchWorkSPace\camCoreWithRTOS\obj/../Libraries/rtthread_libraries/components/finsh/msh.c:70
    rt_kprintf("RT-Thread shell commands:\n");
    44ac:	00007537          	lui	a0,0x7
    44b0:	4f850513          	addi	a0,a0,1272 # 74f8 <__fsym___cmd_ps_name+0x44>
    44b4:	b9dfe0ef          	jal	ra,3050 <rt_kprintf>
C:\Users\29275\Desktop\WchWorkSPace\camCoreWithRTOS\obj/../Libraries/rtthread_libraries/components/finsh/msh.c:74
    {
        struct finsh_syscall *index;

        for (index = _syscall_table_begin;
    44b8:	89c1a403          	lw	s0,-1892(gp) # 2000014c <_syscall_table_begin>
    44bc:	8a01a783          	lw	a5,-1888(gp) # 20000150 <_syscall_table_end>
    44c0:	02f47b63          	bgeu	s0,a5,44f6 <msh_help+0x58>
C:\Users\29275\Desktop\WchWorkSPace\camCoreWithRTOS\obj/../Libraries/rtthread_libraries/components/finsh/msh.c:78
                index < _syscall_table_end;
                FINSH_NEXT_SYSCALL(index))
        {
            if (strncmp(index->name, "__cmd_", 6) != 0) continue;
    44c4:	000079b7          	lui	s3,0x7
C:\Users\29275\Desktop\WchWorkSPace\camCoreWithRTOS\obj/../Libraries/rtthread_libraries/components/finsh/msh.c:82
#if defined(FINSH_USING_DESCRIPTION) && defined(FINSH_USING_SYMTAB)
            rt_kprintf("%-16s - %s\n", &index->name[6], index->desc);
#else
            rt_kprintf("%s ", &index->name[6]);
    44c8:	00007a37          	lui	s4,0x7
C:\Users\29275\Desktop\WchWorkSPace\camCoreWithRTOS\obj/../Libraries/rtthread_libraries/components/finsh/msh.c:75
                index < _syscall_table_end;
    44cc:	a031                	j	44d8 <msh_help+0x3a>
C:\Users\29275\Desktop\WchWorkSPace\camCoreWithRTOS\obj/../Libraries/rtthread_libraries/components/finsh/msh.c:76
                FINSH_NEXT_SYSCALL(index))
    44ce:	0421                	addi	s0,s0,8
C:\Users\29275\Desktop\WchWorkSPace\camCoreWithRTOS\obj/../Libraries/rtthread_libraries/components/finsh/msh.c:74
        for (index = _syscall_table_begin;
    44d0:	8a01a783          	lw	a5,-1888(gp) # 20000150 <_syscall_table_end>
    44d4:	02f47163          	bgeu	s0,a5,44f6 <msh_help+0x58>
C:\Users\29275\Desktop\WchWorkSPace\camCoreWithRTOS\obj/../Libraries/rtthread_libraries/components/finsh/msh.c:78
            if (strncmp(index->name, "__cmd_", 6) != 0) continue;
    44d8:	4004                	lw	s1,0(s0)
    44da:	4619                	li	a2,6
    44dc:	51498593          	addi	a1,s3,1300 # 7514 <__fsym___cmd_ps_name+0x60>
    44e0:	8526                	mv	a0,s1
    44e2:	5be010ef          	jal	ra,5aa0 <strncmp>
    44e6:	f565                	bnez	a0,44ce <msh_help+0x30>
C:\Users\29275\Desktop\WchWorkSPace\camCoreWithRTOS\obj/../Libraries/rtthread_libraries/components/finsh/msh.c:82
            rt_kprintf("%s ", &index->name[6]);
    44e8:	00648593          	addi	a1,s1,6
    44ec:	51ca0513          	addi	a0,s4,1308 # 751c <__fsym___cmd_ps_name+0x68>
    44f0:	b61fe0ef          	jal	ra,3050 <rt_kprintf>
    44f4:	bfe9                	j	44ce <msh_help+0x30>
C:\Users\29275\Desktop\WchWorkSPace\camCoreWithRTOS\obj/../Libraries/rtthread_libraries/components/finsh/msh.c:86
#endif
        }
    }
    rt_kprintf("\n");
    44f6:	00007537          	lui	a0,0x7
    44fa:	1fc50513          	addi	a0,a0,508 # 71fc <__fsym_list_timer_name+0x1c>
    44fe:	b53fe0ef          	jal	ra,3050 <rt_kprintf>
C:\Users\29275\Desktop\WchWorkSPace\camCoreWithRTOS\obj/../Libraries/rtthread_libraries/components/finsh/msh.c:89

    return 0;
}
    4502:	4501                	li	a0,0
    4504:	40f2                	lw	ra,28(sp)
    4506:	4462                	lw	s0,24(sp)
    4508:	44d2                	lw	s1,20(sp)
    450a:	4942                	lw	s2,16(sp)
    450c:	49b2                	lw	s3,12(sp)
    450e:	4a22                	lw	s4,8(sp)
    4510:	6105                	addi	sp,sp,32
    4512:	8082                	ret

00004514 <cmd_ps>:
cmd_ps():
C:\Users\29275\Desktop\WchWorkSPace\camCoreWithRTOS\obj/../Libraries/rtthread_libraries/components/finsh/msh.c:93
FINSH_FUNCTION_EXPORT_ALIAS(msh_help, __cmd_help, RT-Thread shell help.);

int cmd_ps(int argc, char **argv)
{
    4514:	1141                	addi	sp,sp,-16
    4516:	c606                	sw	ra,12(sp)
C:\Users\29275\Desktop\WchWorkSPace\camCoreWithRTOS\obj/../Libraries/rtthread_libraries/components/finsh/msh.c:102
#ifdef RT_USING_MODULE
    if ((argc == 2) && (strcmp(argv[1], "-m") == 0))
        list_module();
    else
#endif
        list_thread();
    4518:	a19ff0ef          	jal	ra,3f30 <list_thread>
C:\Users\29275\Desktop\WchWorkSPace\camCoreWithRTOS\obj/../Libraries/rtthread_libraries/components/finsh/msh.c:104
    return 0;
}
    451c:	4501                	li	a0,0
    451e:	40b2                	lw	ra,12(sp)
    4520:	0141                	addi	sp,sp,16
    4522:	8082                	ret

00004524 <cmd_free>:
cmd_free():
C:\Users\29275\Desktop\WchWorkSPace\camCoreWithRTOS\obj/../Libraries/rtthread_libraries/components/finsh/msh.c:109
FINSH_FUNCTION_EXPORT_ALIAS(cmd_ps, __cmd_ps, List threads in the system.);

#ifdef RT_USING_HEAP
int cmd_free(int argc, char **argv)
{
    4524:	1141                	addi	sp,sp,-16
    4526:	c606                	sw	ra,12(sp)
C:\Users\29275\Desktop\WchWorkSPace\camCoreWithRTOS\obj/../Libraries/rtthread_libraries/components/finsh/msh.c:116
    extern void list_memheap(void);

#ifdef RT_USING_MEMHEAP_AS_HEAP
    list_memheap();
#else
    list_mem();
    4528:	c67fe0ef          	jal	ra,318e <list_mem>
C:\Users\29275\Desktop\WchWorkSPace\camCoreWithRTOS\obj/../Libraries/rtthread_libraries/components/finsh/msh.c:119
#endif
    return 0;
}
    452c:	4501                	li	a0,0
    452e:	40b2                	lw	ra,12(sp)
    4530:	0141                	addi	sp,sp,16
    4532:	8082                	ret

00004534 <msh_is_used>:
msh_is_used():
C:\Users\29275\Desktop\WchWorkSPace\camCoreWithRTOS\obj/../Libraries/rtthread_libraries/components/finsh/msh.c:39
}
    4534:	4505                	li	a0,1
    4536:	8082                	ret

00004538 <msh_exec>:
msh_exec():
C:\Users\29275\Desktop\WchWorkSPace\camCoreWithRTOS\obj/../Libraries/rtthread_libraries/components/finsh/msh.c:373
    return 0;
}
#endif

int msh_exec(char *cmd, rt_size_t length)
{
    4538:	715d                	addi	sp,sp,-80
    453a:	c686                	sw	ra,76(sp)
    453c:	c4a2                	sw	s0,72(sp)
    453e:	c2a6                	sw	s1,68(sp)
    4540:	c0ca                	sw	s2,64(sp)
    4542:	de4e                	sw	s3,60(sp)
    4544:	dc52                	sw	s4,56(sp)
    4546:	da56                	sw	s5,52(sp)
    4548:	d85a                	sw	s6,48(sp)
    454a:	d65e                	sw	s7,44(sp)
C:\Users\29275\Desktop\WchWorkSPace\camCoreWithRTOS\obj/../Libraries/rtthread_libraries/components/finsh/msh.c:377
    int cmd_ret;

    /* strim the beginning of command */
    while (*cmd  == ' ' || *cmd == '\t')
    454c:	842a                	mv	s0,a0
    454e:	95aa                	add	a1,a1,a0
    4550:	02000713          	li	a4,32
    4554:	46a5                	li	a3,9
    4556:	a011                	j	455a <msh_exec+0x22>
C:\Users\29275\Desktop\WchWorkSPace\camCoreWithRTOS\obj/../Libraries/rtthread_libraries/components/finsh/msh.c:379
    {
        cmd++;
    4558:	0405                	addi	s0,s0,1
C:\Users\29275\Desktop\WchWorkSPace\camCoreWithRTOS\obj/../Libraries/rtthread_libraries/components/finsh/msh.c:380
        length--;
    455a:	408584b3          	sub	s1,a1,s0
C:\Users\29275\Desktop\WchWorkSPace\camCoreWithRTOS\obj/../Libraries/rtthread_libraries/components/finsh/msh.c:377
    while (*cmd  == ' ' || *cmd == '\t')
    455e:	00040783          	lb	a5,0(s0)
    4562:	fee78be3          	beq	a5,a4,4558 <msh_exec+0x20>
C:\Users\29275\Desktop\WchWorkSPace\camCoreWithRTOS\obj/../Libraries/rtthread_libraries/components/finsh/msh.c:377 (discriminator 1)
    4566:	fed789e3          	beq	a5,a3,4558 <msh_exec+0x20>
C:\Users\29275\Desktop\WchWorkSPace\camCoreWithRTOS\obj/../Libraries/rtthread_libraries/components/finsh/msh.c:384
    }

    if (length == 0)
        return 0;
    456a:	4501                	li	a0,0
C:\Users\29275\Desktop\WchWorkSPace\camCoreWithRTOS\obj/../Libraries/rtthread_libraries/components/finsh/msh.c:383
    if (length == 0)
    456c:	ec81                	bnez	s1,4584 <msh_exec+0x4c>
C:\Users\29275\Desktop\WchWorkSPace\camCoreWithRTOS\obj/../Libraries/rtthread_libraries/components/finsh/msh.c:429
        }
        *tcmd = '\0';
    }
    rt_kprintf("%s: command not found.\n", cmd);
    return -1;
}
    456e:	40b6                	lw	ra,76(sp)
    4570:	4426                	lw	s0,72(sp)
    4572:	4496                	lw	s1,68(sp)
    4574:	4906                	lw	s2,64(sp)
    4576:	59f2                	lw	s3,60(sp)
    4578:	5a62                	lw	s4,56(sp)
    457a:	5ad2                	lw	s5,52(sp)
    457c:	5b42                	lw	s6,48(sp)
    457e:	5bb2                	lw	s7,44(sp)
    4580:	6161                	addi	sp,sp,80
    4582:	8082                	ret
_msh_exec_cmd():
C:\Users\29275\Desktop\WchWorkSPace\camCoreWithRTOS\obj/../Libraries/rtthread_libraries/components/finsh/msh.c:306
    rt_size_t cmd0_size = 0;
    4584:	4a81                	li	s5,0
C:\Users\29275\Desktop\WchWorkSPace\camCoreWithRTOS\obj/../Libraries/rtthread_libraries/components/finsh/msh.c:314
    while ((cmd[cmd0_size] != ' ' && cmd[cmd0_size] != '\t') && cmd0_size < length)
    4586:	02000713          	li	a4,32
    458a:	46a5                	li	a3,9
    458c:	a011                	j	4590 <msh_exec+0x58>
C:\Users\29275\Desktop\WchWorkSPace\camCoreWithRTOS\obj/../Libraries/rtthread_libraries/components/finsh/msh.c:315
        cmd0_size ++;
    458e:	8ad2                	mv	s5,s4
    4590:	001a8a13          	addi	s4,s5,1
C:\Users\29275\Desktop\WchWorkSPace\camCoreWithRTOS\obj/../Libraries/rtthread_libraries/components/finsh/msh.c:314
    while ((cmd[cmd0_size] != ' ' && cmd[cmd0_size] != '\t') && cmd0_size < length)
    4594:	014407b3          	add	a5,s0,s4
    4598:	00078783          	lb	a5,0(a5)
    459c:	00e78863          	beq	a5,a4,45ac <msh_exec+0x74>
    45a0:	00d78663          	beq	a5,a3,45ac <msh_exec+0x74>
    45a4:	fe9a15e3          	bne	s4,s1,458e <msh_exec+0x56>
C:\Users\29275\Desktop\WchWorkSPace\camCoreWithRTOS\obj/../Libraries/rtthread_libraries/components/finsh/msh.c:315
        cmd0_size ++;
    45a8:	8a26                	mv	s4,s1
    45aa:	a019                	j	45b0 <msh_exec+0x78>
C:\Users\29275\Desktop\WchWorkSPace\camCoreWithRTOS\obj/../Libraries/rtthread_libraries/components/finsh/msh.c:316
    if (cmd0_size == 0)
    45ac:	140a0163          	beqz	s4,46ee <msh_exec+0x1b6>
msh_get_cmd():
C:\Users\29275\Desktop\WchWorkSPace\camCoreWithRTOS\obj/../Libraries/rtthread_libraries/components/finsh/msh.c:198
    for (index = _syscall_table_begin;
    45b0:	89c1a903          	lw	s2,-1892(gp) # 2000014c <_syscall_table_begin>
C:\Users\29275\Desktop\WchWorkSPace\camCoreWithRTOS\obj/../Libraries/rtthread_libraries/components/finsh/msh.c:199
            index < _syscall_table_end;
    45b4:	8a01ab03          	lw	s6,-1888(gp) # 20000150 <_syscall_table_end>
C:\Users\29275\Desktop\WchWorkSPace\camCoreWithRTOS\obj/../Libraries/rtthread_libraries/components/finsh/msh.c:198
    for (index = _syscall_table_begin;
    45b8:	13697b63          	bgeu	s2,s6,46ee <msh_exec+0x1b6>
C:\Users\29275\Desktop\WchWorkSPace\camCoreWithRTOS\obj/../Libraries/rtthread_libraries/components/finsh/msh.c:202
        if (strncmp(index->name, "__cmd_", 6) != 0) continue;
    45bc:	00007bb7          	lui	s7,0x7
    45c0:	a021                	j	45c8 <msh_exec+0x90>
C:\Users\29275\Desktop\WchWorkSPace\camCoreWithRTOS\obj/../Libraries/rtthread_libraries/components/finsh/msh.c:200
            FINSH_NEXT_SYSCALL(index))
    45c2:	0921                	addi	s2,s2,8
C:\Users\29275\Desktop\WchWorkSPace\camCoreWithRTOS\obj/../Libraries/rtthread_libraries/components/finsh/msh.c:198
    for (index = _syscall_table_begin;
    45c4:	13697563          	bgeu	s2,s6,46ee <msh_exec+0x1b6>
C:\Users\29275\Desktop\WchWorkSPace\camCoreWithRTOS\obj/../Libraries/rtthread_libraries/components/finsh/msh.c:202
        if (strncmp(index->name, "__cmd_", 6) != 0) continue;
    45c8:	00092983          	lw	s3,0(s2)
    45cc:	4619                	li	a2,6
    45ce:	514b8593          	addi	a1,s7,1300 # 7514 <__fsym___cmd_ps_name+0x60>
    45d2:	854e                	mv	a0,s3
    45d4:	4cc010ef          	jal	ra,5aa0 <strncmp>
    45d8:	f56d                	bnez	a0,45c2 <msh_exec+0x8a>
C:\Users\29275\Desktop\WchWorkSPace\camCoreWithRTOS\obj/../Libraries/rtthread_libraries/components/finsh/msh.c:204
        if (strncmp(&index->name[6], cmd, size) == 0 &&
    45da:	8652                	mv	a2,s4
    45dc:	85a2                	mv	a1,s0
    45de:	00698513          	addi	a0,s3,6
    45e2:	4be010ef          	jal	ra,5aa0 <strncmp>
    45e6:	fd71                	bnez	a0,45c2 <msh_exec+0x8a>
C:\Users\29275\Desktop\WchWorkSPace\camCoreWithRTOS\obj/../Libraries/rtthread_libraries/components/finsh/msh.c:205
                index->name[6 + size] == '\0')
    45e8:	99d6                	add	s3,s3,s5
C:\Users\29275\Desktop\WchWorkSPace\camCoreWithRTOS\obj/../Libraries/rtthread_libraries/components/finsh/msh.c:204
        if (strncmp(&index->name[6], cmd, size) == 0 &&
    45ea:	00798783          	lb	a5,7(s3)
    45ee:	fbf1                	bnez	a5,45c2 <msh_exec+0x8a>
C:\Users\29275\Desktop\WchWorkSPace\camCoreWithRTOS\obj/../Libraries/rtthread_libraries/components/finsh/msh.c:207
            cmd_func = (cmd_function_t)index->func;
    45f0:	00492a03          	lw	s4,4(s2)
_msh_exec_cmd():
C:\Users\29275\Desktop\WchWorkSPace\camCoreWithRTOS\obj/../Libraries/rtthread_libraries/components/finsh/msh.c:320
    if (cmd_func == RT_NULL)
    45f4:	0e0a0d63          	beqz	s4,46ee <msh_exec+0x1b6>
C:\Users\29275\Desktop\WchWorkSPace\camCoreWithRTOS\obj/../Libraries/rtthread_libraries/components/finsh/msh.c:324
    memset(argv, 0x00, sizeof(argv));
    45f8:	c002                	sw	zero,0(sp)
    45fa:	c202                	sw	zero,4(sp)
    45fc:	c402                	sw	zero,8(sp)
    45fe:	c602                	sw	zero,12(sp)
    4600:	c802                	sw	zero,16(sp)
    4602:	ca02                	sw	zero,20(sp)
    4604:	cc02                	sw	zero,24(sp)
    4606:	ce02                	sw	zero,28(sp)
msh_split():
C:\Users\29275\Desktop\WchWorkSPace\camCoreWithRTOS\obj/../Libraries/rtthread_libraries/components/finsh/msh.c:133
    while (position < length)
    4608:	898a                	mv	s3,sp
_msh_exec_cmd():
C:\Users\29275\Desktop\WchWorkSPace\camCoreWithRTOS\obj/../Libraries/rtthread_libraries/components/finsh/msh.c:324
    memset(argv, 0x00, sizeof(argv));
    460a:	8e0a                	mv	t3,sp
    460c:	8722                	mv	a4,s0
    460e:	4901                	li	s2,0
msh_split():
C:\Users\29275\Desktop\WchWorkSPace\camCoreWithRTOS\obj/../Libraries/rtthread_libraries/components/finsh/msh.c:131
    position = 0; argc = 0;
    4610:	4601                	li	a2,0
C:\Users\29275\Desktop\WchWorkSPace\camCoreWithRTOS\obj/../Libraries/rtthread_libraries/components/finsh/msh.c:136
        while ((*ptr == ' ' || *ptr == '\t') && position < length)
    4612:	02000813          	li	a6,32
    4616:	48a5                	li	a7,9
C:\Users\29275\Desktop\WchWorkSPace\camCoreWithRTOS\obj/../Libraries/rtthread_libraries/components/finsh/msh.c:142
        if(argc >= FINSH_ARG_MAX)
    4618:	4fa1                	li	t6,8
C:\Users\29275\Desktop\WchWorkSPace\camCoreWithRTOS\obj/../Libraries/rtthread_libraries/components/finsh/msh.c:156
        if (*ptr == '"')
    461a:	02200e93          	li	t4,34
C:\Users\29275\Desktop\WchWorkSPace\camCoreWithRTOS\obj/../Libraries/rtthread_libraries/components/finsh/msh.c:164
                if (*ptr == '\\')
    461e:	05c00f13          	li	t5,92
    4622:	a039                	j	4630 <msh_exec+0xf8>
C:\Users\29275\Desktop\WchWorkSPace\camCoreWithRTOS\obj/../Libraries/rtthread_libraries/components/finsh/msh.c:136
        while ((*ptr == ' ' || *ptr == '\t') && position < length)
    4624:	0e967c63          	bgeu	a2,s1,471c <msh_exec+0x1e4>
C:\Users\29275\Desktop\WchWorkSPace\camCoreWithRTOS\obj/../Libraries/rtthread_libraries/components/finsh/msh.c:138
            *ptr = '\0';
    4628:	00070023          	sb	zero,0(a4) # 4000 <list_thread+0xd0>
C:\Users\29275\Desktop\WchWorkSPace\camCoreWithRTOS\obj/../Libraries/rtthread_libraries/components/finsh/msh.c:139
            ptr ++; position ++;
    462c:	0705                	addi	a4,a4,1
    462e:	0605                	addi	a2,a2,1
C:\Users\29275\Desktop\WchWorkSPace\camCoreWithRTOS\obj/../Libraries/rtthread_libraries/components/finsh/msh.c:136
        while ((*ptr == ' ' || *ptr == '\t') && position < length)
    4630:	00070783          	lb	a5,0(a4)
    4634:	ff0788e3          	beq	a5,a6,4624 <msh_exec+0xec>
    4638:	ff1786e3          	beq	a5,a7,4624 <msh_exec+0xec>
C:\Users\29275\Desktop\WchWorkSPace\camCoreWithRTOS\obj/../Libraries/rtthread_libraries/components/finsh/msh.c:142
        if(argc >= FINSH_ARG_MAX)
    463c:	03f90d63          	beq	s2,t6,4676 <msh_exec+0x13e>
C:\Users\29275\Desktop\WchWorkSPace\camCoreWithRTOS\obj/../Libraries/rtthread_libraries/components/finsh/msh.c:153
        if (position >= length) break;
    4640:	0a967463          	bgeu	a2,s1,46e8 <msh_exec+0x1b0>
C:\Users\29275\Desktop\WchWorkSPace\camCoreWithRTOS\obj/../Libraries/rtthread_libraries/components/finsh/msh.c:156
        if (*ptr == '"')
    4644:	03d78b63          	beq	a5,t4,467a <msh_exec+0x142>
C:\Users\29275\Desktop\WchWorkSPace\camCoreWithRTOS\obj/../Libraries/rtthread_libraries/components/finsh/msh.c:180
            argv[argc] = ptr;
    4648:	00ee2023          	sw	a4,0(t3)
C:\Users\29275\Desktop\WchWorkSPace\camCoreWithRTOS\obj/../Libraries/rtthread_libraries/components/finsh/msh.c:181
            argc ++;
    464c:	00190513          	addi	a0,s2,1
C:\Users\29275\Desktop\WchWorkSPace\camCoreWithRTOS\obj/../Libraries/rtthread_libraries/components/finsh/msh.c:182
            while ((*ptr != ' ' && *ptr != '\t') && position < length)
    4650:	40c48333          	sub	t1,s1,a2
    4654:	933a                	add	t1,t1,a4
C:\Users\29275\Desktop\WchWorkSPace\camCoreWithRTOS\obj/../Libraries/rtthread_libraries/components/finsh/msh.c:180
            argv[argc] = ptr;
    4656:	87ba                	mv	a5,a4
C:\Users\29275\Desktop\WchWorkSPace\camCoreWithRTOS\obj/../Libraries/rtthread_libraries/components/finsh/msh.c:184
                ptr ++; position ++;
    4658:	0785                	addi	a5,a5,1
    465a:	00c786b3          	add	a3,a5,a2
    465e:	8e99                	sub	a3,a3,a4
C:\Users\29275\Desktop\WchWorkSPace\camCoreWithRTOS\obj/../Libraries/rtthread_libraries/components/finsh/msh.c:182
            while ((*ptr != ' ' && *ptr != '\t') && position < length)
    4660:	00078583          	lb	a1,0(a5)
    4664:	07058b63          	beq	a1,a6,46da <msh_exec+0x1a2>
    4668:	07158963          	beq	a1,a7,46da <msh_exec+0x1a2>
    466c:	fe6796e3          	bne	a5,t1,4658 <msh_exec+0x120>
_msh_exec_cmd():
C:\Users\29275\Desktop\WchWorkSPace\camCoreWithRTOS\obj/../Libraries/rtthread_libraries/components/finsh/msh.c:330
    *retp = cmd_func(argc, argv);
    4670:	858a                	mv	a1,sp
    4672:	9a02                	jalr	s4
C:\Users\29275\Desktop\WchWorkSPace\camCoreWithRTOS\obj/../Libraries/rtthread_libraries/components/finsh/msh.c:331
    return 0;
    4674:	bded                	j	456e <msh_exec+0x36>
msh_split():
C:\Users\29275\Desktop\WchWorkSPace\camCoreWithRTOS\obj/../Libraries/rtthread_libraries/components/finsh/msh.c:142
        if(argc >= FINSH_ARG_MAX)
    4676:	4921                	li	s2,8
    4678:	a06d                	j	4722 <msh_exec+0x1ea>
C:\Users\29275\Desktop\WchWorkSPace\camCoreWithRTOS\obj/../Libraries/rtthread_libraries/components/finsh/msh.c:158
            ptr ++; position ++;
    467a:	00170793          	addi	a5,a4,1
    467e:	00160693          	addi	a3,a2,1
C:\Users\29275\Desktop\WchWorkSPace\camCoreWithRTOS\obj/../Libraries/rtthread_libraries/components/finsh/msh.c:159
            argv[argc] = ptr; argc ++;
    4682:	00fe2023          	sw	a5,0(t3)
    4686:	00190513          	addi	a0,s2,1
C:\Users\29275\Desktop\WchWorkSPace\camCoreWithRTOS\obj/../Libraries/rtthread_libraries/components/finsh/msh.c:162
            while (*ptr != '"' && position < length)
    468a:	00170703          	lb	a4,1(a4)
    468e:	03d70d63          	beq	a4,t4,46c8 <msh_exec+0x190>
    4692:	0096ef63          	bltu	a3,s1,46b0 <msh_exec+0x178>
    4696:	bfe9                	j	4670 <msh_exec+0x138>
C:\Users\29275\Desktop\WchWorkSPace\camCoreWithRTOS\obj/../Libraries/rtthread_libraries/components/finsh/msh.c:168
                        ptr ++; position ++;
    4698:	00178613          	addi	a2,a5,1
    469c:	0685                	addi	a3,a3,1
C:\Users\29275\Desktop\WchWorkSPace\camCoreWithRTOS\obj/../Libraries/rtthread_libraries/components/finsh/msh.c:171
                ptr ++; position ++;
    469e:	00160793          	addi	a5,a2,1
    46a2:	0685                	addi	a3,a3,1
C:\Users\29275\Desktop\WchWorkSPace\camCoreWithRTOS\obj/../Libraries/rtthread_libraries/components/finsh/msh.c:162
            while (*ptr != '"' && position < length)
    46a4:	00160703          	lb	a4,1(a2)
    46a8:	03d70063          	beq	a4,t4,46c8 <msh_exec+0x190>
    46ac:	fc96f2e3          	bgeu	a3,s1,4670 <msh_exec+0x138>
C:\Users\29275\Desktop\WchWorkSPace\camCoreWithRTOS\obj/../Libraries/rtthread_libraries/components/finsh/msh.c:164
                if (*ptr == '\\')
    46b0:	863e                	mv	a2,a5
    46b2:	ffe716e3          	bne	a4,t5,469e <msh_exec+0x166>
C:\Users\29275\Desktop\WchWorkSPace\camCoreWithRTOS\obj/../Libraries/rtthread_libraries/components/finsh/msh.c:166
                    if (*(ptr + 1) == '"')
    46b6:	00178703          	lb	a4,1(a5)
    46ba:	fdd70fe3          	beq	a4,t4,4698 <msh_exec+0x160>
C:\Users\29275\Desktop\WchWorkSPace\camCoreWithRTOS\obj/../Libraries/rtthread_libraries/components/finsh/msh.c:171
                ptr ++; position ++;
    46be:	0685                	addi	a3,a3,1
C:\Users\29275\Desktop\WchWorkSPace\camCoreWithRTOS\obj/../Libraries/rtthread_libraries/components/finsh/msh.c:162
            while (*ptr != '"' && position < length)
    46c0:	00178703          	lb	a4,1(a5)
C:\Users\29275\Desktop\WchWorkSPace\camCoreWithRTOS\obj/../Libraries/rtthread_libraries/components/finsh/msh.c:171
                ptr ++; position ++;
    46c4:	0785                	addi	a5,a5,1
    46c6:	b7dd                	j	46ac <msh_exec+0x174>
C:\Users\29275\Desktop\WchWorkSPace\camCoreWithRTOS\obj/../Libraries/rtthread_libraries/components/finsh/msh.c:173
            if (position >= length) break;
    46c8:	fa96f4e3          	bgeu	a3,s1,4670 <msh_exec+0x138>
C:\Users\29275\Desktop\WchWorkSPace\camCoreWithRTOS\obj/../Libraries/rtthread_libraries/components/finsh/msh.c:176
            *ptr = '\0'; ptr ++; position ++;
    46cc:	00078023          	sb	zero,0(a5)
    46d0:	0785                	addi	a5,a5,1
    46d2:	0685                	addi	a3,a3,1
C:\Users\29275\Desktop\WchWorkSPace\camCoreWithRTOS\obj/../Libraries/rtthread_libraries/components/finsh/msh.c:133
    while (position < length)
    46d4:	0096e563          	bltu	a3,s1,46de <msh_exec+0x1a6>
    46d8:	bf61                	j	4670 <msh_exec+0x138>
C:\Users\29275\Desktop\WchWorkSPace\camCoreWithRTOS\obj/../Libraries/rtthread_libraries/components/finsh/msh.c:186
            if (position >= length) break;
    46da:	f896fbe3          	bgeu	a3,s1,4670 <msh_exec+0x138>
    46de:	0905                	addi	s2,s2,1
    46e0:	0e11                	addi	t3,t3,4
C:\Users\29275\Desktop\WchWorkSPace\camCoreWithRTOS\obj/../Libraries/rtthread_libraries/components/finsh/msh.c:180
            argv[argc] = ptr;
    46e2:	873e                	mv	a4,a5
    46e4:	8636                	mv	a2,a3
    46e6:	b7a9                	j	4630 <msh_exec+0xf8>
C:\Users\29275\Desktop\WchWorkSPace\camCoreWithRTOS\obj/../Libraries/rtthread_libraries/components/finsh/msh.c:190
    return argc;
    46e8:	854a                	mv	a0,s2
_msh_exec_cmd():
C:\Users\29275\Desktop\WchWorkSPace\camCoreWithRTOS\obj/../Libraries/rtthread_libraries/components/finsh/msh.c:326
    if (argc == 0)
    46ea:	f80913e3          	bnez	s2,4670 <msh_exec+0x138>
msh_exec():
C:\Users\29275\Desktop\WchWorkSPace\camCoreWithRTOS\obj/../Libraries/rtthread_libraries/components/finsh/msh.c:421
        while (*tcmd != ' ' && *tcmd != '\0')
    46ee:	00040783          	lb	a5,0(s0)
    46f2:	fdf7f793          	andi	a5,a5,-33
    46f6:	8722                	mv	a4,s0
    46f8:	c799                	beqz	a5,4706 <msh_exec+0x1ce>
C:\Users\29275\Desktop\WchWorkSPace\camCoreWithRTOS\obj/../Libraries/rtthread_libraries/components/finsh/msh.c:423
            tcmd++;
    46fa:	0705                	addi	a4,a4,1
C:\Users\29275\Desktop\WchWorkSPace\camCoreWithRTOS\obj/../Libraries/rtthread_libraries/components/finsh/msh.c:421
        while (*tcmd != ' ' && *tcmd != '\0')
    46fc:	00070783          	lb	a5,0(a4)
    4700:	fdf7f793          	andi	a5,a5,-33
    4704:	fbfd                	bnez	a5,46fa <msh_exec+0x1c2>
C:\Users\29275\Desktop\WchWorkSPace\camCoreWithRTOS\obj/../Libraries/rtthread_libraries/components/finsh/msh.c:425
        *tcmd = '\0';
    4706:	00070023          	sb	zero,0(a4)
C:\Users\29275\Desktop\WchWorkSPace\camCoreWithRTOS\obj/../Libraries/rtthread_libraries/components/finsh/msh.c:427
    rt_kprintf("%s: command not found.\n", cmd);
    470a:	85a2                	mv	a1,s0
    470c:	00007537          	lui	a0,0x7
    4710:	4e050513          	addi	a0,a0,1248 # 74e0 <__fsym___cmd_ps_name+0x2c>
    4714:	93dfe0ef          	jal	ra,3050 <rt_kprintf>
C:\Users\29275\Desktop\WchWorkSPace\camCoreWithRTOS\obj/../Libraries/rtthread_libraries/components/finsh/msh.c:428
    return -1;
    4718:	557d                	li	a0,-1
    471a:	bd91                	j	456e <msh_exec+0x36>
msh_split():
C:\Users\29275\Desktop\WchWorkSPace\camCoreWithRTOS\obj/../Libraries/rtthread_libraries/components/finsh/msh.c:142
        if(argc >= FINSH_ARG_MAX)
    471c:	479d                	li	a5,7
    471e:	fd27f5e3          	bgeu	a5,s2,46e8 <msh_exec+0x1b0>
C:\Users\29275\Desktop\WchWorkSPace\camCoreWithRTOS\obj/../Libraries/rtthread_libraries/components/finsh/msh.c:144
            rt_kprintf("Too many args ! We only Use:\n");
    4722:	00007537          	lui	a0,0x7
    4726:	4c050513          	addi	a0,a0,1216 # 74c0 <__fsym___cmd_ps_name+0xc>
    472a:	927fe0ef          	jal	ra,3050 <rt_kprintf>
C:\Users\29275\Desktop\WchWorkSPace\camCoreWithRTOS\obj/../Libraries/rtthread_libraries/components/finsh/msh.c:145
            for(i = 0; i < argc; i++)
    472e:	4401                	li	s0,0
C:\Users\29275\Desktop\WchWorkSPace\camCoreWithRTOS\obj/../Libraries/rtthread_libraries/components/finsh/msh.c:147
                rt_kprintf("%s ", argv[i]);
    4730:	000074b7          	lui	s1,0x7
    4734:	0009a583          	lw	a1,0(s3)
    4738:	51c48513          	addi	a0,s1,1308 # 751c <__fsym___cmd_ps_name+0x68>
    473c:	915fe0ef          	jal	ra,3050 <rt_kprintf>
C:\Users\29275\Desktop\WchWorkSPace\camCoreWithRTOS\obj/../Libraries/rtthread_libraries/components/finsh/msh.c:145
            for(i = 0; i < argc; i++)
    4740:	0405                	addi	s0,s0,1
    4742:	0991                	addi	s3,s3,4
    4744:	ff2468e3          	bltu	s0,s2,4734 <msh_exec+0x1fc>
C:\Users\29275\Desktop\WchWorkSPace\camCoreWithRTOS\obj/../Libraries/rtthread_libraries/components/finsh/msh.c:149
            rt_kprintf("\n");
    4748:	00007537          	lui	a0,0x7
    474c:	1fc50513          	addi	a0,a0,508 # 71fc <__fsym_list_timer_name+0x1c>
    4750:	901fe0ef          	jal	ra,3050 <rt_kprintf>
    4754:	854a                	mv	a0,s2
    4756:	bf29                	j	4670 <msh_exec+0x138>

00004758 <msh_auto_complete>:
msh_auto_complete():
C:\Users\29275\Desktop\WchWorkSPace\camCoreWithRTOS\obj/../Libraries/rtthread_libraries/components/finsh/msh.c:568
    rt_free(full_path);
}
#endif

void msh_auto_complete(char *prefix)
{
    4758:	7179                	addi	sp,sp,-48
    475a:	d606                	sw	ra,44(sp)
    475c:	d422                	sw	s0,40(sp)
    475e:	d226                	sw	s1,36(sp)
    4760:	d04a                	sw	s2,32(sp)
    4762:	ce4e                	sw	s3,28(sp)
    4764:	cc52                	sw	s4,24(sp)
    4766:	ca56                	sw	s5,20(sp)
    4768:	c85a                	sw	s6,16(sp)
    476a:	c65e                	sw	s7,12(sp)
    476c:	c462                	sw	s8,8(sp)
C:\Users\29275\Desktop\WchWorkSPace\camCoreWithRTOS\obj/../Libraries/rtthread_libraries/components/finsh/msh.c:576
    struct finsh_syscall *index;

    min_length = 0;
    name_ptr = RT_NULL;

    if (*prefix == '\0')
    476e:	00050783          	lb	a5,0(a0)
    4772:	cf99                	beqz	a5,4790 <msh_auto_complete+0x38>
    4774:	892a                	mv	s2,a0
C:\Users\29275\Desktop\WchWorkSPace\camCoreWithRTOS\obj/../Libraries/rtthread_libraries/components/finsh/msh.c:612
    }
#endif

    /* checks in internal command */
    {
        for (index = _syscall_table_begin; index < _syscall_table_end; FINSH_NEXT_SYSCALL(index))
    4776:	89c1a403          	lw	s0,-1892(gp) # 2000014c <_syscall_table_begin>
    477a:	8a01a783          	lw	a5,-1888(gp) # 20000150 <_syscall_table_end>
    477e:	0af47963          	bgeu	s0,a5,4830 <msh_auto_complete+0xd8>
C:\Users\29275\Desktop\WchWorkSPace\camCoreWithRTOS\obj/../Libraries/rtthread_libraries/components/finsh/msh.c:574
    name_ptr = RT_NULL;
    4782:	4981                	li	s3,0
C:\Users\29275\Desktop\WchWorkSPace\camCoreWithRTOS\obj/../Libraries/rtthread_libraries/components/finsh/msh.c:573
    min_length = 0;
    4784:	4a01                	li	s4,0
C:\Users\29275\Desktop\WchWorkSPace\camCoreWithRTOS\obj/../Libraries/rtthread_libraries/components/finsh/msh.c:615
        {
            /* skip finsh shell function */
            if (strncmp(index->name, "__cmd_", 6) != 0) continue;
    4786:	00007b37          	lui	s6,0x7
C:\Users\29275\Desktop\WchWorkSPace\camCoreWithRTOS\obj/../Libraries/rtthread_libraries/components/finsh/msh.c:632

                length = str_common(name_ptr, cmd_name);
                if (length < min_length)
                    min_length = length;

                rt_kprintf("%s\n", cmd_name);
    478a:	00007bb7          	lui	s7,0x7
C:\Users\29275\Desktop\WchWorkSPace\camCoreWithRTOS\obj/../Libraries/rtthread_libraries/components/finsh/msh.c:612
        for (index = _syscall_table_begin; index < _syscall_table_end; FINSH_NEXT_SYSCALL(index))
    478e:	a035                	j	47ba <msh_auto_complete+0x62>
C:\Users\29275\Desktop\WchWorkSPace\camCoreWithRTOS\obj/../Libraries/rtthread_libraries/components/finsh/msh.c:578
        msh_help(0, RT_NULL);
    4790:	4581                	li	a1,0
    4792:	4501                	li	a0,0
    4794:	d0bff0ef          	jal	ra,449e <msh_help>
C:\Users\29275\Desktop\WchWorkSPace\camCoreWithRTOS\obj/../Libraries/rtthread_libraries/components/finsh/msh.c:579
        return;
    4798:	a861                	j	4830 <msh_auto_complete+0xd8>
str_common():
C:\Users\29275\Desktop\WchWorkSPace\camCoreWithRTOS\obj/../Libraries/rtthread_libraries/components/finsh/msh.c:433
    const char *str = str1;
    479a:	87ce                	mv	a5,s3
C:\Users\29275\Desktop\WchWorkSPace\camCoreWithRTOS\obj/../Libraries/rtthread_libraries/components/finsh/msh.c:441
    return (str - str1);
    479c:	413787b3          	sub	a5,a5,s3
    47a0:	0147d363          	bge	a5,s4,47a6 <msh_auto_complete+0x4e>
    47a4:	8a3e                	mv	s4,a5
msh_auto_complete():
C:\Users\29275\Desktop\WchWorkSPace\camCoreWithRTOS\obj/../Libraries/rtthread_libraries/components/finsh/msh.c:632
                rt_kprintf("%s\n", cmd_name);
    47a6:	85a6                	mv	a1,s1
    47a8:	218b8513          	addi	a0,s7,536 # 7218 <__fsym_list_timer_name+0x38>
    47ac:	8a5fe0ef          	jal	ra,3050 <rt_kprintf>
C:\Users\29275\Desktop\WchWorkSPace\camCoreWithRTOS\obj/../Libraries/rtthread_libraries/components/finsh/msh.c:612 (discriminator 2)
        for (index = _syscall_table_begin; index < _syscall_table_end; FINSH_NEXT_SYSCALL(index))
    47b0:	0421                	addi	s0,s0,8
    47b2:	8a01a783          	lw	a5,-1888(gp) # 20000150 <_syscall_table_end>
    47b6:	06f47663          	bgeu	s0,a5,4822 <msh_auto_complete+0xca>
C:\Users\29275\Desktop\WchWorkSPace\camCoreWithRTOS\obj/../Libraries/rtthread_libraries/components/finsh/msh.c:615
            if (strncmp(index->name, "__cmd_", 6) != 0) continue;
    47ba:	00042c03          	lw	s8,0(s0)
    47be:	4619                	li	a2,6
    47c0:	514b0593          	addi	a1,s6,1300 # 7514 <__fsym___cmd_ps_name+0x60>
    47c4:	8562                	mv	a0,s8
    47c6:	2da010ef          	jal	ra,5aa0 <strncmp>
    47ca:	f17d                	bnez	a0,47b0 <msh_auto_complete+0x58>
C:\Users\29275\Desktop\WchWorkSPace\camCoreWithRTOS\obj/../Libraries/rtthread_libraries/components/finsh/msh.c:617
            cmd_name = (const char *) &index->name[6];
    47cc:	006c0493          	addi	s1,s8,6 # 7006 <large_digits.2240+0x46>
C:\Users\29275\Desktop\WchWorkSPace\camCoreWithRTOS\obj/../Libraries/rtthread_libraries/components/finsh/msh.c:618
            if (strncmp(prefix, cmd_name, strlen(prefix)) == 0)
    47d0:	854a                	mv	a0,s2
    47d2:	2bc010ef          	jal	ra,5a8e <strlen>
    47d6:	862a                	mv	a2,a0
    47d8:	85a6                	mv	a1,s1
    47da:	854a                	mv	a0,s2
    47dc:	2c4010ef          	jal	ra,5aa0 <strncmp>
    47e0:	f961                	bnez	a0,47b0 <msh_auto_complete+0x58>
C:\Users\29275\Desktop\WchWorkSPace\camCoreWithRTOS\obj/../Libraries/rtthread_libraries/components/finsh/msh.c:620
                if (min_length == 0)
    47e2:	000a1763          	bnez	s4,47f0 <msh_auto_complete+0x98>
C:\Users\29275\Desktop\WchWorkSPace\camCoreWithRTOS\obj/../Libraries/rtthread_libraries/components/finsh/msh.c:625
                    min_length = strlen(name_ptr);
    47e6:	8526                	mv	a0,s1
    47e8:	2a6010ef          	jal	ra,5a8e <strlen>
    47ec:	8a2a                	mv	s4,a0
C:\Users\29275\Desktop\WchWorkSPace\camCoreWithRTOS\obj/../Libraries/rtthread_libraries/components/finsh/msh.c:623
                    name_ptr = cmd_name;
    47ee:	89a6                	mv	s3,s1
str_common():
C:\Users\29275\Desktop\WchWorkSPace\camCoreWithRTOS\obj/../Libraries/rtthread_libraries/components/finsh/msh.c:435
    while ((*str != 0) && (*str2 != 0) && (*str == *str2))
    47f0:	00098783          	lb	a5,0(s3)
    47f4:	d3dd                	beqz	a5,479a <msh_auto_complete+0x42>
    47f6:	006c0703          	lb	a4,6(s8)
    47fa:	c305                	beqz	a4,481a <msh_auto_complete+0xc2>
    47fc:	02e79163          	bne	a5,a4,481e <msh_auto_complete+0xc6>
    4800:	8726                	mv	a4,s1
C:\Users\29275\Desktop\WchWorkSPace\camCoreWithRTOS\obj/../Libraries/rtthread_libraries/components/finsh/msh.c:433
    const char *str = str1;
    4802:	87ce                	mv	a5,s3
C:\Users\29275\Desktop\WchWorkSPace\camCoreWithRTOS\obj/../Libraries/rtthread_libraries/components/finsh/msh.c:437
        str ++;
    4804:	0785                	addi	a5,a5,1
C:\Users\29275\Desktop\WchWorkSPace\camCoreWithRTOS\obj/../Libraries/rtthread_libraries/components/finsh/msh.c:438
        str2 ++;
    4806:	0705                	addi	a4,a4,1
C:\Users\29275\Desktop\WchWorkSPace\camCoreWithRTOS\obj/../Libraries/rtthread_libraries/components/finsh/msh.c:435
    while ((*str != 0) && (*str2 != 0) && (*str == *str2))
    4808:	00078603          	lb	a2,0(a5)
    480c:	da41                	beqz	a2,479c <msh_auto_complete+0x44>
    480e:	00070683          	lb	a3,0(a4)
    4812:	d6c9                	beqz	a3,479c <msh_auto_complete+0x44>
    4814:	fed608e3          	beq	a2,a3,4804 <msh_auto_complete+0xac>
    4818:	b751                	j	479c <msh_auto_complete+0x44>
C:\Users\29275\Desktop\WchWorkSPace\camCoreWithRTOS\obj/../Libraries/rtthread_libraries/components/finsh/msh.c:433
    const char *str = str1;
    481a:	87ce                	mv	a5,s3
    481c:	b741                	j	479c <msh_auto_complete+0x44>
    481e:	87ce                	mv	a5,s3
    4820:	bfb5                	j	479c <msh_auto_complete+0x44>
msh_auto_complete():
C:\Users\29275\Desktop\WchWorkSPace\camCoreWithRTOS\obj/../Libraries/rtthread_libraries/components/finsh/msh.c:638
            }
        }
    }

    /* auto complete string */
    if (name_ptr != NULL)
    4822:	00098763          	beqz	s3,4830 <msh_auto_complete+0xd8>
C:\Users\29275\Desktop\WchWorkSPace\camCoreWithRTOS\obj/../Libraries/rtthread_libraries/components/finsh/msh.c:640
    {
        rt_strncpy(prefix, name_ptr, min_length);
    4826:	8652                	mv	a2,s4
    4828:	85ce                	mv	a1,s3
    482a:	854a                	mv	a0,s2
    482c:	c0cfe0ef          	jal	ra,2c38 <rt_strncpy>
C:\Users\29275\Desktop\WchWorkSPace\camCoreWithRTOS\obj/../Libraries/rtthread_libraries/components/finsh/msh.c:644
    }

    return ;
}
    4830:	50b2                	lw	ra,44(sp)
    4832:	5422                	lw	s0,40(sp)
    4834:	5492                	lw	s1,36(sp)
    4836:	5902                	lw	s2,32(sp)
    4838:	49f2                	lw	s3,28(sp)
    483a:	4a62                	lw	s4,24(sp)
    483c:	4ad2                	lw	s5,20(sp)
    483e:	4b42                	lw	s6,16(sp)
    4840:	4bb2                	lw	s7,12(sp)
    4842:	4c22                	lw	s8,8(sp)
    4844:	6145                	addi	sp,sp,48
    4846:	8082                	ret

00004848 <finsh_system_init>:
finsh_system_init():
C:\Users\29275\Desktop\WchWorkSPace\camCoreWithRTOS\obj/../Libraries/rtthread_libraries/components/finsh/shell.c:815
 * @ingroup finsh
 *
 * This function will initialize finsh shell
 */
int finsh_system_init(void)
{
    4848:	1141                	addi	sp,sp,-16
    484a:	c606                	sw	ra,12(sp)
    484c:	c422                	sw	s0,8(sp)
    484e:	c226                	sw	s1,4(sp)
finsh_system_function_init():
C:\Users\29275\Desktop\WchWorkSPace\camCoreWithRTOS\obj/../Libraries/rtthread_libraries/components/finsh/shell.c:765
    _syscall_table_begin = (struct finsh_syscall *) begin;
    4850:	679d                	lui	a5,0x7
    4852:	6a078793          	addi	a5,a5,1696 # 76a0 <__fsym_list_mem>
    4856:	88f1ae23          	sw	a5,-1892(gp) # 2000014c <_syscall_table_begin>
C:\Users\29275\Desktop\WchWorkSPace\camCoreWithRTOS\obj/../Libraries/rtthread_libraries/components/finsh/shell.c:766
    _syscall_table_end = (struct finsh_syscall *) end;
    485a:	679d                	lui	a5,0x7
    485c:	72078793          	addi	a5,a5,1824 # 7720 <__fsymtab_end>
    4860:	8af1a023          	sw	a5,-1888(gp) # 20000150 <_syscall_table_end>
finsh_system_var_init():
C:\Users\29275\Desktop\WchWorkSPace\camCoreWithRTOS\obj/../Libraries/rtthread_libraries/components/finsh/shell.c:771
    _sysvar_table_begin = (struct finsh_sysvar *) begin;
    4864:	679d                	lui	a5,0x7
    4866:	72078793          	addi	a5,a5,1824 # 7720 <__fsymtab_end>
    486a:	8af1a223          	sw	a5,-1884(gp) # 20000154 <_sysvar_table_begin>
C:\Users\29275\Desktop\WchWorkSPace\camCoreWithRTOS\obj/../Libraries/rtthread_libraries/components/finsh/shell.c:772
    _sysvar_table_end = (struct finsh_sysvar *) end;
    486e:	679d                	lui	a5,0x7
    4870:	72078793          	addi	a5,a5,1824 # 7720 <__fsymtab_end>
    4874:	8af1a423          	sw	a5,-1880(gp) # 20000158 <_sysvar_table_end>
finsh_system_init():
C:\Users\29275\Desktop\WchWorkSPace\camCoreWithRTOS\obj/../Libraries/rtthread_libraries/components/finsh/shell.c:868
#endif
#endif

#ifdef RT_USING_HEAP
    /* create or set shell structure */
    shell = (struct finsh_shell *)rt_calloc(1, sizeof(struct finsh_shell));
    4878:	07c00593          	li	a1,124
    487c:	4505                	li	a0,1
    487e:	b07fe0ef          	jal	ra,3384 <rt_calloc>
    4882:	8aa1a823          	sw	a0,-1872(gp) # 20000160 <shell>
C:\Users\29275\Desktop\WchWorkSPace\camCoreWithRTOS\obj/../Libraries/rtthread_libraries/components/finsh/shell.c:869
    if (shell == RT_NULL)
    4886:	cd31                	beqz	a0,48e2 <finsh_system_init+0x9a>
C:\Users\29275\Desktop\WchWorkSPace\camCoreWithRTOS\obj/../Libraries/rtthread_libraries/components/finsh/shell.c:874
    {
        rt_kprintf("no memory for shell\n");
        return -1;
    }
    tid = rt_thread_create(FINSH_THREAD_NAME,
    4888:	47a9                	li	a5,10
    488a:	4719                	li	a4,6
    488c:	60000693          	li	a3,1536
    4890:	4601                	li	a2,0
    4892:	000055b7          	lui	a1,0x5
    4896:	97e58593          	addi	a1,a1,-1666 # 497e <finsh_thread_entry>
    489a:	00007537          	lui	a0,0x7
    489e:	53850513          	addi	a0,a0,1336 # 7538 <__fsym___cmd_ps_name+0x84>
    48a2:	856ff0ef          	jal	ra,38f8 <rt_thread_create>
    48a6:	84aa                	mv	s1,a0
C:\Users\29275\Desktop\WchWorkSPace\camCoreWithRTOS\obj/../Libraries/rtthread_libraries/components/finsh/shell.c:887
                            finsh_thread_entry, RT_NULL,
                            &finsh_thread_stack[0], sizeof(finsh_thread_stack),
                            FINSH_THREAD_PRIORITY, 10);
#endif /* RT_USING_HEAP */

    rt_sem_init(&(shell->rx_sem), "shrx", 0, 0);
    48a8:	8b018413          	addi	s0,gp,-1872 # 20000160 <shell>
    48ac:	4681                	li	a3,0
    48ae:	4601                	li	a2,0
    48b0:	000075b7          	lui	a1,0x7
    48b4:	54058593          	addi	a1,a1,1344 # 7540 <__fsym___cmd_ps_name+0x8c>
    48b8:	4008                	lw	a0,0(s0)
    48ba:	b91fd0ef          	jal	ra,244a <rt_sem_init>
finsh_set_prompt_mode():
C:\Users\29275\Desktop\WchWorkSPace\camCoreWithRTOS\obj/../Libraries/rtthread_libraries/components/finsh/shell.c:164
    shell->prompt_mode = prompt_mode;
    48be:	4018                	lw	a4,0(s0)
    48c0:	02474783          	lbu	a5,36(a4)
    48c4:	0027e793          	ori	a5,a5,2
    48c8:	02f70223          	sb	a5,36(a4)
finsh_system_init():
C:\Users\29275\Desktop\WchWorkSPace\camCoreWithRTOS\obj/../Libraries/rtthread_libraries/components/finsh/shell.c:892
    finsh_set_prompt_mode(1);

    if (tid != NULL && result == RT_EOK)
        rt_thread_startup(tid);
    return 0;
    48cc:	4501                	li	a0,0
C:\Users\29275\Desktop\WchWorkSPace\camCoreWithRTOS\obj/../Libraries/rtthread_libraries/components/finsh/shell.c:890
    if (tid != NULL && result == RT_EOK)
    48ce:	c489                	beqz	s1,48d8 <finsh_system_init+0x90>
C:\Users\29275\Desktop\WchWorkSPace\camCoreWithRTOS\obj/../Libraries/rtthread_libraries/components/finsh/shell.c:891
        rt_thread_startup(tid);
    48d0:	8526                	mv	a0,s1
    48d2:	a42ff0ef          	jal	ra,3b14 <rt_thread_startup>
C:\Users\29275\Desktop\WchWorkSPace\camCoreWithRTOS\obj/../Libraries/rtthread_libraries/components/finsh/shell.c:892
    return 0;
    48d6:	4501                	li	a0,0
C:\Users\29275\Desktop\WchWorkSPace\camCoreWithRTOS\obj/../Libraries/rtthread_libraries/components/finsh/shell.c:893
}
    48d8:	40b2                	lw	ra,12(sp)
    48da:	4422                	lw	s0,8(sp)
    48dc:	4492                	lw	s1,4(sp)
    48de:	0141                	addi	sp,sp,16
    48e0:	8082                	ret
C:\Users\29275\Desktop\WchWorkSPace\camCoreWithRTOS\obj/../Libraries/rtthread_libraries/components/finsh/shell.c:871
        rt_kprintf("no memory for shell\n");
    48e2:	00007537          	lui	a0,0x7
    48e6:	52050513          	addi	a0,a0,1312 # 7520 <__fsym___cmd_ps_name+0x6c>
    48ea:	f66fe0ef          	jal	ra,3050 <rt_kprintf>
C:\Users\29275\Desktop\WchWorkSPace\camCoreWithRTOS\obj/../Libraries/rtthread_libraries/components/finsh/shell.c:872
        return -1;
    48ee:	557d                	li	a0,-1
    48f0:	b7e5                	j	48d8 <finsh_system_init+0x90>

000048f2 <finsh_get_prompt>:
finsh_get_prompt():
C:\Users\29275\Desktop\WchWorkSPace\camCoreWithRTOS\obj/../Libraries/rtthread_libraries/components/finsh/shell.c:111
    if (!shell->prompt_mode)
    48f2:	8b01a783          	lw	a5,-1872(gp) # 20000160 <shell>
    48f6:	0247c783          	lbu	a5,36(a5)
    48fa:	8b89                	andi	a5,a5,2
    48fc:	c39d                	beqz	a5,4922 <finsh_get_prompt+0x30>
C:\Users\29275\Desktop\WchWorkSPace\camCoreWithRTOS\obj/../Libraries/rtthread_libraries/components/finsh/shell.c:105
{
    48fe:	1141                	addi	sp,sp,-16
    4900:	c606                	sw	ra,12(sp)
    4902:	c422                	sw	s0,8(sp)
C:\Users\29275\Desktop\WchWorkSPace\camCoreWithRTOS\obj/../Libraries/rtthread_libraries/components/finsh/shell.c:117
    if(finsh_prompt_custom)
    4904:	8ac1a583          	lw	a1,-1876(gp) # 2000015c <finsh_prompt_custom>
    4908:	c195                	beqz	a1,492c <finsh_get_prompt+0x3a>
C:\Users\29275\Desktop\WchWorkSPace\camCoreWithRTOS\obj/../Libraries/rtthread_libraries/components/finsh/shell.c:119
        strncpy(finsh_prompt, finsh_prompt_custom, sizeof(finsh_prompt)-1);
    490a:	08000613          	li	a2,128
    490e:	e2c18513          	addi	a0,gp,-468 # 200006dc <finsh_prompt.3980>
    4912:	1ba010ef          	jal	ra,5acc <strncpy>
C:\Users\29275\Desktop\WchWorkSPace\camCoreWithRTOS\obj/../Libraries/rtthread_libraries/components/finsh/shell.c:137
}
    4916:	e2c18513          	addi	a0,gp,-468 # 200006dc <finsh_prompt.3980>
    491a:	40b2                	lw	ra,12(sp)
    491c:	4422                	lw	s0,8(sp)
    491e:	0141                	addi	sp,sp,16
    4920:	8082                	ret
C:\Users\29275\Desktop\WchWorkSPace\camCoreWithRTOS\obj/../Libraries/rtthread_libraries/components/finsh/shell.c:113
        finsh_prompt[0] = '\0';
    4922:	e2018623          	sb	zero,-468(gp) # 200006dc <finsh_prompt.3980>
C:\Users\29275\Desktop\WchWorkSPace\camCoreWithRTOS\obj/../Libraries/rtthread_libraries/components/finsh/shell.c:137
}
    4926:	e2c18513          	addi	a0,gp,-468 # 200006dc <finsh_prompt.3980>
    492a:	8082                	ret
C:\Users\29275\Desktop\WchWorkSPace\camCoreWithRTOS\obj/../Libraries/rtthread_libraries/components/finsh/shell.c:124
    if (msh_is_used()) strcpy(finsh_prompt, _MSH_PROMPT);
    492c:	c09ff0ef          	jal	ra,4534 <msh_is_used>
    4930:	c905                	beqz	a0,4960 <finsh_get_prompt+0x6e>
C:\Users\29275\Desktop\WchWorkSPace\camCoreWithRTOS\obj/../Libraries/rtthread_libraries/components/finsh/shell.c:124 (discriminator 1)
    4932:	e2c18793          	addi	a5,gp,-468 # 200006dc <finsh_prompt.3980>
    4936:	20687737          	lui	a4,0x20687
    493a:	36d70713          	addi	a4,a4,877 # 2068736d <_eusrstack+0x68236d>
    493e:	c398                	sw	a4,0(a5)
    4940:	00078223          	sb	zero,4(a5)
C:\Users\29275\Desktop\WchWorkSPace\camCoreWithRTOS\obj/../Libraries/rtthread_libraries/components/finsh/shell.c:134
    strcat(finsh_prompt, ">");
    4944:	e2c18413          	addi	s0,gp,-468 # 200006dc <finsh_prompt.3980>
    4948:	e2c18513          	addi	a0,gp,-468 # 200006dc <finsh_prompt.3980>
    494c:	142010ef          	jal	ra,5a8e <strlen>
    4950:	9522                	add	a0,a0,s0
    4952:	03e00793          	li	a5,62
    4956:	00f50023          	sb	a5,0(a0)
    495a:	000500a3          	sb	zero,1(a0)
C:\Users\29275\Desktop\WchWorkSPace\camCoreWithRTOS\obj/../Libraries/rtthread_libraries/components/finsh/shell.c:136
    return finsh_prompt;
    495e:	bf65                	j	4916 <finsh_get_prompt+0x24>
C:\Users\29275\Desktop\WchWorkSPace\camCoreWithRTOS\obj/../Libraries/rtthread_libraries/components/finsh/shell.c:127
        strcpy(finsh_prompt, _PROMPT);
    4960:	e2c18793          	addi	a5,gp,-468 # 200006dc <finsh_prompt.3980>
    4964:	736e7737          	lui	a4,0x736e7
    4968:	96670713          	addi	a4,a4,-1690 # 736e6966 <_eusrstack+0x536e1966>
    496c:	c398                	sw	a4,0(a5)
    496e:	6709                	lui	a4,0x2
    4970:	06870713          	addi	a4,a4,104 # 2068 <uart_init+0x14>
    4974:	00e79223          	sh	a4,4(a5)
    4978:	00078323          	sb	zero,6(a5)
    497c:	b7e1                	j	4944 <finsh_get_prompt+0x52>

0000497e <finsh_thread_entry>:
finsh_thread_entry():
C:\Users\29275\Desktop\WchWorkSPace\camCoreWithRTOS\obj/../Libraries/rtthread_libraries/components/finsh/shell.c:501
{
    497e:	7179                	addi	sp,sp,-48
    4980:	d606                	sw	ra,44(sp)
    4982:	d422                	sw	s0,40(sp)
    4984:	d226                	sw	s1,36(sp)
    4986:	d04a                	sw	s2,32(sp)
    4988:	ce4e                	sw	s3,28(sp)
    498a:	cc52                	sw	s4,24(sp)
    498c:	ca56                	sw	s5,20(sp)
    498e:	c85a                	sw	s6,16(sp)
    4990:	c65e                	sw	s7,12(sp)
    4992:	c462                	sw	s8,8(sp)
C:\Users\29275\Desktop\WchWorkSPace\camCoreWithRTOS\obj/../Libraries/rtthread_libraries/components/finsh/shell.c:506
    shell->echo_mode = 1;
    4994:	8b01a703          	lw	a4,-1872(gp) # 20000160 <shell>
    4998:	02474783          	lbu	a5,36(a4)
    499c:	0017e793          	ori	a5,a5,1
    49a0:	02f70223          	sb	a5,36(a4)
C:\Users\29275\Desktop\WchWorkSPace\camCoreWithRTOS\obj/../Libraries/rtthread_libraries/components/finsh/shell.c:540
    rt_kprintf(FINSH_PROMPT);
    49a4:	f4fff0ef          	jal	ra,48f2 <finsh_get_prompt>
    49a8:	ea8fe0ef          	jal	ra,3050 <rt_kprintf>
C:\Users\29275\Desktop\WchWorkSPace\camCoreWithRTOS\obj/../Libraries/rtthread_libraries/components/finsh/shell.c:684
                rt_kprintf("\b \b");
    49ac:	000079b7          	lui	s3,0x7
C:\Users\29275\Desktop\WchWorkSPace\camCoreWithRTOS\obj/../Libraries/rtthread_libraries/components/finsh/shell.c:676
                rt_kprintf("\b%s  \b", &shell->line[shell->line_curpos]);
    49b0:	00007bb7          	lui	s7,0x7
C:\Users\29275\Desktop\WchWorkSPace\camCoreWithRTOS\obj/../Libraries/rtthread_libraries/components/finsh/shell.c:680
                    rt_kprintf("\b");
    49b4:	00007937          	lui	s2,0x7
C:\Users\29275\Desktop\WchWorkSPace\camCoreWithRTOS\obj/../Libraries/rtthread_libraries/components/finsh/shell.c:702
                    rt_kprintf("\n");
    49b8:	00007a37          	lui	s4,0x7
C:\Users\29275\Desktop\WchWorkSPace\camCoreWithRTOS\obj/../Libraries/rtthread_libraries/components/finsh/shell.c:748
                rt_kprintf("%c", ch);
    49bc:	00007ab7          	lui	s5,0x7
C:\Users\29275\Desktop\WchWorkSPace\camCoreWithRTOS\obj/../Libraries/rtthread_libraries/components/finsh/shell.c:738
                rt_kprintf("%s", &shell->line[shell->line_curpos]);
    49c0:	00007c37          	lui	s8,0x7
shell_auto_complete():
C:\Users\29275\Desktop\WchWorkSPace\camCoreWithRTOS\obj/../Libraries/rtthread_libraries/components/finsh/shell.c:391
    rt_kprintf("%s%s", FINSH_PROMPT, prefix);
    49c4:	00007b37          	lui	s6,0x7
    49c8:	a029                	j	49d2 <finsh_thread_entry+0x54>
finsh_thread_entry():
C:\Users\29275\Desktop\WchWorkSPace\camCoreWithRTOS\obj/../Libraries/rtthread_libraries/components/finsh/shell.c:559
            shell->stat = WAIT_SPEC_KEY;
    49ca:	8b01a783          	lw	a5,-1872(gp) # 20000160 <shell>
    49ce:	4705                	li	a4,1
    49d0:	d398                	sw	a4,32(a5)
finsh_getchar():
C:\Users\29275\Desktop\WchWorkSPace\camCoreWithRTOS\obj/../Libraries/rtthread_libraries/components/finsh/shell.c:183
    return rt_hw_console_getchar();
    49d2:	2321                	jal	4eda <rt_hw_console_getchar>
    49d4:	842a                	mv	s0,a0
    49d6:	85aa                	mv	a1,a0
finsh_thread_entry():
C:\Users\29275\Desktop\WchWorkSPace\camCoreWithRTOS\obj/../Libraries/rtthread_libraries/components/finsh/shell.c:545
        if (ch < 0)
    49d8:	fe054de3          	bltz	a0,49d2 <finsh_thread_entry+0x54>
C:\Users\29275\Desktop\WchWorkSPace\camCoreWithRTOS\obj/../Libraries/rtthread_libraries/components/finsh/shell.c:557
        if (ch == 0x1b)
    49dc:	47ed                	li	a5,27
    49de:	fef506e3          	beq	a0,a5,49ca <finsh_thread_entry+0x4c>
C:\Users\29275\Desktop\WchWorkSPace\camCoreWithRTOS\obj/../Libraries/rtthread_libraries/components/finsh/shell.c:562
        else if (shell->stat == WAIT_SPEC_KEY)
    49e2:	8b01a783          	lw	a5,-1872(gp) # 20000160 <shell>
    49e6:	5398                	lw	a4,32(a5)
    49e8:	4685                	li	a3,1
    49ea:	06d70e63          	beq	a4,a3,4a66 <finsh_thread_entry+0xe8>
C:\Users\29275\Desktop\WchWorkSPace\camCoreWithRTOS\obj/../Libraries/rtthread_libraries/components/finsh/shell.c:572
        else if (shell->stat == WAIT_FUNC_KEY)
    49ee:	4689                	li	a3,2
    49f0:	08d70563          	beq	a4,a3,4a7a <finsh_thread_entry+0xfc>
C:\Users\29275\Desktop\WchWorkSPace\camCoreWithRTOS\obj/../Libraries/rtthread_libraries/components/finsh/shell.c:641
        if (ch == '\0' || ch == 0xFF) continue;
    49f4:	ddf9                	beqz	a1,49d2 <finsh_thread_entry+0x54>
C:\Users\29275\Desktop\WchWorkSPace\camCoreWithRTOS\obj/../Libraries/rtthread_libraries/components/finsh/shell.c:643
        else if (ch == '\t')
    49f6:	4725                	li	a4,9
    49f8:	0ee58763          	beq	a1,a4,4ae6 <finsh_thread_entry+0x168>
C:\Users\29275\Desktop\WchWorkSPace\camCoreWithRTOS\obj/../Libraries/rtthread_libraries/components/finsh/shell.c:658
        else if (ch == 0x7f || ch == 0x08)
    49fc:	07f00713          	li	a4,127
    4a00:	14e58663          	beq	a1,a4,4b4c <finsh_thread_entry+0x1ce>
C:\Users\29275\Desktop\WchWorkSPace\camCoreWithRTOS\obj/../Libraries/rtthread_libraries/components/finsh/shell.c:658 (discriminator 1)
    4a04:	4721                	li	a4,8
    4a06:	14e58363          	beq	a1,a4,4b4c <finsh_thread_entry+0x1ce>
C:\Users\29275\Desktop\WchWorkSPace\camCoreWithRTOS\obj/../Libraries/rtthread_libraries/components/finsh/shell.c:692
        if (ch == '\r' || ch == '\n')
    4a0a:	4735                	li	a4,13
    4a0c:	1ce58b63          	beq	a1,a4,4be2 <finsh_thread_entry+0x264>
C:\Users\29275\Desktop\WchWorkSPace\camCoreWithRTOS\obj/../Libraries/rtthread_libraries/components/finsh/shell.c:692 (discriminator 1)
    4a10:	4729                	li	a4,10
    4a12:	1ce58863          	beq	a1,a4,4be2 <finsh_thread_entry+0x264>
C:\Users\29275\Desktop\WchWorkSPace\camCoreWithRTOS\obj/../Libraries/rtthread_libraries/components/finsh/shell.c:725
        if (shell->line_position >= FINSH_CMD_SIZE)
    4a16:	0767d703          	lhu	a4,118(a5)
    4a1a:	04f00693          	li	a3,79
    4a1e:	20e6fd63          	bgeu	a3,a4,4c38 <finsh_thread_entry+0x2ba>
C:\Users\29275\Desktop\WchWorkSPace\camCoreWithRTOS\obj/../Libraries/rtthread_libraries/components/finsh/shell.c:726
            shell->line_position = 0;
    4a22:	06079b23          	sh	zero,118(a5)
C:\Users\29275\Desktop\WchWorkSPace\camCoreWithRTOS\obj/../Libraries/rtthread_libraries/components/finsh/shell.c:729
        if (shell->line_curpos < shell->line_position)
    4a26:	4701                	li	a4,0
C:\Users\29275\Desktop\WchWorkSPace\camCoreWithRTOS\obj/../Libraries/rtthread_libraries/components/finsh/shell.c:746
            shell->line[shell->line_position] = ch;
    4a28:	973e                	add	a4,a4,a5
    4a2a:	028702a3          	sb	s0,37(a4)
C:\Users\29275\Desktop\WchWorkSPace\camCoreWithRTOS\obj/../Libraries/rtthread_libraries/components/finsh/shell.c:747
            if (shell->echo_mode)
    4a2e:	0247c783          	lbu	a5,36(a5)
    4a32:	8b85                	andi	a5,a5,1
    4a34:	26079863          	bnez	a5,4ca4 <finsh_thread_entry+0x326>
C:\Users\29275\Desktop\WchWorkSPace\camCoreWithRTOS\obj/../Libraries/rtthread_libraries/components/finsh/shell.c:752
        shell->line_position ++;
    4a38:	8b01a703          	lw	a4,-1872(gp) # 20000160 <shell>
    4a3c:	07675783          	lhu	a5,118(a4)
    4a40:	0785                	addi	a5,a5,1
    4a42:	07c2                	slli	a5,a5,0x10
    4a44:	83c1                	srli	a5,a5,0x10
    4a46:	06f71b23          	sh	a5,118(a4)
C:\Users\29275\Desktop\WchWorkSPace\camCoreWithRTOS\obj/../Libraries/rtthread_libraries/components/finsh/shell.c:753
        shell->line_curpos++;
    4a4a:	07875683          	lhu	a3,120(a4)
    4a4e:	0685                	addi	a3,a3,1
    4a50:	06d71c23          	sh	a3,120(a4)
C:\Users\29275\Desktop\WchWorkSPace\camCoreWithRTOS\obj/../Libraries/rtthread_libraries/components/finsh/shell.c:754
        if (shell->line_position >= FINSH_CMD_SIZE)
    4a54:	04f00693          	li	a3,79
    4a58:	f6f6fde3          	bgeu	a3,a5,49d2 <finsh_thread_entry+0x54>
C:\Users\29275\Desktop\WchWorkSPace\camCoreWithRTOS\obj/../Libraries/rtthread_libraries/components/finsh/shell.c:757
            shell->line_position = 0;
    4a5c:	06071b23          	sh	zero,118(a4)
C:\Users\29275\Desktop\WchWorkSPace\camCoreWithRTOS\obj/../Libraries/rtthread_libraries/components/finsh/shell.c:758
            shell->line_curpos = 0;
    4a60:	06071c23          	sh	zero,120(a4)
    4a64:	b7bd                	j	49d2 <finsh_thread_entry+0x54>
C:\Users\29275\Desktop\WchWorkSPace\camCoreWithRTOS\obj/../Libraries/rtthread_libraries/components/finsh/shell.c:564
            if (ch == 0x5b)
    4a66:	05b00713          	li	a4,91
    4a6a:	00e50563          	beq	a0,a4,4a74 <finsh_thread_entry+0xf6>
C:\Users\29275\Desktop\WchWorkSPace\camCoreWithRTOS\obj/../Libraries/rtthread_libraries/components/finsh/shell.c:570
            shell->stat = WAIT_NORMAL;
    4a6e:	0207a023          	sw	zero,32(a5)
    4a72:	b749                	j	49f4 <finsh_thread_entry+0x76>
C:\Users\29275\Desktop\WchWorkSPace\camCoreWithRTOS\obj/../Libraries/rtthread_libraries/components/finsh/shell.c:566
                shell->stat = WAIT_FUNC_KEY;
    4a74:	4709                	li	a4,2
    4a76:	d398                	sw	a4,32(a5)
C:\Users\29275\Desktop\WchWorkSPace\camCoreWithRTOS\obj/../Libraries/rtthread_libraries/components/finsh/shell.c:567
                continue;
    4a78:	bfa9                	j	49d2 <finsh_thread_entry+0x54>
C:\Users\29275\Desktop\WchWorkSPace\camCoreWithRTOS\obj/../Libraries/rtthread_libraries/components/finsh/shell.c:574
            shell->stat = WAIT_NORMAL;
    4a7a:	0207a023          	sw	zero,32(a5)
C:\Users\29275\Desktop\WchWorkSPace\camCoreWithRTOS\obj/../Libraries/rtthread_libraries/components/finsh/shell.c:576
            if (ch == 0x41) /* up key */
    4a7e:	fbf50713          	addi	a4,a0,-65
    4a82:	0ff77713          	andi	a4,a4,255
    4a86:	4685                	li	a3,1
    4a88:	f4e6f5e3          	bgeu	a3,a4,49d2 <finsh_thread_entry+0x54>
C:\Users\29275\Desktop\WchWorkSPace\camCoreWithRTOS\obj/../Libraries/rtthread_libraries/components/finsh/shell.c:618
            else if (ch == 0x44) /* left key */
    4a8c:	04400713          	li	a4,68
    4a90:	02e50b63          	beq	a0,a4,4ac6 <finsh_thread_entry+0x148>
C:\Users\29275\Desktop\WchWorkSPace\camCoreWithRTOS\obj/../Libraries/rtthread_libraries/components/finsh/shell.c:628
            else if (ch == 0x43) /* right key */
    4a94:	04300713          	li	a4,67
    4a98:	f4e51ee3          	bne	a0,a4,49f4 <finsh_thread_entry+0x76>
C:\Users\29275\Desktop\WchWorkSPace\camCoreWithRTOS\obj/../Libraries/rtthread_libraries/components/finsh/shell.c:630
                if (shell->line_curpos < shell->line_position)
    4a9c:	0787d703          	lhu	a4,120(a5)
    4aa0:	0767d683          	lhu	a3,118(a5)
    4aa4:	f2d777e3          	bgeu	a4,a3,49d2 <finsh_thread_entry+0x54>
C:\Users\29275\Desktop\WchWorkSPace\camCoreWithRTOS\obj/../Libraries/rtthread_libraries/components/finsh/shell.c:632
                    rt_kprintf("%c", shell->line[shell->line_curpos]);
    4aa8:	97ba                	add	a5,a5,a4
    4aaa:	02578583          	lb	a1,37(a5)
    4aae:	54ca8513          	addi	a0,s5,1356 # 754c <__fsym___cmd_ps_name+0x98>
    4ab2:	d9efe0ef          	jal	ra,3050 <rt_kprintf>
C:\Users\29275\Desktop\WchWorkSPace\camCoreWithRTOS\obj/../Libraries/rtthread_libraries/components/finsh/shell.c:633
                    shell->line_curpos ++;
    4ab6:	8b01a703          	lw	a4,-1872(gp) # 20000160 <shell>
    4aba:	07875783          	lhu	a5,120(a4)
    4abe:	0785                	addi	a5,a5,1
    4ac0:	06f71c23          	sh	a5,120(a4)
    4ac4:	b739                	j	49d2 <finsh_thread_entry+0x54>
C:\Users\29275\Desktop\WchWorkSPace\camCoreWithRTOS\obj/../Libraries/rtthread_libraries/components/finsh/shell.c:620
                if (shell->line_curpos)
    4ac6:	0787d783          	lhu	a5,120(a5)
    4aca:	f00784e3          	beqz	a5,49d2 <finsh_thread_entry+0x54>
C:\Users\29275\Desktop\WchWorkSPace\camCoreWithRTOS\obj/../Libraries/rtthread_libraries/components/finsh/shell.c:622
                    rt_kprintf("\b");
    4ace:	54890513          	addi	a0,s2,1352 # 7548 <__fsym___cmd_ps_name+0x94>
    4ad2:	d7efe0ef          	jal	ra,3050 <rt_kprintf>
C:\Users\29275\Desktop\WchWorkSPace\camCoreWithRTOS\obj/../Libraries/rtthread_libraries/components/finsh/shell.c:623
                    shell->line_curpos --;
    4ad6:	8b01a703          	lw	a4,-1872(gp) # 20000160 <shell>
    4ada:	07875783          	lhu	a5,120(a4)
    4ade:	17fd                	addi	a5,a5,-1
    4ae0:	06f71c23          	sh	a5,120(a4)
    4ae4:	b5fd                	j	49d2 <finsh_thread_entry+0x54>
C:\Users\29275\Desktop\WchWorkSPace\camCoreWithRTOS\obj/../Libraries/rtthread_libraries/components/finsh/shell.c:647
            for (i = 0; i < shell->line_curpos; i++)
    4ae6:	0787d703          	lhu	a4,120(a5)
    4aea:	cf09                	beqz	a4,4b04 <finsh_thread_entry+0x186>
    4aec:	4401                	li	s0,0
C:\Users\29275\Desktop\WchWorkSPace\camCoreWithRTOS\obj/../Libraries/rtthread_libraries/components/finsh/shell.c:648 (discriminator 3)
                rt_kprintf("\b");
    4aee:	54890513          	addi	a0,s2,1352
    4af2:	d5efe0ef          	jal	ra,3050 <rt_kprintf>
C:\Users\29275\Desktop\WchWorkSPace\camCoreWithRTOS\obj/../Libraries/rtthread_libraries/components/finsh/shell.c:647 (discriminator 3)
            for (i = 0; i < shell->line_curpos; i++)
    4af6:	0405                	addi	s0,s0,1
    4af8:	8b01a783          	lw	a5,-1872(gp) # 20000160 <shell>
    4afc:	0787d703          	lhu	a4,120(a5)
    4b00:	fee447e3          	blt	s0,a4,4aee <finsh_thread_entry+0x170>
C:\Users\29275\Desktop\WchWorkSPace\camCoreWithRTOS\obj/../Libraries/rtthread_libraries/components/finsh/shell.c:651
            shell_auto_complete(&shell->line[0]);
    4b04:	02578413          	addi	s0,a5,37
shell_auto_complete():
C:\Users\29275\Desktop\WchWorkSPace\camCoreWithRTOS\obj/../Libraries/rtthread_libraries/components/finsh/shell.c:376
    rt_kprintf("\n");
    4b08:	1fca0513          	addi	a0,s4,508 # 71fc <__fsym_list_timer_name+0x1c>
    4b0c:	d44fe0ef          	jal	ra,3050 <rt_kprintf>
C:\Users\29275\Desktop\WchWorkSPace\camCoreWithRTOS\obj/../Libraries/rtthread_libraries/components/finsh/shell.c:378
    if (msh_is_used() == RT_TRUE)
    4b10:	a25ff0ef          	jal	ra,4534 <msh_is_used>
    4b14:	4785                	li	a5,1
    4b16:	02f50763          	beq	a0,a5,4b44 <finsh_thread_entry+0x1c6>
C:\Users\29275\Desktop\WchWorkSPace\camCoreWithRTOS\obj/../Libraries/rtthread_libraries/components/finsh/shell.c:391
    rt_kprintf("%s%s", FINSH_PROMPT, prefix);
    4b1a:	dd9ff0ef          	jal	ra,48f2 <finsh_get_prompt>
    4b1e:	8622                	mv	a2,s0
    4b20:	85aa                	mv	a1,a0
    4b22:	550b0513          	addi	a0,s6,1360 # 7550 <__fsym___cmd_ps_name+0x9c>
    4b26:	d2afe0ef          	jal	ra,3050 <rt_kprintf>
finsh_thread_entry():
C:\Users\29275\Desktop\WchWorkSPace\camCoreWithRTOS\obj/../Libraries/rtthread_libraries/components/finsh/shell.c:653
            shell->line_curpos = shell->line_position = strlen(shell->line);
    4b2a:	8b01a403          	lw	s0,-1872(gp) # 20000160 <shell>
    4b2e:	02540513          	addi	a0,s0,37
    4b32:	75d000ef          	jal	ra,5a8e <strlen>
    4b36:	0542                	slli	a0,a0,0x10
    4b38:	8141                	srli	a0,a0,0x10
    4b3a:	06a41b23          	sh	a0,118(s0)
    4b3e:	06a41c23          	sh	a0,120(s0)
C:\Users\29275\Desktop\WchWorkSPace\camCoreWithRTOS\obj/../Libraries/rtthread_libraries/components/finsh/shell.c:655
            continue;
    4b42:	bd41                	j	49d2 <finsh_thread_entry+0x54>
shell_auto_complete():
C:\Users\29275\Desktop\WchWorkSPace\camCoreWithRTOS\obj/../Libraries/rtthread_libraries/components/finsh/shell.c:380
        msh_auto_complete(prefix);
    4b44:	8522                	mv	a0,s0
    4b46:	c13ff0ef          	jal	ra,4758 <msh_auto_complete>
    4b4a:	bfc1                	j	4b1a <finsh_thread_entry+0x19c>
finsh_thread_entry():
C:\Users\29275\Desktop\WchWorkSPace\camCoreWithRTOS\obj/../Libraries/rtthread_libraries/components/finsh/shell.c:661
            if (shell->line_curpos == 0)
    4b4c:	0787d703          	lhu	a4,120(a5)
    4b50:	e80701e3          	beqz	a4,49d2 <finsh_thread_entry+0x54>
C:\Users\29275\Desktop\WchWorkSPace\camCoreWithRTOS\obj/../Libraries/rtthread_libraries/components/finsh/shell.c:664
            shell->line_position--;
    4b54:	0767d603          	lhu	a2,118(a5)
    4b58:	167d                	addi	a2,a2,-1
    4b5a:	0642                	slli	a2,a2,0x10
    4b5c:	8241                	srli	a2,a2,0x10
    4b5e:	06c79b23          	sh	a2,118(a5)
C:\Users\29275\Desktop\WchWorkSPace\camCoreWithRTOS\obj/../Libraries/rtthread_libraries/components/finsh/shell.c:665
            shell->line_curpos--;
    4b62:	177d                	addi	a4,a4,-1
    4b64:	0742                	slli	a4,a4,0x10
    4b66:	8341                	srli	a4,a4,0x10
    4b68:	06e79c23          	sh	a4,120(a5)
C:\Users\29275\Desktop\WchWorkSPace\camCoreWithRTOS\obj/../Libraries/rtthread_libraries/components/finsh/shell.c:667
            if (shell->line_position > shell->line_curpos)
    4b6c:	00c76e63          	bltu	a4,a2,4b88 <finsh_thread_entry+0x20a>
C:\Users\29275\Desktop\WchWorkSPace\camCoreWithRTOS\obj/../Libraries/rtthread_libraries/components/finsh/shell.c:684
                rt_kprintf("\b \b");
    4b70:	56098513          	addi	a0,s3,1376 # 7560 <__fsym___cmd_ps_name+0xac>
    4b74:	cdcfe0ef          	jal	ra,3050 <rt_kprintf>
C:\Users\29275\Desktop\WchWorkSPace\camCoreWithRTOS\obj/../Libraries/rtthread_libraries/components/finsh/shell.c:685
                shell->line[shell->line_position] = 0;
    4b78:	8b01a783          	lw	a5,-1872(gp) # 20000160 <shell>
    4b7c:	0767d703          	lhu	a4,118(a5)
    4b80:	97ba                	add	a5,a5,a4
    4b82:	020782a3          	sb	zero,37(a5)
    4b86:	b5b1                	j	49d2 <finsh_thread_entry+0x54>
C:\Users\29275\Desktop\WchWorkSPace\camCoreWithRTOS\obj/../Libraries/rtthread_libraries/components/finsh/shell.c:672
                           &shell->line[shell->line_curpos + 1],
    4b88:	02670593          	addi	a1,a4,38
C:\Users\29275\Desktop\WchWorkSPace\camCoreWithRTOS\obj/../Libraries/rtthread_libraries/components/finsh/shell.c:671
                rt_memmove(&shell->line[shell->line_curpos],
    4b8c:	02570513          	addi	a0,a4,37
    4b90:	8e19                	sub	a2,a2,a4
    4b92:	95be                	add	a1,a1,a5
    4b94:	953e                	add	a0,a0,a5
    4b96:	862fe0ef          	jal	ra,2bf8 <rt_memmove>
C:\Users\29275\Desktop\WchWorkSPace\camCoreWithRTOS\obj/../Libraries/rtthread_libraries/components/finsh/shell.c:674
                shell->line[shell->line_position] = 0;
    4b9a:	8b018413          	addi	s0,gp,-1872 # 20000160 <shell>
    4b9e:	401c                	lw	a5,0(s0)
    4ba0:	0767d703          	lhu	a4,118(a5)
    4ba4:	973e                	add	a4,a4,a5
    4ba6:	020702a3          	sb	zero,37(a4)
C:\Users\29275\Desktop\WchWorkSPace\camCoreWithRTOS\obj/../Libraries/rtthread_libraries/components/finsh/shell.c:676
                rt_kprintf("\b%s  \b", &shell->line[shell->line_curpos]);
    4baa:	0787d583          	lhu	a1,120(a5)
    4bae:	02558593          	addi	a1,a1,37
    4bb2:	95be                	add	a1,a1,a5
    4bb4:	558b8513          	addi	a0,s7,1368 # 7558 <__fsym___cmd_ps_name+0xa4>
    4bb8:	c98fe0ef          	jal	ra,3050 <rt_kprintf>
C:\Users\29275\Desktop\WchWorkSPace\camCoreWithRTOS\obj/../Libraries/rtthread_libraries/components/finsh/shell.c:679
                for (i = shell->line_curpos; i <= shell->line_position; i++)
    4bbc:	401c                	lw	a5,0(s0)
    4bbe:	0787d403          	lhu	s0,120(a5)
    4bc2:	0767d783          	lhu	a5,118(a5)
    4bc6:	e087c6e3          	blt	a5,s0,49d2 <finsh_thread_entry+0x54>
C:\Users\29275\Desktop\WchWorkSPace\camCoreWithRTOS\obj/../Libraries/rtthread_libraries/components/finsh/shell.c:680 (discriminator 3)
                    rt_kprintf("\b");
    4bca:	54890513          	addi	a0,s2,1352
    4bce:	c82fe0ef          	jal	ra,3050 <rt_kprintf>
C:\Users\29275\Desktop\WchWorkSPace\camCoreWithRTOS\obj/../Libraries/rtthread_libraries/components/finsh/shell.c:679 (discriminator 3)
                for (i = shell->line_curpos; i <= shell->line_position; i++)
    4bd2:	0405                	addi	s0,s0,1
    4bd4:	8b01a783          	lw	a5,-1872(gp) # 20000160 <shell>
    4bd8:	0767d783          	lhu	a5,118(a5)
    4bdc:	fe87d7e3          	bge	a5,s0,4bca <finsh_thread_entry+0x24c>
    4be0:	bbcd                	j	49d2 <finsh_thread_entry+0x54>
C:\Users\29275\Desktop\WchWorkSPace\camCoreWithRTOS\obj/../Libraries/rtthread_libraries/components/finsh/shell.c:699
            if (msh_is_used() == RT_TRUE)
    4be2:	953ff0ef          	jal	ra,4534 <msh_is_used>
    4be6:	4785                	li	a5,1
    4be8:	02f50463          	beq	a0,a5,4c10 <finsh_thread_entry+0x292>
C:\Users\29275\Desktop\WchWorkSPace\camCoreWithRTOS\obj/../Libraries/rtthread_libraries/components/finsh/shell.c:718
            rt_kprintf(FINSH_PROMPT);
    4bec:	d07ff0ef          	jal	ra,48f2 <finsh_get_prompt>
    4bf0:	c60fe0ef          	jal	ra,3050 <rt_kprintf>
C:\Users\29275\Desktop\WchWorkSPace\camCoreWithRTOS\obj/../Libraries/rtthread_libraries/components/finsh/shell.c:719
            memset(shell->line, 0, sizeof(shell->line));
    4bf4:	8b01a403          	lw	s0,-1872(gp) # 20000160 <shell>
    4bf8:	05000613          	li	a2,80
    4bfc:	4581                	li	a1,0
    4bfe:	02540513          	addi	a0,s0,37
    4c02:	e0cfb0ef          	jal	ra,20e <memset>
C:\Users\29275\Desktop\WchWorkSPace\camCoreWithRTOS\obj/../Libraries/rtthread_libraries/components/finsh/shell.c:720
            shell->line_curpos = shell->line_position = 0;
    4c06:	06041b23          	sh	zero,118(s0)
    4c0a:	06041c23          	sh	zero,120(s0)
C:\Users\29275\Desktop\WchWorkSPace\camCoreWithRTOS\obj/../Libraries/rtthread_libraries/components/finsh/shell.c:721
            continue;
    4c0e:	b3d1                	j	49d2 <finsh_thread_entry+0x54>
C:\Users\29275\Desktop\WchWorkSPace\camCoreWithRTOS\obj/../Libraries/rtthread_libraries/components/finsh/shell.c:701
                if (shell->echo_mode)
    4c10:	8b01a783          	lw	a5,-1872(gp) # 20000160 <shell>
    4c14:	0247c783          	lbu	a5,36(a5)
    4c18:	8b85                	andi	a5,a5,1
    4c1a:	eb91                	bnez	a5,4c2e <finsh_thread_entry+0x2b0>
C:\Users\29275\Desktop\WchWorkSPace\camCoreWithRTOS\obj/../Libraries/rtthread_libraries/components/finsh/shell.c:703
                msh_exec(shell->line, shell->line_position);
    4c1c:	8b01a503          	lw	a0,-1872(gp) # 20000160 <shell>
    4c20:	07655583          	lhu	a1,118(a0)
    4c24:	02550513          	addi	a0,a0,37
    4c28:	911ff0ef          	jal	ra,4538 <msh_exec>
    4c2c:	b7c1                	j	4bec <finsh_thread_entry+0x26e>
C:\Users\29275\Desktop\WchWorkSPace\camCoreWithRTOS\obj/../Libraries/rtthread_libraries/components/finsh/shell.c:702
                    rt_kprintf("\n");
    4c2e:	1fca0513          	addi	a0,s4,508
    4c32:	c1efe0ef          	jal	ra,3050 <rt_kprintf>
    4c36:	b7dd                	j	4c1c <finsh_thread_entry+0x29e>
C:\Users\29275\Desktop\WchWorkSPace\camCoreWithRTOS\obj/../Libraries/rtthread_libraries/components/finsh/shell.c:729
        if (shell->line_curpos < shell->line_position)
    4c38:	0787d603          	lhu	a2,120(a5)
    4c3c:	dee676e3          	bgeu	a2,a4,4a28 <finsh_thread_entry+0xaa>
C:\Users\29275\Desktop\WchWorkSPace\camCoreWithRTOS\obj/../Libraries/rtthread_libraries/components/finsh/shell.c:734
                       &shell->line[shell->line_curpos],
    4c40:	02560593          	addi	a1,a2,37
C:\Users\29275\Desktop\WchWorkSPace\camCoreWithRTOS\obj/../Libraries/rtthread_libraries/components/finsh/shell.c:733
            rt_memmove(&shell->line[shell->line_curpos + 1],
    4c44:	02660513          	addi	a0,a2,38
    4c48:	40c70633          	sub	a2,a4,a2
    4c4c:	95be                	add	a1,a1,a5
    4c4e:	953e                	add	a0,a0,a5
    4c50:	fa9fd0ef          	jal	ra,2bf8 <rt_memmove>
C:\Users\29275\Desktop\WchWorkSPace\camCoreWithRTOS\obj/../Libraries/rtthread_libraries/components/finsh/shell.c:736
            shell->line[shell->line_curpos] = ch;
    4c54:	8b01a583          	lw	a1,-1872(gp) # 20000160 <shell>
    4c58:	0785d683          	lhu	a3,120(a1)
    4c5c:	00d58733          	add	a4,a1,a3
    4c60:	028702a3          	sb	s0,37(a4)
C:\Users\29275\Desktop\WchWorkSPace\camCoreWithRTOS\obj/../Libraries/rtthread_libraries/components/finsh/shell.c:737
            if (shell->echo_mode)
    4c64:	0245c703          	lbu	a4,36(a1)
    4c68:	8b05                	andi	a4,a4,1
    4c6a:	e70d                	bnez	a4,4c94 <finsh_thread_entry+0x316>
C:\Users\29275\Desktop\WchWorkSPace\camCoreWithRTOS\obj/../Libraries/rtthread_libraries/components/finsh/shell.c:741
            for (i = shell->line_curpos; i < shell->line_position; i++)
    4c6c:	8b01a783          	lw	a5,-1872(gp) # 20000160 <shell>
    4c70:	0787d403          	lhu	s0,120(a5)
    4c74:	0767d783          	lhu	a5,118(a5)
    4c78:	dcf450e3          	bge	s0,a5,4a38 <finsh_thread_entry+0xba>
C:\Users\29275\Desktop\WchWorkSPace\camCoreWithRTOS\obj/../Libraries/rtthread_libraries/components/finsh/shell.c:742 (discriminator 3)
                rt_kprintf("\b");
    4c7c:	54890513          	addi	a0,s2,1352
    4c80:	bd0fe0ef          	jal	ra,3050 <rt_kprintf>
C:\Users\29275\Desktop\WchWorkSPace\camCoreWithRTOS\obj/../Libraries/rtthread_libraries/components/finsh/shell.c:741 (discriminator 3)
            for (i = shell->line_curpos; i < shell->line_position; i++)
    4c84:	0405                	addi	s0,s0,1
    4c86:	8b01a783          	lw	a5,-1872(gp) # 20000160 <shell>
    4c8a:	0767d783          	lhu	a5,118(a5)
    4c8e:	fef447e3          	blt	s0,a5,4c7c <finsh_thread_entry+0x2fe>
    4c92:	b35d                	j	4a38 <finsh_thread_entry+0xba>
C:\Users\29275\Desktop\WchWorkSPace\camCoreWithRTOS\obj/../Libraries/rtthread_libraries/components/finsh/shell.c:738
                rt_kprintf("%s", &shell->line[shell->line_curpos]);
    4c94:	02568693          	addi	a3,a3,37
    4c98:	95b6                	add	a1,a1,a3
    4c9a:	494c0513          	addi	a0,s8,1172 # 7494 <__fsym_list_timer_name+0x2b4>
    4c9e:	bb2fe0ef          	jal	ra,3050 <rt_kprintf>
    4ca2:	b7e9                	j	4c6c <finsh_thread_entry+0x2ee>
C:\Users\29275\Desktop\WchWorkSPace\camCoreWithRTOS\obj/../Libraries/rtthread_libraries/components/finsh/shell.c:748
                rt_kprintf("%c", ch);
    4ca4:	54ca8513          	addi	a0,s5,1356
    4ca8:	ba8fe0ef          	jal	ra,3050 <rt_kprintf>
    4cac:	b371                	j	4a38 <finsh_thread_entry+0xba>

00004cae <rt_heap_begin_get>:
rt_heap_begin_get():
C:\Users\29275\Desktop\WchWorkSPace\camCoreWithRTOS\obj/../Libraries/board/board.c:56
#if defined(RT_USING_USER_MAIN) && defined(RT_USING_HEAP)
#define RT_HEAP_SIZE 1624
static uint32_t rt_heap[RT_HEAP_SIZE];     // heap default size: 4K(1024 * 4)
RT_WEAK void *rt_heap_begin_get(void)
{
    return rt_heap;
    4cae:	20000537          	lui	a0,0x20000
C:\Users\29275\Desktop\WchWorkSPace\camCoreWithRTOS\obj/../Libraries/board/board.c:57
}
    4cb2:	76050513          	addi	a0,a0,1888 # 20000760 <rt_heap>
    4cb6:	8082                	ret

00004cb8 <rt_heap_end_get>:
rt_heap_end_get():
C:\Users\29275\Desktop\WchWorkSPace\camCoreWithRTOS\obj/../Libraries/board/board.c:61

RT_WEAK void *rt_heap_end_get(void)
{
    return rt_heap + RT_HEAP_SIZE;
    4cb8:	20002537          	lui	a0,0x20002
C:\Users\29275\Desktop\WchWorkSPace\camCoreWithRTOS\obj/../Libraries/board/board.c:62
}
    4cbc:	0c050513          	addi	a0,a0,192 # 200020c0 <temp_buff>
    4cc0:	8082                	ret

00004cc2 <SysTick_Handler>:
SysTick_Handler():
C:\Users\29275\Desktop\WchWorkSPace\camCoreWithRTOS\obj/../Libraries/board/board.c:96
}


__attribute__((interrupt()))
void SysTick_Handler(void)
{
    4cc2:	7139                	addi	sp,sp,-64
    4cc4:	de06                	sw	ra,60(sp)
    4cc6:	dc16                	sw	t0,56(sp)
    4cc8:	da1a                	sw	t1,52(sp)
    4cca:	d81e                	sw	t2,48(sp)
    4ccc:	d62a                	sw	a0,44(sp)
    4cce:	d42e                	sw	a1,40(sp)
    4cd0:	d232                	sw	a2,36(sp)
    4cd2:	d036                	sw	a3,32(sp)
    4cd4:	ce3a                	sw	a4,28(sp)
    4cd6:	cc3e                	sw	a5,24(sp)
    4cd8:	ca42                	sw	a6,20(sp)
    4cda:	c846                	sw	a7,16(sp)
    4cdc:	c672                	sw	t3,12(sp)
    4cde:	c476                	sw	t4,8(sp)
    4ce0:	c27a                	sw	t5,4(sp)
    4ce2:	c07e                	sw	t6,0(sp)
C:\Users\29275\Desktop\WchWorkSPace\camCoreWithRTOS\obj/../Libraries/board/board.c:98
    //
    rt_interrupt_enter();
    4ce4:	c89fd0ef          	jal	ra,296c <rt_interrupt_enter>
C:\Users\29275\Desktop\WchWorkSPace\camCoreWithRTOS\obj/../Libraries/board/board.c:101

    //CNT
    SysTick->CNTL0 = 0;
    4ce8:	e000f7b7          	lui	a5,0xe000f
    4cec:	00078223          	sb	zero,4(a5) # e000f004 <_eusrstack+0xc000a004>
C:\Users\29275\Desktop\WchWorkSPace\camCoreWithRTOS\obj/../Libraries/board/board.c:102
    SysTick->CNTL1 = 0;
    4cf0:	000782a3          	sb	zero,5(a5)
C:\Users\29275\Desktop\WchWorkSPace\camCoreWithRTOS\obj/../Libraries/board/board.c:103
    SysTick->CNTL2 = 0;
    4cf4:	00078323          	sb	zero,6(a5)
C:\Users\29275\Desktop\WchWorkSPace\camCoreWithRTOS\obj/../Libraries/board/board.c:104
    SysTick->CNTL3 = 0;
    4cf8:	000783a3          	sb	zero,7(a5)
C:\Users\29275\Desktop\WchWorkSPace\camCoreWithRTOS\obj/../Libraries/board/board.c:105
    SysTick->CNTH0 = 0;
    4cfc:	00078423          	sb	zero,8(a5)
C:\Users\29275\Desktop\WchWorkSPace\camCoreWithRTOS\obj/../Libraries/board/board.c:106
    SysTick->CNTH1 = 0;
    4d00:	000784a3          	sb	zero,9(a5)
C:\Users\29275\Desktop\WchWorkSPace\camCoreWithRTOS\obj/../Libraries/board/board.c:107
    SysTick->CNTH2 = 0;
    4d04:	00078523          	sb	zero,10(a5)
C:\Users\29275\Desktop\WchWorkSPace\camCoreWithRTOS\obj/../Libraries/board/board.c:108
    SysTick->CNTH3 = 0;
    4d08:	000785a3          	sb	zero,11(a5)
C:\Users\29275\Desktop\WchWorkSPace\camCoreWithRTOS\obj/../Libraries/board/board.c:110

    rt_tick_increase();
    4d0c:	ce8fd0ef          	jal	ra,21f4 <rt_tick_increase>
C:\Users\29275\Desktop\WchWorkSPace\camCoreWithRTOS\obj/../Libraries/board/board.c:113

    //
    rt_interrupt_leave();
    4d10:	c81fd0ef          	jal	ra,2990 <rt_interrupt_leave>
C:\Users\29275\Desktop\WchWorkSPace\camCoreWithRTOS\obj/../Libraries/board/board.c:114
}
    4d14:	50f2                	lw	ra,60(sp)
    4d16:	52e2                	lw	t0,56(sp)
    4d18:	5352                	lw	t1,52(sp)
    4d1a:	53c2                	lw	t2,48(sp)
    4d1c:	5532                	lw	a0,44(sp)
    4d1e:	55a2                	lw	a1,40(sp)
    4d20:	5612                	lw	a2,36(sp)
    4d22:	5682                	lw	a3,32(sp)
    4d24:	4772                	lw	a4,28(sp)
    4d26:	47e2                	lw	a5,24(sp)
    4d28:	4852                	lw	a6,20(sp)
    4d2a:	48c2                	lw	a7,16(sp)
    4d2c:	4e32                	lw	t3,12(sp)
    4d2e:	4ea2                	lw	t4,8(sp)
    4d30:	4f12                	lw	t5,4(sp)
    4d32:	4f82                	lw	t6,0(sp)
    4d34:	6121                	addi	sp,sp,64
    4d36:	30200073          	mret

00004d3a <board_init>:
board_init():
C:\Users\29275\Desktop\WchWorkSPace\camCoreWithRTOS\obj/../Libraries/board/board.c:118


void board_init(void)
{
    4d3a:	1141                	addi	sp,sp,-16
    4d3c:	c606                	sw	ra,12(sp)
C:\Users\29275\Desktop\WchWorkSPace\camCoreWithRTOS\obj/../Libraries/board/board.c:120
    //
    sys_clk = 8000000 * (((RCC->CFGR0 >> 18)&0x0F) + 2);
    4d3e:	400217b7          	lui	a5,0x40021
    4d42:	43dc                	lw	a5,4(a5)
    4d44:	83c9                	srli	a5,a5,0x12
    4d46:	8bbd                	andi	a5,a5,15
    4d48:	007a1737          	lui	a4,0x7a1
    4d4c:	20070713          	addi	a4,a4,512 # 7a1200 <__fsymtab_end+0x799ae0>
    4d50:	02e787b3          	mul	a5,a5,a4
    4d54:	00f42737          	lui	a4,0xf42
    4d58:	40070713          	addi	a4,a4,1024 # f42400 <__fsymtab_end+0xf3ace0>
    4d5c:	97ba                	add	a5,a5,a4
    4d5e:	84f1a423          	sw	a5,-1976(gp) # 200000f8 <sys_clk>
C:\Users\29275\Desktop\WchWorkSPace\camCoreWithRTOS\obj/../Libraries/board/board.c:122
    //DEBUG
    uart_init(DEBUG_UART, DEBUG_UART_BAUD, DEBUG_UART_TX_PIN, DEBUG_UART_RX_PIN);
    4d62:	4685                	li	a3,1
    4d64:	4601                	li	a2,0
    4d66:	65f1                	lui	a1,0x1c
    4d68:	20058593          	addi	a1,a1,512 # 1c200 <__fsymtab_end+0x14ae0>
    4d6c:	4501                	li	a0,0
    4d6e:	ae6fd0ef          	jal	ra,2054 <uart_init>
C:\Users\29275\Desktop\WchWorkSPace\camCoreWithRTOS\obj/../Libraries/board/board.c:124

    uart_rx_irq(DEBUG_UART, ENABLE);
    4d72:	4585                	li	a1,1
    4d74:	4501                	li	a0,0
    4d76:	bf6fd0ef          	jal	ra,216c <uart_rx_irq>
C:\Users\29275\Desktop\WchWorkSPace\camCoreWithRTOS\obj/../Libraries/board/board.c:125
}
    4d7a:	40b2                	lw	ra,12(sp)
    4d7c:	0141                	addi	sp,sp,16
    4d7e:	8082                	ret

00004d80 <rt_hw_board_init>:
rt_hw_board_init():
C:\Users\29275\Desktop\WchWorkSPace\camCoreWithRTOS\obj/../Libraries/board/board.c:69
{
    4d80:	1141                	addi	sp,sp,-16
    4d82:	c606                	sw	ra,12(sp)
    4d84:	c422                	sw	s0,8(sp)
    4d86:	c226                	sw	s1,4(sp)
    4d88:	c04a                	sw	s2,0(sp)
C:\Users\29275\Desktop\WchWorkSPace\camCoreWithRTOS\obj/../Libraries/board/board.c:71
    board_init();
    4d8a:	fb1ff0ef          	jal	ra,4d3a <board_init>
C:\Users\29275\Desktop\WchWorkSPace\camCoreWithRTOS\obj/../Libraries/board/board.c:74
    systick_config(sys_clk / RT_TICK_PER_SECOND / 8);//systickHCLK/8
    4d8e:	8481a703          	lw	a4,-1976(gp) # 200000f8 <sys_clk>
    4d92:	6789                	lui	a5,0x2
    4d94:	f4078793          	addi	a5,a5,-192 # 1f40 <timer_quad_init+0xec>
    4d98:	02f75733          	divu	a4,a4,a5
systick_config():
C:\Users\29275\Desktop\WchWorkSPace\camCoreWithRTOS\obj/../Libraries/board/board.c:23
    ticks -= 1;
    4d9c:	177d                	addi	a4,a4,-1
C:\Users\29275\Desktop\WchWorkSPace\camCoreWithRTOS\obj/../Libraries/board/board.c:25
    SysTick->CNTL0 = 0;
    4d9e:	e000f7b7          	lui	a5,0xe000f
    4da2:	00078223          	sb	zero,4(a5) # e000f004 <_eusrstack+0xc000a004>
C:\Users\29275\Desktop\WchWorkSPace\camCoreWithRTOS\obj/../Libraries/board/board.c:26
    SysTick->CNTL1 = 0;
    4da6:	000782a3          	sb	zero,5(a5)
C:\Users\29275\Desktop\WchWorkSPace\camCoreWithRTOS\obj/../Libraries/board/board.c:27
    SysTick->CNTL2 = 0;
    4daa:	00078323          	sb	zero,6(a5)
C:\Users\29275\Desktop\WchWorkSPace\camCoreWithRTOS\obj/../Libraries/board/board.c:28
    SysTick->CNTL3 = 0;
    4dae:	000783a3          	sb	zero,7(a5)
C:\Users\29275\Desktop\WchWorkSPace\camCoreWithRTOS\obj/../Libraries/board/board.c:30
    SysTick->CNTH0 = 0;
    4db2:	00078423          	sb	zero,8(a5)
C:\Users\29275\Desktop\WchWorkSPace\camCoreWithRTOS\obj/../Libraries/board/board.c:31
    SysTick->CNTH1 = 0;
    4db6:	000784a3          	sb	zero,9(a5)
C:\Users\29275\Desktop\WchWorkSPace\camCoreWithRTOS\obj/../Libraries/board/board.c:32
    SysTick->CNTH2 = 0;
    4dba:	00078523          	sb	zero,10(a5)
C:\Users\29275\Desktop\WchWorkSPace\camCoreWithRTOS\obj/../Libraries/board/board.c:33
    SysTick->CNTH3 = 0;
    4dbe:	000785a3          	sb	zero,11(a5)
C:\Users\29275\Desktop\WchWorkSPace\camCoreWithRTOS\obj/../Libraries/board/board.c:35
    SysTick->CMPLR0 = (ticks >>  0) & 0xff;
    4dc2:	0ff77693          	andi	a3,a4,255
    4dc6:	00d78623          	sb	a3,12(a5)
C:\Users\29275\Desktop\WchWorkSPace\camCoreWithRTOS\obj/../Libraries/board/board.c:36
    SysTick->CMPLR1 = (ticks >>  8) & 0xff;
    4dca:	00875693          	srli	a3,a4,0x8
    4dce:	0ff6f693          	andi	a3,a3,255
    4dd2:	00d786a3          	sb	a3,13(a5)
C:\Users\29275\Desktop\WchWorkSPace\camCoreWithRTOS\obj/../Libraries/board/board.c:37
    SysTick->CMPLR2 = (ticks >> 16) & 0xff;
    4dd6:	01075693          	srli	a3,a4,0x10
    4dda:	0ff6f693          	andi	a3,a3,255
    4dde:	00d78723          	sb	a3,14(a5)
C:\Users\29275\Desktop\WchWorkSPace\camCoreWithRTOS\obj/../Libraries/board/board.c:38
    SysTick->CMPLR3 = (ticks >> 24) & 0xff;
    4de2:	8361                	srli	a4,a4,0x18
    4de4:	00e787a3          	sb	a4,15(a5)
C:\Users\29275\Desktop\WchWorkSPace\camCoreWithRTOS\obj/../Libraries/board/board.c:40
    SysTick->CMPHR0 = 0;
    4de8:	00078823          	sb	zero,16(a5)
C:\Users\29275\Desktop\WchWorkSPace\camCoreWithRTOS\obj/../Libraries/board/board.c:41
    SysTick->CMPHR1 = 0;
    4dec:	000788a3          	sb	zero,17(a5)
C:\Users\29275\Desktop\WchWorkSPace\camCoreWithRTOS\obj/../Libraries/board/board.c:42
    SysTick->CMPHR2 = 0;
    4df0:	00078923          	sb	zero,18(a5)
C:\Users\29275\Desktop\WchWorkSPace\camCoreWithRTOS\obj/../Libraries/board/board.c:43
    SysTick->CMPHR3 = 0;
    4df4:	000789a3          	sb	zero,19(a5)
NVIC_SetPriority():
C:\Users\29275\Desktop\WchWorkSPace\camCoreWithRTOS\obj/../Libraries/wch_libraries/Core/core_riscv.h:209
  NVIC->IPRIOR[(uint32_t)(IRQn)] = priority;
    4df8:	e000e437          	lui	s0,0xe000e
    4dfc:	54fd                	li	s1,-1
    4dfe:	40940623          	sb	s1,1036(s0) # e000e40c <_eusrstack+0xc000940c>
NVIC_EnableIRQ():
C:\Users\29275\Desktop\WchWorkSPace\camCoreWithRTOS\obj/../Libraries/wch_libraries/Core/core_riscv.h:127
  NVIC->IENR[((uint32_t)(IRQn) >> 5)] = (1 << ((uint32_t)(IRQn) & 0x1F));
    4e02:	6705                	lui	a4,0x1
    4e04:	10e42023          	sw	a4,256(s0)
systick_config():
C:\Users\29275\Desktop\WchWorkSPace\camCoreWithRTOS\obj/../Libraries/board/board.c:47
    SysTick->CTLR = 1;
    4e08:	4705                	li	a4,1
    4e0a:	c398                	sw	a4,0(a5)
rt_hw_board_init():
C:\Users\29275\Desktop\WchWorkSPace\camCoreWithRTOS\obj/../Libraries/board/board.c:78
    rt_components_board_init();
    4e0c:	c4efd0ef          	jal	ra,225a <rt_components_board_init>
C:\Users\29275\Desktop\WchWorkSPace\camCoreWithRTOS\obj/../Libraries/board/board.c:82
    rt_system_heap_init(rt_heap_begin_get(), rt_heap_end_get());
    4e10:	e9fff0ef          	jal	ra,4cae <rt_heap_begin_get>
    4e14:	892a                	mv	s2,a0
    4e16:	ea3ff0ef          	jal	ra,4cb8 <rt_heap_end_get>
    4e1a:	85aa                	mv	a1,a0
    4e1c:	854a                	mv	a0,s2
    4e1e:	baafe0ef          	jal	ra,31c8 <rt_system_heap_init>
C:\Users\29275\Desktop\WchWorkSPace\camCoreWithRTOS\obj/../Libraries/board/board.c:85
    uart_mb = rt_mb_create("uart_mb", 10, RT_IPC_FLAG_FIFO);
    4e22:	4601                	li	a2,0
    4e24:	45a9                	li	a1,10
    4e26:	00007537          	lui	a0,0x7
    4e2a:	56450513          	addi	a0,a0,1380 # 7564 <__fsym___cmd_ps_name+0xb0>
    4e2e:	f84fd0ef          	jal	ra,25b2 <rt_mb_create>
    4e32:	8aa1aa23          	sw	a0,-1868(gp) # 20000164 <uart_mb>
NVIC_EnableIRQ():
C:\Users\29275\Desktop\WchWorkSPace\camCoreWithRTOS\obj/../Libraries/wch_libraries/Core/core_riscv.h:127
    4e36:	6791                	lui	a5,0x4
    4e38:	10f42023          	sw	a5,256(s0)
NVIC_SetPriority():
C:\Users\29275\Desktop\WchWorkSPace\camCoreWithRTOS\obj/../Libraries/wch_libraries/Core/core_riscv.h:209
  NVIC->IPRIOR[(uint32_t)(IRQn)] = priority;
    4e3c:	40940723          	sb	s1,1038(s0)
rt_hw_board_init():
C:\Users\29275\Desktop\WchWorkSPace\camCoreWithRTOS\obj/../Libraries/board/board.c:91
}
    4e40:	40b2                	lw	ra,12(sp)
    4e42:	4422                	lw	s0,8(sp)
    4e44:	4492                	lw	s1,4(sp)
    4e46:	4902                	lw	s2,0(sp)
    4e48:	0141                	addi	sp,sp,16
    4e4a:	8082                	ret

00004e4c <_write>:
_write():
C:\Users\29275\Desktop\WchWorkSPace\camCoreWithRTOS\obj/../Libraries/board/board.c:136
//  @since      v1.0
//  Sample usage:              printfDEBUG
//-------------------------------------------------------------------------------------------------------------------
#if (1 == PRINTF_ENABLE)
int _write(int fd, char *buf, int size)
{
    4e4c:	1101                	addi	sp,sp,-32
    4e4e:	ce06                	sw	ra,28(sp)
    4e50:	cc22                	sw	s0,24(sp)
    4e52:	ca26                	sw	s1,20(sp)
    4e54:	c84a                	sw	s2,16(sp)
    4e56:	c64e                	sw	s3,12(sp)
    4e58:	89b2                	mv	s3,a2
C:\Users\29275\Desktop\WchWorkSPace\camCoreWithRTOS\obj/../Libraries/board/board.c:138
    int i;
    for(i=0; i<size; i++)
    4e5a:	02c05863          	blez	a2,4e8a <_write+0x3e>
    4e5e:	84ae                	mv	s1,a1
    4e60:	00c58933          	add	s2,a1,a2
C:\Users\29275\Desktop\WchWorkSPace\camCoreWithRTOS\obj/../Libraries/board/board.c:140
    {
        while (USART_GetFlagStatus((USART_TypeDef*)UARTN[DEBUG_UART], USART_FLAG_TC) == RESET);
    4e64:	679d                	lui	a5,0x7
    4e66:	d507a403          	lw	s0,-688(a5) # 6d50 <UARTN>
C:\Users\29275\Desktop\WchWorkSPace\camCoreWithRTOS\obj/../Libraries/board/board.c:140 (discriminator 1)
    4e6a:	04000593          	li	a1,64
    4e6e:	8522                	mv	a0,s0
    4e70:	fe2fc0ef          	jal	ra,1652 <USART_GetFlagStatus>
    4e74:	d97d                	beqz	a0,4e6a <_write+0x1e>
C:\Users\29275\Desktop\WchWorkSPace\camCoreWithRTOS\obj/../Libraries/board/board.c:141 (discriminator 2)
        USART_SendData((USART_TypeDef*)UARTN[DEBUG_UART], *buf++);
    4e76:	0485                	addi	s1,s1,1
    4e78:	fff48583          	lb	a1,-1(s1)
    4e7c:	05c2                	slli	a1,a1,0x10
    4e7e:	81c1                	srli	a1,a1,0x10
    4e80:	8522                	mv	a0,s0
    4e82:	fc6fc0ef          	jal	ra,1648 <USART_SendData>
C:\Users\29275\Desktop\WchWorkSPace\camCoreWithRTOS\obj/../Libraries/board/board.c:138 (discriminator 2)
    for(i=0; i<size; i++)
    4e86:	fe9912e3          	bne	s2,s1,4e6a <_write+0x1e>
C:\Users\29275\Desktop\WchWorkSPace\camCoreWithRTOS\obj/../Libraries/board/board.c:144
    }
    return size;
}
    4e8a:	854e                	mv	a0,s3
    4e8c:	40f2                	lw	ra,28(sp)
    4e8e:	4462                	lw	s0,24(sp)
    4e90:	44d2                	lw	s1,20(sp)
    4e92:	4942                	lw	s2,16(sp)
    4e94:	49b2                	lw	s3,12(sp)
    4e96:	6105                	addi	sp,sp,32
    4e98:	8082                	ret

00004e9a <rt_hw_console_output>:
rt_hw_console_output():
C:\Users\29275\Desktop\WchWorkSPace\camCoreWithRTOS\obj/../Libraries/board/board.c:149
#endif

void rt_hw_console_output(const char *str)
{
    while(RT_NULL != *str)
    4e9a:	00050783          	lb	a5,0(a0)
    4e9e:	cf8d                	beqz	a5,4ed8 <rt_hw_console_output+0x3e>
C:\Users\29275\Desktop\WchWorkSPace\camCoreWithRTOS\obj/../Libraries/board/board.c:148
{
    4ea0:	1141                	addi	sp,sp,-16
    4ea2:	c606                	sw	ra,12(sp)
    4ea4:	c422                	sw	s0,8(sp)
    4ea6:	c226                	sw	s1,4(sp)
    4ea8:	842a                	mv	s0,a0
C:\Users\29275\Desktop\WchWorkSPace\camCoreWithRTOS\obj/../Libraries/board/board.c:151
    {
        if('\n' == *str)
    4eaa:	44a9                	li	s1,10
    4eac:	a831                	j	4ec8 <rt_hw_console_output+0x2e>
C:\Users\29275\Desktop\WchWorkSPace\camCoreWithRTOS\obj/../Libraries/board/board.c:153
        {
            uart_putchar(DEBUG_UART, '\r');
    4eae:	45b5                	li	a1,13
    4eb0:	4501                	li	a0,0
    4eb2:	a6afd0ef          	jal	ra,211c <uart_putchar>
C:\Users\29275\Desktop\WchWorkSPace\camCoreWithRTOS\obj/../Libraries/board/board.c:155
        }
        uart_putchar(DEBUG_UART, *str++);
    4eb6:	0405                	addi	s0,s0,1
    4eb8:	fff44583          	lbu	a1,-1(s0)
    4ebc:	4501                	li	a0,0
    4ebe:	a5efd0ef          	jal	ra,211c <uart_putchar>
C:\Users\29275\Desktop\WchWorkSPace\camCoreWithRTOS\obj/../Libraries/board/board.c:149
    while(RT_NULL != *str)
    4ec2:	00040783          	lb	a5,0(s0)
    4ec6:	c781                	beqz	a5,4ece <rt_hw_console_output+0x34>
C:\Users\29275\Desktop\WchWorkSPace\camCoreWithRTOS\obj/../Libraries/board/board.c:151
        if('\n' == *str)
    4ec8:	fe9797e3          	bne	a5,s1,4eb6 <rt_hw_console_output+0x1c>
    4ecc:	b7cd                	j	4eae <rt_hw_console_output+0x14>
C:\Users\29275\Desktop\WchWorkSPace\camCoreWithRTOS\obj/../Libraries/board/board.c:157
    }
}
    4ece:	40b2                	lw	ra,12(sp)
    4ed0:	4422                	lw	s0,8(sp)
    4ed2:	4492                	lw	s1,4(sp)
    4ed4:	0141                	addi	sp,sp,16
    4ed6:	8082                	ret
    4ed8:	8082                	ret

00004eda <rt_hw_console_getchar>:
rt_hw_console_getchar():
C:\Users\29275\Desktop\WchWorkSPace\camCoreWithRTOS\obj/../Libraries/board/board.c:160

char rt_hw_console_getchar(void)
{
    4eda:	1101                	addi	sp,sp,-32
    4edc:	ce06                	sw	ra,28(sp)
C:\Users\29275\Desktop\WchWorkSPace\camCoreWithRTOS\obj/../Libraries/board/board.c:162
    uint32 dat;
    rt_mb_recv(uart_mb, &dat, RT_WAITING_FOREVER);
    4ede:	567d                	li	a2,-1
    4ee0:	006c                	addi	a1,sp,12
    4ee2:	8b41a503          	lw	a0,-1868(gp) # 20000164 <uart_mb>
    4ee6:	8e5fd0ef          	jal	ra,27ca <rt_mb_recv>
C:\Users\29275\Desktop\WchWorkSPace\camCoreWithRTOS\obj/../Libraries/board/board.c:165
    //uart_getchar(DEBUG_UART, &dat);
    return (char)dat;
}
    4eea:	00c10503          	lb	a0,12(sp)
    4eee:	40f2                	lw	ra,28(sp)
    4ef0:	6105                	addi	sp,sp,32
    4ef2:	8082                	ret

00004ef4 <USART1_IRQHandler>:
USART1_IRQHandler():
C:\Users\29275\Desktop\WchWorkSPace\camCoreWithRTOS\obj/../Libraries/board/board.c:170


void USART1_IRQHandler(void) __attribute__((interrupt()));
void USART1_IRQHandler(void)
{
    4ef4:	715d                	addi	sp,sp,-80
    4ef6:	c686                	sw	ra,76(sp)
    4ef8:	c496                	sw	t0,72(sp)
    4efa:	c29a                	sw	t1,68(sp)
    4efc:	c09e                	sw	t2,64(sp)
    4efe:	de2a                	sw	a0,60(sp)
    4f00:	dc2e                	sw	a1,56(sp)
    4f02:	da32                	sw	a2,52(sp)
    4f04:	d836                	sw	a3,48(sp)
    4f06:	d63a                	sw	a4,44(sp)
    4f08:	d43e                	sw	a5,40(sp)
    4f0a:	d242                	sw	a6,36(sp)
    4f0c:	d046                	sw	a7,32(sp)
    4f0e:	ce72                	sw	t3,28(sp)
    4f10:	cc76                	sw	t4,24(sp)
    4f12:	ca7a                	sw	t5,20(sp)
    4f14:	c87e                	sw	t6,16(sp)
C:\Users\29275\Desktop\WchWorkSPace\camCoreWithRTOS\obj/../Libraries/board/board.c:173
    uint8 dat;

    rt_interrupt_enter();       //
    4f16:	a57fd0ef          	jal	ra,296c <rt_interrupt_enter>
C:\Users\29275\Desktop\WchWorkSPace\camCoreWithRTOS\obj/../Libraries/board/board.c:175

    if(USART_GetITStatus(USART1, USART_IT_RXNE) != RESET)
    4f1a:	52500593          	li	a1,1317
    4f1e:	40014537          	lui	a0,0x40014
    4f22:	80050513          	addi	a0,a0,-2048 # 40013800 <_eusrstack+0x2000e800>
    4f26:	f38fc0ef          	jal	ra,165e <USART_GetITStatus>
    4f2a:	e515                	bnez	a0,4f56 <USART1_IRQHandler+0x62>
C:\Users\29275\Desktop\WchWorkSPace\camCoreWithRTOS\obj/../Libraries/board/board.c:181
    {
        uart_getchar(DEBUG_UART, &dat);
        rt_mb_send(uart_mb, dat);           // 
    }

    rt_interrupt_leave();       //
    4f2c:	a65fd0ef          	jal	ra,2990 <rt_interrupt_leave>
C:\Users\29275\Desktop\WchWorkSPace\camCoreWithRTOS\obj/../Libraries/board/board.c:182
}
    4f30:	40b6                	lw	ra,76(sp)
    4f32:	42a6                	lw	t0,72(sp)
    4f34:	4316                	lw	t1,68(sp)
    4f36:	4386                	lw	t2,64(sp)
    4f38:	5572                	lw	a0,60(sp)
    4f3a:	55e2                	lw	a1,56(sp)
    4f3c:	5652                	lw	a2,52(sp)
    4f3e:	56c2                	lw	a3,48(sp)
    4f40:	5732                	lw	a4,44(sp)
    4f42:	57a2                	lw	a5,40(sp)
    4f44:	5812                	lw	a6,36(sp)
    4f46:	5882                	lw	a7,32(sp)
    4f48:	4e72                	lw	t3,28(sp)
    4f4a:	4ee2                	lw	t4,24(sp)
    4f4c:	4f52                	lw	t5,20(sp)
    4f4e:	4fc2                	lw	t6,16(sp)
    4f50:	6161                	addi	sp,sp,80
    4f52:	30200073          	mret
C:\Users\29275\Desktop\WchWorkSPace\camCoreWithRTOS\obj/../Libraries/board/board.c:177
        uart_getchar(DEBUG_UART, &dat);
    4f56:	00f10593          	addi	a1,sp,15
    4f5a:	4501                	li	a0,0
    4f5c:	a4cfd0ef          	jal	ra,21a8 <uart_getchar>
C:\Users\29275\Desktop\WchWorkSPace\camCoreWithRTOS\obj/../Libraries/board/board.c:178
        rt_mb_send(uart_mb, dat);           // 
    4f60:	00f14583          	lbu	a1,15(sp)
    4f64:	8b41a503          	lw	a0,-1868(gp) # 20000164 <uart_mb>
    4f68:	855fd0ef          	jal	ra,27bc <rt_mb_send>
    4f6c:	b7c1                	j	4f2c <USART1_IRQHandler+0x38>

00004f6e <SystemInit>:
SystemInit():
C:\Users\29275\Desktop\WchWorkSPace\camCoreWithRTOS\obj/../Libraries/board/clock_config.c:84
*                  the PLL and update the SystemCoreClock variable.
* Input          : None
* Return         : None
*******************************************************************************************/
void SystemInit (void)
{
    4f6e:	1141                	addi	sp,sp,-16
C:\Users\29275\Desktop\WchWorkSPace\camCoreWithRTOS\obj/../Libraries/board/clock_config.c:85
    RCC->CTLR |= (uint32_t)0x00000001;
    4f70:	400217b7          	lui	a5,0x40021
    4f74:	4398                	lw	a4,0(a5)
    4f76:	00176713          	ori	a4,a4,1
    4f7a:	c398                	sw	a4,0(a5)
C:\Users\29275\Desktop\WchWorkSPace\camCoreWithRTOS\obj/../Libraries/board/clock_config.c:86
    RCC->CFGR0 &= (uint32_t)0xF8FF0000;
    4f7c:	43d8                	lw	a4,4(a5)
    4f7e:	f8ff06b7          	lui	a3,0xf8ff0
    4f82:	8f75                	and	a4,a4,a3
    4f84:	c3d8                	sw	a4,4(a5)
C:\Users\29275\Desktop\WchWorkSPace\camCoreWithRTOS\obj/../Libraries/board/clock_config.c:87
    RCC->CTLR &= (uint32_t)0xFEF6FFFF;
    4f86:	4398                	lw	a4,0(a5)
    4f88:	fef706b7          	lui	a3,0xfef70
    4f8c:	16fd                	addi	a3,a3,-1
    4f8e:	8f75                	and	a4,a4,a3
    4f90:	c398                	sw	a4,0(a5)
C:\Users\29275\Desktop\WchWorkSPace\camCoreWithRTOS\obj/../Libraries/board/clock_config.c:88
    RCC->CTLR &= (uint32_t)0xFFFBFFFF;
    4f92:	4398                	lw	a4,0(a5)
    4f94:	fffc06b7          	lui	a3,0xfffc0
    4f98:	16fd                	addi	a3,a3,-1
    4f9a:	8f75                	and	a4,a4,a3
    4f9c:	c398                	sw	a4,0(a5)
C:\Users\29275\Desktop\WchWorkSPace\camCoreWithRTOS\obj/../Libraries/board/clock_config.c:89
    RCC->CFGR0 &= (uint32_t)0xFF80FFFF;
    4f9e:	43d8                	lw	a4,4(a5)
    4fa0:	ff8106b7          	lui	a3,0xff810
    4fa4:	16fd                	addi	a3,a3,-1
    4fa6:	8f75                	and	a4,a4,a3
    4fa8:	c3d8                	sw	a4,4(a5)
C:\Users\29275\Desktop\WchWorkSPace\camCoreWithRTOS\obj/../Libraries/board/clock_config.c:90
    RCC->INTR = 0x009F0000;
    4faa:	009f0737          	lui	a4,0x9f0
    4fae:	c798                	sw	a4,8(a5)
SetSysClock():
C:\Users\29275\Desktop\WchWorkSPace\camCoreWithRTOS\obj/../Libraries/board/clock_config.c:12
    __IO uint32_t StartUpCounter = 0, HSEStatus = 0;
    4fb0:	c402                	sw	zero,8(sp)
    4fb2:	c602                	sw	zero,12(sp)
C:\Users\29275\Desktop\WchWorkSPace\camCoreWithRTOS\obj/../Libraries/board/clock_config.c:14
    RCC->CTLR |= ((uint32_t)RCC_HSEON);
    4fb4:	4398                	lw	a4,0(a5)
    4fb6:	66c1                	lui	a3,0x10
    4fb8:	8f55                	or	a4,a4,a3
    4fba:	c398                	sw	a4,0(a5)
C:\Users\29275\Desktop\WchWorkSPace\camCoreWithRTOS\obj/../Libraries/board/clock_config.c:19
        HSEStatus = RCC->CTLR & RCC_HSERDY;
    4fbc:	40021637          	lui	a2,0x40021
    4fc0:	000206b7          	lui	a3,0x20
C:\Users\29275\Desktop\WchWorkSPace\camCoreWithRTOS\obj/../Libraries/board/clock_config.c:21
    } while((HSEStatus == 0) && (StartUpCounter != HSE_STARTUP_TIMEOUT));
    4fc4:	50000713          	li	a4,1280
C:\Users\29275\Desktop\WchWorkSPace\camCoreWithRTOS\obj/../Libraries/board/clock_config.c:19
        HSEStatus = RCC->CTLR & RCC_HSERDY;
    4fc8:	421c                	lw	a5,0(a2)
    4fca:	8ff5                	and	a5,a5,a3
    4fcc:	c63e                	sw	a5,12(sp)
C:\Users\29275\Desktop\WchWorkSPace\camCoreWithRTOS\obj/../Libraries/board/clock_config.c:20
        StartUpCounter++;
    4fce:	47a2                	lw	a5,8(sp)
    4fd0:	0785                	addi	a5,a5,1
    4fd2:	c43e                	sw	a5,8(sp)
C:\Users\29275\Desktop\WchWorkSPace\camCoreWithRTOS\obj/../Libraries/board/clock_config.c:21
    } while((HSEStatus == 0) && (StartUpCounter != HSE_STARTUP_TIMEOUT));
    4fd4:	47b2                	lw	a5,12(sp)
    4fd6:	e781                	bnez	a5,4fde <SystemInit+0x70>
    4fd8:	47a2                	lw	a5,8(sp)
    4fda:	fee797e3          	bne	a5,a4,4fc8 <SystemInit+0x5a>
C:\Users\29275\Desktop\WchWorkSPace\camCoreWithRTOS\obj/../Libraries/board/clock_config.c:23
    if ((RCC->CTLR & RCC_HSERDY) != RESET)
    4fde:	400217b7          	lui	a5,0x40021
    4fe2:	439c                	lw	a5,0(a5)
    4fe4:	00e79713          	slli	a4,a5,0xe
    4fe8:	02075063          	bgez	a4,5008 <SystemInit+0x9a>
C:\Users\29275\Desktop\WchWorkSPace\camCoreWithRTOS\obj/../Libraries/board/clock_config.c:25
        HSEStatus = (uint32_t)0x01;
    4fec:	4785                	li	a5,1
    4fee:	c63e                	sw	a5,12(sp)
C:\Users\29275\Desktop\WchWorkSPace\camCoreWithRTOS\obj/../Libraries/board/clock_config.c:32
    if (HSEStatus == (uint32_t)0x01)
    4ff0:	4732                	lw	a4,12(sp)
    4ff2:	4785                	li	a5,1
    4ff4:	00f70c63          	beq	a4,a5,500c <SystemInit+0x9e>
SystemInit():
C:\Users\29275\Desktop\WchWorkSPace\camCoreWithRTOS\obj/../Libraries/board/clock_config.c:92
    SetSysClock();
    PFIC->CFGR = 0xfa050001;
    4ff8:	e000e737          	lui	a4,0xe000e
    4ffc:	fa0507b7          	lui	a5,0xfa050
    5000:	0785                	addi	a5,a5,1
    5002:	c73c                	sw	a5,72(a4)
C:\Users\29275\Desktop\WchWorkSPace\camCoreWithRTOS\obj/../Libraries/board/clock_config.c:93
}
    5004:	0141                	addi	sp,sp,16
    5006:	8082                	ret
SetSysClock():
C:\Users\29275\Desktop\WchWorkSPace\camCoreWithRTOS\obj/../Libraries/board/clock_config.c:29
        HSEStatus = (uint32_t)0x00;
    5008:	c602                	sw	zero,12(sp)
    500a:	b7dd                	j	4ff0 <SystemInit+0x82>
C:\Users\29275\Desktop\WchWorkSPace\camCoreWithRTOS\obj/../Libraries/board/clock_config.c:35
        FLASH->ACTLR |= FLASH_ACTLR_PRFTBE;
    500c:	400227b7          	lui	a5,0x40022
    5010:	4398                	lw	a4,0(a5)
    5012:	01076713          	ori	a4,a4,16
    5016:	c398                	sw	a4,0(a5)
C:\Users\29275\Desktop\WchWorkSPace\camCoreWithRTOS\obj/../Libraries/board/clock_config.c:38
        FLASH->ACTLR &= (uint32_t)((uint32_t)~FLASH_ACTLR_LATENCY);
    5018:	4398                	lw	a4,0(a5)
    501a:	9b71                	andi	a4,a4,-4
    501c:	c398                	sw	a4,0(a5)
C:\Users\29275\Desktop\WchWorkSPace\camCoreWithRTOS\obj/../Libraries/board/clock_config.c:39
        FLASH->ACTLR |= (uint32_t)FLASH_ACTLR_LATENCY_2;
    501e:	4398                	lw	a4,0(a5)
    5020:	00276713          	ori	a4,a4,2
    5024:	c398                	sw	a4,0(a5)
C:\Users\29275\Desktop\WchWorkSPace\camCoreWithRTOS\obj/../Libraries/board/clock_config.c:42
        RCC->CFGR0 |= (uint32_t)RCC_HPRE_DIV1;
    5026:	400217b7          	lui	a5,0x40021
    502a:	43d8                	lw	a4,4(a5)
    502c:	c3d8                	sw	a4,4(a5)
C:\Users\29275\Desktop\WchWorkSPace\camCoreWithRTOS\obj/../Libraries/board/clock_config.c:44
        RCC->CFGR0 |= (uint32_t)RCC_PPRE2_DIV1;
    502e:	43d8                	lw	a4,4(a5)
    5030:	c3d8                	sw	a4,4(a5)
C:\Users\29275\Desktop\WchWorkSPace\camCoreWithRTOS\obj/../Libraries/board/clock_config.c:46
        RCC->CFGR0 |= (uint32_t)RCC_PPRE1_DIV1;
    5032:	43d8                	lw	a4,4(a5)
    5034:	c3d8                	sw	a4,4(a5)
C:\Users\29275\Desktop\WchWorkSPace\camCoreWithRTOS\obj/../Libraries/board/clock_config.c:49
        RCC->CFGR0 &= (uint32_t)((uint32_t)~(RCC_PLLSRC | RCC_PLLXTPRE |
    5036:	43d8                	lw	a4,4(a5)
    5038:	ffc106b7          	lui	a3,0xffc10
    503c:	16fd                	addi	a3,a3,-1
    503e:	8f75                	and	a4,a4,a3
    5040:	c3d8                	sw	a4,4(a5)
C:\Users\29275\Desktop\WchWorkSPace\camCoreWithRTOS\obj/../Libraries/board/clock_config.c:52
        RCC->CFGR0 |= (uint32_t)(RCC_PLLSRC_HSE | RCC_PLLMULL11);
    5042:	43d8                	lw	a4,4(a5)
    5044:	002506b7          	lui	a3,0x250
    5048:	8f55                	or	a4,a4,a3
    504a:	c3d8                	sw	a4,4(a5)
C:\Users\29275\Desktop\WchWorkSPace\camCoreWithRTOS\obj/../Libraries/board/clock_config.c:54
        RCC->CTLR |= RCC_PLLON;
    504c:	4398                	lw	a4,0(a5)
    504e:	010006b7          	lui	a3,0x1000
    5052:	8f55                	or	a4,a4,a3
    5054:	c398                	sw	a4,0(a5)
C:\Users\29275\Desktop\WchWorkSPace\camCoreWithRTOS\obj/../Libraries/board/clock_config.c:56
        while((RCC->CTLR & RCC_PLLRDY) == 0)
    5056:	40021737          	lui	a4,0x40021
    505a:	431c                	lw	a5,0(a4)
    505c:	00679693          	slli	a3,a5,0x6
    5060:	fe06dde3          	bgez	a3,505a <SystemInit+0xec>
C:\Users\29275\Desktop\WchWorkSPace\camCoreWithRTOS\obj/../Libraries/board/clock_config.c:60
        RCC->CFGR0 &= (uint32_t)((uint32_t)~(RCC_SW));
    5064:	400217b7          	lui	a5,0x40021
    5068:	43d8                	lw	a4,4(a5)
    506a:	9b71                	andi	a4,a4,-4
    506c:	c3d8                	sw	a4,4(a5)
C:\Users\29275\Desktop\WchWorkSPace\camCoreWithRTOS\obj/../Libraries/board/clock_config.c:61
        RCC->CFGR0 |= (uint32_t)RCC_SW_PLL;
    506e:	43d8                	lw	a4,4(a5)
    5070:	00276713          	ori	a4,a4,2
    5074:	c3d8                	sw	a4,4(a5)
C:\Users\29275\Desktop\WchWorkSPace\camCoreWithRTOS\obj/../Libraries/board/clock_config.c:63
        while ((RCC->CFGR0 & (uint32_t)RCC_SWS) != (uint32_t)0x08)
    5076:	400216b7          	lui	a3,0x40021
    507a:	4721                	li	a4,8
    507c:	42dc                	lw	a5,4(a3)
    507e:	8bb1                	andi	a5,a5,12
    5080:	fee79ee3          	bne	a5,a4,507c <SystemInit+0x10e>
    5084:	bf95                	j	4ff8 <SystemInit+0x8a>

00005086 <encoder_init>:
encoder_init():
C:\Users\29275\Desktop\WchWorkSPace\camCoreWithRTOS\obj/../CODE/communication.c:19
int ABS(int x){
    return x>0?x:-x;
}

void encoder_init(void)
{
    5086:	1141                	addi	sp,sp,-16
    5088:	c606                	sw	ra,12(sp)
C:\Users\29275\Desktop\WchWorkSPace\camCoreWithRTOS\obj/../CODE/communication.c:20
    timer_quad_init(TIMER_2, TIMER2_CHA_A15, TIMER2_CHB_B3);
    508a:	4615                	li	a2,5
    508c:	4591                	li	a1,4
    508e:	4505                	li	a0,1
    5090:	dc5fc0ef          	jal	ra,1e54 <timer_quad_init>
C:\Users\29275\Desktop\WchWorkSPace\camCoreWithRTOS\obj/../CODE/communication.c:21
    timer_quad_init(TIMER_3, TIMER3_CHA_B4, TIMER3_CHB_B5);
    5094:	462d                	li	a2,11
    5096:	45a9                	li	a1,10
    5098:	4509                	li	a0,2
    509a:	dbbfc0ef          	jal	ra,1e54 <timer_quad_init>
C:\Users\29275\Desktop\WchWorkSPace\camCoreWithRTOS\obj/../CODE/communication.c:22
}
    509e:	40b2                	lw	ra,12(sp)
    50a0:	0141                	addi	sp,sp,16
    50a2:	8082                	ret

000050a4 <get_sensor_data>:
get_sensor_data():
C:\Users\29275\Desktop\WchWorkSPace\camCoreWithRTOS\obj/../CODE/communication.c:25

void get_sensor_data(void)
{
    50a4:	1141                	addi	sp,sp,-16
    50a6:	c606                	sw	ra,12(sp)
C:\Users\29275\Desktop\WchWorkSPace\camCoreWithRTOS\obj/../CODE/communication.c:26
    if(gpio_get(B5))
    50a8:	02500513          	li	a0,37
    50ac:	beffc0ef          	jal	ra,1c9a <gpio_get>
    50b0:	c129                	beqz	a0,50f2 <get_sensor_data+0x4e>
C:\Users\29275\Desktop\WchWorkSPace\camCoreWithRTOS\obj/../CODE/communication.c:27
        encoder_left_front = ABS(timer_quad_get(TIMER_3));
    50b2:	4509                	li	a0,2
    50b4:	ea5fc0ef          	jal	ra,1f58 <timer_quad_get>
ABS():
C:\Users\29275\Desktop\WchWorkSPace\camCoreWithRTOS\obj/../CODE/communication.c:15
    return x>0?x:-x;
    50b8:	41f55793          	srai	a5,a0,0x1f
    50bc:	8d3d                	xor	a0,a0,a5
    50be:	8d1d                	sub	a0,a0,a5
get_sensor_data():
C:\Users\29275\Desktop\WchWorkSPace\camCoreWithRTOS\obj/../CODE/communication.c:27
        encoder_left_front = ABS(timer_quad_get(TIMER_3));
    50c0:	8aa19c23          	sh	a0,-1864(gp) # 20000168 <encoder_left_front>
C:\Users\29275\Desktop\WchWorkSPace\camCoreWithRTOS\obj/../CODE/communication.c:31
    else
        encoder_left_front = -ABS(timer_quad_get(TIMER_3));

    timer_quad_clear(TIMER_3);                      //
    50c4:	4509                	li	a0,2
    50c6:	ea9fc0ef          	jal	ra,1f6e <timer_quad_clear>
C:\Users\29275\Desktop\WchWorkSPace\camCoreWithRTOS\obj/../CODE/communication.c:34

    //
    if(gpio_get(B3))
    50ca:	02300513          	li	a0,35
    50ce:	bcdfc0ef          	jal	ra,1c9a <gpio_get>
    50d2:	c915                	beqz	a0,5106 <get_sensor_data+0x62>
C:\Users\29275\Desktop\WchWorkSPace\camCoreWithRTOS\obj/../CODE/communication.c:35
        encoder_left_rear = -ABS(timer_quad_get(TIMER_2));
    50d4:	4505                	li	a0,1
    50d6:	e83fc0ef          	jal	ra,1f58 <timer_quad_get>
ABS():
C:\Users\29275\Desktop\WchWorkSPace\camCoreWithRTOS\obj/../CODE/communication.c:15
    return x>0?x:-x;
    50da:	41f55793          	srai	a5,a0,0x1f
    50de:	8d3d                	xor	a0,a0,a5
get_sensor_data():
C:\Users\29275\Desktop\WchWorkSPace\camCoreWithRTOS\obj/../CODE/communication.c:35
        encoder_left_rear = -ABS(timer_quad_get(TIMER_2));
    50e0:	8f89                	sub	a5,a5,a0
    50e2:	8af19d23          	sh	a5,-1862(gp) # 2000016a <encoder_left_rear>
C:\Users\29275\Desktop\WchWorkSPace\camCoreWithRTOS\obj/../CODE/communication.c:40
    else
        encoder_left_rear = ABS(timer_quad_get(TIMER_2));

    //
    timer_quad_clear(TIMER_2);
    50e6:	4505                	li	a0,1
    50e8:	e87fc0ef          	jal	ra,1f6e <timer_quad_clear>
C:\Users\29275\Desktop\WchWorkSPace\camCoreWithRTOS\obj/../CODE/communication.c:41
}
    50ec:	40b2                	lw	ra,12(sp)
    50ee:	0141                	addi	sp,sp,16
    50f0:	8082                	ret
C:\Users\29275\Desktop\WchWorkSPace\camCoreWithRTOS\obj/../CODE/communication.c:29
        encoder_left_front = -ABS(timer_quad_get(TIMER_3));
    50f2:	4509                	li	a0,2
    50f4:	e65fc0ef          	jal	ra,1f58 <timer_quad_get>
ABS():
C:\Users\29275\Desktop\WchWorkSPace\camCoreWithRTOS\obj/../CODE/communication.c:15
    return x>0?x:-x;
    50f8:	41f55793          	srai	a5,a0,0x1f
    50fc:	8d3d                	xor	a0,a0,a5
get_sensor_data():
C:\Users\29275\Desktop\WchWorkSPace\camCoreWithRTOS\obj/../CODE/communication.c:29
        encoder_left_front = -ABS(timer_quad_get(TIMER_3));
    50fe:	8f89                	sub	a5,a5,a0
    5100:	8af19c23          	sh	a5,-1864(gp) # 20000168 <encoder_left_front>
    5104:	b7c1                	j	50c4 <get_sensor_data+0x20>
C:\Users\29275\Desktop\WchWorkSPace\camCoreWithRTOS\obj/../CODE/communication.c:37
        encoder_left_rear = ABS(timer_quad_get(TIMER_2));
    5106:	4505                	li	a0,1
    5108:	e51fc0ef          	jal	ra,1f58 <timer_quad_get>
ABS():
C:\Users\29275\Desktop\WchWorkSPace\camCoreWithRTOS\obj/../CODE/communication.c:15
    return x>0?x:-x;
    510c:	41f55793          	srai	a5,a0,0x1f
    5110:	8d3d                	xor	a0,a0,a5
    5112:	8d1d                	sub	a0,a0,a5
get_sensor_data():
C:\Users\29275\Desktop\WchWorkSPace\camCoreWithRTOS\obj/../CODE/communication.c:37
        encoder_left_rear = ABS(timer_quad_get(TIMER_2));
    5114:	8aa19d23          	sh	a0,-1862(gp) # 2000016a <encoder_left_rear>
    5118:	b7f9                	j	50e6 <get_sensor_data+0x42>

0000511a <process_data>:
process_data():
C:\Users\29275\Desktop\WchWorkSPace\camCoreWithRTOS\obj/../CODE/communication.c:45
int16 slave_position=10;
void process_data(void)
{
    temp_buff[0] = 0xD8;                         //
    511a:	200027b7          	lui	a5,0x20002
    511e:	0c078793          	addi	a5,a5,192 # 200020c0 <temp_buff>
    5122:	fd800713          	li	a4,-40
    5126:	00e78023          	sb	a4,0(a5)
C:\Users\29275\Desktop\WchWorkSPace\camCoreWithRTOS\obj/../CODE/communication.c:47

    temp_buff[1] = 0xB0;                         //
    512a:	fb000713          	li	a4,-80
    512e:	00e780a3          	sb	a4,1(a5)
C:\Users\29275\Desktop\WchWorkSPace\camCoreWithRTOS\obj/../CODE/communication.c:48
    temp_buff[2] = encoder_left_front>>8;        //8
    5132:	8b819703          	lh	a4,-1864(gp) # 20000168 <encoder_left_front>
    5136:	40875693          	srai	a3,a4,0x8
    513a:	00d78123          	sb	a3,2(a5)
C:\Users\29275\Desktop\WchWorkSPace\camCoreWithRTOS\obj/../CODE/communication.c:49
    temp_buff[3] = encoder_left_front&0xFF;      //8
    513e:	00e781a3          	sb	a4,3(a5)
C:\Users\29275\Desktop\WchWorkSPace\camCoreWithRTOS\obj/../CODE/communication.c:51

    temp_buff[4] = 0xB1;                         //
    5142:	fb100713          	li	a4,-79
    5146:	00e78223          	sb	a4,4(a5)
C:\Users\29275\Desktop\WchWorkSPace\camCoreWithRTOS\obj/../CODE/communication.c:52
    temp_buff[5] = encoder_left_rear>>8;       //8
    514a:	8ba19703          	lh	a4,-1862(gp) # 2000016a <encoder_left_rear>
    514e:	40875693          	srai	a3,a4,0x8
    5152:	00d782a3          	sb	a3,5(a5)
C:\Users\29275\Desktop\WchWorkSPace\camCoreWithRTOS\obj/../CODE/communication.c:53
    temp_buff[6] = encoder_left_rear&0xFF;     //8
    5156:	00e78323          	sb	a4,6(a5)
C:\Users\29275\Desktop\WchWorkSPace\camCoreWithRTOS\obj/../CODE/communication.c:55

    temp_buff[7] = 0xB2;                         //
    515a:	fb200713          	li	a4,-78
    515e:	00e783a3          	sb	a4,7(a5)
C:\Users\29275\Desktop\WchWorkSPace\camCoreWithRTOS\obj/../CODE/communication.c:56
    temp_buff[8] = slave_position>>8;            //8
    5162:	80819703          	lh	a4,-2040(gp) # 200000b8 <slave_position>
    5166:	40875693          	srai	a3,a4,0x8
    516a:	00d78423          	sb	a3,8(a5)
C:\Users\29275\Desktop\WchWorkSPace\camCoreWithRTOS\obj/../CODE/communication.c:57
    temp_buff[9] = slave_position&0xFF;          //8
    516e:	00e784a3          	sb	a4,9(a5)
C:\Users\29275\Desktop\WchWorkSPace\camCoreWithRTOS\obj/../CODE/communication.c:59

    temp_buff[10] = 0xEE;                        //
    5172:	5739                	li	a4,-18
    5174:	00e78523          	sb	a4,10(a5)
C:\Users\29275\Desktop\WchWorkSPace\camCoreWithRTOS\obj/../CODE/communication.c:60
}
    5178:	8082                	ret

0000517a <show_speed>:
show_speed():
C:\Users\29275\Desktop\WchWorkSPace\camCoreWithRTOS\obj/../CODE/display.c:6
#include "headfile.h"
#include "display.h"
#include "communication.h"

void show_speed(void)
{
    517a:	7179                	addi	sp,sp,-48
    517c:	d606                	sw	ra,44(sp)
C:\Users\29275\Desktop\WchWorkSPace\camCoreWithRTOS\obj/../CODE/display.c:7
    char txt[32]={0};
    517e:	c002                	sw	zero,0(sp)
    5180:	c202                	sw	zero,4(sp)
    5182:	c402                	sw	zero,8(sp)
    5184:	c602                	sw	zero,12(sp)
    5186:	c802                	sw	zero,16(sp)
    5188:	ca02                	sw	zero,20(sp)
    518a:	cc02                	sw	zero,24(sp)
    518c:	ce02                	sw	zero,28(sp)
C:\Users\29275\Desktop\WchWorkSPace\camCoreWithRTOS\obj/../CODE/display.c:9

    sprintf(txt,"left_front = %05d",encoder_left_front);
    518e:	8b819603          	lh	a2,-1864(gp) # 20000168 <encoder_left_front>
    5192:	000075b7          	lui	a1,0x7
    5196:	58058593          	addi	a1,a1,1408 # 7580 <__fsym___cmd_ps_name+0xcc>
    519a:	850a                	mv	a0,sp
    519c:	0ad000ef          	jal	ra,5a48 <siprintf>
C:\Users\29275\Desktop\WchWorkSPace\camCoreWithRTOS\obj/../CODE/display.c:10
    oled_p6x8str(0, 2, txt);
    51a0:	860a                	mv	a2,sp
    51a2:	4589                	li	a1,2
    51a4:	4501                	li	a0,0
    51a6:	819fc0ef          	jal	ra,19be <oled_p6x8str>
C:\Users\29275\Desktop\WchWorkSPace\camCoreWithRTOS\obj/../CODE/display.c:11
    sprintf(txt,"right_rear = %05d",encoder_left_rear);
    51aa:	8ba19603          	lh	a2,-1862(gp) # 2000016a <encoder_left_rear>
    51ae:	000075b7          	lui	a1,0x7
    51b2:	59458593          	addi	a1,a1,1428 # 7594 <__fsym___cmd_ps_name+0xe0>
    51b6:	850a                	mv	a0,sp
    51b8:	091000ef          	jal	ra,5a48 <siprintf>
C:\Users\29275\Desktop\WchWorkSPace\camCoreWithRTOS\obj/../CODE/display.c:12
    oled_p6x8str(0, 3, txt);
    51bc:	860a                	mv	a2,sp
    51be:	458d                	li	a1,3
    51c0:	4501                	li	a0,0
    51c2:	ffcfc0ef          	jal	ra,19be <oled_p6x8str>
C:\Users\29275\Desktop\WchWorkSPace\camCoreWithRTOS\obj/../CODE/display.c:13
}
    51c6:	50b2                	lw	ra,44(sp)
    51c8:	6145                	addi	sp,sp,48
    51ca:	8082                	ret

000051cc <display_entry>:
display_entry():
C:\Users\29275\Desktop\WchWorkSPace\camCoreWithRTOS\obj/../CODE/display.c:17


void display_entry(void *parameter)
{
    51cc:	1141                	addi	sp,sp,-16
    51ce:	c606                	sw	ra,12(sp)
    51d0:	c422                	sw	s0,8(sp)
C:\Users\29275\Desktop\WchWorkSPace\camCoreWithRTOS\obj/../CODE/display.c:25
    while(1)
    {
        //ips114_displayimage032(mt9v03x_image[0], MT9V03X_W, MT9V03X_H);
        //count++;
        show_speed();
        oled_p6x8str(0, 5, "Init OK!");
    51d2:	00007437          	lui	s0,0x7
C:\Users\29275\Desktop\WchWorkSPace\camCoreWithRTOS\obj/../CODE/display.c:24 (discriminator 1)
        show_speed();
    51d6:	fa5ff0ef          	jal	ra,517a <show_speed>
C:\Users\29275\Desktop\WchWorkSPace\camCoreWithRTOS\obj/../CODE/display.c:25 (discriminator 1)
        oled_p6x8str(0, 5, "Init OK!");
    51da:	56c40613          	addi	a2,s0,1388 # 756c <__fsym___cmd_ps_name+0xb8>
    51de:	4595                	li	a1,5
    51e0:	4501                	li	a0,0
    51e2:	fdcfc0ef          	jal	ra,19be <oled_p6x8str>
    51e6:	bfc5                	j	51d6 <display_entry+0xa>

000051e8 <display_init>:
display_init():
C:\Users\29275\Desktop\WchWorkSPace\camCoreWithRTOS\obj/../CODE/display.c:35




void display_init(void)
{
    51e8:	1141                	addi	sp,sp,-16
    51ea:	c606                	sw	ra,12(sp)
C:\Users\29275\Desktop\WchWorkSPace\camCoreWithRTOS\obj/../CODE/display.c:39
    rt_thread_t tid1;

    //
    oled_init();
    51ec:	eb6fc0ef          	jal	ra,18a2 <oled_init>
C:\Users\29275\Desktop\WchWorkSPace\camCoreWithRTOS\obj/../CODE/display.c:42
    
    // 6 
    tid1 = rt_thread_create("display", display_entry, RT_NULL, 1024, 6, 50);
    51f0:	03200793          	li	a5,50
    51f4:	4719                	li	a4,6
    51f6:	40000693          	li	a3,1024
    51fa:	4601                	li	a2,0
    51fc:	000055b7          	lui	a1,0x5
    5200:	1cc58593          	addi	a1,a1,460 # 51cc <display_entry>
    5204:	00007537          	lui	a0,0x7
    5208:	57850513          	addi	a0,a0,1400 # 7578 <__fsym___cmd_ps_name+0xc4>
    520c:	eecfe0ef          	jal	ra,38f8 <rt_thread_create>
C:\Users\29275\Desktop\WchWorkSPace\camCoreWithRTOS\obj/../CODE/display.c:45
    
    //
    if(RT_NULL != tid1)
    5210:	c119                	beqz	a0,5216 <display_init+0x2e>
C:\Users\29275\Desktop\WchWorkSPace\camCoreWithRTOS\obj/../CODE/display.c:47
    {
        rt_thread_startup(tid1);
    5212:	903fe0ef          	jal	ra,3b14 <rt_thread_startup>
C:\Users\29275\Desktop\WchWorkSPace\camCoreWithRTOS\obj/../CODE/display.c:49
    }
}
    5216:	40b2                	lw	ra,12(sp)
    5218:	0141                	addi	sp,sp,16
    521a:	8082                	ret

0000521c <timer1_pit_entry>:
timer1_pit_entry():
C:\Users\29275\Desktop\WchWorkSPace\camCoreWithRTOS\obj/../CODE/timer_pit.c:5
#include "timer_pit.h"
#include "communication.h"

void timer1_pit_entry(void *parameter)
{
    521c:	1141                	addi	sp,sp,-16
    521e:	c606                	sw	ra,12(sp)
C:\Users\29275\Desktop\WchWorkSPace\camCoreWithRTOS\obj/../CODE/timer_pit.c:8
    //static uint32 time;
    //time++;
    get_sensor_data();                          //
    5220:	e85ff0ef          	jal	ra,50a4 <get_sensor_data>
C:\Users\29275\Desktop\WchWorkSPace\camCoreWithRTOS\obj/../CODE/timer_pit.c:9
    process_data();                             //temp_buff
    5224:	ef7ff0ef          	jal	ra,511a <process_data>
C:\Users\29275\Desktop\WchWorkSPace\camCoreWithRTOS\obj/../CODE/timer_pit.c:10
    uart_putbuff(UART_3, temp_buff, LINE_LEN);  //3
    5228:	462d                	li	a2,11
    522a:	200025b7          	lui	a1,0x20002
    522e:	0c058593          	addi	a1,a1,192 # 200020c0 <temp_buff>
    5232:	4509                	li	a0,2
    5234:	f09fc0ef          	jal	ra,213c <uart_putbuff>
C:\Users\29275\Desktop\WchWorkSPace\camCoreWithRTOS\obj/../CODE/timer_pit.c:11
    GPIO_PIN_SET(B12);
    5238:	679d                	lui	a5,0x7
    523a:	d347a783          	lw	a5,-716(a5) # 6d34 <GPION+0x4>
    523e:	6705                	lui	a4,0x1
    5240:	cb98                	sw	a4,16(a5)
C:\Users\29275\Desktop\WchWorkSPace\camCoreWithRTOS\obj/../CODE/timer_pit.c:12
    GPIO_PIN_RESET(B12);                         //A0
    5242:	cbd8                	sw	a4,20(a5)
C:\Users\29275\Desktop\WchWorkSPace\camCoreWithRTOS\obj/../CODE/timer_pit.c:16
    //
    //

}
    5244:	40b2                	lw	ra,12(sp)
    5246:	0141                	addi	sp,sp,16
    5248:	8082                	ret

0000524a <timer_pit_init>:
timer_pit_init():
C:\Users\29275\Desktop\WchWorkSPace\camCoreWithRTOS\obj/../CODE/timer_pit.c:20


void timer_pit_init(void)
{
    524a:	1141                	addi	sp,sp,-16
    524c:	c606                	sw	ra,12(sp)
C:\Users\29275\Desktop\WchWorkSPace\camCoreWithRTOS\obj/../CODE/timer_pit.c:24
    rt_timer_t timer;
    
    // 
    timer = rt_timer_create("timer1", timer1_pit_entry, RT_NULL, 5, RT_TIMER_FLAG_PERIODIC);
    524e:	4709                	li	a4,2
    5250:	4695                	li	a3,5
    5252:	4601                	li	a2,0
    5254:	000055b7          	lui	a1,0x5
    5258:	21c58593          	addi	a1,a1,540 # 521c <timer1_pit_entry>
    525c:	00007537          	lui	a0,0x7
    5260:	5a850513          	addi	a0,a0,1448 # 75a8 <__fsym___cmd_ps_name+0xf4>
    5264:	961fe0ef          	jal	ra,3bc4 <rt_timer_create>
C:\Users\29275\Desktop\WchWorkSPace\camCoreWithRTOS\obj/../CODE/timer_pit.c:27
    
    //
    if(RT_NULL != timer)
    5268:	c119                	beqz	a0,526e <timer_pit_init+0x24>
C:\Users\29275\Desktop\WchWorkSPace\camCoreWithRTOS\obj/../CODE/timer_pit.c:29
    {
        rt_timer_start(timer);
    526a:	9a3fe0ef          	jal	ra,3c0c <rt_timer_start>
C:\Users\29275\Desktop\WchWorkSPace\camCoreWithRTOS\obj/../CODE/timer_pit.c:33
    }

    
}
    526e:	40b2                	lw	ra,12(sp)
    5270:	0141                	addi	sp,sp,16
    5272:	8082                	ret

00005274 <__assert_func>:
__assert_func():
    5274:	80c18793          	addi	a5,gp,-2036 # 200000bc <_impure_ptr>
    5278:	439c                	lw	a5,0(a5)
    527a:	1141                	addi	sp,sp,-16
    527c:	8832                	mv	a6,a2
    527e:	c606                	sw	ra,12(sp)
    5280:	88aa                	mv	a7,a0
    5282:	872e                	mv	a4,a1
    5284:	47c8                	lw	a0,12(a5)
    5286:	8636                	mv	a2,a3
    5288:	00002797          	auipc	a5,0x2
    528c:	32878793          	addi	a5,a5,808 # 75b0 <__fsym___cmd_ps_name+0xfc>
    5290:	00081763          	bnez	a6,529e <__assert_func+0x2a>
    5294:	00002797          	auipc	a5,0x2
    5298:	0ec78793          	addi	a5,a5,236 # 7380 <__fsym_list_timer_name+0x1a0>
    529c:	883e                	mv	a6,a5
    529e:	86c6                	mv	a3,a7
    52a0:	00002597          	auipc	a1,0x2
    52a4:	32058593          	addi	a1,a1,800 # 75c0 <__fsym___cmd_ps_name+0x10c>
    52a8:	2019                	jal	52ae <fiprintf>
    52aa:	213000ef          	jal	ra,5cbc <abort>

000052ae <fiprintf>:
fprintf():
    52ae:	7139                	addi	sp,sp,-64
    52b0:	d432                	sw	a2,40(sp)
    52b2:	d636                	sw	a3,44(sp)
    52b4:	da3e                	sw	a5,52(sp)
    52b6:	d83a                	sw	a4,48(sp)
    52b8:	dc42                	sw	a6,56(sp)
    52ba:	de46                	sw	a7,60(sp)
    52bc:	80c18793          	addi	a5,gp,-2036 # 200000bc <_impure_ptr>
    52c0:	862e                	mv	a2,a1
    52c2:	85aa                	mv	a1,a0
    52c4:	4388                	lw	a0,0(a5)
    52c6:	1034                	addi	a3,sp,40
    52c8:	ce06                	sw	ra,28(sp)
    52ca:	c636                	sw	a3,12(sp)
    52cc:	222d                	jal	53f6 <_vfiprintf_r>
    52ce:	40f2                	lw	ra,28(sp)
    52d0:	6121                	addi	sp,sp,64
    52d2:	8082                	ret

000052d4 <memcpy>:
memcpy():
    52d4:	00a5c7b3          	xor	a5,a1,a0
    52d8:	8b8d                	andi	a5,a5,3
    52da:	00c50733          	add	a4,a0,a2
    52de:	e781                	bnez	a5,52e6 <memcpy+0x12>
    52e0:	478d                	li	a5,3
    52e2:	00c7ee63          	bltu	a5,a2,52fe <memcpy+0x2a>
    52e6:	87aa                	mv	a5,a0
    52e8:	0ae57063          	bgeu	a0,a4,5388 <memcpy+0xb4>
    52ec:	0005c683          	lbu	a3,0(a1)
    52f0:	0785                	addi	a5,a5,1
    52f2:	0585                	addi	a1,a1,1
    52f4:	fed78fa3          	sb	a3,-1(a5)
    52f8:	fee7eae3          	bltu	a5,a4,52ec <memcpy+0x18>
    52fc:	8082                	ret
    52fe:	00357693          	andi	a3,a0,3
    5302:	87aa                	mv	a5,a0
    5304:	ca91                	beqz	a3,5318 <memcpy+0x44>
    5306:	0005c683          	lbu	a3,0(a1)
    530a:	0785                	addi	a5,a5,1
    530c:	0585                	addi	a1,a1,1
    530e:	fed78fa3          	sb	a3,-1(a5)
    5312:	0037f693          	andi	a3,a5,3
    5316:	b7fd                	j	5304 <memcpy+0x30>
    5318:	ffc77693          	andi	a3,a4,-4
    531c:	fe068613          	addi	a2,a3,-32 # 40020fe0 <_eusrstack+0x2001bfe0>
    5320:	06c7f063          	bgeu	a5,a2,5380 <memcpy+0xac>
    5324:	0005a383          	lw	t2,0(a1)
    5328:	0045a283          	lw	t0,4(a1)
    532c:	0085af83          	lw	t6,8(a1)
    5330:	00c5af03          	lw	t5,12(a1)
    5334:	0105ae83          	lw	t4,16(a1)
    5338:	0145ae03          	lw	t3,20(a1)
    533c:	0185a303          	lw	t1,24(a1)
    5340:	01c5a883          	lw	a7,28(a1)
    5344:	02458593          	addi	a1,a1,36
    5348:	0077a023          	sw	t2,0(a5)
    534c:	ffc5a803          	lw	a6,-4(a1)
    5350:	0057a223          	sw	t0,4(a5)
    5354:	01f7a423          	sw	t6,8(a5)
    5358:	01e7a623          	sw	t5,12(a5)
    535c:	01d7a823          	sw	t4,16(a5)
    5360:	01c7aa23          	sw	t3,20(a5)
    5364:	0067ac23          	sw	t1,24(a5)
    5368:	0117ae23          	sw	a7,28(a5)
    536c:	02478793          	addi	a5,a5,36
    5370:	ff07ae23          	sw	a6,-4(a5)
    5374:	b775                	j	5320 <memcpy+0x4c>
    5376:	4190                	lw	a2,0(a1)
    5378:	0791                	addi	a5,a5,4
    537a:	0591                	addi	a1,a1,4
    537c:	fec7ae23          	sw	a2,-4(a5)
    5380:	fed7ebe3          	bltu	a5,a3,5376 <memcpy+0xa2>
    5384:	f6e7e4e3          	bltu	a5,a4,52ec <memcpy+0x18>
    5388:	8082                	ret

0000538a <__sfputc_r>:
__sfputc_r():
    538a:	461c                	lw	a5,8(a2)
    538c:	17fd                	addi	a5,a5,-1
    538e:	c61c                	sw	a5,8(a2)
    5390:	0007d963          	bgez	a5,53a2 <__sfputc_r+0x18>
    5394:	4e18                	lw	a4,24(a2)
    5396:	00e7c563          	blt	a5,a4,53a0 <__sfputc_r+0x16>
    539a:	47a9                	li	a5,10
    539c:	00f59363          	bne	a1,a5,53a2 <__sfputc_r+0x18>
    53a0:	af81                	j	5af0 <__swbuf_r>
    53a2:	421c                	lw	a5,0(a2)
    53a4:	852e                	mv	a0,a1
    53a6:	00178713          	addi	a4,a5,1
    53aa:	c218                	sw	a4,0(a2)
    53ac:	00b78023          	sb	a1,0(a5)
    53b0:	8082                	ret

000053b2 <__sfputs_r>:
__sfputs_r():
    53b2:	1101                	addi	sp,sp,-32
    53b4:	cc22                	sw	s0,24(sp)
    53b6:	ca26                	sw	s1,20(sp)
    53b8:	c84a                	sw	s2,16(sp)
    53ba:	c64e                	sw	s3,12(sp)
    53bc:	c452                	sw	s4,8(sp)
    53be:	ce06                	sw	ra,28(sp)
    53c0:	892a                	mv	s2,a0
    53c2:	89ae                	mv	s3,a1
    53c4:	8432                	mv	s0,a2
    53c6:	00d604b3          	add	s1,a2,a3
    53ca:	5a7d                	li	s4,-1
    53cc:	00941463          	bne	s0,s1,53d4 <__sfputs_r+0x22>
    53d0:	4501                	li	a0,0
    53d2:	a811                	j	53e6 <__sfputs_r+0x34>
    53d4:	00044583          	lbu	a1,0(s0)
    53d8:	864e                	mv	a2,s3
    53da:	854a                	mv	a0,s2
    53dc:	fafff0ef          	jal	ra,538a <__sfputc_r>
    53e0:	0405                	addi	s0,s0,1
    53e2:	ff4515e3          	bne	a0,s4,53cc <__sfputs_r+0x1a>
    53e6:	40f2                	lw	ra,28(sp)
    53e8:	4462                	lw	s0,24(sp)
    53ea:	44d2                	lw	s1,20(sp)
    53ec:	4942                	lw	s2,16(sp)
    53ee:	49b2                	lw	s3,12(sp)
    53f0:	4a22                	lw	s4,8(sp)
    53f2:	6105                	addi	sp,sp,32
    53f4:	8082                	ret

000053f6 <_vfiprintf_r>:
_vfiprintf_r():
    53f6:	7135                	addi	sp,sp,-160
    53f8:	cd22                	sw	s0,152(sp)
    53fa:	cb26                	sw	s1,148(sp)
    53fc:	c94a                	sw	s2,144(sp)
    53fe:	c74e                	sw	s3,140(sp)
    5400:	cf06                	sw	ra,156(sp)
    5402:	c552                	sw	s4,136(sp)
    5404:	c356                	sw	s5,132(sp)
    5406:	c15a                	sw	s6,128(sp)
    5408:	dede                	sw	s7,124(sp)
    540a:	dce2                	sw	s8,120(sp)
    540c:	dae6                	sw	s9,116(sp)
    540e:	89aa                	mv	s3,a0
    5410:	84ae                	mv	s1,a1
    5412:	8932                	mv	s2,a2
    5414:	8436                	mv	s0,a3
    5416:	c509                	beqz	a0,5420 <_vfiprintf_r+0x2a>
    5418:	4d1c                	lw	a5,24(a0)
    541a:	e399                	bnez	a5,5420 <_vfiprintf_r+0x2a>
    541c:	30d000ef          	jal	ra,5f28 <__sinit>
    5420:	00002797          	auipc	a5,0x2
    5424:	22c78793          	addi	a5,a5,556 # 764c <__sf_fake_stdin>
    5428:	0cf49d63          	bne	s1,a5,5502 <_vfiprintf_r+0x10c>
    542c:	0049a483          	lw	s1,4(s3)
    5430:	00c4d783          	lhu	a5,12(s1)
    5434:	8ba1                	andi	a5,a5,8
    5436:	cbe5                	beqz	a5,5526 <_vfiprintf_r+0x130>
    5438:	489c                	lw	a5,16(s1)
    543a:	c7f5                	beqz	a5,5526 <_vfiprintf_r+0x130>
    543c:	02000793          	li	a5,32
    5440:	02f104a3          	sb	a5,41(sp)
    5444:	03000793          	li	a5,48
    5448:	d202                	sw	zero,36(sp)
    544a:	02f10523          	sb	a5,42(sp)
    544e:	c622                	sw	s0,12(sp)
    5450:	02500b93          	li	s7,37
    5454:	00002a97          	auipc	s5,0x2
    5458:	19ca8a93          	addi	s5,s5,412 # 75f0 <__fsym___cmd_ps_name+0x13c>
    545c:	4c05                	li	s8,1
    545e:	4b29                	li	s6,10
    5460:	844a                	mv	s0,s2
    5462:	00044783          	lbu	a5,0(s0)
    5466:	c399                	beqz	a5,546c <_vfiprintf_r+0x76>
    5468:	0f779163          	bne	a5,s7,554a <_vfiprintf_r+0x154>
    546c:	41240cb3          	sub	s9,s0,s2
    5470:	000c8e63          	beqz	s9,548c <_vfiprintf_r+0x96>
    5474:	86e6                	mv	a3,s9
    5476:	864a                	mv	a2,s2
    5478:	85a6                	mv	a1,s1
    547a:	854e                	mv	a0,s3
    547c:	f37ff0ef          	jal	ra,53b2 <__sfputs_r>
    5480:	57fd                	li	a5,-1
    5482:	1ef50863          	beq	a0,a5,5672 <_vfiprintf_r+0x27c>
    5486:	5692                	lw	a3,36(sp)
    5488:	96e6                	add	a3,a3,s9
    548a:	d236                	sw	a3,36(sp)
    548c:	00044783          	lbu	a5,0(s0)
    5490:	1e078163          	beqz	a5,5672 <_vfiprintf_r+0x27c>
    5494:	57fd                	li	a5,-1
    5496:	00140913          	addi	s2,s0,1
    549a:	c802                	sw	zero,16(sp)
    549c:	ce02                	sw	zero,28(sp)
    549e:	ca3e                	sw	a5,20(sp)
    54a0:	cc02                	sw	zero,24(sp)
    54a2:	040109a3          	sb	zero,83(sp)
    54a6:	d482                	sw	zero,104(sp)
    54a8:	00094583          	lbu	a1,0(s2)
    54ac:	4615                	li	a2,5
    54ae:	8556                	mv	a0,s5
    54b0:	4eb000ef          	jal	ra,619a <memchr>
    54b4:	00190413          	addi	s0,s2,1
    54b8:	47c2                	lw	a5,16(sp)
    54ba:	e951                	bnez	a0,554e <_vfiprintf_r+0x158>
    54bc:	0107f713          	andi	a4,a5,16
    54c0:	c709                	beqz	a4,54ca <_vfiprintf_r+0xd4>
    54c2:	02000713          	li	a4,32
    54c6:	04e109a3          	sb	a4,83(sp)
    54ca:	0087f713          	andi	a4,a5,8
    54ce:	c709                	beqz	a4,54d8 <_vfiprintf_r+0xe2>
    54d0:	02b00713          	li	a4,43
    54d4:	04e109a3          	sb	a4,83(sp)
    54d8:	00094683          	lbu	a3,0(s2)
    54dc:	02a00713          	li	a4,42
    54e0:	06e68f63          	beq	a3,a4,555e <_vfiprintf_r+0x168>
    54e4:	47f2                	lw	a5,28(sp)
    54e6:	844a                	mv	s0,s2
    54e8:	4681                	li	a3,0
    54ea:	4625                	li	a2,9
    54ec:	00044703          	lbu	a4,0(s0)
    54f0:	00140593          	addi	a1,s0,1
    54f4:	fd070713          	addi	a4,a4,-48 # fd0 <ADC_RegularChannelConfig+0xa0>
    54f8:	0ae67863          	bgeu	a2,a4,55a8 <_vfiprintf_r+0x1b2>
    54fc:	caad                	beqz	a3,556e <_vfiprintf_r+0x178>
    54fe:	ce3e                	sw	a5,28(sp)
    5500:	a0bd                	j	556e <_vfiprintf_r+0x178>
    5502:	00002797          	auipc	a5,0x2
    5506:	16a78793          	addi	a5,a5,362 # 766c <__sf_fake_stdout>
    550a:	00f49563          	bne	s1,a5,5514 <_vfiprintf_r+0x11e>
    550e:	0089a483          	lw	s1,8(s3)
    5512:	bf39                	j	5430 <_vfiprintf_r+0x3a>
    5514:	00002797          	auipc	a5,0x2
    5518:	11878793          	addi	a5,a5,280 # 762c <__sf_fake_stderr>
    551c:	f0f49ae3          	bne	s1,a5,5430 <_vfiprintf_r+0x3a>
    5520:	00c9a483          	lw	s1,12(s3)
    5524:	b731                	j	5430 <_vfiprintf_r+0x3a>
    5526:	85a6                	mv	a1,s1
    5528:	854e                	mv	a0,s3
    552a:	2559                	jal	5bb0 <__swsetup_r>
    552c:	d901                	beqz	a0,543c <_vfiprintf_r+0x46>
    552e:	557d                	li	a0,-1
    5530:	40fa                	lw	ra,156(sp)
    5532:	446a                	lw	s0,152(sp)
    5534:	44da                	lw	s1,148(sp)
    5536:	494a                	lw	s2,144(sp)
    5538:	49ba                	lw	s3,140(sp)
    553a:	4a2a                	lw	s4,136(sp)
    553c:	4a9a                	lw	s5,132(sp)
    553e:	4b0a                	lw	s6,128(sp)
    5540:	5bf6                	lw	s7,124(sp)
    5542:	5c66                	lw	s8,120(sp)
    5544:	5cd6                	lw	s9,116(sp)
    5546:	610d                	addi	sp,sp,160
    5548:	8082                	ret
    554a:	0405                	addi	s0,s0,1
    554c:	bf19                	j	5462 <_vfiprintf_r+0x6c>
    554e:	41550533          	sub	a0,a0,s5
    5552:	00ac1533          	sll	a0,s8,a0
    5556:	8fc9                	or	a5,a5,a0
    5558:	c83e                	sw	a5,16(sp)
    555a:	8922                	mv	s2,s0
    555c:	b7b1                	j	54a8 <_vfiprintf_r+0xb2>
    555e:	4732                	lw	a4,12(sp)
    5560:	00470693          	addi	a3,a4,4
    5564:	4318                	lw	a4,0(a4)
    5566:	c636                	sw	a3,12(sp)
    5568:	02074963          	bltz	a4,559a <_vfiprintf_r+0x1a4>
    556c:	ce3a                	sw	a4,28(sp)
    556e:	00044703          	lbu	a4,0(s0)
    5572:	02e00793          	li	a5,46
    5576:	04f71f63          	bne	a4,a5,55d4 <_vfiprintf_r+0x1de>
    557a:	00144703          	lbu	a4,1(s0)
    557e:	02a00793          	li	a5,42
    5582:	02f71b63          	bne	a4,a5,55b8 <_vfiprintf_r+0x1c2>
    5586:	47b2                	lw	a5,12(sp)
    5588:	0409                	addi	s0,s0,2
    558a:	00478713          	addi	a4,a5,4
    558e:	439c                	lw	a5,0(a5)
    5590:	c63a                	sw	a4,12(sp)
    5592:	0207c163          	bltz	a5,55b4 <_vfiprintf_r+0x1be>
    5596:	ca3e                	sw	a5,20(sp)
    5598:	a835                	j	55d4 <_vfiprintf_r+0x1de>
    559a:	40e00733          	neg	a4,a4
    559e:	0027e793          	ori	a5,a5,2
    55a2:	ce3a                	sw	a4,28(sp)
    55a4:	c83e                	sw	a5,16(sp)
    55a6:	b7e1                	j	556e <_vfiprintf_r+0x178>
    55a8:	036787b3          	mul	a5,a5,s6
    55ac:	4685                	li	a3,1
    55ae:	842e                	mv	s0,a1
    55b0:	97ba                	add	a5,a5,a4
    55b2:	bf2d                	j	54ec <_vfiprintf_r+0xf6>
    55b4:	57fd                	li	a5,-1
    55b6:	b7c5                	j	5596 <_vfiprintf_r+0x1a0>
    55b8:	0405                	addi	s0,s0,1
    55ba:	ca02                	sw	zero,20(sp)
    55bc:	4681                	li	a3,0
    55be:	4781                	li	a5,0
    55c0:	4625                	li	a2,9
    55c2:	00044703          	lbu	a4,0(s0)
    55c6:	00140593          	addi	a1,s0,1
    55ca:	fd070713          	addi	a4,a4,-48
    55ce:	06e67863          	bgeu	a2,a4,563e <_vfiprintf_r+0x248>
    55d2:	f2f1                	bnez	a3,5596 <_vfiprintf_r+0x1a0>
    55d4:	00044583          	lbu	a1,0(s0)
    55d8:	460d                	li	a2,3
    55da:	00002517          	auipc	a0,0x2
    55de:	01e50513          	addi	a0,a0,30 # 75f8 <__fsym___cmd_ps_name+0x144>
    55e2:	3b9000ef          	jal	ra,619a <memchr>
    55e6:	cd11                	beqz	a0,5602 <_vfiprintf_r+0x20c>
    55e8:	00002797          	auipc	a5,0x2
    55ec:	01078793          	addi	a5,a5,16 # 75f8 <__fsym___cmd_ps_name+0x144>
    55f0:	8d1d                	sub	a0,a0,a5
    55f2:	04000793          	li	a5,64
    55f6:	00a797b3          	sll	a5,a5,a0
    55fa:	4542                	lw	a0,16(sp)
    55fc:	0405                	addi	s0,s0,1
    55fe:	8d5d                	or	a0,a0,a5
    5600:	c82a                	sw	a0,16(sp)
    5602:	00044583          	lbu	a1,0(s0)
    5606:	4619                	li	a2,6
    5608:	00002517          	auipc	a0,0x2
    560c:	ff450513          	addi	a0,a0,-12 # 75fc <__fsym___cmd_ps_name+0x148>
    5610:	00140913          	addi	s2,s0,1
    5614:	02b10423          	sb	a1,40(sp)
    5618:	383000ef          	jal	ra,619a <memchr>
    561c:	c13d                	beqz	a0,5682 <_vfiprintf_r+0x28c>
    561e:	ffffb797          	auipc	a5,0xffffb
    5622:	9e278793          	addi	a5,a5,-1566 # 0 <_sinit>
    5626:	e795                	bnez	a5,5652 <_vfiprintf_r+0x25c>
    5628:	4742                	lw	a4,16(sp)
    562a:	47b2                	lw	a5,12(sp)
    562c:	10077713          	andi	a4,a4,256
    5630:	cf09                	beqz	a4,564a <_vfiprintf_r+0x254>
    5632:	0791                	addi	a5,a5,4
    5634:	c63e                	sw	a5,12(sp)
    5636:	5792                	lw	a5,36(sp)
    5638:	97d2                	add	a5,a5,s4
    563a:	d23e                	sw	a5,36(sp)
    563c:	b515                	j	5460 <_vfiprintf_r+0x6a>
    563e:	036787b3          	mul	a5,a5,s6
    5642:	4685                	li	a3,1
    5644:	842e                	mv	s0,a1
    5646:	97ba                	add	a5,a5,a4
    5648:	bfad                	j	55c2 <_vfiprintf_r+0x1cc>
    564a:	079d                	addi	a5,a5,7
    564c:	9be1                	andi	a5,a5,-8
    564e:	07a1                	addi	a5,a5,8
    5650:	b7d5                	j	5634 <_vfiprintf_r+0x23e>
    5652:	0078                	addi	a4,sp,12
    5654:	00000697          	auipc	a3,0x0
    5658:	d5e68693          	addi	a3,a3,-674 # 53b2 <__sfputs_r>
    565c:	8626                	mv	a2,s1
    565e:	080c                	addi	a1,sp,16
    5660:	854e                	mv	a0,s3
    5662:	00000097          	auipc	ra,0x0
    5666:	000000e7          	jalr	zero # 0 <_sinit>
    566a:	57fd                	li	a5,-1
    566c:	8a2a                	mv	s4,a0
    566e:	fcf514e3          	bne	a0,a5,5636 <_vfiprintf_r+0x240>
    5672:	00c4d783          	lhu	a5,12(s1)
    5676:	0407f793          	andi	a5,a5,64
    567a:	ea079ae3          	bnez	a5,552e <_vfiprintf_r+0x138>
    567e:	5512                	lw	a0,36(sp)
    5680:	bd45                	j	5530 <_vfiprintf_r+0x13a>
    5682:	0078                	addi	a4,sp,12
    5684:	00000697          	auipc	a3,0x0
    5688:	d2e68693          	addi	a3,a3,-722 # 53b2 <__sfputs_r>
    568c:	8626                	mv	a2,s1
    568e:	080c                	addi	a1,sp,16
    5690:	854e                	mv	a0,s3
    5692:	2a01                	jal	57a2 <_printf_i>
    5694:	bfd9                	j	566a <_vfiprintf_r+0x274>

00005696 <_printf_common>:
_printf_common():
    5696:	7179                	addi	sp,sp,-48
    5698:	ca56                	sw	s5,20(sp)
    569a:	499c                	lw	a5,16(a1)
    569c:	8aba                	mv	s5,a4
    569e:	4598                	lw	a4,8(a1)
    56a0:	d422                	sw	s0,40(sp)
    56a2:	d226                	sw	s1,36(sp)
    56a4:	ce4e                	sw	s3,28(sp)
    56a6:	cc52                	sw	s4,24(sp)
    56a8:	d606                	sw	ra,44(sp)
    56aa:	d04a                	sw	s2,32(sp)
    56ac:	c85a                	sw	s6,16(sp)
    56ae:	c65e                	sw	s7,12(sp)
    56b0:	89aa                	mv	s3,a0
    56b2:	842e                	mv	s0,a1
    56b4:	84b2                	mv	s1,a2
    56b6:	8a36                	mv	s4,a3
    56b8:	00e7d363          	bge	a5,a4,56be <_printf_common+0x28>
    56bc:	87ba                	mv	a5,a4
    56be:	c09c                	sw	a5,0(s1)
    56c0:	04344703          	lbu	a4,67(s0)
    56c4:	c319                	beqz	a4,56ca <_printf_common+0x34>
    56c6:	0785                	addi	a5,a5,1
    56c8:	c09c                	sw	a5,0(s1)
    56ca:	401c                	lw	a5,0(s0)
    56cc:	0207f793          	andi	a5,a5,32
    56d0:	c781                	beqz	a5,56d8 <_printf_common+0x42>
    56d2:	409c                	lw	a5,0(s1)
    56d4:	0789                	addi	a5,a5,2
    56d6:	c09c                	sw	a5,0(s1)
    56d8:	00042903          	lw	s2,0(s0)
    56dc:	00697913          	andi	s2,s2,6
    56e0:	00091a63          	bnez	s2,56f4 <_printf_common+0x5e>
    56e4:	01940b13          	addi	s6,s0,25
    56e8:	5bfd                	li	s7,-1
    56ea:	445c                	lw	a5,12(s0)
    56ec:	4098                	lw	a4,0(s1)
    56ee:	8f99                	sub	a5,a5,a4
    56f0:	04f94c63          	blt	s2,a5,5748 <_printf_common+0xb2>
    56f4:	401c                	lw	a5,0(s0)
    56f6:	04344683          	lbu	a3,67(s0)
    56fa:	0207f793          	andi	a5,a5,32
    56fe:	00d036b3          	snez	a3,a3
    5702:	eba5                	bnez	a5,5772 <_printf_common+0xdc>
    5704:	04340613          	addi	a2,s0,67
    5708:	85d2                	mv	a1,s4
    570a:	854e                	mv	a0,s3
    570c:	9a82                	jalr	s5
    570e:	57fd                	li	a5,-1
    5710:	04f50363          	beq	a0,a5,5756 <_printf_common+0xc0>
    5714:	401c                	lw	a5,0(s0)
    5716:	4611                	li	a2,4
    5718:	4098                	lw	a4,0(s1)
    571a:	8b99                	andi	a5,a5,6
    571c:	4454                	lw	a3,12(s0)
    571e:	4481                	li	s1,0
    5720:	00c79763          	bne	a5,a2,572e <_printf_common+0x98>
    5724:	40e684b3          	sub	s1,a3,a4
    5728:	0004d363          	bgez	s1,572e <_printf_common+0x98>
    572c:	4481                	li	s1,0
    572e:	441c                	lw	a5,8(s0)
    5730:	4818                	lw	a4,16(s0)
    5732:	00f75463          	bge	a4,a5,573a <_printf_common+0xa4>
    5736:	8f99                	sub	a5,a5,a4
    5738:	94be                	add	s1,s1,a5
    573a:	4901                	li	s2,0
    573c:	0469                	addi	s0,s0,26
    573e:	5b7d                	li	s6,-1
    5740:	05249863          	bne	s1,s2,5790 <_printf_common+0xfa>
    5744:	4501                	li	a0,0
    5746:	a809                	j	5758 <_printf_common+0xc2>
    5748:	4685                	li	a3,1
    574a:	865a                	mv	a2,s6
    574c:	85d2                	mv	a1,s4
    574e:	854e                	mv	a0,s3
    5750:	9a82                	jalr	s5
    5752:	01751e63          	bne	a0,s7,576e <_printf_common+0xd8>
    5756:	557d                	li	a0,-1
    5758:	50b2                	lw	ra,44(sp)
    575a:	5422                	lw	s0,40(sp)
    575c:	5492                	lw	s1,36(sp)
    575e:	5902                	lw	s2,32(sp)
    5760:	49f2                	lw	s3,28(sp)
    5762:	4a62                	lw	s4,24(sp)
    5764:	4ad2                	lw	s5,20(sp)
    5766:	4b42                	lw	s6,16(sp)
    5768:	4bb2                	lw	s7,12(sp)
    576a:	6145                	addi	sp,sp,48
    576c:	8082                	ret
    576e:	0905                	addi	s2,s2,1
    5770:	bfad                	j	56ea <_printf_common+0x54>
    5772:	00d40733          	add	a4,s0,a3
    5776:	03000613          	li	a2,48
    577a:	04c701a3          	sb	a2,67(a4)
    577e:	04544703          	lbu	a4,69(s0)
    5782:	00168793          	addi	a5,a3,1
    5786:	97a2                	add	a5,a5,s0
    5788:	0689                	addi	a3,a3,2
    578a:	04e781a3          	sb	a4,67(a5)
    578e:	bf9d                	j	5704 <_printf_common+0x6e>
    5790:	4685                	li	a3,1
    5792:	8622                	mv	a2,s0
    5794:	85d2                	mv	a1,s4
    5796:	854e                	mv	a0,s3
    5798:	9a82                	jalr	s5
    579a:	fb650ee3          	beq	a0,s6,5756 <_printf_common+0xc0>
    579e:	0905                	addi	s2,s2,1
    57a0:	b745                	j	5740 <_printf_common+0xaa>

000057a2 <_printf_i>:
_printf_i():
    57a2:	7179                	addi	sp,sp,-48
    57a4:	d422                	sw	s0,40(sp)
    57a6:	d226                	sw	s1,36(sp)
    57a8:	d04a                	sw	s2,32(sp)
    57aa:	ce4e                	sw	s3,28(sp)
    57ac:	d606                	sw	ra,44(sp)
    57ae:	cc52                	sw	s4,24(sp)
    57b0:	ca56                	sw	s5,20(sp)
    57b2:	c85a                	sw	s6,16(sp)
    57b4:	89b6                	mv	s3,a3
    57b6:	0185c683          	lbu	a3,24(a1)
    57ba:	06e00793          	li	a5,110
    57be:	8932                	mv	s2,a2
    57c0:	84aa                	mv	s1,a0
    57c2:	842e                	mv	s0,a1
    57c4:	04358613          	addi	a2,a1,67
    57c8:	1ef68163          	beq	a3,a5,59aa <_printf_i+0x208>
    57cc:	06d7e263          	bltu	a5,a3,5830 <_printf_i+0x8e>
    57d0:	06300793          	li	a5,99
    57d4:	0af68263          	beq	a3,a5,5878 <_printf_i+0xd6>
    57d8:	00d7ed63          	bltu	a5,a3,57f2 <_printf_i+0x50>
    57dc:	1e068b63          	beqz	a3,59d2 <_printf_i+0x230>
    57e0:	05800793          	li	a5,88
    57e4:	16f68763          	beq	a3,a5,5952 <_printf_i+0x1b0>
    57e8:	04240a93          	addi	s5,s0,66
    57ec:	04d40123          	sb	a3,66(s0)
    57f0:	a869                	j	588a <_printf_i+0xe8>
    57f2:	06400793          	li	a5,100
    57f6:	00f68663          	beq	a3,a5,5802 <_printf_i+0x60>
    57fa:	06900793          	li	a5,105
    57fe:	fef695e3          	bne	a3,a5,57e8 <_printf_i+0x46>
    5802:	401c                	lw	a5,0(s0)
    5804:	4308                	lw	a0,0(a4)
    5806:	0807f693          	andi	a3,a5,128
    580a:	00450593          	addi	a1,a0,4
    580e:	c2c1                	beqz	a3,588e <_printf_i+0xec>
    5810:	411c                	lw	a5,0(a0)
    5812:	c30c                	sw	a1,0(a4)
    5814:	0007d863          	bgez	a5,5824 <_printf_i+0x82>
    5818:	02d00713          	li	a4,45
    581c:	40f007b3          	neg	a5,a5
    5820:	04e401a3          	sb	a4,67(s0)
    5824:	00002697          	auipc	a3,0x2
    5828:	de068693          	addi	a3,a3,-544 # 7604 <__fsym___cmd_ps_name+0x150>
    582c:	4729                	li	a4,10
    582e:	a065                	j	58d6 <_printf_i+0x134>
    5830:	07300793          	li	a5,115
    5834:	1af68363          	beq	a3,a5,59da <_printf_i+0x238>
    5838:	00d7ef63          	bltu	a5,a3,5856 <_printf_i+0xb4>
    583c:	06f00793          	li	a5,111
    5840:	04f68f63          	beq	a3,a5,589e <_printf_i+0xfc>
    5844:	07000793          	li	a5,112
    5848:	faf690e3          	bne	a3,a5,57e8 <_printf_i+0x46>
    584c:	419c                	lw	a5,0(a1)
    584e:	0207e793          	ori	a5,a5,32
    5852:	c19c                	sw	a5,0(a1)
    5854:	a809                	j	5866 <_printf_i+0xc4>
    5856:	07500793          	li	a5,117
    585a:	04f68263          	beq	a3,a5,589e <_printf_i+0xfc>
    585e:	07800793          	li	a5,120
    5862:	f8f693e3          	bne	a3,a5,57e8 <_printf_i+0x46>
    5866:	07800793          	li	a5,120
    586a:	04f402a3          	sb	a5,69(s0)
    586e:	00002697          	auipc	a3,0x2
    5872:	daa68693          	addi	a3,a3,-598 # 7618 <__fsym___cmd_ps_name+0x164>
    5876:	a0e5                	j	595e <_printf_i+0x1bc>
    5878:	431c                	lw	a5,0(a4)
    587a:	04258a93          	addi	s5,a1,66
    587e:	00478693          	addi	a3,a5,4
    5882:	439c                	lw	a5,0(a5)
    5884:	c314                	sw	a3,0(a4)
    5886:	04f58123          	sb	a5,66(a1)
    588a:	4785                	li	a5,1
    588c:	a2bd                	j	59fa <_printf_i+0x258>
    588e:	0407f693          	andi	a3,a5,64
    5892:	411c                	lw	a5,0(a0)
    5894:	c30c                	sw	a1,0(a4)
    5896:	debd                	beqz	a3,5814 <_printf_i+0x72>
    5898:	07c2                	slli	a5,a5,0x10
    589a:	87c1                	srai	a5,a5,0x10
    589c:	bfa5                	j	5814 <_printf_i+0x72>
    589e:	400c                	lw	a1,0(s0)
    58a0:	431c                	lw	a5,0(a4)
    58a2:	0805f813          	andi	a6,a1,128
    58a6:	00478513          	addi	a0,a5,4
    58aa:	00080563          	beqz	a6,58b4 <_printf_i+0x112>
    58ae:	c308                	sw	a0,0(a4)
    58b0:	439c                	lw	a5,0(a5)
    58b2:	a039                	j	58c0 <_printf_i+0x11e>
    58b4:	0405f593          	andi	a1,a1,64
    58b8:	c308                	sw	a0,0(a4)
    58ba:	d9fd                	beqz	a1,58b0 <_printf_i+0x10e>
    58bc:	0007d783          	lhu	a5,0(a5)
    58c0:	06f00713          	li	a4,111
    58c4:	0ce68b63          	beq	a3,a4,599a <_printf_i+0x1f8>
    58c8:	00002697          	auipc	a3,0x2
    58cc:	d3c68693          	addi	a3,a3,-708 # 7604 <__fsym___cmd_ps_name+0x150>
    58d0:	4729                	li	a4,10
    58d2:	040401a3          	sb	zero,67(s0)
    58d6:	404c                	lw	a1,4(s0)
    58d8:	c40c                	sw	a1,8(s0)
    58da:	0005c563          	bltz	a1,58e4 <_printf_i+0x142>
    58de:	4008                	lw	a0,0(s0)
    58e0:	996d                	andi	a0,a0,-5
    58e2:	c008                	sw	a0,0(s0)
    58e4:	e399                	bnez	a5,58ea <_printf_i+0x148>
    58e6:	8ab2                	mv	s5,a2
    58e8:	cd91                	beqz	a1,5904 <_printf_i+0x162>
    58ea:	8ab2                	mv	s5,a2
    58ec:	02e7f5b3          	remu	a1,a5,a4
    58f0:	1afd                	addi	s5,s5,-1
    58f2:	95b6                	add	a1,a1,a3
    58f4:	0005c583          	lbu	a1,0(a1)
    58f8:	00ba8023          	sb	a1,0(s5)
    58fc:	02e7d5b3          	divu	a1,a5,a4
    5900:	0ae7f363          	bgeu	a5,a4,59a6 <_printf_i+0x204>
    5904:	47a1                	li	a5,8
    5906:	00f71e63          	bne	a4,a5,5922 <_printf_i+0x180>
    590a:	401c                	lw	a5,0(s0)
    590c:	8b85                	andi	a5,a5,1
    590e:	cb91                	beqz	a5,5922 <_printf_i+0x180>
    5910:	4058                	lw	a4,4(s0)
    5912:	481c                	lw	a5,16(s0)
    5914:	00e7c763          	blt	a5,a4,5922 <_printf_i+0x180>
    5918:	03000793          	li	a5,48
    591c:	fefa8fa3          	sb	a5,-1(s5)
    5920:	1afd                	addi	s5,s5,-1
    5922:	41560633          	sub	a2,a2,s5
    5926:	c810                	sw	a2,16(s0)
    5928:	874e                	mv	a4,s3
    592a:	86ca                	mv	a3,s2
    592c:	0070                	addi	a2,sp,12
    592e:	85a2                	mv	a1,s0
    5930:	8526                	mv	a0,s1
    5932:	d65ff0ef          	jal	ra,5696 <_printf_common>
    5936:	5a7d                	li	s4,-1
    5938:	0d451563          	bne	a0,s4,5a02 <_printf_i+0x260>
    593c:	557d                	li	a0,-1
    593e:	50b2                	lw	ra,44(sp)
    5940:	5422                	lw	s0,40(sp)
    5942:	5492                	lw	s1,36(sp)
    5944:	5902                	lw	s2,32(sp)
    5946:	49f2                	lw	s3,28(sp)
    5948:	4a62                	lw	s4,24(sp)
    594a:	4ad2                	lw	s5,20(sp)
    594c:	4b42                	lw	s6,16(sp)
    594e:	6145                	addi	sp,sp,48
    5950:	8082                	ret
    5952:	04d582a3          	sb	a3,69(a1)
    5956:	00002697          	auipc	a3,0x2
    595a:	cae68693          	addi	a3,a3,-850 # 7604 <__fsym___cmd_ps_name+0x150>
    595e:	400c                	lw	a1,0(s0)
    5960:	4308                	lw	a0,0(a4)
    5962:	0805f813          	andi	a6,a1,128
    5966:	411c                	lw	a5,0(a0)
    5968:	0511                	addi	a0,a0,4
    596a:	02080063          	beqz	a6,598a <_printf_i+0x1e8>
    596e:	c308                	sw	a0,0(a4)
    5970:	0015f713          	andi	a4,a1,1
    5974:	c701                	beqz	a4,597c <_printf_i+0x1da>
    5976:	0205e593          	ori	a1,a1,32
    597a:	c00c                	sw	a1,0(s0)
    597c:	4741                	li	a4,16
    597e:	fbb1                	bnez	a5,58d2 <_printf_i+0x130>
    5980:	400c                	lw	a1,0(s0)
    5982:	fdf5f593          	andi	a1,a1,-33
    5986:	c00c                	sw	a1,0(s0)
    5988:	b7a9                	j	58d2 <_printf_i+0x130>
    598a:	0405f813          	andi	a6,a1,64
    598e:	c308                	sw	a0,0(a4)
    5990:	fe0800e3          	beqz	a6,5970 <_printf_i+0x1ce>
    5994:	07c2                	slli	a5,a5,0x10
    5996:	83c1                	srli	a5,a5,0x10
    5998:	bfe1                	j	5970 <_printf_i+0x1ce>
    599a:	00002697          	auipc	a3,0x2
    599e:	c6a68693          	addi	a3,a3,-918 # 7604 <__fsym___cmd_ps_name+0x150>
    59a2:	4721                	li	a4,8
    59a4:	b73d                	j	58d2 <_printf_i+0x130>
    59a6:	87ae                	mv	a5,a1
    59a8:	b791                	j	58ec <_printf_i+0x14a>
    59aa:	4194                	lw	a3,0(a1)
    59ac:	431c                	lw	a5,0(a4)
    59ae:	49cc                	lw	a1,20(a1)
    59b0:	0806f813          	andi	a6,a3,128
    59b4:	00478513          	addi	a0,a5,4
    59b8:	00080663          	beqz	a6,59c4 <_printf_i+0x222>
    59bc:	c308                	sw	a0,0(a4)
    59be:	439c                	lw	a5,0(a5)
    59c0:	c38c                	sw	a1,0(a5)
    59c2:	a801                	j	59d2 <_printf_i+0x230>
    59c4:	c308                	sw	a0,0(a4)
    59c6:	0406f693          	andi	a3,a3,64
    59ca:	439c                	lw	a5,0(a5)
    59cc:	daf5                	beqz	a3,59c0 <_printf_i+0x21e>
    59ce:	00b79023          	sh	a1,0(a5)
    59d2:	00042823          	sw	zero,16(s0)
    59d6:	8ab2                	mv	s5,a2
    59d8:	bf81                	j	5928 <_printf_i+0x186>
    59da:	431c                	lw	a5,0(a4)
    59dc:	41d0                	lw	a2,4(a1)
    59de:	4581                	li	a1,0
    59e0:	00478693          	addi	a3,a5,4
    59e4:	c314                	sw	a3,0(a4)
    59e6:	0007aa83          	lw	s5,0(a5)
    59ea:	8556                	mv	a0,s5
    59ec:	7ae000ef          	jal	ra,619a <memchr>
    59f0:	c501                	beqz	a0,59f8 <_printf_i+0x256>
    59f2:	41550533          	sub	a0,a0,s5
    59f6:	c048                	sw	a0,4(s0)
    59f8:	405c                	lw	a5,4(s0)
    59fa:	c81c                	sw	a5,16(s0)
    59fc:	040401a3          	sb	zero,67(s0)
    5a00:	b725                	j	5928 <_printf_i+0x186>
    5a02:	4814                	lw	a3,16(s0)
    5a04:	8656                	mv	a2,s5
    5a06:	85ca                	mv	a1,s2
    5a08:	8526                	mv	a0,s1
    5a0a:	9982                	jalr	s3
    5a0c:	f34508e3          	beq	a0,s4,593c <_printf_i+0x19a>
    5a10:	401c                	lw	a5,0(s0)
    5a12:	8b89                	andi	a5,a5,2
    5a14:	e78d                	bnez	a5,5a3e <_printf_i+0x29c>
    5a16:	47b2                	lw	a5,12(sp)
    5a18:	4448                	lw	a0,12(s0)
    5a1a:	f2f552e3          	bge	a0,a5,593e <_printf_i+0x19c>
    5a1e:	853e                	mv	a0,a5
    5a20:	bf39                	j	593e <_printf_i+0x19c>
    5a22:	4685                	li	a3,1
    5a24:	8656                	mv	a2,s5
    5a26:	85ca                	mv	a1,s2
    5a28:	8526                	mv	a0,s1
    5a2a:	9982                	jalr	s3
    5a2c:	f16508e3          	beq	a0,s6,593c <_printf_i+0x19a>
    5a30:	0a05                	addi	s4,s4,1
    5a32:	445c                	lw	a5,12(s0)
    5a34:	4732                	lw	a4,12(sp)
    5a36:	8f99                	sub	a5,a5,a4
    5a38:	fefa45e3          	blt	s4,a5,5a22 <_printf_i+0x280>
    5a3c:	bfe9                	j	5a16 <_printf_i+0x274>
    5a3e:	4a01                	li	s4,0
    5a40:	01940a93          	addi	s5,s0,25
    5a44:	5b7d                	li	s6,-1
    5a46:	b7f5                	j	5a32 <_printf_i+0x290>

00005a48 <siprintf>:
sprintf():
    5a48:	7135                	addi	sp,sp,-160
    5a4a:	cb3e                	sw	a5,148(sp)
    5a4c:	800007b7          	lui	a5,0x80000
    5a50:	fff7c793          	not	a5,a5
    5a54:	ce3e                	sw	a5,28(sp)
    5a56:	c83e                	sw	a5,16(sp)
    5a58:	77c1                	lui	a5,0xffff0
    5a5a:	20878793          	addi	a5,a5,520 # ffff0208 <_eusrstack+0xdffeb208>
    5a5e:	c532                	sw	a2,136(sp)
    5a60:	c736                	sw	a3,140(sp)
    5a62:	c93a                	sw	a4,144(sp)
    5a64:	cd42                	sw	a6,152(sp)
    5a66:	cf46                	sw	a7,156(sp)
    5a68:	ca3e                	sw	a5,20(sp)
    5a6a:	80c18793          	addi	a5,gp,-2036 # 200000bc <_impure_ptr>
    5a6e:	c42a                	sw	a0,8(sp)
    5a70:	cc2a                	sw	a0,24(sp)
    5a72:	4388                	lw	a0,0(a5)
    5a74:	0134                	addi	a3,sp,136
    5a76:	862e                	mv	a2,a1
    5a78:	002c                	addi	a1,sp,8
    5a7a:	de86                	sw	ra,124(sp)
    5a7c:	c236                	sw	a3,4(sp)
    5a7e:	23d000ef          	jal	ra,64ba <_svfiprintf_r>
    5a82:	47a2                	lw	a5,8(sp)
    5a84:	00078023          	sb	zero,0(a5)
    5a88:	50f6                	lw	ra,124(sp)
    5a8a:	610d                	addi	sp,sp,160
    5a8c:	8082                	ret

00005a8e <strlen>:
strlen():
    5a8e:	87aa                	mv	a5,a0
    5a90:	0785                	addi	a5,a5,1
    5a92:	fff7c703          	lbu	a4,-1(a5)
    5a96:	ff6d                	bnez	a4,5a90 <strlen+0x2>
    5a98:	40a78533          	sub	a0,a5,a0
    5a9c:	157d                	addi	a0,a0,-1
    5a9e:	8082                	ret

00005aa0 <strncmp>:
strncmp():
    5aa0:	c605                	beqz	a2,5ac8 <strncmp+0x28>
    5aa2:	167d                	addi	a2,a2,-1
    5aa4:	4701                	li	a4,0
    5aa6:	00e507b3          	add	a5,a0,a4
    5aaa:	00e586b3          	add	a3,a1,a4
    5aae:	0007c783          	lbu	a5,0(a5)
    5ab2:	0006c683          	lbu	a3,0(a3)
    5ab6:	00d79663          	bne	a5,a3,5ac2 <strncmp+0x22>
    5aba:	00c70463          	beq	a4,a2,5ac2 <strncmp+0x22>
    5abe:	0705                	addi	a4,a4,1
    5ac0:	f3fd                	bnez	a5,5aa6 <strncmp+0x6>
    5ac2:	40d78533          	sub	a0,a5,a3
    5ac6:	8082                	ret
    5ac8:	4501                	li	a0,0
    5aca:	8082                	ret

00005acc <strncpy>:
strncpy():
    5acc:	87aa                	mv	a5,a0
    5ace:	ca09                	beqz	a2,5ae0 <strncpy+0x14>
    5ad0:	0585                	addi	a1,a1,1
    5ad2:	fff5c703          	lbu	a4,-1(a1)
    5ad6:	0785                	addi	a5,a5,1
    5ad8:	167d                	addi	a2,a2,-1
    5ada:	fee78fa3          	sb	a4,-1(a5)
    5ade:	fb65                	bnez	a4,5ace <strncpy+0x2>
    5ae0:	963e                	add	a2,a2,a5
    5ae2:	00c79363          	bne	a5,a2,5ae8 <strncpy+0x1c>
    5ae6:	8082                	ret
    5ae8:	0785                	addi	a5,a5,1
    5aea:	fe078fa3          	sb	zero,-1(a5)
    5aee:	bfd5                	j	5ae2 <strncpy+0x16>

00005af0 <__swbuf_r>:
__swbuf_r():
    5af0:	1101                	addi	sp,sp,-32
    5af2:	cc22                	sw	s0,24(sp)
    5af4:	ca26                	sw	s1,20(sp)
    5af6:	c84a                	sw	s2,16(sp)
    5af8:	ce06                	sw	ra,28(sp)
    5afa:	c64e                	sw	s3,12(sp)
    5afc:	84aa                	mv	s1,a0
    5afe:	892e                	mv	s2,a1
    5b00:	8432                	mv	s0,a2
    5b02:	c501                	beqz	a0,5b0a <__swbuf_r+0x1a>
    5b04:	4d1c                	lw	a5,24(a0)
    5b06:	e391                	bnez	a5,5b0a <__swbuf_r+0x1a>
    5b08:	2105                	jal	5f28 <__sinit>
    5b0a:	00002797          	auipc	a5,0x2
    5b0e:	b4278793          	addi	a5,a5,-1214 # 764c <__sf_fake_stdin>
    5b12:	06f41963          	bne	s0,a5,5b84 <__swbuf_r+0x94>
    5b16:	40c0                	lw	s0,4(s1)
    5b18:	4c1c                	lw	a5,24(s0)
    5b1a:	c41c                	sw	a5,8(s0)
    5b1c:	00c45783          	lhu	a5,12(s0)
    5b20:	8ba1                	andi	a5,a5,8
    5b22:	c3c9                	beqz	a5,5ba4 <__swbuf_r+0xb4>
    5b24:	481c                	lw	a5,16(s0)
    5b26:	cfbd                	beqz	a5,5ba4 <__swbuf_r+0xb4>
    5b28:	481c                	lw	a5,16(s0)
    5b2a:	4008                	lw	a0,0(s0)
    5b2c:	0ff97993          	andi	s3,s2,255
    5b30:	0ff97913          	andi	s2,s2,255
    5b34:	8d1d                	sub	a0,a0,a5
    5b36:	485c                	lw	a5,20(s0)
    5b38:	00f54663          	blt	a0,a5,5b44 <__swbuf_r+0x54>
    5b3c:	85a2                	mv	a1,s0
    5b3e:	8526                	mv	a0,s1
    5b40:	24e1                	jal	5e08 <_fflush_r>
    5b42:	e52d                	bnez	a0,5bac <__swbuf_r+0xbc>
    5b44:	441c                	lw	a5,8(s0)
    5b46:	0505                	addi	a0,a0,1
    5b48:	17fd                	addi	a5,a5,-1
    5b4a:	c41c                	sw	a5,8(s0)
    5b4c:	401c                	lw	a5,0(s0)
    5b4e:	00178713          	addi	a4,a5,1
    5b52:	c018                	sw	a4,0(s0)
    5b54:	01378023          	sb	s3,0(a5)
    5b58:	485c                	lw	a5,20(s0)
    5b5a:	00a78963          	beq	a5,a0,5b6c <__swbuf_r+0x7c>
    5b5e:	00c45783          	lhu	a5,12(s0)
    5b62:	8b85                	andi	a5,a5,1
    5b64:	cb81                	beqz	a5,5b74 <__swbuf_r+0x84>
    5b66:	47a9                	li	a5,10
    5b68:	00f91663          	bne	s2,a5,5b74 <__swbuf_r+0x84>
    5b6c:	85a2                	mv	a1,s0
    5b6e:	8526                	mv	a0,s1
    5b70:	2c61                	jal	5e08 <_fflush_r>
    5b72:	ed0d                	bnez	a0,5bac <__swbuf_r+0xbc>
    5b74:	40f2                	lw	ra,28(sp)
    5b76:	4462                	lw	s0,24(sp)
    5b78:	854a                	mv	a0,s2
    5b7a:	44d2                	lw	s1,20(sp)
    5b7c:	4942                	lw	s2,16(sp)
    5b7e:	49b2                	lw	s3,12(sp)
    5b80:	6105                	addi	sp,sp,32
    5b82:	8082                	ret
    5b84:	00002797          	auipc	a5,0x2
    5b88:	ae878793          	addi	a5,a5,-1304 # 766c <__sf_fake_stdout>
    5b8c:	00f41463          	bne	s0,a5,5b94 <__swbuf_r+0xa4>
    5b90:	4480                	lw	s0,8(s1)
    5b92:	b759                	j	5b18 <__swbuf_r+0x28>
    5b94:	00002797          	auipc	a5,0x2
    5b98:	a9878793          	addi	a5,a5,-1384 # 762c <__sf_fake_stderr>
    5b9c:	f6f41ee3          	bne	s0,a5,5b18 <__swbuf_r+0x28>
    5ba0:	44c0                	lw	s0,12(s1)
    5ba2:	bf9d                	j	5b18 <__swbuf_r+0x28>
    5ba4:	85a2                	mv	a1,s0
    5ba6:	8526                	mv	a0,s1
    5ba8:	2021                	jal	5bb0 <__swsetup_r>
    5baa:	dd3d                	beqz	a0,5b28 <__swbuf_r+0x38>
    5bac:	597d                	li	s2,-1
    5bae:	b7d9                	j	5b74 <__swbuf_r+0x84>

00005bb0 <__swsetup_r>:
__swsetup_r():
    5bb0:	1141                	addi	sp,sp,-16
    5bb2:	80c18793          	addi	a5,gp,-2036 # 200000bc <_impure_ptr>
    5bb6:	c226                	sw	s1,4(sp)
    5bb8:	4384                	lw	s1,0(a5)
    5bba:	c422                	sw	s0,8(sp)
    5bbc:	c04a                	sw	s2,0(sp)
    5bbe:	c606                	sw	ra,12(sp)
    5bc0:	892a                	mv	s2,a0
    5bc2:	842e                	mv	s0,a1
    5bc4:	c489                	beqz	s1,5bce <__swsetup_r+0x1e>
    5bc6:	4c9c                	lw	a5,24(s1)
    5bc8:	e399                	bnez	a5,5bce <__swsetup_r+0x1e>
    5bca:	8526                	mv	a0,s1
    5bcc:	2eb1                	jal	5f28 <__sinit>
    5bce:	00002797          	auipc	a5,0x2
    5bd2:	a7e78793          	addi	a5,a5,-1410 # 764c <__sf_fake_stdin>
    5bd6:	02f41c63          	bne	s0,a5,5c0e <__swsetup_r+0x5e>
    5bda:	40c0                	lw	s0,4(s1)
    5bdc:	00c41703          	lh	a4,12(s0)
    5be0:	01071793          	slli	a5,a4,0x10
    5be4:	83c1                	srli	a5,a5,0x10
    5be6:	0087f693          	andi	a3,a5,8
    5bea:	eeb5                	bnez	a3,5c66 <__swsetup_r+0xb6>
    5bec:	0107f693          	andi	a3,a5,16
    5bf0:	ee9d                	bnez	a3,5c2e <__swsetup_r+0x7e>
    5bf2:	47a5                	li	a5,9
    5bf4:	00f92023          	sw	a5,0(s2)
    5bf8:	04076713          	ori	a4,a4,64
    5bfc:	00e41623          	sh	a4,12(s0)
    5c00:	557d                	li	a0,-1
    5c02:	40b2                	lw	ra,12(sp)
    5c04:	4422                	lw	s0,8(sp)
    5c06:	4492                	lw	s1,4(sp)
    5c08:	4902                	lw	s2,0(sp)
    5c0a:	0141                	addi	sp,sp,16
    5c0c:	8082                	ret
    5c0e:	00002797          	auipc	a5,0x2
    5c12:	a5e78793          	addi	a5,a5,-1442 # 766c <__sf_fake_stdout>
    5c16:	00f41463          	bne	s0,a5,5c1e <__swsetup_r+0x6e>
    5c1a:	4480                	lw	s0,8(s1)
    5c1c:	b7c1                	j	5bdc <__swsetup_r+0x2c>
    5c1e:	00002797          	auipc	a5,0x2
    5c22:	a0e78793          	addi	a5,a5,-1522 # 762c <__sf_fake_stderr>
    5c26:	faf41be3          	bne	s0,a5,5bdc <__swsetup_r+0x2c>
    5c2a:	44c0                	lw	s0,12(s1)
    5c2c:	bf45                	j	5bdc <__swsetup_r+0x2c>
    5c2e:	8b91                	andi	a5,a5,4
    5c30:	c78d                	beqz	a5,5c5a <__swsetup_r+0xaa>
    5c32:	584c                	lw	a1,52(s0)
    5c34:	c989                	beqz	a1,5c46 <__swsetup_r+0x96>
    5c36:	04440793          	addi	a5,s0,68
    5c3a:	00f58463          	beq	a1,a5,5c42 <__swsetup_r+0x92>
    5c3e:	854a                	mv	a0,s2
    5c40:	2b7d                	jal	61fe <_free_r>
    5c42:	02042a23          	sw	zero,52(s0)
    5c46:	00c45783          	lhu	a5,12(s0)
    5c4a:	00042223          	sw	zero,4(s0)
    5c4e:	fdb7f793          	andi	a5,a5,-37
    5c52:	00f41623          	sh	a5,12(s0)
    5c56:	481c                	lw	a5,16(s0)
    5c58:	c01c                	sw	a5,0(s0)
    5c5a:	00c45783          	lhu	a5,12(s0)
    5c5e:	0087e793          	ori	a5,a5,8
    5c62:	00f41623          	sh	a5,12(s0)
    5c66:	481c                	lw	a5,16(s0)
    5c68:	ef81                	bnez	a5,5c80 <__swsetup_r+0xd0>
    5c6a:	00c45783          	lhu	a5,12(s0)
    5c6e:	20000713          	li	a4,512
    5c72:	2807f793          	andi	a5,a5,640
    5c76:	00e78563          	beq	a5,a4,5c80 <__swsetup_r+0xd0>
    5c7a:	85a2                	mv	a1,s0
    5c7c:	854a                	mv	a0,s2
    5c7e:	29b5                	jal	60fa <__smakebuf_r>
    5c80:	00c45783          	lhu	a5,12(s0)
    5c84:	0017f713          	andi	a4,a5,1
    5c88:	c705                	beqz	a4,5cb0 <__swsetup_r+0x100>
    5c8a:	485c                	lw	a5,20(s0)
    5c8c:	00042423          	sw	zero,8(s0)
    5c90:	40f007b3          	neg	a5,a5
    5c94:	cc1c                	sw	a5,24(s0)
    5c96:	481c                	lw	a5,16(s0)
    5c98:	4501                	li	a0,0
    5c9a:	f7a5                	bnez	a5,5c02 <__swsetup_r+0x52>
    5c9c:	00c41783          	lh	a5,12(s0)
    5ca0:	0807f713          	andi	a4,a5,128
    5ca4:	df39                	beqz	a4,5c02 <__swsetup_r+0x52>
    5ca6:	0407e793          	ori	a5,a5,64
    5caa:	00f41623          	sh	a5,12(s0)
    5cae:	bf89                	j	5c00 <__swsetup_r+0x50>
    5cb0:	8b89                	andi	a5,a5,2
    5cb2:	4701                	li	a4,0
    5cb4:	e391                	bnez	a5,5cb8 <__swsetup_r+0x108>
    5cb6:	4858                	lw	a4,20(s0)
    5cb8:	c418                	sw	a4,8(s0)
    5cba:	bff1                	j	5c96 <__swsetup_r+0xe6>

00005cbc <abort>:
abort():
    5cbc:	1141                	addi	sp,sp,-16
    5cbe:	4519                	li	a0,6
    5cc0:	c606                	sw	ra,12(sp)
    5cc2:	30d000ef          	jal	ra,67ce <raise>
    5cc6:	4505                	li	a0,1
    5cc8:	5dd000ef          	jal	ra,6aa4 <_exit>

00005ccc <__sflush_r>:
__sflush_r():
    5ccc:	00c5d783          	lhu	a5,12(a1)
    5cd0:	1101                	addi	sp,sp,-32
    5cd2:	cc22                	sw	s0,24(sp)
    5cd4:	ca26                	sw	s1,20(sp)
    5cd6:	ce06                	sw	ra,28(sp)
    5cd8:	c84a                	sw	s2,16(sp)
    5cda:	c64e                	sw	s3,12(sp)
    5cdc:	0087f713          	andi	a4,a5,8
    5ce0:	84aa                	mv	s1,a0
    5ce2:	842e                	mv	s0,a1
    5ce4:	ef71                	bnez	a4,5dc0 <__sflush_r+0xf4>
    5ce6:	41d8                	lw	a4,4(a1)
    5ce8:	00e04d63          	bgtz	a4,5d02 <__sflush_r+0x36>
    5cec:	41b8                	lw	a4,64(a1)
    5cee:	00e04a63          	bgtz	a4,5d02 <__sflush_r+0x36>
    5cf2:	4501                	li	a0,0
    5cf4:	40f2                	lw	ra,28(sp)
    5cf6:	4462                	lw	s0,24(sp)
    5cf8:	44d2                	lw	s1,20(sp)
    5cfa:	4942                	lw	s2,16(sp)
    5cfc:	49b2                	lw	s3,12(sp)
    5cfe:	6105                	addi	sp,sp,32
    5d00:	8082                	ret
    5d02:	5458                	lw	a4,44(s0)
    5d04:	d77d                	beqz	a4,5cf2 <__sflush_r+0x26>
    5d06:	0004a903          	lw	s2,0(s1)
    5d0a:	01379693          	slli	a3,a5,0x13
    5d0e:	0004a023          	sw	zero,0(s1)
    5d12:	0606dd63          	bgez	a3,5d8c <__sflush_r+0xc0>
    5d16:	4870                	lw	a2,84(s0)
    5d18:	00c45783          	lhu	a5,12(s0)
    5d1c:	8b91                	andi	a5,a5,4
    5d1e:	c799                	beqz	a5,5d2c <__sflush_r+0x60>
    5d20:	405c                	lw	a5,4(s0)
    5d22:	8e1d                	sub	a2,a2,a5
    5d24:	585c                	lw	a5,52(s0)
    5d26:	c399                	beqz	a5,5d2c <__sflush_r+0x60>
    5d28:	403c                	lw	a5,64(s0)
    5d2a:	8e1d                	sub	a2,a2,a5
    5d2c:	545c                	lw	a5,44(s0)
    5d2e:	500c                	lw	a1,32(s0)
    5d30:	4681                	li	a3,0
    5d32:	8526                	mv	a0,s1
    5d34:	9782                	jalr	a5
    5d36:	57fd                	li	a5,-1
    5d38:	00c45703          	lhu	a4,12(s0)
    5d3c:	00f51d63          	bne	a0,a5,5d56 <__sflush_r+0x8a>
    5d40:	4094                	lw	a3,0(s1)
    5d42:	47f5                	li	a5,29
    5d44:	06d7e863          	bltu	a5,a3,5db4 <__sflush_r+0xe8>
    5d48:	204007b7          	lui	a5,0x20400
    5d4c:	0785                	addi	a5,a5,1
    5d4e:	00d7d7b3          	srl	a5,a5,a3
    5d52:	8b85                	andi	a5,a5,1
    5d54:	c3a5                	beqz	a5,5db4 <__sflush_r+0xe8>
    5d56:	481c                	lw	a5,16(s0)
    5d58:	00042223          	sw	zero,4(s0)
    5d5c:	c01c                	sw	a5,0(s0)
    5d5e:	01371793          	slli	a5,a4,0x13
    5d62:	0007d863          	bgez	a5,5d72 <__sflush_r+0xa6>
    5d66:	57fd                	li	a5,-1
    5d68:	00f51463          	bne	a0,a5,5d70 <__sflush_r+0xa4>
    5d6c:	409c                	lw	a5,0(s1)
    5d6e:	e391                	bnez	a5,5d72 <__sflush_r+0xa6>
    5d70:	c868                	sw	a0,84(s0)
    5d72:	584c                	lw	a1,52(s0)
    5d74:	0124a023          	sw	s2,0(s1)
    5d78:	ddad                	beqz	a1,5cf2 <__sflush_r+0x26>
    5d7a:	04440793          	addi	a5,s0,68
    5d7e:	00f58463          	beq	a1,a5,5d86 <__sflush_r+0xba>
    5d82:	8526                	mv	a0,s1
    5d84:	29ad                	jal	61fe <_free_r>
    5d86:	02042a23          	sw	zero,52(s0)
    5d8a:	b7a5                	j	5cf2 <__sflush_r+0x26>
    5d8c:	500c                	lw	a1,32(s0)
    5d8e:	4601                	li	a2,0
    5d90:	4685                	li	a3,1
    5d92:	8526                	mv	a0,s1
    5d94:	9702                	jalr	a4
    5d96:	57fd                	li	a5,-1
    5d98:	862a                	mv	a2,a0
    5d9a:	f6f51fe3          	bne	a0,a5,5d18 <__sflush_r+0x4c>
    5d9e:	409c                	lw	a5,0(s1)
    5da0:	dfa5                	beqz	a5,5d18 <__sflush_r+0x4c>
    5da2:	4775                	li	a4,29
    5da4:	00e78563          	beq	a5,a4,5dae <__sflush_r+0xe2>
    5da8:	4759                	li	a4,22
    5daa:	04e79463          	bne	a5,a4,5df2 <__sflush_r+0x126>
    5dae:	0124a023          	sw	s2,0(s1)
    5db2:	b781                	j	5cf2 <__sflush_r+0x26>
    5db4:	04076713          	ori	a4,a4,64
    5db8:	00e41623          	sh	a4,12(s0)
    5dbc:	557d                	li	a0,-1
    5dbe:	bf1d                	j	5cf4 <__sflush_r+0x28>
    5dc0:	0105a983          	lw	s3,16(a1)
    5dc4:	f20987e3          	beqz	s3,5cf2 <__sflush_r+0x26>
    5dc8:	0005a903          	lw	s2,0(a1)
    5dcc:	8b8d                	andi	a5,a5,3
    5dce:	0135a023          	sw	s3,0(a1)
    5dd2:	41390933          	sub	s2,s2,s3
    5dd6:	4701                	li	a4,0
    5dd8:	e391                	bnez	a5,5ddc <__sflush_r+0x110>
    5dda:	49d8                	lw	a4,20(a1)
    5ddc:	c418                	sw	a4,8(s0)
    5dde:	f1205ae3          	blez	s2,5cf2 <__sflush_r+0x26>
    5de2:	541c                	lw	a5,40(s0)
    5de4:	500c                	lw	a1,32(s0)
    5de6:	86ca                	mv	a3,s2
    5de8:	864e                	mv	a2,s3
    5dea:	8526                	mv	a0,s1
    5dec:	9782                	jalr	a5
    5dee:	00a04963          	bgtz	a0,5e00 <__sflush_r+0x134>
    5df2:	00c45783          	lhu	a5,12(s0)
    5df6:	0407e793          	ori	a5,a5,64
    5dfa:	00f41623          	sh	a5,12(s0)
    5dfe:	bf7d                	j	5dbc <__sflush_r+0xf0>
    5e00:	99aa                	add	s3,s3,a0
    5e02:	40a90933          	sub	s2,s2,a0
    5e06:	bfe1                	j	5dde <__sflush_r+0x112>

00005e08 <_fflush_r>:
_fflush_r():
    5e08:	499c                	lw	a5,16(a1)
    5e0a:	c3a5                	beqz	a5,5e6a <_fflush_r+0x62>
    5e0c:	1101                	addi	sp,sp,-32
    5e0e:	cc22                	sw	s0,24(sp)
    5e10:	ce06                	sw	ra,28(sp)
    5e12:	842a                	mv	s0,a0
    5e14:	c511                	beqz	a0,5e20 <_fflush_r+0x18>
    5e16:	4d1c                	lw	a5,24(a0)
    5e18:	e781                	bnez	a5,5e20 <_fflush_r+0x18>
    5e1a:	c62e                	sw	a1,12(sp)
    5e1c:	2231                	jal	5f28 <__sinit>
    5e1e:	45b2                	lw	a1,12(sp)
    5e20:	00002797          	auipc	a5,0x2
    5e24:	82c78793          	addi	a5,a5,-2004 # 764c <__sf_fake_stdin>
    5e28:	00f59c63          	bne	a1,a5,5e40 <_fflush_r+0x38>
    5e2c:	404c                	lw	a1,4(s0)
    5e2e:	00c59783          	lh	a5,12(a1)
    5e32:	c79d                	beqz	a5,5e60 <_fflush_r+0x58>
    5e34:	8522                	mv	a0,s0
    5e36:	4462                	lw	s0,24(sp)
    5e38:	40f2                	lw	ra,28(sp)
    5e3a:	6105                	addi	sp,sp,32
    5e3c:	e91ff06f          	j	5ccc <__sflush_r>
    5e40:	00002797          	auipc	a5,0x2
    5e44:	82c78793          	addi	a5,a5,-2004 # 766c <__sf_fake_stdout>
    5e48:	00f59463          	bne	a1,a5,5e50 <_fflush_r+0x48>
    5e4c:	440c                	lw	a1,8(s0)
    5e4e:	b7c5                	j	5e2e <_fflush_r+0x26>
    5e50:	00001797          	auipc	a5,0x1
    5e54:	7dc78793          	addi	a5,a5,2012 # 762c <__sf_fake_stderr>
    5e58:	fcf59be3          	bne	a1,a5,5e2e <_fflush_r+0x26>
    5e5c:	444c                	lw	a1,12(s0)
    5e5e:	bfc1                	j	5e2e <_fflush_r+0x26>
    5e60:	40f2                	lw	ra,28(sp)
    5e62:	4462                	lw	s0,24(sp)
    5e64:	4501                	li	a0,0
    5e66:	6105                	addi	sp,sp,32
    5e68:	8082                	ret
    5e6a:	4501                	li	a0,0
    5e6c:	8082                	ret

00005e6e <std>:
std():
    5e6e:	1141                	addi	sp,sp,-16
    5e70:	c422                	sw	s0,8(sp)
    5e72:	c606                	sw	ra,12(sp)
    5e74:	842a                	mv	s0,a0
    5e76:	00b51623          	sh	a1,12(a0)
    5e7a:	00c51723          	sh	a2,14(a0)
    5e7e:	00052023          	sw	zero,0(a0)
    5e82:	00052223          	sw	zero,4(a0)
    5e86:	00052423          	sw	zero,8(a0)
    5e8a:	06052223          	sw	zero,100(a0)
    5e8e:	00052823          	sw	zero,16(a0)
    5e92:	00052a23          	sw	zero,20(a0)
    5e96:	00052c23          	sw	zero,24(a0)
    5e9a:	4621                	li	a2,8
    5e9c:	4581                	li	a1,0
    5e9e:	05c50513          	addi	a0,a0,92
    5ea2:	b6cfa0ef          	jal	ra,20e <memset>
    5ea6:	00001797          	auipc	a5,0x1
    5eaa:	96878793          	addi	a5,a5,-1688 # 680e <__sread>
    5eae:	d05c                	sw	a5,36(s0)
    5eb0:	00001797          	auipc	a5,0x1
    5eb4:	98e78793          	addi	a5,a5,-1650 # 683e <__swrite>
    5eb8:	d41c                	sw	a5,40(s0)
    5eba:	00001797          	auipc	a5,0x1
    5ebe:	9d278793          	addi	a5,a5,-1582 # 688c <__sseek>
    5ec2:	d45c                	sw	a5,44(s0)
    5ec4:	00001797          	auipc	a5,0x1
    5ec8:	9fe78793          	addi	a5,a5,-1538 # 68c2 <__sclose>
    5ecc:	d000                	sw	s0,32(s0)
    5ece:	d81c                	sw	a5,48(s0)
    5ed0:	40b2                	lw	ra,12(sp)
    5ed2:	4422                	lw	s0,8(sp)
    5ed4:	0141                	addi	sp,sp,16
    5ed6:	8082                	ret

00005ed8 <_cleanup_r>:
_cleanup_r():
    5ed8:	00000597          	auipc	a1,0x0
    5edc:	f3058593          	addi	a1,a1,-208 # 5e08 <_fflush_r>
    5ee0:	aa91                	j	6034 <_fwalk_reent>

00005ee2 <__sfmoreglue>:
__sfmoreglue():
    5ee2:	1141                	addi	sp,sp,-16
    5ee4:	c226                	sw	s1,4(sp)
    5ee6:	06800613          	li	a2,104
    5eea:	fff58493          	addi	s1,a1,-1
    5eee:	02c484b3          	mul	s1,s1,a2
    5ef2:	c04a                	sw	s2,0(sp)
    5ef4:	892e                	mv	s2,a1
    5ef6:	c422                	sw	s0,8(sp)
    5ef8:	c606                	sw	ra,12(sp)
    5efa:	07448593          	addi	a1,s1,116
    5efe:	2665                	jal	62a6 <_malloc_r>
    5f00:	842a                	mv	s0,a0
    5f02:	cd01                	beqz	a0,5f1a <__sfmoreglue+0x38>
    5f04:	00052023          	sw	zero,0(a0)
    5f08:	01252223          	sw	s2,4(a0)
    5f0c:	0531                	addi	a0,a0,12
    5f0e:	c408                	sw	a0,8(s0)
    5f10:	06848613          	addi	a2,s1,104
    5f14:	4581                	li	a1,0
    5f16:	af8fa0ef          	jal	ra,20e <memset>
    5f1a:	8522                	mv	a0,s0
    5f1c:	40b2                	lw	ra,12(sp)
    5f1e:	4422                	lw	s0,8(sp)
    5f20:	4492                	lw	s1,4(sp)
    5f22:	4902                	lw	s2,0(sp)
    5f24:	0141                	addi	sp,sp,16
    5f26:	8082                	ret

00005f28 <__sinit>:
__sinit():
    5f28:	4d1c                	lw	a5,24(a0)
    5f2a:	e7a5                	bnez	a5,5f92 <__sinit+0x6a>
    5f2c:	1141                	addi	sp,sp,-16
    5f2e:	c606                	sw	ra,12(sp)
    5f30:	c422                	sw	s0,8(sp)
    5f32:	00000797          	auipc	a5,0x0
    5f36:	fa678793          	addi	a5,a5,-90 # 5ed8 <_cleanup_r>
    5f3a:	d51c                	sw	a5,40(a0)
    5f3c:	82818793          	addi	a5,gp,-2008 # 200000d8 <_global_impure_ptr>
    5f40:	439c                	lw	a5,0(a5)
    5f42:	04052423          	sw	zero,72(a0)
    5f46:	04052623          	sw	zero,76(a0)
    5f4a:	04052823          	sw	zero,80(a0)
    5f4e:	00f51463          	bne	a0,a5,5f56 <__sinit+0x2e>
    5f52:	4785                	li	a5,1
    5f54:	cd1c                	sw	a5,24(a0)
    5f56:	842a                	mv	s0,a0
    5f58:	2835                	jal	5f94 <__sfp>
    5f5a:	c048                	sw	a0,4(s0)
    5f5c:	8522                	mv	a0,s0
    5f5e:	281d                	jal	5f94 <__sfp>
    5f60:	c408                	sw	a0,8(s0)
    5f62:	8522                	mv	a0,s0
    5f64:	2805                	jal	5f94 <__sfp>
    5f66:	c448                	sw	a0,12(s0)
    5f68:	4048                	lw	a0,4(s0)
    5f6a:	4601                	li	a2,0
    5f6c:	4591                	li	a1,4
    5f6e:	f01ff0ef          	jal	ra,5e6e <std>
    5f72:	4408                	lw	a0,8(s0)
    5f74:	4605                	li	a2,1
    5f76:	45a5                	li	a1,9
    5f78:	ef7ff0ef          	jal	ra,5e6e <std>
    5f7c:	4448                	lw	a0,12(s0)
    5f7e:	4609                	li	a2,2
    5f80:	45c9                	li	a1,18
    5f82:	eedff0ef          	jal	ra,5e6e <std>
    5f86:	4785                	li	a5,1
    5f88:	cc1c                	sw	a5,24(s0)
    5f8a:	40b2                	lw	ra,12(sp)
    5f8c:	4422                	lw	s0,8(sp)
    5f8e:	0141                	addi	sp,sp,16
    5f90:	8082                	ret
    5f92:	8082                	ret

00005f94 <__sfp>:
__sfp():
    5f94:	1141                	addi	sp,sp,-16
    5f96:	82818793          	addi	a5,gp,-2008 # 200000d8 <_global_impure_ptr>
    5f9a:	c226                	sw	s1,4(sp)
    5f9c:	4384                	lw	s1,0(a5)
    5f9e:	c04a                	sw	s2,0(sp)
    5fa0:	c606                	sw	ra,12(sp)
    5fa2:	4c9c                	lw	a5,24(s1)
    5fa4:	c422                	sw	s0,8(sp)
    5fa6:	892a                	mv	s2,a0
    5fa8:	e781                	bnez	a5,5fb0 <__sfp+0x1c>
    5faa:	8526                	mv	a0,s1
    5fac:	f7dff0ef          	jal	ra,5f28 <__sinit>
    5fb0:	04848493          	addi	s1,s1,72
    5fb4:	4480                	lw	s0,8(s1)
    5fb6:	40dc                	lw	a5,4(s1)
    5fb8:	17fd                	addi	a5,a5,-1
    5fba:	0007d663          	bgez	a5,5fc6 <__sfp+0x32>
    5fbe:	409c                	lw	a5,0(s1)
    5fc0:	cfb9                	beqz	a5,601e <__sfp+0x8a>
    5fc2:	4084                	lw	s1,0(s1)
    5fc4:	bfc5                	j	5fb4 <__sfp+0x20>
    5fc6:	00c41703          	lh	a4,12(s0)
    5fca:	e739                	bnez	a4,6018 <__sfp+0x84>
    5fcc:	77c1                	lui	a5,0xffff0
    5fce:	0785                	addi	a5,a5,1
    5fd0:	06042223          	sw	zero,100(s0)
    5fd4:	00042023          	sw	zero,0(s0)
    5fd8:	00042223          	sw	zero,4(s0)
    5fdc:	00042423          	sw	zero,8(s0)
    5fe0:	c45c                	sw	a5,12(s0)
    5fe2:	00042823          	sw	zero,16(s0)
    5fe6:	00042a23          	sw	zero,20(s0)
    5fea:	00042c23          	sw	zero,24(s0)
    5fee:	4621                	li	a2,8
    5ff0:	4581                	li	a1,0
    5ff2:	05c40513          	addi	a0,s0,92
    5ff6:	a18fa0ef          	jal	ra,20e <memset>
    5ffa:	02042a23          	sw	zero,52(s0)
    5ffe:	02042c23          	sw	zero,56(s0)
    6002:	04042423          	sw	zero,72(s0)
    6006:	04042623          	sw	zero,76(s0)
    600a:	8522                	mv	a0,s0
    600c:	40b2                	lw	ra,12(sp)
    600e:	4422                	lw	s0,8(sp)
    6010:	4492                	lw	s1,4(sp)
    6012:	4902                	lw	s2,0(sp)
    6014:	0141                	addi	sp,sp,16
    6016:	8082                	ret
    6018:	06840413          	addi	s0,s0,104
    601c:	bf71                	j	5fb8 <__sfp+0x24>
    601e:	4591                	li	a1,4
    6020:	854a                	mv	a0,s2
    6022:	ec1ff0ef          	jal	ra,5ee2 <__sfmoreglue>
    6026:	c088                	sw	a0,0(s1)
    6028:	fd49                	bnez	a0,5fc2 <__sfp+0x2e>
    602a:	47b1                	li	a5,12
    602c:	00f92023          	sw	a5,0(s2)
    6030:	4401                	li	s0,0
    6032:	bfe1                	j	600a <__sfp+0x76>

00006034 <_fwalk_reent>:
_fwalk_reent():
    6034:	7179                	addi	sp,sp,-48
    6036:	d422                	sw	s0,40(sp)
    6038:	d04a                	sw	s2,32(sp)
    603a:	cc52                	sw	s4,24(sp)
    603c:	ca56                	sw	s5,20(sp)
    603e:	c85a                	sw	s6,16(sp)
    6040:	c65e                	sw	s7,12(sp)
    6042:	d606                	sw	ra,44(sp)
    6044:	d226                	sw	s1,36(sp)
    6046:	ce4e                	sw	s3,28(sp)
    6048:	8a2a                	mv	s4,a0
    604a:	8aae                	mv	s5,a1
    604c:	04850413          	addi	s0,a0,72
    6050:	4901                	li	s2,0
    6052:	4b05                	li	s6,1
    6054:	5bfd                	li	s7,-1
    6056:	ec09                	bnez	s0,6070 <_fwalk_reent+0x3c>
    6058:	50b2                	lw	ra,44(sp)
    605a:	5422                	lw	s0,40(sp)
    605c:	854a                	mv	a0,s2
    605e:	5492                	lw	s1,36(sp)
    6060:	5902                	lw	s2,32(sp)
    6062:	49f2                	lw	s3,28(sp)
    6064:	4a62                	lw	s4,24(sp)
    6066:	4ad2                	lw	s5,20(sp)
    6068:	4b42                	lw	s6,16(sp)
    606a:	4bb2                	lw	s7,12(sp)
    606c:	6145                	addi	sp,sp,48
    606e:	8082                	ret
    6070:	4404                	lw	s1,8(s0)
    6072:	00442983          	lw	s3,4(s0)
    6076:	19fd                	addi	s3,s3,-1
    6078:	0009d463          	bgez	s3,6080 <_fwalk_reent+0x4c>
    607c:	4000                	lw	s0,0(s0)
    607e:	bfe1                	j	6056 <_fwalk_reent+0x22>
    6080:	00c4d783          	lhu	a5,12(s1)
    6084:	00fb7b63          	bgeu	s6,a5,609a <_fwalk_reent+0x66>
    6088:	00e49783          	lh	a5,14(s1)
    608c:	01778763          	beq	a5,s7,609a <_fwalk_reent+0x66>
    6090:	85a6                	mv	a1,s1
    6092:	8552                	mv	a0,s4
    6094:	9a82                	jalr	s5
    6096:	00a96933          	or	s2,s2,a0
    609a:	06848493          	addi	s1,s1,104
    609e:	bfe1                	j	6076 <_fwalk_reent+0x42>

000060a0 <__swhatbuf_r>:
__swhatbuf_r():
    60a0:	7119                	addi	sp,sp,-128
    60a2:	daa6                	sw	s1,116(sp)
    60a4:	84ae                	mv	s1,a1
    60a6:	00e59583          	lh	a1,14(a1)
    60aa:	dca2                	sw	s0,120(sp)
    60ac:	de86                	sw	ra,124(sp)
    60ae:	8432                	mv	s0,a2
    60b0:	0005dc63          	bgez	a1,60c8 <__swhatbuf_r+0x28>
    60b4:	00c4d783          	lhu	a5,12(s1)
    60b8:	0006a023          	sw	zero,0(a3)
    60bc:	0807f793          	andi	a5,a5,128
    60c0:	e785                	bnez	a5,60e8 <__swhatbuf_r+0x48>
    60c2:	40000793          	li	a5,1024
    60c6:	a01d                	j	60ec <__swhatbuf_r+0x4c>
    60c8:	0830                	addi	a2,sp,24
    60ca:	c636                	sw	a3,12(sp)
    60cc:	063000ef          	jal	ra,692e <_fstat_r>
    60d0:	46b2                	lw	a3,12(sp)
    60d2:	fe0541e3          	bltz	a0,60b4 <__swhatbuf_r+0x14>
    60d6:	4772                	lw	a4,28(sp)
    60d8:	67bd                	lui	a5,0xf
    60da:	8ff9                	and	a5,a5,a4
    60dc:	7779                	lui	a4,0xffffe
    60de:	97ba                	add	a5,a5,a4
    60e0:	0017b793          	seqz	a5,a5
    60e4:	c29c                	sw	a5,0(a3)
    60e6:	bff1                	j	60c2 <__swhatbuf_r+0x22>
    60e8:	04000793          	li	a5,64
    60ec:	c01c                	sw	a5,0(s0)
    60ee:	50f6                	lw	ra,124(sp)
    60f0:	5466                	lw	s0,120(sp)
    60f2:	54d6                	lw	s1,116(sp)
    60f4:	4501                	li	a0,0
    60f6:	6109                	addi	sp,sp,128
    60f8:	8082                	ret

000060fa <__smakebuf_r>:
__smakebuf_r():
    60fa:	00c5d783          	lhu	a5,12(a1)
    60fe:	1101                	addi	sp,sp,-32
    6100:	cc22                	sw	s0,24(sp)
    6102:	ce06                	sw	ra,28(sp)
    6104:	ca26                	sw	s1,20(sp)
    6106:	c84a                	sw	s2,16(sp)
    6108:	8b89                	andi	a5,a5,2
    610a:	842e                	mv	s0,a1
    610c:	cf89                	beqz	a5,6126 <__smakebuf_r+0x2c>
    610e:	04740793          	addi	a5,s0,71
    6112:	c01c                	sw	a5,0(s0)
    6114:	c81c                	sw	a5,16(s0)
    6116:	4785                	li	a5,1
    6118:	c85c                	sw	a5,20(s0)
    611a:	40f2                	lw	ra,28(sp)
    611c:	4462                	lw	s0,24(sp)
    611e:	44d2                	lw	s1,20(sp)
    6120:	4942                	lw	s2,16(sp)
    6122:	6105                	addi	sp,sp,32
    6124:	8082                	ret
    6126:	0074                	addi	a3,sp,12
    6128:	0030                	addi	a2,sp,8
    612a:	84aa                	mv	s1,a0
    612c:	f75ff0ef          	jal	ra,60a0 <__swhatbuf_r>
    6130:	45a2                	lw	a1,8(sp)
    6132:	892a                	mv	s2,a0
    6134:	8526                	mv	a0,s1
    6136:	2a85                	jal	62a6 <_malloc_r>
    6138:	ed01                	bnez	a0,6150 <__smakebuf_r+0x56>
    613a:	00c41783          	lh	a5,12(s0)
    613e:	2007f713          	andi	a4,a5,512
    6142:	ff61                	bnez	a4,611a <__smakebuf_r+0x20>
    6144:	9bf1                	andi	a5,a5,-4
    6146:	0027e793          	ori	a5,a5,2
    614a:	00f41623          	sh	a5,12(s0)
    614e:	b7c1                	j	610e <__smakebuf_r+0x14>
    6150:	00000797          	auipc	a5,0x0
    6154:	d8878793          	addi	a5,a5,-632 # 5ed8 <_cleanup_r>
    6158:	d49c                	sw	a5,40(s1)
    615a:	00c45783          	lhu	a5,12(s0)
    615e:	c008                	sw	a0,0(s0)
    6160:	c808                	sw	a0,16(s0)
    6162:	0807e793          	ori	a5,a5,128
    6166:	00f41623          	sh	a5,12(s0)
    616a:	47a2                	lw	a5,8(sp)
    616c:	c85c                	sw	a5,20(s0)
    616e:	47b2                	lw	a5,12(sp)
    6170:	cf91                	beqz	a5,618c <__smakebuf_r+0x92>
    6172:	00e41583          	lh	a1,14(s0)
    6176:	8526                	mv	a0,s1
    6178:	7e8000ef          	jal	ra,6960 <_isatty_r>
    617c:	c901                	beqz	a0,618c <__smakebuf_r+0x92>
    617e:	00c45783          	lhu	a5,12(s0)
    6182:	9bf1                	andi	a5,a5,-4
    6184:	0017e793          	ori	a5,a5,1
    6188:	00f41623          	sh	a5,12(s0)
    618c:	00c45783          	lhu	a5,12(s0)
    6190:	00f96933          	or	s2,s2,a5
    6194:	01241623          	sh	s2,12(s0)
    6198:	b749                	j	611a <__smakebuf_r+0x20>

0000619a <memchr>:
memchr():
    619a:	0ff5f593          	andi	a1,a1,255
    619e:	962a                	add	a2,a2,a0
    61a0:	00c51463          	bne	a0,a2,61a8 <memchr+0xe>
    61a4:	4501                	li	a0,0
    61a6:	8082                	ret
    61a8:	00054783          	lbu	a5,0(a0)
    61ac:	feb78de3          	beq	a5,a1,61a6 <memchr+0xc>
    61b0:	0505                	addi	a0,a0,1
    61b2:	b7fd                	j	61a0 <memchr+0x6>

000061b4 <memmove>:
memmove():
    61b4:	04a5f363          	bgeu	a1,a0,61fa <memmove+0x46>
    61b8:	00c586b3          	add	a3,a1,a2
    61bc:	02d57f63          	bgeu	a0,a3,61fa <memmove+0x46>
    61c0:	fff64593          	not	a1,a2
    61c4:	4781                	li	a5,0
    61c6:	17fd                	addi	a5,a5,-1
    61c8:	00f59363          	bne	a1,a5,61ce <memmove+0x1a>
    61cc:	8082                	ret
    61ce:	00f68733          	add	a4,a3,a5
    61d2:	00074803          	lbu	a6,0(a4) # ffffe000 <_eusrstack+0xdfff9000>
    61d6:	00c78733          	add	a4,a5,a2
    61da:	972a                	add	a4,a4,a0
    61dc:	01070023          	sb	a6,0(a4)
    61e0:	b7dd                	j	61c6 <memmove+0x12>
    61e2:	00f58733          	add	a4,a1,a5
    61e6:	00074683          	lbu	a3,0(a4)
    61ea:	00f50733          	add	a4,a0,a5
    61ee:	0785                	addi	a5,a5,1
    61f0:	00d70023          	sb	a3,0(a4)
    61f4:	fef617e3          	bne	a2,a5,61e2 <memmove+0x2e>
    61f8:	8082                	ret
    61fa:	4781                	li	a5,0
    61fc:	bfe5                	j	61f4 <memmove+0x40>

000061fe <_free_r>:
_free_r():
    61fe:	c1dd                	beqz	a1,62a4 <_free_r+0xa6>
    6200:	ffc5a783          	lw	a5,-4(a1)
    6204:	1141                	addi	sp,sp,-16
    6206:	c422                	sw	s0,8(sp)
    6208:	c606                	sw	ra,12(sp)
    620a:	c226                	sw	s1,4(sp)
    620c:	ffc58413          	addi	s0,a1,-4
    6210:	0007d363          	bgez	a5,6216 <_free_r+0x18>
    6214:	943e                	add	s0,s0,a5
    6216:	84aa                	mv	s1,a0
    6218:	7ac000ef          	jal	ra,69c4 <__malloc_lock>
    621c:	8bc18793          	addi	a5,gp,-1860 # 2000016c <__malloc_free_list>
    6220:	439c                	lw	a5,0(a5)
    6222:	ef81                	bnez	a5,623a <_free_r+0x3c>
    6224:	00042223          	sw	zero,4(s0)
    6228:	8a81ae23          	sw	s0,-1860(gp) # 2000016c <__malloc_free_list>
    622c:	4422                	lw	s0,8(sp)
    622e:	40b2                	lw	ra,12(sp)
    6230:	8526                	mv	a0,s1
    6232:	4492                	lw	s1,4(sp)
    6234:	0141                	addi	sp,sp,16
    6236:	7900006f          	j	69c6 <__malloc_unlock>
    623a:	00f47e63          	bgeu	s0,a5,6256 <_free_r+0x58>
    623e:	4014                	lw	a3,0(s0)
    6240:	00d40733          	add	a4,s0,a3
    6244:	00e79663          	bne	a5,a4,6250 <_free_r+0x52>
    6248:	4398                	lw	a4,0(a5)
    624a:	43dc                	lw	a5,4(a5)
    624c:	9736                	add	a4,a4,a3
    624e:	c018                	sw	a4,0(s0)
    6250:	c05c                	sw	a5,4(s0)
    6252:	bfd9                	j	6228 <_free_r+0x2a>
    6254:	87ba                	mv	a5,a4
    6256:	43d8                	lw	a4,4(a5)
    6258:	c319                	beqz	a4,625e <_free_r+0x60>
    625a:	fee47de3          	bgeu	s0,a4,6254 <_free_r+0x56>
    625e:	4394                	lw	a3,0(a5)
    6260:	00d78633          	add	a2,a5,a3
    6264:	00861f63          	bne	a2,s0,6282 <_free_r+0x84>
    6268:	4010                	lw	a2,0(s0)
    626a:	96b2                	add	a3,a3,a2
    626c:	c394                	sw	a3,0(a5)
    626e:	00d78633          	add	a2,a5,a3
    6272:	fac71de3          	bne	a4,a2,622c <_free_r+0x2e>
    6276:	4310                	lw	a2,0(a4)
    6278:	4358                	lw	a4,4(a4)
    627a:	96b2                	add	a3,a3,a2
    627c:	c394                	sw	a3,0(a5)
    627e:	c3d8                	sw	a4,4(a5)
    6280:	b775                	j	622c <_free_r+0x2e>
    6282:	00c47563          	bgeu	s0,a2,628c <_free_r+0x8e>
    6286:	47b1                	li	a5,12
    6288:	c09c                	sw	a5,0(s1)
    628a:	b74d                	j	622c <_free_r+0x2e>
    628c:	4010                	lw	a2,0(s0)
    628e:	00c406b3          	add	a3,s0,a2
    6292:	00d71663          	bne	a4,a3,629e <_free_r+0xa0>
    6296:	4314                	lw	a3,0(a4)
    6298:	4358                	lw	a4,4(a4)
    629a:	96b2                	add	a3,a3,a2
    629c:	c014                	sw	a3,0(s0)
    629e:	c058                	sw	a4,4(s0)
    62a0:	c3c0                	sw	s0,4(a5)
    62a2:	b769                	j	622c <_free_r+0x2e>
    62a4:	8082                	ret

000062a6 <_malloc_r>:
_malloc_r():
    62a6:	1101                	addi	sp,sp,-32
    62a8:	ca26                	sw	s1,20(sp)
    62aa:	00358493          	addi	s1,a1,3
    62ae:	98f1                	andi	s1,s1,-4
    62b0:	ce06                	sw	ra,28(sp)
    62b2:	cc22                	sw	s0,24(sp)
    62b4:	c84a                	sw	s2,16(sp)
    62b6:	c64e                	sw	s3,12(sp)
    62b8:	04a1                	addi	s1,s1,8
    62ba:	47b1                	li	a5,12
    62bc:	04f4f163          	bgeu	s1,a5,62fe <_malloc_r+0x58>
    62c0:	44b1                	li	s1,12
    62c2:	04b4e063          	bltu	s1,a1,6302 <_malloc_r+0x5c>
    62c6:	892a                	mv	s2,a0
    62c8:	2df5                	jal	69c4 <__malloc_lock>
    62ca:	8bc18793          	addi	a5,gp,-1860 # 2000016c <__malloc_free_list>
    62ce:	4398                	lw	a4,0(a5)
    62d0:	843a                	mv	s0,a4
    62d2:	e031                	bnez	s0,6316 <_malloc_r+0x70>
    62d4:	8c018793          	addi	a5,gp,-1856 # 20000170 <__malloc_sbrk_start>
    62d8:	439c                	lw	a5,0(a5)
    62da:	e791                	bnez	a5,62e6 <_malloc_r+0x40>
    62dc:	4581                	li	a1,0
    62de:	854a                	mv	a0,s2
    62e0:	29b1                	jal	673c <_sbrk_r>
    62e2:	8ca1a023          	sw	a0,-1856(gp) # 20000170 <__malloc_sbrk_start>
    62e6:	85a6                	mv	a1,s1
    62e8:	854a                	mv	a0,s2
    62ea:	2989                	jal	673c <_sbrk_r>
    62ec:	59fd                	li	s3,-1
    62ee:	07351763          	bne	a0,s3,635c <_malloc_r+0xb6>
    62f2:	47b1                	li	a5,12
    62f4:	00f92023          	sw	a5,0(s2)
    62f8:	854a                	mv	a0,s2
    62fa:	25f1                	jal	69c6 <__malloc_unlock>
    62fc:	a029                	j	6306 <_malloc_r+0x60>
    62fe:	fc04d2e3          	bgez	s1,62c2 <_malloc_r+0x1c>
    6302:	47b1                	li	a5,12
    6304:	c11c                	sw	a5,0(a0)
    6306:	4501                	li	a0,0
    6308:	40f2                	lw	ra,28(sp)
    630a:	4462                	lw	s0,24(sp)
    630c:	44d2                	lw	s1,20(sp)
    630e:	4942                	lw	s2,16(sp)
    6310:	49b2                	lw	s3,12(sp)
    6312:	6105                	addi	sp,sp,32
    6314:	8082                	ret
    6316:	401c                	lw	a5,0(s0)
    6318:	8f85                	sub	a5,a5,s1
    631a:	0207ce63          	bltz	a5,6356 <_malloc_r+0xb0>
    631e:	46ad                	li	a3,11
    6320:	00f6f663          	bgeu	a3,a5,632c <_malloc_r+0x86>
    6324:	c01c                	sw	a5,0(s0)
    6326:	943e                	add	s0,s0,a5
    6328:	c004                	sw	s1,0(s0)
    632a:	a031                	j	6336 <_malloc_r+0x90>
    632c:	405c                	lw	a5,4(s0)
    632e:	02871263          	bne	a4,s0,6352 <_malloc_r+0xac>
    6332:	8af1ae23          	sw	a5,-1860(gp) # 2000016c <__malloc_free_list>
    6336:	854a                	mv	a0,s2
    6338:	2579                	jal	69c6 <__malloc_unlock>
    633a:	00b40513          	addi	a0,s0,11
    633e:	00440793          	addi	a5,s0,4
    6342:	9961                	andi	a0,a0,-8
    6344:	40f50733          	sub	a4,a0,a5
    6348:	d361                	beqz	a4,6308 <_malloc_r+0x62>
    634a:	943a                	add	s0,s0,a4
    634c:	8f89                	sub	a5,a5,a0
    634e:	c01c                	sw	a5,0(s0)
    6350:	bf65                	j	6308 <_malloc_r+0x62>
    6352:	c35c                	sw	a5,4(a4)
    6354:	b7cd                	j	6336 <_malloc_r+0x90>
    6356:	8722                	mv	a4,s0
    6358:	4040                	lw	s0,4(s0)
    635a:	bfa5                	j	62d2 <_malloc_r+0x2c>
    635c:	00350413          	addi	s0,a0,3
    6360:	9871                	andi	s0,s0,-4
    6362:	fc8503e3          	beq	a0,s0,6328 <_malloc_r+0x82>
    6366:	40a405b3          	sub	a1,s0,a0
    636a:	854a                	mv	a0,s2
    636c:	2ec1                	jal	673c <_sbrk_r>
    636e:	fb351de3          	bne	a0,s3,6328 <_malloc_r+0x82>
    6372:	b741                	j	62f2 <_malloc_r+0x4c>

00006374 <_realloc_r>:
_realloc_r():
    6374:	e581                	bnez	a1,637c <_realloc_r+0x8>
    6376:	85b2                	mv	a1,a2
    6378:	f2fff06f          	j	62a6 <_malloc_r>
    637c:	1101                	addi	sp,sp,-32
    637e:	cc22                	sw	s0,24(sp)
    6380:	ce06                	sw	ra,28(sp)
    6382:	ca26                	sw	s1,20(sp)
    6384:	c84a                	sw	s2,16(sp)
    6386:	c64e                	sw	s3,12(sp)
    6388:	8432                	mv	s0,a2
    638a:	ee01                	bnez	a2,63a2 <_realloc_r+0x2e>
    638c:	e73ff0ef          	jal	ra,61fe <_free_r>
    6390:	4901                	li	s2,0
    6392:	40f2                	lw	ra,28(sp)
    6394:	4462                	lw	s0,24(sp)
    6396:	854a                	mv	a0,s2
    6398:	44d2                	lw	s1,20(sp)
    639a:	4942                	lw	s2,16(sp)
    639c:	49b2                	lw	s3,12(sp)
    639e:	6105                	addi	sp,sp,32
    63a0:	8082                	ret
    63a2:	84ae                	mv	s1,a1
    63a4:	89aa                	mv	s3,a0
    63a6:	250d                	jal	69c8 <_malloc_usable_size_r>
    63a8:	8926                	mv	s2,s1
    63aa:	fe8574e3          	bgeu	a0,s0,6392 <_realloc_r+0x1e>
    63ae:	85a2                	mv	a1,s0
    63b0:	854e                	mv	a0,s3
    63b2:	ef5ff0ef          	jal	ra,62a6 <_malloc_r>
    63b6:	892a                	mv	s2,a0
    63b8:	dd69                	beqz	a0,6392 <_realloc_r+0x1e>
    63ba:	85a6                	mv	a1,s1
    63bc:	8622                	mv	a2,s0
    63be:	f17fe0ef          	jal	ra,52d4 <memcpy>
    63c2:	85a6                	mv	a1,s1
    63c4:	854e                	mv	a0,s3
    63c6:	e39ff0ef          	jal	ra,61fe <_free_r>
    63ca:	b7e1                	j	6392 <_realloc_r+0x1e>

000063cc <__ssputs_r>:
__ssputs_r():
    63cc:	1101                	addi	sp,sp,-32
    63ce:	c84a                	sw	s2,16(sp)
    63d0:	0085a903          	lw	s2,8(a1)
    63d4:	cc22                	sw	s0,24(sp)
    63d6:	c452                	sw	s4,8(sp)
    63d8:	c05a                	sw	s6,0(sp)
    63da:	ce06                	sw	ra,28(sp)
    63dc:	ca26                	sw	s1,20(sp)
    63de:	c64e                	sw	s3,12(sp)
    63e0:	c256                	sw	s5,4(sp)
    63e2:	842e                	mv	s0,a1
    63e4:	8b32                	mv	s6,a2
    63e6:	8a36                	mv	s4,a3
    63e8:	0926ee63          	bltu	a3,s2,6484 <__ssputs_r+0xb8>
    63ec:	00c5d783          	lhu	a5,12(a1)
    63f0:	4807f713          	andi	a4,a5,1152
    63f4:	c751                	beqz	a4,6480 <__ssputs_r+0xb4>
    63f6:	4004                	lw	s1,0(s0)
    63f8:	498c                	lw	a1,16(a1)
    63fa:	4858                	lw	a4,20(s0)
    63fc:	8aaa                	mv	s5,a0
    63fe:	40b489b3          	sub	s3,s1,a1
    6402:	448d                	li	s1,3
    6404:	02e484b3          	mul	s1,s1,a4
    6408:	4709                	li	a4,2
    640a:	02e4c4b3          	div	s1,s1,a4
    640e:	00168713          	addi	a4,a3,1
    6412:	974e                	add	a4,a4,s3
    6414:	00e4f363          	bgeu	s1,a4,641a <__ssputs_r+0x4e>
    6418:	84ba                	mv	s1,a4
    641a:	4007f793          	andi	a5,a5,1024
    641e:	c3d9                	beqz	a5,64a4 <__ssputs_r+0xd8>
    6420:	85a6                	mv	a1,s1
    6422:	8556                	mv	a0,s5
    6424:	e83ff0ef          	jal	ra,62a6 <_malloc_r>
    6428:	892a                	mv	s2,a0
    642a:	e50d                	bnez	a0,6454 <__ssputs_r+0x88>
    642c:	47b1                	li	a5,12
    642e:	00faa023          	sw	a5,0(s5)
    6432:	00c45783          	lhu	a5,12(s0)
    6436:	557d                	li	a0,-1
    6438:	0407e793          	ori	a5,a5,64
    643c:	00f41623          	sh	a5,12(s0)
    6440:	40f2                	lw	ra,28(sp)
    6442:	4462                	lw	s0,24(sp)
    6444:	44d2                	lw	s1,20(sp)
    6446:	4942                	lw	s2,16(sp)
    6448:	49b2                	lw	s3,12(sp)
    644a:	4a22                	lw	s4,8(sp)
    644c:	4a92                	lw	s5,4(sp)
    644e:	4b02                	lw	s6,0(sp)
    6450:	6105                	addi	sp,sp,32
    6452:	8082                	ret
    6454:	480c                	lw	a1,16(s0)
    6456:	864e                	mv	a2,s3
    6458:	e7dfe0ef          	jal	ra,52d4 <memcpy>
    645c:	00c45783          	lhu	a5,12(s0)
    6460:	b7f7f793          	andi	a5,a5,-1153
    6464:	0807e793          	ori	a5,a5,128
    6468:	00f41623          	sh	a5,12(s0)
    646c:	01242823          	sw	s2,16(s0)
    6470:	c844                	sw	s1,20(s0)
    6472:	994e                	add	s2,s2,s3
    6474:	413484b3          	sub	s1,s1,s3
    6478:	01242023          	sw	s2,0(s0)
    647c:	c404                	sw	s1,8(s0)
    647e:	8952                	mv	s2,s4
    6480:	012a7363          	bgeu	s4,s2,6486 <__ssputs_r+0xba>
    6484:	8952                	mv	s2,s4
    6486:	4008                	lw	a0,0(s0)
    6488:	864a                	mv	a2,s2
    648a:	85da                	mv	a1,s6
    648c:	d29ff0ef          	jal	ra,61b4 <memmove>
    6490:	441c                	lw	a5,8(s0)
    6492:	4501                	li	a0,0
    6494:	412787b3          	sub	a5,a5,s2
    6498:	c41c                	sw	a5,8(s0)
    649a:	401c                	lw	a5,0(s0)
    649c:	993e                	add	s2,s2,a5
    649e:	01242023          	sw	s2,0(s0)
    64a2:	bf79                	j	6440 <__ssputs_r+0x74>
    64a4:	8626                	mv	a2,s1
    64a6:	8556                	mv	a0,s5
    64a8:	ecdff0ef          	jal	ra,6374 <_realloc_r>
    64ac:	892a                	mv	s2,a0
    64ae:	fd5d                	bnez	a0,646c <__ssputs_r+0xa0>
    64b0:	480c                	lw	a1,16(s0)
    64b2:	8556                	mv	a0,s5
    64b4:	d4bff0ef          	jal	ra,61fe <_free_r>
    64b8:	bf95                	j	642c <__ssputs_r+0x60>

000064ba <_svfiprintf_r>:
_svfprintf_r():
    64ba:	00c5d783          	lhu	a5,12(a1)
    64be:	7171                	addi	sp,sp,-176
    64c0:	d326                	sw	s1,164(sp)
    64c2:	d14a                	sw	s2,160(sp)
    64c4:	cf4e                	sw	s3,156(sp)
    64c6:	d706                	sw	ra,172(sp)
    64c8:	d522                	sw	s0,168(sp)
    64ca:	cd52                	sw	s4,152(sp)
    64cc:	cb56                	sw	s5,148(sp)
    64ce:	c95a                	sw	s6,144(sp)
    64d0:	c75e                	sw	s7,140(sp)
    64d2:	c562                	sw	s8,136(sp)
    64d4:	c366                	sw	s9,132(sp)
    64d6:	0807f793          	andi	a5,a5,128
    64da:	89aa                	mv	s3,a0
    64dc:	892e                	mv	s2,a1
    64de:	84b2                	mv	s1,a2
    64e0:	c3b9                	beqz	a5,6526 <_svfiprintf_r+0x6c>
    64e2:	499c                	lw	a5,16(a1)
    64e4:	e3a9                	bnez	a5,6526 <_svfiprintf_r+0x6c>
    64e6:	04000593          	li	a1,64
    64ea:	c636                	sw	a3,12(sp)
    64ec:	dbbff0ef          	jal	ra,62a6 <_malloc_r>
    64f0:	00a92023          	sw	a0,0(s2)
    64f4:	00a92823          	sw	a0,16(s2)
    64f8:	46b2                	lw	a3,12(sp)
    64fa:	e115                	bnez	a0,651e <_svfiprintf_r+0x64>
    64fc:	47b1                	li	a5,12
    64fe:	00f9a023          	sw	a5,0(s3)
    6502:	557d                	li	a0,-1
    6504:	50ba                	lw	ra,172(sp)
    6506:	542a                	lw	s0,168(sp)
    6508:	549a                	lw	s1,164(sp)
    650a:	590a                	lw	s2,160(sp)
    650c:	49fa                	lw	s3,156(sp)
    650e:	4a6a                	lw	s4,152(sp)
    6510:	4ada                	lw	s5,148(sp)
    6512:	4b4a                	lw	s6,144(sp)
    6514:	4bba                	lw	s7,140(sp)
    6516:	4c2a                	lw	s8,136(sp)
    6518:	4c9a                	lw	s9,132(sp)
    651a:	614d                	addi	sp,sp,176
    651c:	8082                	ret
    651e:	04000793          	li	a5,64
    6522:	00f92a23          	sw	a5,20(s2)
    6526:	02000793          	li	a5,32
    652a:	02f10ca3          	sb	a5,57(sp)
    652e:	03000793          	li	a5,48
    6532:	da02                	sw	zero,52(sp)
    6534:	02f10d23          	sb	a5,58(sp)
    6538:	ce36                	sw	a3,28(sp)
    653a:	02500b93          	li	s7,37
    653e:	00001a97          	auipc	s5,0x1
    6542:	0b2a8a93          	addi	s5,s5,178 # 75f0 <__fsym___cmd_ps_name+0x13c>
    6546:	4c05                	li	s8,1
    6548:	4b29                	li	s6,10
    654a:	8426                	mv	s0,s1
    654c:	00044783          	lbu	a5,0(s0)
    6550:	c399                	beqz	a5,6556 <_svfiprintf_r+0x9c>
    6552:	09779d63          	bne	a5,s7,65ec <_svfiprintf_r+0x132>
    6556:	40940cb3          	sub	s9,s0,s1
    655a:	000c8e63          	beqz	s9,6576 <_svfiprintf_r+0xbc>
    655e:	86e6                	mv	a3,s9
    6560:	8626                	mv	a2,s1
    6562:	85ca                	mv	a1,s2
    6564:	854e                	mv	a0,s3
    6566:	e67ff0ef          	jal	ra,63cc <__ssputs_r>
    656a:	57fd                	li	a5,-1
    656c:	1af50463          	beq	a0,a5,6714 <_svfiprintf_r+0x25a>
    6570:	56d2                	lw	a3,52(sp)
    6572:	96e6                	add	a3,a3,s9
    6574:	da36                	sw	a3,52(sp)
    6576:	00044783          	lbu	a5,0(s0)
    657a:	18078d63          	beqz	a5,6714 <_svfiprintf_r+0x25a>
    657e:	57fd                	li	a5,-1
    6580:	00140493          	addi	s1,s0,1
    6584:	d002                	sw	zero,32(sp)
    6586:	d602                	sw	zero,44(sp)
    6588:	d23e                	sw	a5,36(sp)
    658a:	d402                	sw	zero,40(sp)
    658c:	060101a3          	sb	zero,99(sp)
    6590:	dc82                	sw	zero,120(sp)
    6592:	0004c583          	lbu	a1,0(s1)
    6596:	4615                	li	a2,5
    6598:	8556                	mv	a0,s5
    659a:	c01ff0ef          	jal	ra,619a <memchr>
    659e:	00148413          	addi	s0,s1,1
    65a2:	5782                	lw	a5,32(sp)
    65a4:	e531                	bnez	a0,65f0 <_svfiprintf_r+0x136>
    65a6:	0107f713          	andi	a4,a5,16
    65aa:	c709                	beqz	a4,65b4 <_svfiprintf_r+0xfa>
    65ac:	02000713          	li	a4,32
    65b0:	06e101a3          	sb	a4,99(sp)
    65b4:	0087f713          	andi	a4,a5,8
    65b8:	c709                	beqz	a4,65c2 <_svfiprintf_r+0x108>
    65ba:	02b00713          	li	a4,43
    65be:	06e101a3          	sb	a4,99(sp)
    65c2:	0004c683          	lbu	a3,0(s1)
    65c6:	02a00713          	li	a4,42
    65ca:	02e68b63          	beq	a3,a4,6600 <_svfiprintf_r+0x146>
    65ce:	57b2                	lw	a5,44(sp)
    65d0:	8426                	mv	s0,s1
    65d2:	4681                	li	a3,0
    65d4:	4625                	li	a2,9
    65d6:	00044703          	lbu	a4,0(s0)
    65da:	00140593          	addi	a1,s0,1
    65de:	fd070713          	addi	a4,a4,-48
    65e2:	06e67463          	bgeu	a2,a4,664a <_svfiprintf_r+0x190>
    65e6:	c68d                	beqz	a3,6610 <_svfiprintf_r+0x156>
    65e8:	d63e                	sw	a5,44(sp)
    65ea:	a01d                	j	6610 <_svfiprintf_r+0x156>
    65ec:	0405                	addi	s0,s0,1
    65ee:	bfb9                	j	654c <_svfiprintf_r+0x92>
    65f0:	41550533          	sub	a0,a0,s5
    65f4:	00ac1533          	sll	a0,s8,a0
    65f8:	8fc9                	or	a5,a5,a0
    65fa:	d03e                	sw	a5,32(sp)
    65fc:	84a2                	mv	s1,s0
    65fe:	bf51                	j	6592 <_svfiprintf_r+0xd8>
    6600:	4772                	lw	a4,28(sp)
    6602:	00470693          	addi	a3,a4,4
    6606:	4318                	lw	a4,0(a4)
    6608:	ce36                	sw	a3,28(sp)
    660a:	02074963          	bltz	a4,663c <_svfiprintf_r+0x182>
    660e:	d63a                	sw	a4,44(sp)
    6610:	00044703          	lbu	a4,0(s0)
    6614:	02e00793          	li	a5,46
    6618:	04f71f63          	bne	a4,a5,6676 <_svfiprintf_r+0x1bc>
    661c:	00144703          	lbu	a4,1(s0)
    6620:	02a00793          	li	a5,42
    6624:	02f71b63          	bne	a4,a5,665a <_svfiprintf_r+0x1a0>
    6628:	47f2                	lw	a5,28(sp)
    662a:	0409                	addi	s0,s0,2
    662c:	00478713          	addi	a4,a5,4
    6630:	439c                	lw	a5,0(a5)
    6632:	ce3a                	sw	a4,28(sp)
    6634:	0207c163          	bltz	a5,6656 <_svfiprintf_r+0x19c>
    6638:	d23e                	sw	a5,36(sp)
    663a:	a835                	j	6676 <_svfiprintf_r+0x1bc>
    663c:	40e00733          	neg	a4,a4
    6640:	0027e793          	ori	a5,a5,2
    6644:	d63a                	sw	a4,44(sp)
    6646:	d03e                	sw	a5,32(sp)
    6648:	b7e1                	j	6610 <_svfiprintf_r+0x156>
    664a:	036787b3          	mul	a5,a5,s6
    664e:	4685                	li	a3,1
    6650:	842e                	mv	s0,a1
    6652:	97ba                	add	a5,a5,a4
    6654:	b749                	j	65d6 <_svfiprintf_r+0x11c>
    6656:	57fd                	li	a5,-1
    6658:	b7c5                	j	6638 <_svfiprintf_r+0x17e>
    665a:	0405                	addi	s0,s0,1
    665c:	d202                	sw	zero,36(sp)
    665e:	4681                	li	a3,0
    6660:	4781                	li	a5,0
    6662:	4625                	li	a2,9
    6664:	00044703          	lbu	a4,0(s0)
    6668:	00140593          	addi	a1,s0,1
    666c:	fd070713          	addi	a4,a4,-48
    6670:	06e67863          	bgeu	a2,a4,66e0 <_svfiprintf_r+0x226>
    6674:	f2f1                	bnez	a3,6638 <_svfiprintf_r+0x17e>
    6676:	00044583          	lbu	a1,0(s0)
    667a:	460d                	li	a2,3
    667c:	00001517          	auipc	a0,0x1
    6680:	f7c50513          	addi	a0,a0,-132 # 75f8 <__fsym___cmd_ps_name+0x144>
    6684:	b17ff0ef          	jal	ra,619a <memchr>
    6688:	cd11                	beqz	a0,66a4 <_svfiprintf_r+0x1ea>
    668a:	00001797          	auipc	a5,0x1
    668e:	f6e78793          	addi	a5,a5,-146 # 75f8 <__fsym___cmd_ps_name+0x144>
    6692:	8d1d                	sub	a0,a0,a5
    6694:	04000793          	li	a5,64
    6698:	00a797b3          	sll	a5,a5,a0
    669c:	5502                	lw	a0,32(sp)
    669e:	0405                	addi	s0,s0,1
    66a0:	8d5d                	or	a0,a0,a5
    66a2:	d02a                	sw	a0,32(sp)
    66a4:	00044583          	lbu	a1,0(s0)
    66a8:	4619                	li	a2,6
    66aa:	00001517          	auipc	a0,0x1
    66ae:	f5250513          	addi	a0,a0,-174 # 75fc <__fsym___cmd_ps_name+0x148>
    66b2:	00140493          	addi	s1,s0,1
    66b6:	02b10c23          	sb	a1,56(sp)
    66ba:	ae1ff0ef          	jal	ra,619a <memchr>
    66be:	c525                	beqz	a0,6726 <_svfiprintf_r+0x26c>
    66c0:	ffffa797          	auipc	a5,0xffffa
    66c4:	94078793          	addi	a5,a5,-1728 # 0 <_sinit>
    66c8:	e795                	bnez	a5,66f4 <_svfiprintf_r+0x23a>
    66ca:	5702                	lw	a4,32(sp)
    66cc:	47f2                	lw	a5,28(sp)
    66ce:	10077713          	andi	a4,a4,256
    66d2:	cf09                	beqz	a4,66ec <_svfiprintf_r+0x232>
    66d4:	0791                	addi	a5,a5,4
    66d6:	ce3e                	sw	a5,28(sp)
    66d8:	57d2                	lw	a5,52(sp)
    66da:	97d2                	add	a5,a5,s4
    66dc:	da3e                	sw	a5,52(sp)
    66de:	b5b5                	j	654a <_svfiprintf_r+0x90>
    66e0:	036787b3          	mul	a5,a5,s6
    66e4:	4685                	li	a3,1
    66e6:	842e                	mv	s0,a1
    66e8:	97ba                	add	a5,a5,a4
    66ea:	bfad                	j	6664 <_svfiprintf_r+0x1aa>
    66ec:	079d                	addi	a5,a5,7
    66ee:	9be1                	andi	a5,a5,-8
    66f0:	07a1                	addi	a5,a5,8
    66f2:	b7d5                	j	66d6 <_svfiprintf_r+0x21c>
    66f4:	0878                	addi	a4,sp,28
    66f6:	00000697          	auipc	a3,0x0
    66fa:	cd668693          	addi	a3,a3,-810 # 63cc <__ssputs_r>
    66fe:	864a                	mv	a2,s2
    6700:	100c                	addi	a1,sp,32
    6702:	854e                	mv	a0,s3
    6704:	00000097          	auipc	ra,0x0
    6708:	000000e7          	jalr	zero # 0 <_sinit>
    670c:	57fd                	li	a5,-1
    670e:	8a2a                	mv	s4,a0
    6710:	fcf514e3          	bne	a0,a5,66d8 <_svfiprintf_r+0x21e>
    6714:	00c95783          	lhu	a5,12(s2)
    6718:	557d                	li	a0,-1
    671a:	0407f793          	andi	a5,a5,64
    671e:	de0793e3          	bnez	a5,6504 <_svfiprintf_r+0x4a>
    6722:	5552                	lw	a0,52(sp)
    6724:	b3c5                	j	6504 <_svfiprintf_r+0x4a>
    6726:	0878                	addi	a4,sp,28
    6728:	00000697          	auipc	a3,0x0
    672c:	ca468693          	addi	a3,a3,-860 # 63cc <__ssputs_r>
    6730:	864a                	mv	a2,s2
    6732:	100c                	addi	a1,sp,32
    6734:	854e                	mv	a0,s3
    6736:	86cff0ef          	jal	ra,57a2 <_printf_i>
    673a:	bfc9                	j	670c <_svfiprintf_r+0x252>

0000673c <_sbrk_r>:
_sbrk_r():
    673c:	1141                	addi	sp,sp,-16
    673e:	c422                	sw	s0,8(sp)
    6740:	842a                	mv	s0,a0
    6742:	852e                	mv	a0,a1
    6744:	1fffc797          	auipc	a5,0x1fffc
    6748:	9807a423          	sw	zero,-1656(a5) # 200020cc <errno>
    674c:	c606                	sw	ra,12(sp)
    674e:	2e0d                	jal	6a80 <_sbrk>
    6750:	57fd                	li	a5,-1
    6752:	00f51963          	bne	a0,a5,6764 <_sbrk_r+0x28>
    6756:	1fffc797          	auipc	a5,0x1fffc
    675a:	97678793          	addi	a5,a5,-1674 # 200020cc <errno>
    675e:	439c                	lw	a5,0(a5)
    6760:	c391                	beqz	a5,6764 <_sbrk_r+0x28>
    6762:	c01c                	sw	a5,0(s0)
    6764:	40b2                	lw	ra,12(sp)
    6766:	4422                	lw	s0,8(sp)
    6768:	0141                	addi	sp,sp,16
    676a:	8082                	ret

0000676c <_raise_r>:
_raise_r():
    676c:	47fd                	li	a5,31
    676e:	00b7f663          	bgeu	a5,a1,677a <_raise_r+0xe>
    6772:	47d9                	li	a5,22
    6774:	c11c                	sw	a5,0(a0)
    6776:	557d                	li	a0,-1
    6778:	8082                	ret
    677a:	417c                	lw	a5,68(a0)
    677c:	1101                	addi	sp,sp,-32
    677e:	cc22                	sw	s0,24(sp)
    6780:	ce06                	sw	ra,28(sp)
    6782:	862e                	mv	a2,a1
    6784:	842a                	mv	s0,a0
    6786:	c791                	beqz	a5,6792 <_raise_r+0x26>
    6788:	00259713          	slli	a4,a1,0x2
    678c:	97ba                	add	a5,a5,a4
    678e:	4398                	lw	a4,0(a5)
    6790:	eb19                	bnez	a4,67a6 <_raise_r+0x3a>
    6792:	8522                	mv	a0,s0
    6794:	c632                	sw	a2,12(sp)
    6796:	289d                	jal	680c <_getpid_r>
    6798:	85aa                	mv	a1,a0
    679a:	8522                	mv	a0,s0
    679c:	4462                	lw	s0,24(sp)
    679e:	4632                	lw	a2,12(sp)
    67a0:	40f2                	lw	ra,28(sp)
    67a2:	6105                	addi	sp,sp,32
    67a4:	a81d                	j	67da <_kill_r>
    67a6:	4685                	li	a3,1
    67a8:	4501                	li	a0,0
    67aa:	00d70863          	beq	a4,a3,67ba <_raise_r+0x4e>
    67ae:	56fd                	li	a3,-1
    67b0:	00d71963          	bne	a4,a3,67c2 <_raise_r+0x56>
    67b4:	47d9                	li	a5,22
    67b6:	c01c                	sw	a5,0(s0)
    67b8:	4505                	li	a0,1
    67ba:	40f2                	lw	ra,28(sp)
    67bc:	4462                	lw	s0,24(sp)
    67be:	6105                	addi	sp,sp,32
    67c0:	8082                	ret
    67c2:	852e                	mv	a0,a1
    67c4:	0007a023          	sw	zero,0(a5)
    67c8:	9702                	jalr	a4
    67ca:	4501                	li	a0,0
    67cc:	b7fd                	j	67ba <_raise_r+0x4e>

000067ce <raise>:
raise():
    67ce:	80c18793          	addi	a5,gp,-2036 # 200000bc <_impure_ptr>
    67d2:	85aa                	mv	a1,a0
    67d4:	4388                	lw	a0,0(a5)
    67d6:	f97ff06f          	j	676c <_raise_r>

000067da <_kill_r>:
_kill_r():
    67da:	1141                	addi	sp,sp,-16
    67dc:	c422                	sw	s0,8(sp)
    67de:	842a                	mv	s0,a0
    67e0:	852e                	mv	a0,a1
    67e2:	85b2                	mv	a1,a2
    67e4:	1fffc797          	auipc	a5,0x1fffc
    67e8:	8e07a423          	sw	zero,-1816(a5) # 200020cc <errno>
    67ec:	c606                	sw	ra,12(sp)
    67ee:	248d                	jal	6a50 <_kill>
    67f0:	57fd                	li	a5,-1
    67f2:	00f51963          	bne	a0,a5,6804 <_kill_r+0x2a>
    67f6:	1fffc797          	auipc	a5,0x1fffc
    67fa:	8d678793          	addi	a5,a5,-1834 # 200020cc <errno>
    67fe:	439c                	lw	a5,0(a5)
    6800:	c391                	beqz	a5,6804 <_kill_r+0x2a>
    6802:	c01c                	sw	a5,0(s0)
    6804:	40b2                	lw	ra,12(sp)
    6806:	4422                	lw	s0,8(sp)
    6808:	0141                	addi	sp,sp,16
    680a:	8082                	ret

0000680c <_getpid_r>:
_getpid_r():
    680c:	a415                	j	6a30 <_getpid>

0000680e <__sread>:
__sread():
    680e:	1141                	addi	sp,sp,-16
    6810:	c422                	sw	s0,8(sp)
    6812:	842e                	mv	s0,a1
    6814:	00e59583          	lh	a1,14(a1)
    6818:	c606                	sw	ra,12(sp)
    681a:	22c9                	jal	69dc <_read_r>
    681c:	00054963          	bltz	a0,682e <__sread+0x20>
    6820:	487c                	lw	a5,84(s0)
    6822:	97aa                	add	a5,a5,a0
    6824:	c87c                	sw	a5,84(s0)
    6826:	40b2                	lw	ra,12(sp)
    6828:	4422                	lw	s0,8(sp)
    682a:	0141                	addi	sp,sp,16
    682c:	8082                	ret
    682e:	00c45783          	lhu	a5,12(s0)
    6832:	777d                	lui	a4,0xfffff
    6834:	177d                	addi	a4,a4,-1
    6836:	8ff9                	and	a5,a5,a4
    6838:	00f41623          	sh	a5,12(s0)
    683c:	b7ed                	j	6826 <__sread+0x18>

0000683e <__swrite>:
__swrite():
    683e:	00c5d783          	lhu	a5,12(a1)
    6842:	1101                	addi	sp,sp,-32
    6844:	cc22                	sw	s0,24(sp)
    6846:	ca26                	sw	s1,20(sp)
    6848:	c84a                	sw	s2,16(sp)
    684a:	c64e                	sw	s3,12(sp)
    684c:	ce06                	sw	ra,28(sp)
    684e:	1007f793          	andi	a5,a5,256
    6852:	84aa                	mv	s1,a0
    6854:	842e                	mv	s0,a1
    6856:	8932                	mv	s2,a2
    6858:	89b6                	mv	s3,a3
    685a:	c791                	beqz	a5,6866 <__swrite+0x28>
    685c:	00e59583          	lh	a1,14(a1)
    6860:	4689                	li	a3,2
    6862:	4601                	li	a2,0
    6864:	2235                	jal	6990 <_lseek_r>
    6866:	00c45783          	lhu	a5,12(s0)
    686a:	777d                	lui	a4,0xfffff
    686c:	177d                	addi	a4,a4,-1
    686e:	8ff9                	and	a5,a5,a4
    6870:	00f41623          	sh	a5,12(s0)
    6874:	00e41583          	lh	a1,14(s0)
    6878:	4462                	lw	s0,24(sp)
    687a:	40f2                	lw	ra,28(sp)
    687c:	86ce                	mv	a3,s3
    687e:	864a                	mv	a2,s2
    6880:	49b2                	lw	s3,12(sp)
    6882:	4942                	lw	s2,16(sp)
    6884:	8526                	mv	a0,s1
    6886:	44d2                	lw	s1,20(sp)
    6888:	6105                	addi	sp,sp,32
    688a:	a83d                	j	68c8 <_write_r>

0000688c <__sseek>:
__sseek():
    688c:	1141                	addi	sp,sp,-16
    688e:	c422                	sw	s0,8(sp)
    6890:	842e                	mv	s0,a1
    6892:	00e59583          	lh	a1,14(a1)
    6896:	c606                	sw	ra,12(sp)
    6898:	28e5                	jal	6990 <_lseek_r>
    689a:	57fd                	li	a5,-1
    689c:	00c45703          	lhu	a4,12(s0)
    68a0:	00f51b63          	bne	a0,a5,68b6 <__sseek+0x2a>
    68a4:	77fd                	lui	a5,0xfffff
    68a6:	17fd                	addi	a5,a5,-1
    68a8:	8ff9                	and	a5,a5,a4
    68aa:	00f41623          	sh	a5,12(s0)
    68ae:	40b2                	lw	ra,12(sp)
    68b0:	4422                	lw	s0,8(sp)
    68b2:	0141                	addi	sp,sp,16
    68b4:	8082                	ret
    68b6:	6785                	lui	a5,0x1
    68b8:	8fd9                	or	a5,a5,a4
    68ba:	00f41623          	sh	a5,12(s0)
    68be:	c868                	sw	a0,84(s0)
    68c0:	b7fd                	j	68ae <__sseek+0x22>

000068c2 <__sclose>:
__sclose():
    68c2:	00e59583          	lh	a1,14(a1)
    68c6:	a825                	j	68fe <_close_r>

000068c8 <_write_r>:
_write_r():
    68c8:	1141                	addi	sp,sp,-16
    68ca:	c422                	sw	s0,8(sp)
    68cc:	842a                	mv	s0,a0
    68ce:	852e                	mv	a0,a1
    68d0:	85b2                	mv	a1,a2
    68d2:	8636                	mv	a2,a3
    68d4:	1fffb797          	auipc	a5,0x1fffb
    68d8:	7e07ac23          	sw	zero,2040(a5) # 200020cc <errno>
    68dc:	c606                	sw	ra,12(sp)
    68de:	d6efe0ef          	jal	ra,4e4c <_write>
    68e2:	57fd                	li	a5,-1
    68e4:	00f51963          	bne	a0,a5,68f6 <_write_r+0x2e>
    68e8:	1fffb797          	auipc	a5,0x1fffb
    68ec:	7e478793          	addi	a5,a5,2020 # 200020cc <errno>
    68f0:	439c                	lw	a5,0(a5)
    68f2:	c391                	beqz	a5,68f6 <_write_r+0x2e>
    68f4:	c01c                	sw	a5,0(s0)
    68f6:	40b2                	lw	ra,12(sp)
    68f8:	4422                	lw	s0,8(sp)
    68fa:	0141                	addi	sp,sp,16
    68fc:	8082                	ret

000068fe <_close_r>:
_close_r():
    68fe:	1141                	addi	sp,sp,-16
    6900:	c422                	sw	s0,8(sp)
    6902:	842a                	mv	s0,a0
    6904:	852e                	mv	a0,a1
    6906:	1fffb797          	auipc	a5,0x1fffb
    690a:	7c07a323          	sw	zero,1990(a5) # 200020cc <errno>
    690e:	c606                	sw	ra,12(sp)
    6910:	2201                	jal	6a10 <_close>
    6912:	57fd                	li	a5,-1
    6914:	00f51963          	bne	a0,a5,6926 <_close_r+0x28>
    6918:	1fffb797          	auipc	a5,0x1fffb
    691c:	7b478793          	addi	a5,a5,1972 # 200020cc <errno>
    6920:	439c                	lw	a5,0(a5)
    6922:	c391                	beqz	a5,6926 <_close_r+0x28>
    6924:	c01c                	sw	a5,0(s0)
    6926:	40b2                	lw	ra,12(sp)
    6928:	4422                	lw	s0,8(sp)
    692a:	0141                	addi	sp,sp,16
    692c:	8082                	ret

0000692e <_fstat_r>:
_fstat_r():
    692e:	1141                	addi	sp,sp,-16
    6930:	c422                	sw	s0,8(sp)
    6932:	842a                	mv	s0,a0
    6934:	852e                	mv	a0,a1
    6936:	85b2                	mv	a1,a2
    6938:	1fffb797          	auipc	a5,0x1fffb
    693c:	7807aa23          	sw	zero,1940(a5) # 200020cc <errno>
    6940:	c606                	sw	ra,12(sp)
    6942:	28f9                	jal	6a20 <_fstat>
    6944:	57fd                	li	a5,-1
    6946:	00f51963          	bne	a0,a5,6958 <_fstat_r+0x2a>
    694a:	1fffb797          	auipc	a5,0x1fffb
    694e:	78278793          	addi	a5,a5,1922 # 200020cc <errno>
    6952:	439c                	lw	a5,0(a5)
    6954:	c391                	beqz	a5,6958 <_fstat_r+0x2a>
    6956:	c01c                	sw	a5,0(s0)
    6958:	40b2                	lw	ra,12(sp)
    695a:	4422                	lw	s0,8(sp)
    695c:	0141                	addi	sp,sp,16
    695e:	8082                	ret

00006960 <_isatty_r>:
_isatty_r():
    6960:	1141                	addi	sp,sp,-16
    6962:	c422                	sw	s0,8(sp)
    6964:	842a                	mv	s0,a0
    6966:	852e                	mv	a0,a1
    6968:	1fffb797          	auipc	a5,0x1fffb
    696c:	7607a223          	sw	zero,1892(a5) # 200020cc <errno>
    6970:	c606                	sw	ra,12(sp)
    6972:	20f9                	jal	6a40 <_isatty>
    6974:	57fd                	li	a5,-1
    6976:	00f51963          	bne	a0,a5,6988 <_isatty_r+0x28>
    697a:	1fffb797          	auipc	a5,0x1fffb
    697e:	75278793          	addi	a5,a5,1874 # 200020cc <errno>
    6982:	439c                	lw	a5,0(a5)
    6984:	c391                	beqz	a5,6988 <_isatty_r+0x28>
    6986:	c01c                	sw	a5,0(s0)
    6988:	40b2                	lw	ra,12(sp)
    698a:	4422                	lw	s0,8(sp)
    698c:	0141                	addi	sp,sp,16
    698e:	8082                	ret

00006990 <_lseek_r>:
_lseek_r():
    6990:	1141                	addi	sp,sp,-16
    6992:	c422                	sw	s0,8(sp)
    6994:	842a                	mv	s0,a0
    6996:	852e                	mv	a0,a1
    6998:	85b2                	mv	a1,a2
    699a:	8636                	mv	a2,a3
    699c:	1fffb797          	auipc	a5,0x1fffb
    69a0:	7207a823          	sw	zero,1840(a5) # 200020cc <errno>
    69a4:	c606                	sw	ra,12(sp)
    69a6:	286d                	jal	6a60 <_lseek>
    69a8:	57fd                	li	a5,-1
    69aa:	00f51963          	bne	a0,a5,69bc <_lseek_r+0x2c>
    69ae:	1fffb797          	auipc	a5,0x1fffb
    69b2:	71e78793          	addi	a5,a5,1822 # 200020cc <errno>
    69b6:	439c                	lw	a5,0(a5)
    69b8:	c391                	beqz	a5,69bc <_lseek_r+0x2c>
    69ba:	c01c                	sw	a5,0(s0)
    69bc:	40b2                	lw	ra,12(sp)
    69be:	4422                	lw	s0,8(sp)
    69c0:	0141                	addi	sp,sp,16
    69c2:	8082                	ret

000069c4 <__malloc_lock>:
__malloc_lock():
    69c4:	8082                	ret

000069c6 <__malloc_unlock>:
__malloc_unlock():
    69c6:	8082                	ret

000069c8 <_malloc_usable_size_r>:
_malloc_usable_size_r():
    69c8:	ffc5a783          	lw	a5,-4(a1)
    69cc:	ffc78513          	addi	a0,a5,-4
    69d0:	0007d563          	bgez	a5,69da <_malloc_usable_size_r+0x12>
    69d4:	95aa                	add	a1,a1,a0
    69d6:	419c                	lw	a5,0(a1)
    69d8:	953e                	add	a0,a0,a5
    69da:	8082                	ret

000069dc <_read_r>:
_read_r():
    69dc:	1141                	addi	sp,sp,-16
    69de:	c422                	sw	s0,8(sp)
    69e0:	842a                	mv	s0,a0
    69e2:	852e                	mv	a0,a1
    69e4:	85b2                	mv	a1,a2
    69e6:	8636                	mv	a2,a3
    69e8:	1fffb797          	auipc	a5,0x1fffb
    69ec:	6e07a223          	sw	zero,1764(a5) # 200020cc <errno>
    69f0:	c606                	sw	ra,12(sp)
    69f2:	28bd                	jal	6a70 <_read>
    69f4:	57fd                	li	a5,-1
    69f6:	00f51963          	bne	a0,a5,6a08 <_read_r+0x2c>
    69fa:	1fffb797          	auipc	a5,0x1fffb
    69fe:	6d278793          	addi	a5,a5,1746 # 200020cc <errno>
    6a02:	439c                	lw	a5,0(a5)
    6a04:	c391                	beqz	a5,6a08 <_read_r+0x2c>
    6a06:	c01c                	sw	a5,0(s0)
    6a08:	40b2                	lw	ra,12(sp)
    6a0a:	4422                	lw	s0,8(sp)
    6a0c:	0141                	addi	sp,sp,16
    6a0e:	8082                	ret

00006a10 <_close>:
_close():
    6a10:	05800793          	li	a5,88
    6a14:	1fffb717          	auipc	a4,0x1fffb
    6a18:	6af72c23          	sw	a5,1720(a4) # 200020cc <errno>
    6a1c:	557d                	li	a0,-1
    6a1e:	8082                	ret

00006a20 <_fstat>:
_fstat():
    6a20:	05800793          	li	a5,88
    6a24:	1fffb717          	auipc	a4,0x1fffb
    6a28:	6af72423          	sw	a5,1704(a4) # 200020cc <errno>
    6a2c:	557d                	li	a0,-1
    6a2e:	8082                	ret

00006a30 <_getpid>:
_getpid():
    6a30:	05800793          	li	a5,88
    6a34:	1fffb717          	auipc	a4,0x1fffb
    6a38:	68f72c23          	sw	a5,1688(a4) # 200020cc <errno>
    6a3c:	557d                	li	a0,-1
    6a3e:	8082                	ret

00006a40 <_isatty>:
_isatty():
    6a40:	05800793          	li	a5,88
    6a44:	1fffb717          	auipc	a4,0x1fffb
    6a48:	68f72423          	sw	a5,1672(a4) # 200020cc <errno>
    6a4c:	4501                	li	a0,0
    6a4e:	8082                	ret

00006a50 <_kill>:
_kill():
    6a50:	05800793          	li	a5,88
    6a54:	1fffb717          	auipc	a4,0x1fffb
    6a58:	66f72c23          	sw	a5,1656(a4) # 200020cc <errno>
    6a5c:	557d                	li	a0,-1
    6a5e:	8082                	ret

00006a60 <_lseek>:
_lseek():
    6a60:	05800793          	li	a5,88
    6a64:	1fffb717          	auipc	a4,0x1fffb
    6a68:	66f72423          	sw	a5,1640(a4) # 200020cc <errno>
    6a6c:	557d                	li	a0,-1
    6a6e:	8082                	ret

00006a70 <_read>:
_read():
    6a70:	05800793          	li	a5,88
    6a74:	1fffb717          	auipc	a4,0x1fffb
    6a78:	64f72c23          	sw	a5,1624(a4) # 200020cc <errno>
    6a7c:	557d                	li	a0,-1
    6a7e:	8082                	ret

00006a80 <_sbrk>:
_sbrk():
    6a80:	8c418793          	addi	a5,gp,-1852 # 20000174 <heap_end.1518>
    6a84:	439c                	lw	a5,0(a5)
    6a86:	c791                	beqz	a5,6a92 <_sbrk+0x12>
    6a88:	953e                	add	a0,a0,a5
    6a8a:	8ca1a223          	sw	a0,-1852(gp) # 20000174 <heap_end.1518>
    6a8e:	853e                	mv	a0,a5
    6a90:	8082                	ret
    6a92:	1fffb797          	auipc	a5,0x1fffb
    6a96:	63e78793          	addi	a5,a5,1598 # 200020d0 <_ebss>
    6a9a:	953e                	add	a0,a0,a5
    6a9c:	8ca1a223          	sw	a0,-1852(gp) # 20000174 <heap_end.1518>
    6aa0:	853e                	mv	a0,a5
    6aa2:	8082                	ret

00006aa4 <_exit>:
_exit():
    6aa4:	a001                	j	6aa4 <_exit>
	...

00006aa8 <oled_6x8>:
	...
    6ab0:	2f00 0000 0000 0007 0007 1400 147f 147f     ./..............
    6ac0:	2400 7f2a 122a 6200 0864 2313 3600 5549     .$*.*..bd..#.6IU
    6ad0:	5022 0000 0305 0000 0000 221c 0041 0000     "P........."A...
    6ae0:	2241 001c 1400 3e08 1408 0800 3e08 0808     A".....>.....>..
    6af0:	0000 a000 0060 0800 0808 0808 0000 6060     ....`.........``
    6b00:	0000 2000 0810 0204 3e00 4951 3e45 0000     ... .....>QIE>..
    6b10:	7f42 0040 4200 5161 4649 2100 4541 314b     B.@..BaQIF.!AEK1
    6b20:	1800 1214 107f 2700 4545 3945 3c00 494a     .......'EEE9.<JI
    6b30:	3049 0100 0971 0305 3600 4949 3649 0600     I0..q....6III6..
    6b40:	4949 1e29 0000 3636 0000 0000 3656 0000     II)...66....V6..
    6b50:	0800 2214 0041 1400 1414 1414 0000 2241     ..."A.........A"
    6b60:	0814 0200 5101 0609 3200 5949 3e51 7c00     .....Q...2IYQ>.|
    6b70:	1112 7c12 7f00 4949 3649 3e00 4141 2241     ...|..III6.>AAA"
    6b80:	7f00 4141 1c22 7f00 4949 4149 7f00 0909     ..AA"...IIIA....
    6b90:	0109 3e00 4941 7a49 7f00 0808 7f08 0000     ...>AIIz........
    6ba0:	7f41 0041 2000 4140 013f 7f00 1408 4122     A.A.. @A?....."A
    6bb0:	7f00 4040 4040 7f00 0c02 7f02 7f00 0804     ..@@@@..........
    6bc0:	7f10 3e00 4141 3e41 7f00 0909 0609 3e00     ...>AAA>.......>
    6bd0:	5141 5e21 7f00 1909 4629 4600 4949 3149     AQ!^....)F.FIII1
    6be0:	0100 7f01 0101 3f00 4040 3f40 1f00 4020     .......?@@@?.. @
    6bf0:	1f20 3f00 3840 3f40 6300 0814 6314 0700      ..?@8@?.c...c..
    6c00:	7008 0708 6100 4951 4345 0000 417f 0041     .p...aQIEC...AA.
    6c10:	5500 552a 552a 0000 4141 007f 0400 0102     .U*U*U..AA......
    6c20:	0402 4000 4040 4040 0000 0201 0004 2000     ...@@@@@....... 
    6c30:	5454 7854 7f00 4448 3844 3800 4444 2044     TTTx..HDD8.8DDD 
    6c40:	3800 4444 7f48 3800 5454 1854 0800 097e     .8DDH..8TTT...~.
    6c50:	0201 1800 a4a4 7ca4 7f00 0408 7804 0000     .......|.....x..
    6c60:	7d44 0040 4000 8480 007d 7f00 2810 0044     D}@..@..}....(D.
    6c70:	0000 7f41 0040 7c00 1804 7804 7c00 0408     ..A.@..|...x.|..
    6c80:	7804 3800 4444 3844 fc00 2424 1824 1800     .x.8DDD8..$$$...
    6c90:	2424 fc18 7c00 0408 0804 4800 5454 2054     $$...|.....HTTT 
    6ca0:	0400 443f 2040 3c00 4040 7c20 1c00 4020     ..?D@ .<@@ |.. @
    6cb0:	1c20 3c00 3040 3c40 4400 1028 4428 1c00      ..<@0@<.D(.(D..
    6cc0:	a0a0 7ca0 4400 5464 444c 1414 1414 1414     ...|.DdTLD......

00006cd0 <__func__.3175>:
    6cd0:	6c6f 6465 735f 7465 705f 736f 0000 0000     oled_set_pos....
    6ce0:	5f58 4957 5444 3e48 0078 0000 2e2e 4c2f     X_WIDTH>x...../L
    6cf0:	6269 6172 6972 7365 732f 6565 666b 6572     ibraries/seekfre
    6d00:	5f65 6570 6972 6870 7265 6c61 532f 4545     e_peripheral/SEE
    6d10:	464b 4552 5f45 4c4f 4445 632e 0000 0000     KFREE_OLED.c....
    6d20:	5928 575f 4449 4854 382f 3e29 0079 0000     (Y_WIDTH/8)>y...

00006d30 <GPION>:
    6d30:	0800 4001 0c00 4001 1000 4001 1400 4001     ...@...@...@...@

00006d40 <TIMERN>:
    6d40:	2c00 4001 0000 4000 0400 4000 0800 4000     .,.@...@...@...@

00006d50 <UARTN>:
    6d50:	3800 4001 4400 4000 4800 4000 4c00 4000     .8.@.D.@.H.@.L.@
    6d60:	616d 6e69 0000 0000 6974 6c64 0065 0000     main....tidle...
    6d70:	2f74 0000 2f94 0000 2f94 0000 2f94 0000     t/.../.../.../..
    6d80:	2f94 0000 2f94 0000 2f94 0000 2f94 0000     ./.../.../.../..
    6d90:	2f94 0000 2f94 0000 2f94 0000 2f94 0000     ./.../.../.../..
    6da0:	2f94 0000 2f94 0000 2f94 0000 2f94 0000     ./.../.../.../..
    6db0:	2f94 0000 2f94 0000 2f94 0000 2f94 0000     ./.../.../.../..
    6dc0:	2f94 0000 2f94 0000 2f94 0000 2f94 0000     ./.../.../.../..
    6dd0:	2f94 0000 2f94 0000 2f94 0000 2f94 0000     ./.../.../.../..
    6de0:	2f94 0000 2f94 0000 2f94 0000 2f94 0000     ./.../.../.../..
    6df0:	2f94 0000 2f94 0000 2f94 0000 2f94 0000     ./.../.../.../..
    6e00:	2f94 0000 2f94 0000 2f94 0000 2f94 0000     ./.../.../.../..
    6e10:	2f94 0000 2f94 0000 2f94 0000 2f94 0000     ./.../.../.../..
    6e20:	2f94 0000 2f94 0000 2f94 0000 2f94 0000     ./.../.../.../..
    6e30:	2f94 0000 2f94 0000 2f94 0000 2f84 0000     ./.../.../.../..
    6e40:	2f94 0000 2f94 0000 2f94 0000 2f94 0000     ./.../.../.../..
    6e50:	2f94 0000 2f94 0000 2f94 0000 2f94 0000     ./.../.../.../..
    6e60:	2f94 0000 2f94 0000 2e34 0000 2f8c 0000     ./.../..4..../..
    6e70:	2f94 0000 2f94 0000 2f94 0000 2f94 0000     ./.../.../.../..
    6e80:	2f8c 0000 2f94 0000 2f94 0000 2f94 0000     ./.../.../.../..
    6e90:	2f94 0000 2f94 0000 2fc0 0000 2f46 0000     ./.../.../..F/..
    6ea0:	2f94 0000 2f94 0000 2e9c 0000 2f94 0000     ./.../......./..
    6eb0:	2fbc 0000 2f94 0000 2f94 0000 2e30 0000     ./.../.../..0...

00006ec0 <__lowest_bit_bitmap>:
    6ec0:	0000 0001 0002 0001 0003 0001 0002 0001     ................
    6ed0:	0004 0001 0002 0001 0003 0001 0002 0001     ................
    6ee0:	0005 0001 0002 0001 0003 0001 0002 0001     ................
    6ef0:	0004 0001 0002 0001 0003 0001 0002 0001     ................
    6f00:	0006 0001 0002 0001 0003 0001 0002 0001     ................
    6f10:	0004 0001 0002 0001 0003 0001 0002 0001     ................
    6f20:	0005 0001 0002 0001 0003 0001 0002 0001     ................
    6f30:	0004 0001 0002 0001 0003 0001 0002 0001     ................
    6f40:	0007 0001 0002 0001 0003 0001 0002 0001     ................
    6f50:	0004 0001 0002 0001 0003 0001 0002 0001     ................
    6f60:	0005 0001 0002 0001 0003 0001 0002 0001     ................
    6f70:	0004 0001 0002 0001 0003 0001 0002 0001     ................
    6f80:	0006 0001 0002 0001 0003 0001 0002 0001     ................
    6f90:	0004 0001 0002 0001 0003 0001 0002 0001     ................
    6fa0:	0005 0001 0002 0001 0003 0001 0002 0001     ................
    6fb0:	0004 0001 0002 0001 0003 0001 0002 0001     ................

00006fc0 <large_digits.2240>:
    6fc0:	3130 3332 3534 3736 3938 4241 4443 4645     0123456789ABCDEF
    6fd0:	0000 0000 200a 205c 207c 0a2f 0000 0000     ..... \ | /.....
    6fe0:	202d 5452 2d20 2020 2020 5420 7268 6165     - RT -     Threa
    6ff0:	2064 704f 7265 7461 6e69 2067 7953 7473     d Operating Syst
    7000:	6d65 000a 754a 206e 3033 3220 3230 0031     em..Jun 30 2021.
    7010:	2f20 7c20 5c20 2020 2020 2520 2e64 6425      / | \     %d.%d
    7020:	252e 2064 7562 6c69 2064 7325 000a 0000     .%d build %s....
    7030:	3220 3030 2036 202d 3032 3931 4320 706f      2006 - 2019 Cop
    7040:	7279 6769 7468 6220 2079 7472 742d 7268     yright by rt-thr
    7050:	6165 2064 6574 6d61 000a 0000 4e28 4c55     ead team....(NUL
    7060:	294c 0000                                   L)..

00007064 <small_digits.2239>:
    7064:	3130 3332 3534 3736 3938 6261 6463 6665     0123456789abcdef
    7074:	0000 0000                                   ....

00007078 <__fsym_list_mem_name>:
    7078:	696c 7473 6d5f 6d65 0000 0000 6f74 6174     list_mem....tota
    7088:	206c 656d 6f6d 7972 203a 6425 000a 0000     l memory: %d....
    7098:	7375 6465 6d20 6d65 726f 2079 203a 6425     used memory : %d
    70a8:	000a 0000 616d 6978 756d 206d 6c61 6f6c     ....maximum allo
    70b8:	6163 6574 2064 656d 6f6d 7972 203a 6425     cated memory: %d
    70c8:	000a 0000 6f74 6620 6572 2065 2061 6162     ....to free a ba
    70d8:	2064 6164 6174 6220 6f6c 6b63 0a3a 0000     d data block:...
    70e8:	656d 3a6d 3020 2578 3830 2c78 7520 6573     mem: 0x%08x, use
    70f8:	2064 6c66 6761 203a 6425 202c 616d 6967     d flag: %d, magi
    7108:	2063 6f63 6564 203a 7830 3025 7834 000a     c code: 0x%04x..
    7118:	6568 7061 0000 0000 656d 206d 6e69 7469     heap....mem init
    7128:	202c 7265 6f72 2072 6562 6967 206e 6461     , error begin ad
    7138:	7264 7365 2073 7830 7825 202c 6e61 2064     dress 0x%x, and 
    7148:	6e65 2064 6461 7264 7365 2073 7830 7825     end address 0x%x
    7158:	000a 0000                                   ....

0000715c <__fsym___cmd_list_mailbox_name>:
    715c:	5f5f 6d63 5f64 696c 7473 6d5f 6961 626c     __cmd_list_mailb
    716c:	786f 0000                                   ox..

00007170 <__fsym___cmd_list_sem_name>:
    7170:	5f5f 6d63 5f64 696c 7473 735f 6d65 0000     __cmd_list_sem..

00007180 <__fsym___cmd_list_thread_name>:
    7180:	5f5f 6d63 5f64 696c 7473 745f 7268 6165     __cmd_list_threa
    7190:	0064 0000                                   d...

00007194 <__fsym___cmd_list_timer_name>:
    7194:	5f5f 6d63 5f64 696c 7473 745f 6d69 7265     __cmd_list_timer
    71a4:	0000 0000                                   ....

000071a8 <__fsym___cmd_version_name>:
    71a8:	5f5f 6d63 5f64 6576 7372 6f69 006e 0000     __cmd_version...

000071b8 <__fsym_list_mailbox_name>:
    71b8:	696c 7473 6d5f 6961 626c 786f 0000 0000     list_mailbox....

000071c8 <__fsym_list_sem_name>:
    71c8:	696c 7473 735f 6d65 0000 0000               list_sem....

000071d4 <__fsym_list_thread_name>:
    71d4:	696c 7473 745f 7268 6165 0064               list_thread.

000071e0 <__fsym_list_timer_name>:
    71e0:	696c 7473 745f 6d69 7265 0000 6548 6c6c     list_timer..Hell
    71f0:	206f 5452 542d 7268 6165 2164 000a 0000     o RT-Thread!....
    7200:	2d2d 7546 636e 6974 6e6f 4c20 7369 3a74     --Function List:
    7210:	000a 0000 5f5f 0000 7325 000a 616d 6c69     ....__..%s..mail
    7220:	6f62 0078 2d25 2e2a 2073 6e65 7274 2079     box.%-*.s entry 
    7230:	6973 657a 7320 7375 6570 646e 7420 7268     size suspend thr
    7240:	6165 0a64 0000 0000 2d20 2d2d 202d 2d20     ead..... ----  -
    7250:	2d2d 202d 2d2d 2d2d 2d2d 2d2d 2d2d 2d2d     --- ------------
    7260:	2d2d 000a 2d25 2e2a 732a 2520 3430 2064     --..%-*.*s %04d 
    7270:	2520 3430 2064 6425 003a 0000 2d25 2e2a      %04d %d:...%-*.
    7280:	732a 2520 3430 2064 2520 3430 2064 6425     *s %04d  %04d %d
    7290:	000a 0000 6573 616d 6870 726f 0065 0000     ....semaphore...
    72a0:	2d25 2e2a 2073 2076 2020 7573 7073 6e65     %-*.s v   suspen
    72b0:	2064 6874 6572 6461 000a 0000 2d20 2d2d     d thread.... ---
    72c0:	2d20 2d2d 2d2d 2d2d 2d2d 2d2d 2d2d 0a2d      --------------.
    72d0:	0000 0000 2d25 2e2a 732a 2520 3330 2064     ....%-*.*s %03d 
    72e0:	6425 003a 2d25 2e2a 732a 2520 3330 2064     %d:.%-*.*s %03d 
    72f0:	6425 000a 6874 6572 6461 0000 2d25 2e2a     %d..thread..%-*.
    7300:	2073 7270 2069 7320 6174 7574 2073 2020     s pri  status   
    7310:	2020 7320 2070 2020 2020 7473 6361 206b        sp     stack 
    7320:	6973 657a 6d20 7861 7520 6573 2064 656c     size max used le
    7330:	7466 7420 6369 206b 6520 7272 726f 000a     ft tick  error..
    7340:	002d 0000 2d20 2d2d 2020 2d2d 2d2d 2d2d     -... ---  ------
    7350:	202d 2d2d 2d2d 2d2d 2d2d 2d2d 2d20 2d2d     - ---------- ---
    7360:	2d2d 2d2d 2d2d 202d 2d20 2d2d 2d2d 202d     -------  ------ 
    7370:	2d20 2d2d 2d2d 2d2d 2d2d 202d 2d2d 0a2d      ---------- ---.
    7380:	0000 0000 2d25 2e2a 732a 2520 6433 0020     ....%-*.*s %3d .
    7390:	7220 6165 7964 2020 0000 0000 7320 7375      ready  .... sus
    73a0:	6570 646e 0000 0000 6920 696e 2074 2020     pend.... init   
    73b0:	0000 0000 6320 6f6c 6573 2020 0000 0000     .... close  ....
    73c0:	7220 6e75 696e 676e 0000 0000 3020 2578      running.... 0x%
    73d0:	3830 2078 7830 3025 7838 2020 2020 3025     08x 0x%08x    %0
    73e0:	6432 2525 2020 3020 2578 3830 2078 3025     2d%%   0x%08x %0
    73f0:	6433 000a 6974 656d 0072 0000 2d25 2e2a     3d..timer...%-*.
    7400:	2073 7020 7265 6f69 6964 2063 2020 6974     s  periodic   ti
    7410:	656d 756f 2074 2020 2020 2020 6c66 6761     meout       flag
    7420:	000a 0000 2d20 2d2d 2d2d 2d2d 2d2d 202d     .... ---------- 
    7430:	2d2d 2d2d 2d2d 2d2d 2d2d 2d20 2d2d 2d2d     ---------- -----
    7440:	2d2d 2d2d 2d2d 000a 2d25 2e2a 732a 3020     ------..%-*.*s 0
    7450:	2578 3830 2078 7830 3025 7838 0020 0000     x%08x 0x%08x ...
    7460:	6361 6974 6176 6574 0a64 0000 6564 6361     activated...deac
    7470:	6974 6176 6574 0a64 0000 0000 7563 7272     tivated.....curr
    7480:	6e65 2074 6974 6b63 303a 2578 3830 0a78     ent tick:0x%08x.
    7490:	0000 0000 7325 0000 002f 0000               ....%s../...

0000749c <__fsym___cmd_free_name>:
    749c:	5f5f 6d63 5f64 7266 6565 0000               __cmd_free..

000074a8 <__fsym___cmd_help_name>:
    74a8:	5f5f 6d63 5f64 6568 706c 0000               __cmd_help..

000074b4 <__fsym___cmd_ps_name>:
    74b4:	5f5f 6d63 5f64 7370 0000 0000 6f54 206f     __cmd_ps....Too 
    74c4:	616d 796e 6120 6772 2073 2021 6557 6f20     many args ! We o
    74d4:	6c6e 2079 7355 3a65 000a 0000 7325 203a     nly Use:....%s: 
    74e4:	6f63 6d6d 6e61 2064 6f6e 2074 6f66 6e75     command not foun
    74f4:	2e64 000a 5452 542d 7268 6165 2064 6873     d...RT-Thread sh
    7504:	6c65 206c 6f63 6d6d 6e61 7364 0a3a 0000     ell commands:...
    7514:	5f5f 6d63 5f64 0000 7325 0020 6f6e 6d20     __cmd_..%s .no m
    7524:	6d65 726f 2079 6f66 2072 6873 6c65 0a6c     emory for shell.
    7534:	0000 0000 7374 6568 6c6c 0000 6873 7872     ....tshell..shrx
    7544:	0000 0000 0008 0000 6325 0000 7325 7325     ........%c..%s%s
    7554:	0000 0000 2508 2073 0820 0000 2008 0008     .....%s  .... ..
    7564:	6175 7472 6d5f 0062 6e49 7469 4f20 214b     uart_mb.Init OK!
    7574:	0000 0000 6964 7073 616c 0079 656c 7466     ....display.left
    7584:	665f 6f72 746e 3d20 2520 3530 0064 0000     _front = %05d...
    7594:	6972 6867 5f74 6572 7261 3d20 2520 3530     right_rear = %05
    75a4:	0064 0000 6974 656d 3172 0000 202c 7566     d...timer1.., fu
    75b4:	636e 6974 6e6f 203a 0000 0000 7361 6573     nction: ....asse
    75c4:	7472 6f69 206e 2522 2273 6620 6961 656c     rtion "%s" faile
    75d4:	3a64 6620 6c69 2065 2522 2273 202c 696c     d: file "%s", li
    75e4:	656e 2520 2564 2573 0a73 0000 2d23 2b30     ne %d%s%s...#-0+
    75f4:	0020 0000 6c68 004c 6665 4567 4746 0000      ...hlL.efgEFG..
    7604:	3130 3332 3534 3736 3938 4241 4443 4645     0123456789ABCDEF
    7614:	0000 0000 3130 3332 3534 3736 3938 6261     ....0123456789ab
    7624:	6463 6665 0000 0000                         cdef....

0000762c <__sf_fake_stderr>:
	...

0000764c <__sf_fake_stdin>:
	...

0000766c <__sf_fake_stdout>:
	...
